TN:
SF:/usr/include/c++/9/bits/stl_iterator.h
DA:806,1896
DA:811,0
DA:815,0
DA:819,0
DA:827,0
DA:829,0
DA:830,0
DA:859,0
DA:860,0
DA:871,0
DA:893,0
DA:896,0
DA:907,0
DA:910,0
DA:989,0
DA:992,0
DA:1010,0
DA:1012,0
end_of_record
SF:/usr/include/c++/9/bits/ptr_traits.h
DA:146,12340
DA:147,12340
end_of_record
SF:/usr/include/c++/9/bits/basic_string.tcc
FN:206,_ZNSt7__cxx1112basic_stringIcSt11char_traitsIcESaIcEE12_M_constructIPcEEvT_S7_St20forward_iterator_tag
FNDA:3380,_ZNSt7__cxx1112basic_stringIcSt11char_traitsIcESaIcEE12_M_constructIPcEEvT_S7_St20forward_iterator_tag
FN:206,_ZNSt7__cxx1112basic_stringIcSt11char_traitsIcESaIcEE12_M_constructIPKcEEvT_S8_St20forward_iterator_tag
FNDA:0,_ZNSt7__cxx1112basic_stringIcSt11char_traitsIcESaIcEE12_M_constructIPKcEEvT_S8_St20forward_iterator_tag
FN:1158,_ZStplIcSt11char_traitsIcESaIcEENSt7__cxx1112basic_stringIT_T0_T1_EEPKS5_RKS8_
FNDA:0,_ZStplIcSt11char_traitsIcESaIcEENSt7__cxx1112basic_stringIT_T0_T1_EEPKS5_RKS8_
DA:206,3380
DA:211,3380
DA:212,0
DA:215,3380
DA:217,3380
DA:219,0
DA:220,0
DA:225,3380
DA:232,3380
DA:233,3380
DA:206,0
DA:211,0
DA:212,0
DA:215,0
DA:217,0
DA:219,0
DA:220,0
DA:225,0
DA:232,0
DA:233,0
DA:1158,0
DA:1164,0
DA:1165,0
DA:1166,0
DA:1167,0
DA:1168,0
DA:1169,0
end_of_record
SF:/workspace/vtr-verilog-to-routing/libs/librtlnumber/src/include/rtl_utils.hpp
FN:47,_Z12_assert_WerrbPKciNSt7__cxx1112basic_stringIcSt11char_traitsIcESaIcEEE
FNDA:0,_Z12_assert_WerrbPKciNSt7__cxx1112basic_stringIcSt11char_traitsIcESaIcEEE
DA:47,0
DA:48,0
DA:49,0
DA:50,0
DA:51,0
DA:52,0
DA:54,0
end_of_record
SF:/usr/include/c++/9/bits/stl_construct.h
DA:74,0
DA:75,0
DA:117,3792
DA:127,3792
DA:137,3792
DA:203,0
DA:206,3792
end_of_record
SF:/usr/include/c++/9/ext/type_traits.h
DA:152,3380
end_of_record
SF:/usr/include/c++/9/iostream
end_of_record
SF:/usr/include/c++/9/bits/stl_algobase.h
DA:198,0
DA:222,0
DA:227,0
DA:228,0
DA:280,0
DA:289,0
DA:290,0
DA:295,0
DA:375,0
DA:384,0
DA:385,0
DA:386,0
DA:387,0
DA:393,0
DA:398,0
DA:404,0
DA:438,0
DA:440,0
DA:465,0
DA:474,0
end_of_record
SF:/usr/include/c++/9/bits/stl_vector.h
FN:1753,_ZNKSt6vectorIN8BitSpace9BitFieldsItEESaIS2_EE12_M_check_lenEmPKc
FNDA:0,_ZNKSt6vectorIN8BitSpace9BitFieldsItEESaIS2_EE12_M_check_lenEmPKc
DA:94,1896
DA:95,1896
DA:106,1896
DA:108,1896
DA:109,1896
DA:110,1896
DA:114,1896
DA:118,1896
DA:119,1896
DA:120,1896
DA:121,1896
DA:125,3792
DA:128,1896
DA:130,1896
DA:133,1896
DA:134,1896
DA:273,0
DA:274,0
DA:277,1896
DA:278,1896
DA:281,1896
DA:282,1896
DA:285,1896
DA:290,1896
DA:291,1896
DA:330,3792
DA:332,5688
DA:333,3792
DA:334,3792
DA:347,3792
DA:350,0
DA:351,3792
DA:453,0
DA:462,0
DA:466,0
DA:484,1896
DA:494,1896
DA:495,1896
DA:675,3792
DA:677,3792
DA:678,3792
DA:680,5688
DA:706,1896
DA:708,1896
DA:711,1896
DA:808,0
DA:809,0
DA:817,0
DA:818,0
DA:826,1896
DA:827,1896
DA:835,0
DA:836,0
DA:915,0
DA:916,0
DA:920,0
DA:921,0
DA:995,0
DA:997,0
DA:1040,0
DA:1043,0
DA:1200,1896
DA:1201,1896
DA:1505,0
DA:1508,0
DA:1511,0
DA:1512,0
DA:1753,0
DA:1755,0
DA:1756,0
DA:1758,0
DA:1759,0
DA:1773,0
DA:1780,0
DA:1781,0
DA:1812,1896
DA:1814,1896
DA:1815,1896
DA:1816,1896
DA:1817,1896
end_of_record
SF:/usr/include/c++/9/bits/stl_algo.h
FN:112,_ZSt9__find_ifIN9__gnu_cxx17__normal_iteratorIPcNSt7__cxx1112basic_stringIcSt11char_traitsIcESaIcEEEEENS0_5__ops16_Iter_equals_valIKcEEET_SE_SE_T0_St26random_access_iterator_tag
FNDA:0,_ZSt9__find_ifIN9__gnu_cxx17__normal_iteratorIPcNSt7__cxx1112basic_stringIcSt11char_traitsIcESaIcEEEEENS0_5__ops16_Iter_equals_valIKcEEET_SE_SE_T0_St26random_access_iterator_tag
FN:860,_ZSt11__remove_ifIN9__gnu_cxx17__normal_iteratorIPcNSt7__cxx1112basic_stringIcSt11char_traitsIcESaIcEEEEENS0_5__ops16_Iter_equals_valIKcEEET_SE_SE_T0_
FNDA:0,_ZSt11__remove_ifIN9__gnu_cxx17__normal_iteratorIPcNSt7__cxx1112basic_stringIcSt11char_traitsIcESaIcEEEEENS0_5__ops16_Iter_equals_valIKcEEET_SE_SE_T0_
DA:112,0
DA:116,0
DA:118,0
DA:120,0
DA:121,0
DA:122,0
DA:124,0
DA:125,0
DA:126,0
DA:128,0
DA:129,0
DA:130,0
DA:132,0
DA:133,0
DA:134,0
DA:137,0
DA:139,0
DA:140,0
DA:141,0
DA:142,0
DA:143,0
DA:144,0
DA:145,0
DA:146,0
DA:147,0
DA:148,0
DA:149,0
DA:150,0
DA:151,0
DA:153,0
DA:159,0
DA:161,0
DA:860,0
DA:863,0
DA:864,0
DA:865,0
DA:866,0
DA:867,0
DA:868,0
DA:869,0
DA:871,0
DA:872,0
DA:874,0
DA:896,0
DA:906,0
end_of_record
SF:/workspace/vtr-verilog-to-routing/ODIN_II/SRC/ast_loop_unroll.cpp
FN:19,_Z15unroll_for_loopP10ast_node_tS0_PiP12sc_hierarchyb
FNDA:212,_Z15unroll_for_loopP10ast_node_tS0_PiP12sc_hierarchyb
FN:120,_Z11resolve_forP10ast_node_t
FNDA:212,_Z11resolve_forP10ast_node_t
FN:175,_Z21resolve_pre_conditionP10ast_node_tPS0_
FNDA:212,_Z21resolve_pre_conditionP10ast_node_tPS0_
FN:196,_Z24is_unsupported_conditionP10ast_node_tS0_
FNDA:272,_Z24is_unsupported_conditionP10ast_node_tS0_
FN:212,_Z17resolve_conditionP10ast_node_tS0_Pi
FNDA:242,_Z17resolve_conditionP10ast_node_tS0_Pi
FN:239,_ZZ17resolve_conditionP10ast_node_tS0_PiENKUllE_clEl
FNDA:18,_ZZ17resolve_conditionP10ast_node_tS0_PiENKUllE_clEl
FN:249,_ZZ17resolve_conditionP10ast_node_tS0_PiENKUllE0_clEl
FNDA:48,_ZZ17resolve_conditionP10ast_node_tS0_PiENKUllE0_clEl
FN:256,_ZZ17resolve_conditionP10ast_node_tS0_PiENKUllE1_clEl
FNDA:18,_ZZ17resolve_conditionP10ast_node_tS0_PiENKUllE1_clEl
FN:264,_ZZ17resolve_conditionP10ast_node_tS0_PiENKUllE2_clEl.isra.0
FNDA:2162,_ZZ17resolve_conditionP10ast_node_tS0_PiENKUllE2_clEl.isra.0
FN:289,_Z19is_unsupported_postP10ast_node_tS0_
FNDA:392,_Z19is_unsupported_postP10ast_node_tS0_
FN:293,_Z24resolve_binary_operationP10ast_node_t
FNDA:0,_Z24resolve_binary_operationP10ast_node_t
FN:307,_ZZ24resolve_binary_operationP10ast_node_tENKUllE1_clEl.isra.0
FNDA:2280,_ZZ24resolve_binary_operationP10ast_node_tENKUllE1_clEl.isra.0
FN:332,_Z22resolve_post_conditionP10ast_node_tS0_Pi
FNDA:212,_Z22resolve_post_conditionP10ast_node_tS0_Pi
FN:358,_Z17dup_and_fill_bodyP10ast_node_tS0_PS0_Pi
FNDA:61294,_Z17dup_and_fill_bodyP10ast_node_tS0_PS0_Pi
DA:19,212
DA:20,212
DA:22,212
DA:23,212
DA:25,212
DA:28,212
DA:29,212
DA:30,212
DA:31,212
DA:33,2108
DA:34,1896
DA:35,1896
DA:36,1896
DA:39,1896
DA:40,1116
DA:44,1116
DA:45,1116
DA:47,1116
DA:48,1116
DA:50,1116
DA:51,748
DA:52,748
DA:53,748
DA:56,1496
DA:57,748
DA:58,748
DA:59,748
DA:61,748
DA:62,748
DA:65,368
DA:66,736
DA:67,368
DA:68,368
DA:69,368
DA:73,1116
DA:74,1116
DA:75,780
DA:77,0
DA:78,0
DA:80,0
DA:81,0
DA:83,0
DA:84,0
DA:85,0
DA:88,0
DA:89,0
DA:90,0
DA:91,0
DA:93,0
DA:94,0
DA:97,0
DA:98,0
DA:102,212
DA:103,212
DA:105,212
DA:109,212
DA:110,86
DA:113,212
DA:114,212
DA:120,212
DA:121,424
DA:122,212
DA:123,212
DA:125,212
DA:126,212
DA:127,212
DA:128,212
DA:130,212
DA:131,212
DA:132,0
DA:135,212
DA:136,212
DA:137,212
DA:138,0
DA:141,424
DA:142,212
DA:143,0
DA:146,424
DA:147,2108
DA:148,1896
DA:149,1896
DA:150,0
DA:153,1896
DA:154,3792
DA:155,3792
DA:157,1896
DA:159,3792
DA:162,212
DA:163,424
DA:175,212
DA:183,212
DA:186,212
DA:187,212
DA:188,212
DA:196,272
DA:197,272
DA:199,272
DA:201,272
DA:203,272
DA:205,272
DA:212,242
DA:222,242
DA:223,0
DA:224,0
DA:226,242
DA:228,484
DA:229,242
DA:230,242
DA:231,242
DA:232,6
DA:233,6
DA:234,6
DA:235,0
DA:236,6
DA:237,6
DA:238,0
DA:239,24
DA:240,48
DA:241,6
DA:242,6
DA:243,6
DA:244,6
DA:245,0
DA:246,6
DA:247,6
DA:248,0
DA:249,54
DA:250,138
DA:251,6
DA:252,6
DA:253,6
DA:254,6
DA:255,242
DA:256,6
DA:257,18
DA:258,18
DA:259,12
DA:260,224
DA:261,224
DA:264,2162
DA:265,2162
DA:266,2092
DA:267,2092
DA:268,60
DA:269,60
DA:270,0
DA:271,0
DA:272,0
DA:273,0
DA:274,10
DA:275,10
DA:276,0
DA:277,0
DA:281,224
DA:289,392
DA:290,392
DA:293,4772
DA:294,0
DA:295,3984
DA:300,1992
DA:301,1992
DA:302,2780
DA:303,4368
DA:304,2184
DA:305,2184
DA:307,2876
DA:308,4560
DA:309,4560
DA:310,2280
DA:311,2088
DA:312,6264
DA:313,96
DA:314,288
DA:315,96
DA:316,288
DA:317,0
DA:318,0
DA:322,596
DA:332,212
DA:344,212
DA:346,212
DA:347,212
DA:350,212
DA:351,0
DA:352,0
DA:354,212
DA:355,212
DA:358,61294
DA:359,61294
DA:360,179614
DA:361,118320
DA:362,118320
DA:363,116992
DA:365,116992
DA:366,17972
DA:367,17044
DA:368,17044
DA:369,17044
DA:371,99020
DA:373,368
DA:374,368
DA:375,368
DA:377,368
DA:380,116992
DA:381,59398
DA:382,174718
DA:383,115688
DA:386,59030
DA:387,59030
DA:392,61294
end_of_record
SF:/usr/include/c++/9/bits/predefined_ops.h
DA:234,0
DA:240,0
DA:241,0
DA:246,0
DA:247,0
end_of_record
SF:/usr/include/c++/9/bits/move.h
DA:47,6434
DA:74,17116
DA:99,12552
DA:138,19392
DA:139,12340
DA:182,30
DA:193,30
DA:194,30
DA:195,30
end_of_record
SF:/usr/include/c++/9/bits/char_traits.h
DA:299,8350
DA:300,2002
DA:329,0
DA:335,0
DA:361,4346
DA:363,1378
DA:365,4346
end_of_record
SF:/usr/include/c++/9/ext/new_allocator.h
DA:80,6392
DA:83,8992
DA:89,9784
DA:119,1896
DA:128,1896
DA:132,0
DA:144,0
DA:147,0
DA:151,0
end_of_record
SF:/usr/include/c++/9/bits/basic_string.h
FN:6057,_ZStplIcSt11char_traitsIcESaIcEENSt7__cxx1112basic_stringIT_T0_T1_EERKS8_PKS5_
FNDA:748,_ZStplIcSt11char_traitsIcESaIcEENSt7__cxx1112basic_stringIT_T0_T1_EERKS8_PKS5_
FN:6085,_ZStplIcSt11char_traitsIcESaIcEENSt7__cxx1112basic_stringIT_T0_T1_EEOS8_RKS8_
FNDA:0,_ZStplIcSt11char_traitsIcESaIcEENSt7__cxx1112basic_stringIT_T0_T1_EEOS8_RKS8_
FN:6091,_ZStplIcSt11char_traitsIcESaIcEENSt7__cxx1112basic_stringIT_T0_T1_EERKS8_OS8_
FNDA:368,_ZStplIcSt11char_traitsIcESaIcEENSt7__cxx1112basic_stringIT_T0_T1_EERKS8_OS8_
FN:6097,_ZStplIcSt11char_traitsIcESaIcEENSt7__cxx1112basic_stringIT_T0_T1_EEOS8_S9_
FNDA:1116,_ZStplIcSt11char_traitsIcESaIcEENSt7__cxx1112basic_stringIT_T0_T1_EEOS8_S9_
FN:6109,_ZStplIcSt11char_traitsIcESaIcEENSt7__cxx1112basic_stringIT_T0_T1_EEPKS5_OS8_
FNDA:0,_ZStplIcSt11char_traitsIcESaIcEENSt7__cxx1112basic_stringIT_T0_T1_EEPKS5_OS8_
FN:6121,_ZStplIcSt11char_traitsIcESaIcEENSt7__cxx1112basic_stringIT_T0_T1_EEOS8_PKS5_
FNDA:1484,_ZStplIcSt11char_traitsIcESaIcEENSt7__cxx1112basic_stringIT_T0_T1_EEOS8_PKS5_
DA:150,8212
DA:156,3380
DA:157,3380
DA:159,748
DA:160,3716
DA:178,2968
DA:179,0
DA:182,6348
DA:183,6348
DA:186,25372
DA:190,10064
DA:193,1864
DA:200,12296
DA:203,12296
DA:210,0
DA:211,0
DA:214,6348
DA:216,6348
DA:217,0
DA:221,12296
DA:222,12296
DA:229,8212
DA:231,4128
DA:232,8212
DA:236,0
DA:237,0
DA:243,4128
DA:247,4128
DA:263,4128
DA:266,3380
DA:286,2968
DA:287,0
DA:290,748
DA:291,748
DA:346,3380
DA:348,3380
DA:349,2002
DA:351,3380
DA:392,3380
DA:393,3380
DA:396,0
DA:398,0
DA:431,0
DA:433,0
DA:434,0
DA:448,748
DA:450,0
DA:451,0
DA:540,0
DA:541,0
DA:542,0
DA:552,2968
DA:553,2968
DA:555,2968
DA:557,2968
DA:562,0
DA:563,0
DA:569,2968
DA:570,2968
DA:571,2968
DA:625,3380
DA:627,3380
DA:628,3380
DA:657,4128
DA:658,4128
DA:826,0
DA:827,0
DA:842,0
DA:843,0
DA:930,0
DA:936,748
DA:993,0
DA:995,1116
DA:1063,0
DA:1070,0
DA:1143,0
DA:1146,0
DA:1221,1116
DA:1222,0
DA:1639,368
DA:1641,368
DA:1864,0
DA:1867,0
DA:2300,1116
DA:2301,1116
DA:2312,0
DA:2313,0
DA:2393,0
DA:2396,0
DA:6057,748
DA:6060,748
DA:6061,748
DA:6062,748
DA:6085,0
DA:6087,0
DA:6091,368
DA:6093,368
DA:6097,1116
DA:6100,1116
DA:6101,2232
DA:6102,1116
DA:6103,0
DA:6104,1116
DA:6109,0
DA:6111,0
DA:6121,1484
DA:6123,1484
DA:6416,0
DA:6421,0
DA:6546,1484
DA:6547,1484
DA:6548,1116
DA:6557,1896
DA:6558,1896
DA:6559,1896
DA:6562,0
DA:6563,0
DA:6565,0
end_of_record
SF:/usr/include/c++/9/bits/cpp_type_traits.h
DA:428,0
end_of_record
SF:/usr/include/c++/9/bits/vector.tcc
FN:109,_ZNSt6vectorIN8BitSpace9BitFieldsItEESaIS2_EE12emplace_backIJS2_EEEvDpOT_
FNDA:1896,_ZNSt6vectorIN8BitSpace9BitFieldsItEESaIS2_EE12emplace_backIJS2_EEEvDpOT_
FN:198,_ZNSt6vectorIN8BitSpace9BitFieldsItEESaIS2_EEaSERKS4_
FNDA:0,_ZNSt6vectorIN8BitSpace9BitFieldsItEESaIS2_EEaSERKS4_
FN:426,_ZNSt6vectorIN8BitSpace9BitFieldsItEESaIS2_EE17_M_realloc_insertIJS2_EEEvN9__gnu_cxx17__normal_iteratorIPS2_S4_EEDpOT_
FNDA:0,_ZNSt6vectorIN8BitSpace9BitFieldsItEESaIS2_EE17_M_realloc_insertIJS2_EEEvN9__gnu_cxx17__normal_iteratorIPS2_S4_EEDpOT_
DA:109,1896
DA:112,1896
DA:115,0
DA:117,0
DA:121,1896
DA:125,1896
DA:198,0
DA:201,0
DA:223,0
DA:224,0
DA:226,0
DA:228,0
DA:229,0
DA:230,0
DA:231,0
DA:232,0
DA:233,0
DA:234,0
DA:236,0
DA:238,0
DA:239,0
DA:243,0
DA:245,0
DA:246,0
DA:248,0
DA:250,0
DA:252,0
DA:426,0
DA:435,0
DA:437,0
DA:438,0
DA:439,0
DA:440,0
DA:441,0
DA:449,0
DA:450,0
DA:456,0
DA:461,0
DA:462,0
DA:464,0
DA:466,0
DA:467,0
DA:500,0
DA:501,0
DA:502,0
DA:503,0
DA:504,0
DA:505,0
end_of_record
SF:/usr/include/c++/9/bits/allocator.h
DA:138,6392
DA:141,8992
DA:142,8992
DA:153,9784
end_of_record
SF:/workspace/vtr-verilog-to-routing/libs/librtlnumber/src/include/internal_bits.hpp
FN:308,_ZN8BitSpaceL13bits_to_hex_cEsb
FNDA:0,_ZN8BitSpaceL13bits_to_hex_cEsb
FN:352,_ZN8BitSpaceL8c_to_bitEc
FNDA:0,_ZN8BitSpaceL8c_to_bitEc
FN:454,_ZN8BitSpace11VerilogBitsC2Emh
FNDA:1896,_ZN8BitSpace11VerilogBitsC2Emh
FN:510,_ZN8BitSpace11VerilogBits12to_printableB5cxx11Ev
FNDA:0,_ZN8BitSpace11VerilogBits12to_printableB5cxx11Ev
FN:520,_ZN8BitSpace11VerilogBits4getcEv
FNDA:0,_ZN8BitSpace11VerilogBits4getcEv
FN:615,_ZN8BitSpace11VerilogBits6resizeEhm
FNDA:0,_ZN8BitSpace11VerilogBits6resizeEhm
FN:722,_ZN7VNumberC2EPS_
FNDA:0,_ZN7VNumberC2EPS_
FN:738,_ZN7VNumberC2El
FNDA:1896,_ZN7VNumberC2El
FN:751,_ZN7VNumber9get_valueEv
FNDA:0,_ZN7VNumber9get_valueEv
FN:777,_ZN7VNumber9to_stringB5cxx11Ebb
FNDA:0,_ZN7VNumber9to_stringB5cxx11Ebb
FN:792,_ZN7VNumber10to_UstringB5cxx11Eb
FNDA:0,_ZN7VNumber10to_UstringB5cxx11Eb
FN:807,_ZN7VNumber12to_log2radixB5cxx11Esbb
FNDA:0,_ZN7VNumber12to_log2radixB5cxx11Esbb
FN:832,_ZN7VNumber9to_base10B5cxx11Ebb
FNDA:0,_ZN7VNumber9to_base10B5cxx11Ebb
FN:857,_ZN7VNumber20to_verilog_bitstringB5cxx11Ev
FNDA:0,_ZN7VNumber20to_verilog_bitstringB5cxx11Ev
FN:864,_ZN7VNumber10to_vstringB5cxx11Ec
FNDA:0,_ZN7VNumber10to_vstringB5cxx11Ec
FN:902,_ZN7VNumber9set_valueERKNSt7__cxx1112basic_stringIcSt11char_traitsIcESaIcEEE
FNDA:0,_ZN7VNumber9set_valueERKNSt7__cxx1112basic_stringIcSt11char_traitsIcESaIcEEE
FN:996,_ZN7VNumber9set_valueEl
FNDA:1896,_ZN7VNumber9set_valueEl
FN:1007,_ZN7VNumber16get_bit_from_msbEm
FNDA:0,_ZN7VNumber16get_bit_from_msbEm
FN:1012,_ZN7VNumber16get_bit_from_lsbEm
FNDA:0,_ZN7VNumber16get_bit_from_lsbEm
DA:286,0
DA:287,0
DA:290,0
DA:291,0
DA:292,0
DA:293,0
DA:294,0
DA:295,0
DA:299,0
DA:300,0
DA:303,0
DA:304,0
DA:308,0
DA:309,0
DA:312,0
DA:313,0
DA:314,0
DA:315,0
DA:316,0
DA:317,0
DA:318,0
DA:319,0
DA:320,0
DA:321,0
DA:322,0
DA:323,0
DA:324,0
DA:325,0
DA:326,0
DA:327,0
DA:328,0
DA:329,0
DA:330,0
DA:331,0
DA:332,0
DA:333,0
DA:334,0
DA:335,0
DA:336,0
DA:337,0
DA:338,0
DA:339,0
DA:340,0
DA:341,0
DA:342,0
DA:343,0
DA:346,0
DA:349,0
DA:352,0
DA:353,0
DA:356,0
DA:357,0
DA:358,0
DA:359,0
DA:360,0
DA:361,0
DA:362,0
DA:363,0
DA:365,0
DA:367,0
DA:376,0
DA:377,0
DA:378,0
DA:379,0
DA:384,1896
DA:385,1896
DA:390,0
DA:391,0
DA:392,0
DA:394,0
DA:398,0
DA:399,0
DA:401,0
DA:402,0
DA:404,0
DA:405,0
DA:406,0
DA:408,0
DA:409,0
DA:416,0
DA:418,0
DA:419,0
DA:425,0
DA:435,0
DA:440,0
DA:441,0
DA:454,1896
DA:455,1896
DA:456,1896
DA:458,1896
DA:460,3792
DA:461,3792
DA:463,1896
DA:470,0
DA:471,0
DA:478,0
DA:486,0
DA:489,0
DA:497,0
DA:500,0
DA:507,0
DA:510,0
DA:511,0
DA:513,0
DA:514,0
DA:517,0
DA:520,0
DA:521,0
DA:522,0
DA:526,0
DA:527,0
DA:561,0
DA:562,0
DA:563,0
DA:615,0
DA:619,0
DA:620,0
DA:621,0
DA:623,0
DA:624,0
DA:625,0
DA:627,0
DA:628,0
DA:629,0
DA:635,0
DA:638,0
DA:640,0
DA:642,0
DA:643,0
DA:644,0
DA:647,0
DA:648,0
DA:649,0
DA:652,0
DA:674,3792
DA:722,0
DA:723,0
DA:724,0
DA:725,0
DA:726,0
DA:738,1896
DA:739,1896
DA:740,1896
DA:751,0
DA:752,0
DA:754,0
DA:757,0
DA:758,0
DA:759,0
DA:760,0
DA:763,0
DA:764,0
DA:766,0
DA:767,0
DA:768,0
DA:769,0
DA:771,0
DA:774,0
DA:777,0
DA:779,0
DA:780,0
DA:781,0
DA:782,0
DA:783,0
DA:785,0
DA:789,0
DA:792,0
DA:794,0
DA:795,0
DA:796,0
DA:797,0
DA:798,0
DA:800,0
DA:804,0
DA:807,0
DA:808,0
DA:811,0
DA:812,0
DA:813,0
DA:816,0
DA:818,0
DA:819,0
DA:820,0
DA:822,0
DA:829,0
DA:832,0
DA:833,0
DA:834,0
DA:835,0
DA:837,0
DA:839,0
DA:840,0
DA:841,0
DA:842,0
DA:843,0
DA:845,0
DA:847,0
DA:848,0
DA:850,0
DA:853,0
DA:857,0
DA:858,0
DA:859,0
DA:861,0
DA:864,0
DA:865,0
DA:866,0
DA:867,0
DA:868,0
DA:873,0
DA:874,0
DA:875,0
DA:876,0
DA:877,0
DA:878,0
DA:879,0
DA:880,0
DA:881,0
DA:882,0
DA:883,0
DA:884,0
DA:885,0
DA:886,0
DA:887,0
DA:888,0
DA:890,0
DA:891,0
DA:892,0
DA:894,0
DA:896,0
DA:902,0
DA:903,0
DA:904,0
DA:907,0
DA:912,0
DA:913,0
DA:914,0
DA:915,0
DA:918,0
DA:919,0
DA:922,0
DA:925,0
DA:926,0
DA:928,0
DA:929,0
DA:932,0
DA:933,0
DA:934,0
DA:936,0
DA:937,0
DA:938,0
DA:942,0
DA:943,0
DA:944,0
DA:945,0
DA:948,0
DA:949,0
DA:952,0
DA:953,0
DA:957,0
DA:958,0
DA:959,0
DA:960,0
DA:961,0
DA:962,0
DA:963,0
DA:964,0
DA:965,0
DA:966,0
DA:967,0
DA:969,0
DA:973,0
DA:974,0
DA:979,0
DA:981,0
DA:982,0
DA:983,0
DA:987,0
DA:988,0
DA:989,0
DA:990,0
DA:993,0
DA:996,1896
DA:997,1896
DA:998,1896
DA:1000,0
DA:1001,0
DA:1007,0
DA:1008,0
DA:1009,0
DA:1012,0
DA:1013,0
DA:1014,0
DA:1016,0
DA:1019,0
DA:1020,0
DA:1030,0
DA:1031,0
DA:1034,0
DA:1035,0
DA:1038,0
DA:1039,0
DA:1050,0
DA:1051,0
DA:1066,0
DA:1067,0
end_of_record
SF:/usr/include/c++/9/bits/stl_iterator_base_funcs.h
DA:98,3380
DA:104,3380
DA:138,3380
DA:141,3380
end_of_record
SF:/usr/include/c++/9/bits/alloc_traits.h
DA:469,1896
DA:470,1896
DA:482,0
DA:484,0
DA:495,0
DA:497,0
DA:505,0
DA:506,0
DA:514,748
DA:515,748
DA:545,1896
DA:546,1896
DA:553,1896
DA:557,1896
end_of_record
SF:/usr/include/c++/9/ext/string_conversions.h
FN:99,_ZN9__gnu_cxx12__to_xstringINSt7__cxx1112basic_stringIcSt11char_traitsIcESaIcEEEcEET_PFiPT0_mPKS8_P13__va_list_tagEmSB_z
FNDA:3380,_ZN9__gnu_cxx12__to_xstringINSt7__cxx1112basic_stringIcSt11char_traitsIcESaIcEEEcEET_PFiPT0_mPKS8_P13__va_list_tagEmSB_z
DA:99,3380
DA:105,3380
DA:109,3380
DA:111,3380
DA:113,3380
DA:115,3380
end_of_record
SF:/usr/include/c++/9/new
DA:173,5026
DA:174,5026
end_of_record
SF:/usr/include/x86_64-linux-gnu/bits/stdio2.h
DA:105,0
DA:107,0
end_of_record
SF:/workspace/vtr-verilog-to-routing/ODIN_II/SRC/include/ast_loop_unroll.h
DA:20,212
DA:21,212
DA:25,212
DA:26,212
end_of_record
SF:/usr/include/c++/9/bits/locale_facets.h
FN:872,_ZNKSt5ctypeIcE5widenEc
FNDA:0,_ZNKSt5ctypeIcE5widenEc
FN:1084,_ZNKSt5ctypeIcE8do_widenEc
FNDA:0,_ZNKSt5ctypeIcE8do_widenEc
DA:872,0
DA:874,0
DA:875,0
DA:876,0
DA:877,0
DA:1084,0
DA:1085,0
end_of_record
SF:/usr/include/c++/9/ext/alloc_traits.h
DA:97,748
DA:98,748
end_of_record
SF:/usr/include/c++/9/bits/stl_uninitialized.h
DA:76,0
DA:79,0
DA:82,0
DA:83,0
DA:115,0
DA:134,0
DA:140,0
DA:305,0
DA:307,0
DA:905,0
DA:912,0
DA:913,0
DA:949,0
DA:950,0
DA:964,0
end_of_record
SF:/usr/include/c++/9/bits/std_function.h
FN:196,_ZNSt14_Function_base13_Base_managerIZ24resolve_binary_operationP10ast_node_tEUllE1_E10_M_managerERSt9_Any_dataRKS5_St18_Manager_operation
FNDA:596,_ZNSt14_Function_base13_Base_managerIZ24resolve_binary_operationP10ast_node_tEUllE1_E10_M_managerERSt9_Any_dataRKS5_St18_Manager_operation
FN:196,_ZNSt14_Function_base13_Base_managerIZ24resolve_binary_operationP10ast_node_tEUllE0_E10_M_managerERSt9_Any_dataRKS5_St18_Manager_operation
FNDA:2184,_ZNSt14_Function_base13_Base_managerIZ24resolve_binary_operationP10ast_node_tEUllE0_E10_M_managerERSt9_Any_dataRKS5_St18_Manager_operation
FN:196,_ZNSt14_Function_base13_Base_managerIZ24resolve_binary_operationP10ast_node_tEUllE_E10_M_managerERSt9_Any_dataRKS5_St18_Manager_operation
FNDA:1992,_ZNSt14_Function_base13_Base_managerIZ24resolve_binary_operationP10ast_node_tEUllE_E10_M_managerERSt9_Any_dataRKS5_St18_Manager_operation
FN:196,_ZNSt14_Function_base13_Base_managerIZ17resolve_conditionP10ast_node_tS2_PiEUllE_E10_M_managerERSt9_Any_dataRKS6_St18_Manager_operation
FNDA:6,_ZNSt14_Function_base13_Base_managerIZ17resolve_conditionP10ast_node_tS2_PiEUllE_E10_M_managerERSt9_Any_dataRKS6_St18_Manager_operation
FN:196,_ZNSt14_Function_base13_Base_managerIZ17resolve_conditionP10ast_node_tS2_PiEUllE2_E10_M_managerERSt9_Any_dataRKS6_St18_Manager_operation
FNDA:284,_ZNSt14_Function_base13_Base_managerIZ17resolve_conditionP10ast_node_tS2_PiEUllE2_E10_M_managerERSt9_Any_dataRKS6_St18_Manager_operation
FN:196,_ZNSt14_Function_base13_Base_managerIZ17resolve_conditionP10ast_node_tS2_PiEUllE1_E10_M_managerERSt9_Any_dataRKS6_St18_Manager_operation
FNDA:6,_ZNSt14_Function_base13_Base_managerIZ17resolve_conditionP10ast_node_tS2_PiEUllE1_E10_M_managerERSt9_Any_dataRKS6_St18_Manager_operation
FN:196,_ZNSt14_Function_base13_Base_managerIZ17resolve_conditionP10ast_node_tS2_PiEUllE0_E10_M_managerERSt9_Any_dataRKS6_St18_Manager_operation
FNDA:6,_ZNSt14_Function_base13_Base_managerIZ17resolve_conditionP10ast_node_tS2_PiEUllE0_E10_M_managerERSt9_Any_dataRKS6_St18_Manager_operation
FN:283,_ZNSt17_Function_handlerIFllEZ24resolve_binary_operationP10ast_node_tEUllE1_E9_M_invokeERKSt9_Any_dataOl
FNDA:2280,_ZNSt17_Function_handlerIFllEZ24resolve_binary_operationP10ast_node_tEUllE1_E9_M_invokeERKSt9_Any_dataOl
FN:283,_ZNSt17_Function_handlerIFblEZ17resolve_conditionP10ast_node_tS2_PiEUllE_E9_M_invokeERKSt9_Any_dataOl
FNDA:18,_ZNSt17_Function_handlerIFblEZ17resolve_conditionP10ast_node_tS2_PiEUllE_E9_M_invokeERKSt9_Any_dataOl
FN:283,_ZNSt17_Function_handlerIFblEZ17resolve_conditionP10ast_node_tS2_PiEUllE0_E9_M_invokeERKSt9_Any_dataOl
FNDA:48,_ZNSt17_Function_handlerIFblEZ17resolve_conditionP10ast_node_tS2_PiEUllE0_E9_M_invokeERKSt9_Any_dataOl
FN:283,_ZNSt17_Function_handlerIFblEZ17resolve_conditionP10ast_node_tS2_PiEUllE1_E9_M_invokeERKSt9_Any_dataOl
FNDA:18,_ZNSt17_Function_handlerIFblEZ17resolve_conditionP10ast_node_tS2_PiEUllE1_E9_M_invokeERKSt9_Any_dataOl
FN:283,_ZNSt17_Function_handlerIFblEZ17resolve_conditionP10ast_node_tS2_PiEUllE2_E9_M_invokeERKSt9_Any_dataOl
FNDA:2162,_ZNSt17_Function_handlerIFblEZ17resolve_conditionP10ast_node_tS2_PiEUllE2_E9_M_invokeERKSt9_Any_dataOl
FN:283,_ZNSt17_Function_handlerIFllEZ24resolve_binary_operationP10ast_node_tEUllE_E9_M_invokeERKSt9_Any_dataOl
FNDA:1992,_ZNSt17_Function_handlerIFllEZ24resolve_binary_operationP10ast_node_tEUllE_E9_M_invokeERKSt9_Any_dataOl
FN:283,_ZNSt17_Function_handlerIFllEZ24resolve_binary_operationP10ast_node_tEUllE0_E9_M_invokeERKSt9_Any_dataOl
FNDA:2184,_ZNSt17_Function_handlerIFllEZ24resolve_binary_operationP10ast_node_tEUllE0_E9_M_invokeERKSt9_Any_dataOl
FN:480,_ZNSt8functionIFblEEaSEOS1_
FNDA:30,_ZNSt8functionIFblEEaSEOS1_
FN:653,_ZNSt8functionIFblEEC2ERKS1_
FNDA:30,_ZNSt8functionIFblEEC2ERKS1_
FN:667,_ZNSt8functionIFblEEC2IZ17resolve_conditionP10ast_node_tS4_PiEUllE1_vvEET_
FNDA:6,_ZNSt8functionIFblEEC2IZ17resolve_conditionP10ast_node_tS4_PiEUllE1_vvEET_
FN:667,_ZNSt8functionIFblEEC2IZ17resolve_conditionP10ast_node_tS4_PiEUllE0_vvEET_
FNDA:6,_ZNSt8functionIFblEEC2IZ17resolve_conditionP10ast_node_tS4_PiEUllE0_vvEET_
FN:667,_ZNSt8functionIFblEEC2IZ17resolve_conditionP10ast_node_tS4_PiEUllE_vvEET_
FNDA:6,_ZNSt8functionIFblEEC2IZ17resolve_conditionP10ast_node_tS4_PiEUllE_vvEET_
DA:87,10064
DA:88,8732
DA:92,5038
DA:93,5038
DA:97,8732
DA:98,10916
DA:151,8702
DA:155,8618
DA:156,8618
DA:159,84
DA:165,30
DA:167,2214
DA:168,30
DA:182,5026
DA:184,5026
DA:185,5026
DA:196,596
DA:199,596
DA:202,0
DA:203,0
DA:204,0
DA:206,0
DA:207,0
DA:208,0
DA:211,0
DA:215,596
DA:218,596
DA:196,2184
DA:199,2184
DA:202,0
DA:203,0
DA:204,0
DA:206,0
DA:207,0
DA:208,0
DA:215,2184
DA:218,2184
DA:196,1992
DA:199,1992
DA:202,0
DA:203,0
DA:204,0
DA:206,0
DA:207,0
DA:208,0
DA:211,0
DA:215,1992
DA:218,1992
DA:196,284
DA:199,284
DA:202,0
DA:203,0
DA:204,0
DA:206,0
DA:207,0
DA:208,0
DA:211,30
DA:215,254
DA:218,284
DA:196,6
DA:199,6
DA:202,0
DA:203,0
DA:204,0
DA:206,0
DA:207,0
DA:208,0
DA:210,0
DA:211,0
DA:214,6
DA:215,6
DA:216,6
DA:218,6
DA:196,6
DA:199,6
DA:202,0
DA:203,0
DA:204,0
DA:206,0
DA:207,0
DA:208,0
DA:210,0
DA:211,0
DA:214,6
DA:215,6
DA:216,6
DA:218,6
DA:196,6
DA:199,6
DA:202,0
DA:203,0
DA:204,0
DA:206,0
DA:207,0
DA:208,0
DA:210,0
DA:211,0
DA:214,6
DA:215,6
DA:216,6
DA:218,6
DA:222,5014
DA:223,5026
DA:242,5014
DA:247,4996
DA:248,4996
DA:251,12
DA:252,12
DA:255,5316
DA:257,5776
DA:258,0
DA:259,2746
DA:260,5014
DA:263,8732
DA:283,2280
DA:285,2280
DA:286,2280
DA:283,2184
DA:285,2184
DA:286,2184
DA:283,1992
DA:285,1992
DA:286,1992
DA:283,2162
DA:285,2162
DA:286,2162
DA:283,18
DA:285,18
DA:286,18
DA:283,48
DA:285,48
DA:286,48
DA:283,18
DA:285,18
DA:286,18
DA:369,7778
DA:403,242
DA:404,242
DA:423,30
DA:425,30
DA:480,30
DA:482,60
DA:483,30
DA:547,30
DA:549,30
DA:550,30
DA:551,30
DA:564,30
DA:565,30
DA:653,30
DA:655,0
DA:657,30
DA:659,30
DA:660,30
DA:661,30
DA:663,30
DA:667,6
DA:669,0
DA:673,6
DA:675,6
DA:676,6
DA:677,6
DA:679,6
DA:667,6
DA:669,0
DA:673,6
DA:675,6
DA:676,6
DA:677,6
DA:679,6
DA:667,6
DA:669,0
DA:673,6
DA:675,6
DA:676,6
DA:677,6
DA:679,6
DA:667,4996
DA:669,2184
DA:673,2812
DA:675,4996
DA:676,4996
DA:677,2812
DA:679,2184
DA:683,8702
DA:686,8702
DA:687,0
DA:688,8702
end_of_record
SF:/usr/include/c++/9/ostream
DA:108,0
DA:113,0
DA:565,0
DA:568,0
DA:570,0
DA:571,0
end_of_record
TN:
SF:/usr/include/c++/9/bits/stl_algobase.h
FN:337,_ZNSt11__copy_moveILb0ELb0ESt26random_access_iterator_tagE8__copy_mIPKbSt13_Bit_iteratorEET0_T_S7_S6_
FNDA:6013,_ZNSt11__copy_moveILb0ELb0ESt26random_access_iterator_tagE8__copy_mIPKbSt13_Bit_iteratorEET0_T_S7_S6_
DA:198,866158
DA:203,6013
DA:204,0
DA:222,437640
DA:227,437640
DA:228,75696
DA:280,144118
DA:290,153680
DA:295,0
DA:337,6013
DA:340,24052
DA:342,18039
DA:343,18039
DA:344,18039
DA:346,6013
DA:393,0
DA:398,153680
DA:404,153680
DA:438,0
DA:440,307360
DA:465,0
DA:474,307360
DA:562,0
DA:565,0
DA:566,0
DA:595,0
DA:600,0
DA:606,0
DA:613,0
DA:615,0
DA:676,0
DA:686,0
end_of_record
SF:/usr/include/c++/9/bits/stl_vector.h
FN:550,_ZNSt6vectorINSt7__cxx1112basic_stringIcSt11char_traitsIcESaIcEEESaIS5_EEC2ERKS7_
FNDA:90195,_ZNSt6vectorINSt7__cxx1112basic_stringIcSt11char_traitsIcESaIcEEESaIS5_EEC2ERKS7_
FN:622,_ZNSt6vectorINSt7__cxx1112basic_stringIcSt11char_traitsIcESaIcEEESaIS5_EEC2ESt16initializer_listIS5_ERKS6_
FNDA:90195,_ZNSt6vectorINSt7__cxx1112basic_stringIcSt11char_traitsIcESaIcEEESaIS5_EEC2ESt16initializer_listIS5_ERKS6_
FN:675,_ZNSt6vectorI18t_fc_specificationSaIS0_EED2Ev
FNDA:4132,_ZNSt6vectorI18t_fc_specificationSaIS0_EED2Ev
FN:675,_ZNSt6vectorINSt7__cxx1112basic_stringIcSt11char_traitsIcESaIcEEESaIS5_EED2Ev
FNDA:2295220,_ZNSt6vectorINSt7__cxx1112basic_stringIcSt11char_traitsIcESaIcEEESaIS5_EED2Ev
FN:675,_ZNSt6vectorI17t_switchblock_infSaIS0_EED2Ev
FNDA:6013,_ZNSt6vectorI17t_switchblock_infSaIS0_EED2Ev
FN:675,_ZNSt6vectorI13t_segment_infSaIS0_EED2Ev
FNDA:6013,_ZNSt6vectorI13t_segment_infSaIS0_EED2Ev
FN:675,_ZNSt6vectorI10t_grid_defSaIS0_EED2Ev
FNDA:6013,_ZNSt6vectorI10t_grid_defSaIS0_EED2Ev
FN:675,_ZNSt6vectorI20t_clock_network_archSaIS0_EED2Ev
FNDA:6013,_ZNSt6vectorI20t_clock_network_archSaIS0_EED2Ev
FN:675,_ZNSt6vectorI23t_clock_connection_archSaIS0_EED2Ev
FNDA:6013,_ZNSt6vectorI23t_clock_connection_archSaIS0_EED2Ev
FN:675,_ZNSt6vectorIN8argparse13ArgumentGroupESaIS1_EED2Ev
FNDA:6013,_ZNSt6vectorIN8argparse13ArgumentGroupESaIS1_EED2Ev
FN:675,_ZNSt6vectorISt4pairIN3vtr15interned_stringES_I16t_metadata_valueSaIS3_EEESaIS6_EED2Ev
FNDA:24404,_ZNSt6vectorISt4pairIN3vtr15interned_stringES_I16t_metadata_valueSaIS3_EEESaIS6_EED2Ev
FN:675,_ZNSt6vectorI14t_wireconn_infSaIS0_EED2Ev
FNDA:0,_ZNSt6vectorI14t_wireconn_infSaIS0_EED2Ev
FN:675,_ZNSt6vectorI14t_grid_loc_defSaIS0_EED2Ev
FNDA:4132,_ZNSt6vectorI14t_grid_loc_defSaIS0_EED2Ev
FN:675,_ZNSt6vectorISt10shared_ptrIN8argparse8ArgumentEESaIS3_EED2Ev
FNDA:48104,_ZNSt6vectorISt10shared_ptrIN8argparse8ArgumentEESaIS3_EED2Ev
FN:675,_ZNSt6vectorI19t_wire_switchpointsSaIS0_EED2Ev
FNDA:0,_ZNSt6vectorI19t_wire_switchpointsSaIS0_EED2Ev
FN:675,_ZNSt6vectorI20t_physical_tile_typeSaIS0_EED2Ev
FNDA:6013,_ZNSt6vectorI20t_physical_tile_typeSaIS0_EED2Ev
FN:675,_ZNSt6vectorI20t_logical_block_typeSaIS0_EED2Ev
FNDA:6013,_ZNSt6vectorI20t_logical_block_typeSaIS0_EED2Ev
FN:675,_ZNSt6vectorI7t_classSaIS0_EED2Ev
FNDA:4132,_ZNSt6vectorI7t_classSaIS0_EED2Ev
FN:675,_ZNSt6vectorI10t_sub_tileSaIS0_EED2Ev
FNDA:4132,_ZNSt6vectorI10t_sub_tileSaIS0_EED2Ev
FN:1184,_ZNSt6vectorIP9t_pb_typeSaIS1_EE9push_backERKS1_
FNDA:7982,_ZNSt6vectorIP9t_pb_typeSaIS1_EE9push_backERKS1_
FN:1505,_ZNSt6vectorINSt7__cxx1112basic_stringIcSt11char_traitsIcESaIcEEESaIS5_EE20_M_allocate_and_copyIPKS5_EEPS5_mT_SC_
FNDA:2904,_ZNSt6vectorINSt7__cxx1112basic_stringIcSt11char_traitsIcESaIcEEESaIS5_EE20_M_allocate_and_copyIPKS5_EEPS5_mT_SC_
FN:1505,_ZNSt6vectorINSt7__cxx1112basic_stringIcSt11char_traitsIcESaIcEEESaIS5_EE20_M_allocate_and_copyIN9__gnu_cxx17__normal_iteratorIPKS5_S7_EEEEPS5_mT_SF_
FNDA:93280,_ZNSt6vectorINSt7__cxx1112basic_stringIcSt11char_traitsIcESaIcEEESaIS5_EE20_M_allocate_and_copyIN9__gnu_cxx17__normal_iteratorIPKS5_S7_EEEEPS5_mT_SF_
FN:1753,_ZNKSt6vectorINSt7__cxx1112basic_stringIcSt11char_traitsIcESaIcEEESaIS5_EE12_M_check_lenEmPKc
FNDA:291359,_ZNKSt6vectorINSt7__cxx1112basic_stringIcSt11char_traitsIcESaIcEEESaIS5_EE12_M_check_lenEmPKc
FN:1753,_ZNKSt6vectorIP9t_pb_typeSaIS1_EE12_M_check_lenEmPKc
FNDA:7982,_ZNKSt6vectorIP9t_pb_typeSaIS1_EE12_M_check_lenEmPKc
FN:1753,_ZNKSt6vectorISt10shared_ptrIN8argparse8ArgumentEESaIS3_EE12_M_check_lenEmPKc
FNDA:132286,_ZNKSt6vectorISt10shared_ptrIN8argparse8ArgumentEESaIS3_EE12_M_check_lenEmPKc
DA:94,298769
DA:95,184522
DA:125,2436490
DA:128,118379
DA:130,4132
DA:133,180390
DA:134,180390
DA:273,434531
DA:274,524907
DA:277,953449
DA:278,953449
DA:285,118379
DA:290,90195
DA:291,90195
DA:300,90195
DA:301,90195
DA:302,90195
DA:330,2436490
DA:332,4872980
DA:333,2436490
DA:334,2436490
DA:347,2964300
DA:350,527811
DA:351,2424400
DA:356,90195
DA:358,180390
DA:359,90195
DA:360,90195
DA:450,280536
DA:453,2653110
DA:462,722986
DA:466,1502340
DA:484,118379
DA:550,90195
DA:552,90195
DA:554,90195
DA:555,180390
DA:557,90195
DA:558,90195
DA:622,90195
DA:624,90195
DA:626,90195
DA:628,90195
DA:675,0
DA:677,0
DA:678,0
DA:680,0
DA:675,2295220
DA:677,4590430
DA:678,2295220
DA:680,2295220
DA:675,6013
DA:677,12026
DA:678,6013
DA:680,6013
DA:675,6013
DA:677,12026
DA:678,6013
DA:680,6013
DA:675,6013
DA:677,12026
DA:678,6013
DA:680,6013
DA:675,6013
DA:677,12026
DA:678,6013
DA:680,6013
DA:675,6013
DA:677,12026
DA:678,6013
DA:680,6013
DA:675,6013
DA:677,12026
DA:678,6013
DA:680,6013
DA:675,24404
DA:677,48808
DA:678,24404
DA:680,24404
DA:675,4132
DA:677,8264
DA:678,4132
DA:680,4132
DA:675,4132
DA:677,8264
DA:678,4132
DA:680,4132
DA:675,48104
DA:677,96208
DA:678,48104
DA:680,48104
DA:675,0
DA:677,0
DA:678,0
DA:680,0
DA:675,6013
DA:677,12026
DA:678,6013
DA:680,6013
DA:675,6013
DA:677,12026
DA:678,6013
DA:680,6013
DA:675,4132
DA:677,8264
DA:678,4132
DA:680,4132
DA:675,4132
DA:677,8264
DA:678,4132
DA:680,4132
DA:675,4132
DA:677,4132
DA:678,4132
DA:680,8264
DA:727,2904
DA:729,2904
DA:808,451256
DA:809,451256
DA:817,403052
DA:818,403052
DA:826,159897
DA:827,313577
DA:835,403052
DA:836,340264
DA:881,11365
DA:882,11365
DA:890,0
DA:891,0
DA:915,6013
DA:916,337155
DA:920,863254
DA:921,1294880
DA:995,249864
DA:997,249864
DA:1004,216468
DA:1005,216468
DA:1040,204442
DA:1043,204442
DA:1184,7982
DA:1186,7982
DA:1189,0
DA:1191,0
DA:1195,7982
DA:1196,7982
DA:1200,204442
DA:1201,204442
DA:1290,11365
DA:1291,11365
DA:1495,0
DA:1496,0
DA:1505,2904
DA:1508,2904
DA:1511,5808
DA:1512,2904
DA:1513,2904
DA:1515,0
DA:1517,0
DA:1518,0
DA:1505,93280
DA:1508,93280
DA:1511,186560
DA:1512,93280
DA:1513,93280
DA:1515,0
DA:1517,0
DA:1518,0
DA:1753,132286
DA:1755,132286
DA:1756,0
DA:1758,132286
DA:1759,132286
DA:1753,291359
DA:1755,291359
DA:1756,0
DA:1758,291359
DA:1759,291359
DA:1753,7982
DA:1755,7982
DA:1756,0
DA:1758,7982
DA:1759,7982
DA:1764,2904
DA:1766,2904
DA:1767,0
DA:1773,866158
DA:1780,866158
DA:1781,866158
end_of_record
SF:/usr/include/c++/9/bits/stl_construct.h
DA:74,1130400
DA:75,565198
DA:97,0
DA:98,7486240
DA:105,0
DA:107,10168500
DA:108,7914830
DA:117,4132
DA:127,0
DA:137,0
DA:203,2528540
DA:206,2779630
end_of_record
SF:/usr/include/c++/9/bits/stl_iterator.h
DA:806,974947
DA:807,19629
DA:811,11365
DA:815,11365
DA:819,405358
DA:827,405358
DA:829,375891
DA:830,29467
DA:859,11365
DA:860,165045
DA:871,738201
DA:893,216468
DA:896,216468
DA:907,753886
DA:910,753886
DA:989,442992
DA:992,442992
DA:1012,307360
end_of_record
SF:/usr/include/c++/9/bits/cpp_type_traits.h
DA:428,0
end_of_record
SF:/usr/include/c++/9/bits/char_traits.h
DA:299,83452500
DA:300,4020170
DA:315,2760
DA:317,2760
DA:325,2760
DA:329,420
DA:335,420
DA:361,78480400
DA:363,77167900
DA:365,10216900
end_of_record
SF:/usr/include/c++/9/ext/new_allocator.h
FN:144,_ZN9__gnu_cxx13new_allocatorIN8argparse19SingleValueArgumentIfNS1_16DefaultConverterIfEEEEE9constructIS5_JRNS1_8ArgValueIfEERNSt7__cxx1112basic_stringIcSt11char_traitsIcESaIcEEESH_EEEvPT_DpOT0_
FNDA:6013,_ZN9__gnu_cxx13new_allocatorIN8argparse19SingleValueArgumentIfNS1_16DefaultConverterIfEEEEE9constructIS5_JRNS1_8ArgValueIfEERNSt7__cxx1112basic_stringIcSt11char_traitsIcESaIcEEESH_EEEvPT_DpOT0_
FN:144,_ZN9__gnu_cxx13new_allocatorIN8argparse19SingleValueArgumentIi17ParseInitRegStateEEE9constructIS4_JRNS1_8ArgValueIiEERNSt7__cxx1112basic_stringIcSt11char_traitsIcESaIcEEESG_EEEvPT_DpOT0_
FNDA:6013,_ZN9__gnu_cxx13new_allocatorIN8argparse19SingleValueArgumentIi17ParseInitRegStateEEE9constructIS4_JRNS1_8ArgValueIiEERNSt7__cxx1112basic_stringIcSt11char_traitsIcESaIcEEESG_EEEvPT_DpOT0_
FN:144,_ZN9__gnu_cxx13new_allocatorIN8argparse19SingleValueArgumentIdNS1_16DefaultConverterIdEEEEE9constructIS5_JRNS1_8ArgValueIdEERNSt7__cxx1112basic_stringIcSt11char_traitsIcESaIcEEESH_EEEvPT_DpOT0_
FNDA:6013,_ZN9__gnu_cxx13new_allocatorIN8argparse19SingleValueArgumentIdNS1_16DefaultConverterIdEEEEE9constructIS5_JRNS1_8ArgValueIdEERNSt7__cxx1112basic_stringIcSt11char_traitsIcESaIcEEESH_EEEvPT_DpOT0_
FN:144,_ZN9__gnu_cxx13new_allocatorIN8argparse19SingleValueArgumentIiNS1_16DefaultConverterIiEEEEE9constructIS5_JRNS1_8ArgValueIiEERNSt7__cxx1112basic_stringIcSt11char_traitsIcESaIcEEESH_EEEvPT_DpOT0_
FNDA:24052,_ZN9__gnu_cxx13new_allocatorIN8argparse19SingleValueArgumentIiNS1_16DefaultConverterIiEEEEE9constructIS5_JRNS1_8ArgValueIiEERNSt7__cxx1112basic_stringIcSt11char_traitsIcESaIcEEESH_EEEvPT_DpOT0_
FN:144,_ZN9__gnu_cxx13new_allocatorIN8argparse19SingleValueArgumentIbNS1_16DefaultConverterIbEEEEE9constructIS5_JRNS1_8ArgValueIbEERNSt7__cxx1112basic_stringIcSt11char_traitsIcESaIcEEESH_EEEvPT_DpOT0_
FNDA:84182,_ZN9__gnu_cxx13new_allocatorIN8argparse19SingleValueArgumentIbNS1_16DefaultConverterIbEEEEE9constructIS5_JRNS1_8ArgValueIbEERNSt7__cxx1112basic_stringIcSt11char_traitsIcESaIcEEESH_EEEvPT_DpOT0_
FN:144,_ZN9__gnu_cxx13new_allocatorIN8argparse18MultiValueArgumentISt6vectorINSt7__cxx1112basic_stringIcSt11char_traitsIcESaIcEEESaIS9_EENS1_16DefaultConverterIS9_EEEEE9constructISE_JRNS1_8ArgValueISB_EERS9_SK_EEEvPT_DpOT0_
FNDA:24052,_ZN9__gnu_cxx13new_allocatorIN8argparse18MultiValueArgumentISt6vectorINSt7__cxx1112basic_stringIcSt11char_traitsIcESaIcEEESaIS9_EENS1_16DefaultConverterIS9_EEEEE9constructISE_JRNS1_8ArgValueISB_EERS9_SK_EEEvPT_DpOT0_
FN:144,_ZN9__gnu_cxx13new_allocatorIN8argparse19SingleValueArgumentINSt7__cxx1112basic_stringIcSt11char_traitsIcESaIcEEENS1_16DefaultConverterIS8_EEEEE9constructISB_JRNS1_8ArgValueIS8_EERS8_SH_EEEvPT_DpOT0_
FNDA:54117,_ZN9__gnu_cxx13new_allocatorIN8argparse19SingleValueArgumentINSt7__cxx1112basic_stringIcSt11char_traitsIcESaIcEEENS1_16DefaultConverterIS8_EEEEE9constructISB_JRNS1_8ArgValueIS8_EERS8_SH_EEEvPT_DpOT0_
DA:80,1826800
DA:83,3503420
DA:89,12641200
DA:102,210455
DA:104,210455
DA:114,210455
DA:119,601467000
DA:128,601467000
DA:132,1076610
DA:144,6013
DA:147,18039
DA:144,6013
DA:147,18039
DA:144,6013
DA:147,18039
DA:144,24052
DA:147,72156
DA:144,84182
DA:147,264572
DA:144,24052
DA:147,72156
DA:144,54117
DA:147,162351
DA:144,1570650
DA:147,2928880
DA:151,598734000
DA:153,1271310
end_of_record
SF:/workspace/vtr-verilog-to-routing/libs/EXTERNAL/libargparse/src/argparse_default_converter.hpp
FN:41,_ZN8argparse16DefaultConverterIiE8from_strENSt7__cxx1112basic_stringIcSt11char_traitsIcESaIcEEE
FNDA:19089,_ZN8argparse16DefaultConverterIiE8from_strENSt7__cxx1112basic_stringIcSt11char_traitsIcESaIcEEE
FN:41,_ZN8argparse16DefaultConverterIdE8from_strENSt7__cxx1112basic_stringIcSt11char_traitsIcESaIcEEE
FNDA:12,_ZN8argparse16DefaultConverterIdE8from_strENSt7__cxx1112basic_stringIcSt11char_traitsIcESaIcEEE
FN:41,_ZN8argparse16DefaultConverterIfE8from_strENSt7__cxx1112basic_stringIcSt11char_traitsIcESaIcEEE
FNDA:6193,_ZN8argparse16DefaultConverterIfE8from_strENSt7__cxx1112basic_stringIcSt11char_traitsIcESaIcEEE
FN:93,_ZN8argparse16DefaultConverterIbE8from_strENSt7__cxx1112basic_stringIcSt11char_traitsIcESaIcEEE
FNDA:78169,_ZN8argparse16DefaultConverterIbE8from_strENSt7__cxx1112basic_stringIcSt11char_traitsIcESaIcEEE
FN:114,_ZN8argparse16DefaultConverterIbE15default_choicesB5cxx11Ev
FNDA:84182,_ZN8argparse16DefaultConverterIbE15default_choicesB5cxx11Ev
FN:125,_ZN8argparse16DefaultConverterINSt7__cxx1112basic_stringIcSt11char_traitsIcESaIcEEEE8from_strES6_
FNDA:83209,_ZN8argparse16DefaultConverterINSt7__cxx1112basic_stringIcSt11char_traitsIcESaIcEEEE8from_strES6_
DA:18,0
DA:28,0
DA:41,19089
DA:42,19089
DA:44,19089
DA:45,19089
DA:47,19089
DA:48,19089
DA:49,19089
DA:51,19089
DA:52,19089
DA:53,0
DA:54,0
DA:55,0
DA:56,0
DA:57,0
DA:59,0
DA:61,19089
DA:65,19089
DA:41,12
DA:42,12
DA:44,12
DA:45,12
DA:47,12
DA:48,12
DA:49,12
DA:51,12
DA:52,12
DA:53,0
DA:54,0
DA:55,0
DA:56,0
DA:57,0
DA:59,0
DA:61,12
DA:65,12
DA:41,6193
DA:42,6193
DA:44,6193
DA:45,6193
DA:47,6193
DA:48,6193
DA:49,6193
DA:51,6193
DA:52,6193
DA:53,0
DA:54,0
DA:55,0
DA:56,0
DA:57,0
DA:59,0
DA:61,6193
DA:65,6193
DA:84,36078
DA:93,78169
DA:94,78169
DA:96,156338
DA:97,156338
DA:98,66143
DA:99,24052
DA:100,12026
DA:102,0
DA:104,78169
DA:114,84182
DA:115,252546
DA:125,83209
DA:126,83209
DA:127,249627
DA:128,83209
DA:135,78169
end_of_record
SF:/usr/include/c++/9/streambuf
end_of_record
SF:/workspace/vtr-verilog-to-routing/libs/libvtrutil/src/vtr_ndmatrix.h
end_of_record
SF:/usr/include/c++/9/bits/alloc_traits.h
DA:443,210455
DA:444,210455
DA:469,601467000
DA:470,601467000
DA:482,1066870
DA:484,3133320
DA:495,598938000
DA:497,598938000
DA:505,866158
DA:506,866158
DA:514,90195
DA:515,1809900
end_of_record
SF:/usr/include/c++/9/bits/stl_tree.h
FN:1907,_ZNSt8_Rb_treeI14t_physical_pinSt4pairIKS0_13t_logical_pinESt10_Select1stIS4_ESt4lessIS0_ESaIS4_EE8_M_eraseEPSt13_Rb_tree_nodeIS4_E
FNDA:313514000,_ZNSt8_Rb_treeI14t_physical_pinSt4pairIKS0_13t_logical_pinESt10_Select1stIS4_ESt4lessIS0_ESaIS4_EE8_M_eraseEPSt13_Rb_tree_nodeIS4_E
FN:1907,_ZNSt8_Rb_treeI13t_logical_pinSt4pairIKS0_14t_physical_pinESt10_Select1stIS4_ESt4lessIS0_ESaIS4_EE8_M_eraseEPSt13_Rb_tree_nodeIS4_E
FNDA:313514000,_ZNSt8_Rb_treeI13t_logical_pinSt4pairIKS0_14t_physical_pinESt10_Select1stIS4_ESt4lessIS0_ESaIS4_EE8_M_eraseEPSt13_Rb_tree_nodeIS4_E
FN:1907,_ZNSt8_Rb_treeI18SB_Side_ConnectionSt4pairIKS0_St6vectorINSt7__cxx1112basic_stringIcSt11char_traitsIcESaIcEEESaIS9_EEESt10_Select1stISC_ESt4lessIS0_ESaISC_EE8_M_eraseEPSt13_Rb_tree_nodeISC_E
FNDA:0,_ZNSt8_Rb_treeI18SB_Side_ConnectionSt4pairIKS0_St6vectorINSt7__cxx1112basic_stringIcSt11char_traitsIcESaIcEEESaIS9_EEESt10_Select1stISC_ESt4lessIS0_ESaISC_EE8_M_eraseEPSt13_Rb_tree_nodeISC_E
DA:234,597667000
DA:235,597667000
DA:566,597667000
DA:567,597667000
DA:583,597667000
DA:584,597667000
DA:637,597667000
DA:642,597667000
DA:643,0
DA:648,597667000
DA:650,597667000
DA:651,597667000
DA:789,597667000
DA:797,597667000
DA:1907,313514000
DA:1911,612347000
DA:1913,298833000
DA:1914,298833000
DA:1915,298833000
DA:1916,298833000
DA:1918,313514000
DA:1907,313514000
DA:1911,612347000
DA:1913,298833000
DA:1914,298833000
DA:1915,298833000
DA:1916,298833000
DA:1918,313514000
DA:1907,0
DA:1911,0
DA:1913,0
DA:1914,0
DA:1915,0
DA:1916,0
DA:1918,0
end_of_record
SF:/workspace/vtr-verilog-to-routing/libs/EXTERNAL/libargparse/src/argparse.hpp
FN:269,_ZN8argparse8ArgumentD2Ev
FNDA:204442,_ZN8argparse8ArgumentD2Ev
FN:269,_ZN8argparse8ArgumentD0Ev
FNDA:0,_ZN8argparse8ArgumentD0Ev
FN:297,_ZN8argparse19SingleValueArgumentINSt7__cxx1112basic_stringIcSt11char_traitsIcESaIcEEENS_16DefaultConverterIS6_EEEC2ERNS_8ArgValueIS6_EES6_S6_
FNDA:54117,_ZN8argparse19SingleValueArgumentINSt7__cxx1112basic_stringIcSt11char_traitsIcESaIcEEENS_16DefaultConverterIS6_EEEC2ERNS_8ArgValueIS6_EES6_S6_
FN:297,_ZN8argparse19SingleValueArgumentIiNS_16DefaultConverterIiEEEC2ERNS_8ArgValueIiEENSt7__cxx1112basic_stringIcSt11char_traitsIcESaIcEEESC_
FNDA:24052,_ZN8argparse19SingleValueArgumentIiNS_16DefaultConverterIiEEEC2ERNS_8ArgValueIiEENSt7__cxx1112basic_stringIcSt11char_traitsIcESaIcEEESC_
FN:297,_ZN8argparse19SingleValueArgumentIdNS_16DefaultConverterIdEEEC2ERNS_8ArgValueIdEENSt7__cxx1112basic_stringIcSt11char_traitsIcESaIcEEESC_
FNDA:6013,_ZN8argparse19SingleValueArgumentIdNS_16DefaultConverterIdEEEC2ERNS_8ArgValueIdEENSt7__cxx1112basic_stringIcSt11char_traitsIcESaIcEEESC_
FN:297,_ZN8argparse19SingleValueArgumentIi17ParseInitRegStateEC2ERNS_8ArgValueIiEENSt7__cxx1112basic_stringIcSt11char_traitsIcESaIcEEESB_
FNDA:6013,_ZN8argparse19SingleValueArgumentIi17ParseInitRegStateEC2ERNS_8ArgValueIiEENSt7__cxx1112basic_stringIcSt11char_traitsIcESaIcEEESB_
FN:297,_ZN8argparse19SingleValueArgumentIfNS_16DefaultConverterIfEEEC2ERNS_8ArgValueIfEENSt7__cxx1112basic_stringIcSt11char_traitsIcESaIcEEESC_
FNDA:6013,_ZN8argparse19SingleValueArgumentIfNS_16DefaultConverterIfEEEC2ERNS_8ArgValueIfEENSt7__cxx1112basic_stringIcSt11char_traitsIcESaIcEEESC_
FN:302,_ZN8argparse19SingleValueArgumentIdNS_16DefaultConverterIdEEE19set_dest_to_defaultEv
FNDA:0,_ZN8argparse19SingleValueArgumentIdNS_16DefaultConverterIdEEE19set_dest_to_defaultEv
FN:302,_ZN8argparse19SingleValueArgumentINSt7__cxx1112basic_stringIcSt11char_traitsIcESaIcEEENS_16DefaultConverterIS6_EEE19set_dest_to_defaultEv
FNDA:18039,_ZN8argparse19SingleValueArgumentINSt7__cxx1112basic_stringIcSt11char_traitsIcESaIcEEENS_16DefaultConverterIS6_EEE19set_dest_to_defaultEv
FN:302,_ZN8argparse19SingleValueArgumentIfNS_16DefaultConverterIfEEE19set_dest_to_defaultEv
FNDA:6013,_ZN8argparse19SingleValueArgumentIfNS_16DefaultConverterIfEEE19set_dest_to_defaultEv
FN:302,_ZN8argparse19SingleValueArgumentIi17ParseInitRegStateE19set_dest_to_defaultEv
FNDA:6013,_ZN8argparse19SingleValueArgumentIi17ParseInitRegStateE19set_dest_to_defaultEv
FN:302,_ZN8argparse19SingleValueArgumentIiNS_16DefaultConverterIiEEE19set_dest_to_defaultEv
FNDA:18039,_ZN8argparse19SingleValueArgumentIiNS_16DefaultConverterIiEEE19set_dest_to_defaultEv
FN:308,_ZN8argparse19SingleValueArgumentIfNS_16DefaultConverterIfEEE17set_dest_to_valueENSt7__cxx1112basic_stringIcSt11char_traitsIcESaIcEEE
FNDA:90,_ZN8argparse19SingleValueArgumentIfNS_16DefaultConverterIfEEE17set_dest_to_valueENSt7__cxx1112basic_stringIcSt11char_traitsIcESaIcEEE
FN:308,_ZN8argparse19SingleValueArgumentIdNS_16DefaultConverterIdEEE17set_dest_to_valueENSt7__cxx1112basic_stringIcSt11char_traitsIcESaIcEEE
FNDA:6,_ZN8argparse19SingleValueArgumentIdNS_16DefaultConverterIdEEE17set_dest_to_valueENSt7__cxx1112basic_stringIcSt11char_traitsIcESaIcEEE
FN:308,_ZN8argparse19SingleValueArgumentIiNS_16DefaultConverterIiEEE17set_dest_to_valueENSt7__cxx1112basic_stringIcSt11char_traitsIcESaIcEEE
FNDA:525,_ZN8argparse19SingleValueArgumentIiNS_16DefaultConverterIiEEE17set_dest_to_valueENSt7__cxx1112basic_stringIcSt11char_traitsIcESaIcEEE
FN:308,_ZN8argparse19SingleValueArgumentIi17ParseInitRegStateE17set_dest_to_valueENSt7__cxx1112basic_stringIcSt11char_traitsIcESaIcEEE
FNDA:48,_ZN8argparse19SingleValueArgumentIi17ParseInitRegStateE17set_dest_to_valueENSt7__cxx1112basic_stringIcSt11char_traitsIcESaIcEEE
FN:308,_ZN8argparse19SingleValueArgumentINSt7__cxx1112basic_stringIcSt11char_traitsIcESaIcEEENS_16DefaultConverterIS6_EEE17set_dest_to_valueES6_
FNDA:21220,_ZN8argparse19SingleValueArgumentINSt7__cxx1112basic_stringIcSt11char_traitsIcESaIcEEENS_16DefaultConverterIS6_EEE17set_dest_to_valueES6_
FN:319,_ZN8argparse19SingleValueArgumentIdNS_16DefaultConverterIdEEE17add_value_to_destENSt7__cxx1112basic_stringIcSt11char_traitsIcESaIcEEE
FNDA:0,_ZN8argparse19SingleValueArgumentIdNS_16DefaultConverterIdEEE17add_value_to_destENSt7__cxx1112basic_stringIcSt11char_traitsIcESaIcEEE
FN:319,_ZN8argparse19SingleValueArgumentIfNS_16DefaultConverterIfEEE17add_value_to_destENSt7__cxx1112basic_stringIcSt11char_traitsIcESaIcEEE
FNDA:0,_ZN8argparse19SingleValueArgumentIfNS_16DefaultConverterIfEEE17add_value_to_destENSt7__cxx1112basic_stringIcSt11char_traitsIcESaIcEEE
FN:319,_ZN8argparse19SingleValueArgumentIi17ParseInitRegStateE17add_value_to_destENSt7__cxx1112basic_stringIcSt11char_traitsIcESaIcEEE
FNDA:0,_ZN8argparse19SingleValueArgumentIi17ParseInitRegStateE17add_value_to_destENSt7__cxx1112basic_stringIcSt11char_traitsIcESaIcEEE
FN:319,_ZN8argparse19SingleValueArgumentINSt7__cxx1112basic_stringIcSt11char_traitsIcESaIcEEENS_16DefaultConverterIS6_EEE17add_value_to_destES6_
FNDA:0,_ZN8argparse19SingleValueArgumentINSt7__cxx1112basic_stringIcSt11char_traitsIcESaIcEEENS_16DefaultConverterIS6_EEE17add_value_to_destES6_
FN:319,_ZN8argparse19SingleValueArgumentIiNS_16DefaultConverterIiEEE17add_value_to_destENSt7__cxx1112basic_stringIcSt11char_traitsIcESaIcEEE
FNDA:0,_ZN8argparse19SingleValueArgumentIiNS_16DefaultConverterIiEEE17add_value_to_destENSt7__cxx1112basic_stringIcSt11char_traitsIcESaIcEEE
FN:323,_ZN8argparse19SingleValueArgumentIfNS_16DefaultConverterIfEEE16set_dest_to_trueEv
FNDA:0,_ZN8argparse19SingleValueArgumentIfNS_16DefaultConverterIfEEE16set_dest_to_trueEv
FN:323,_ZN8argparse19SingleValueArgumentIi17ParseInitRegStateE16set_dest_to_trueEv
FNDA:0,_ZN8argparse19SingleValueArgumentIi17ParseInitRegStateE16set_dest_to_trueEv
FN:323,_ZN8argparse19SingleValueArgumentINSt7__cxx1112basic_stringIcSt11char_traitsIcESaIcEEENS_16DefaultConverterIS6_EEE16set_dest_to_trueEv
FNDA:0,_ZN8argparse19SingleValueArgumentINSt7__cxx1112basic_stringIcSt11char_traitsIcESaIcEEENS_16DefaultConverterIS6_EEE16set_dest_to_trueEv
FN:323,_ZN8argparse19SingleValueArgumentIdNS_16DefaultConverterIdEEE16set_dest_to_trueEv
FNDA:0,_ZN8argparse19SingleValueArgumentIdNS_16DefaultConverterIdEEE16set_dest_to_trueEv
FN:323,_ZN8argparse19SingleValueArgumentIiNS_16DefaultConverterIiEEE16set_dest_to_trueEv
FNDA:0,_ZN8argparse19SingleValueArgumentIiNS_16DefaultConverterIiEEE16set_dest_to_trueEv
FN:326,_ZN8argparse19SingleValueArgumentIdNS_16DefaultConverterIdEEE17set_dest_to_falseEv
FNDA:0,_ZN8argparse19SingleValueArgumentIdNS_16DefaultConverterIdEEE17set_dest_to_falseEv
FN:326,_ZN8argparse19SingleValueArgumentIiNS_16DefaultConverterIiEEE17set_dest_to_falseEv
FNDA:0,_ZN8argparse19SingleValueArgumentIiNS_16DefaultConverterIiEEE17set_dest_to_falseEv
FN:326,_ZN8argparse19SingleValueArgumentIi17ParseInitRegStateE17set_dest_to_falseEv
FNDA:0,_ZN8argparse19SingleValueArgumentIi17ParseInitRegStateE17set_dest_to_falseEv
FN:326,_ZN8argparse19SingleValueArgumentIfNS_16DefaultConverterIfEEE17set_dest_to_falseEv
FNDA:0,_ZN8argparse19SingleValueArgumentIfNS_16DefaultConverterIfEEE17set_dest_to_falseEv
FN:326,_ZN8argparse19SingleValueArgumentINSt7__cxx1112basic_stringIcSt11char_traitsIcESaIcEEENS_16DefaultConverterIS6_EEE17set_dest_to_falseEv
FNDA:0,_ZN8argparse19SingleValueArgumentINSt7__cxx1112basic_stringIcSt11char_traitsIcESaIcEEENS_16DefaultConverterIS6_EEE17set_dest_to_falseEv
FN:330,_ZN8argparse19SingleValueArgumentIi17ParseInitRegStateE12valid_actionEv
FNDA:0,_ZN8argparse19SingleValueArgumentIi17ParseInitRegStateE12valid_actionEv
FN:330,_ZN8argparse19SingleValueArgumentIfNS_16DefaultConverterIfEEE12valid_actionEv
FNDA:6013,_ZN8argparse19SingleValueArgumentIfNS_16DefaultConverterIfEEE12valid_actionEv
FN:330,_ZN8argparse19SingleValueArgumentIdNS_16DefaultConverterIdEEE12valid_actionEv
FNDA:0,_ZN8argparse19SingleValueArgumentIdNS_16DefaultConverterIdEEE12valid_actionEv
FN:330,_ZN8argparse19SingleValueArgumentINSt7__cxx1112basic_stringIcSt11char_traitsIcESaIcEEENS_16DefaultConverterIS6_EEE12valid_actionEv
FNDA:0,_ZN8argparse19SingleValueArgumentINSt7__cxx1112basic_stringIcSt11char_traitsIcESaIcEEENS_16DefaultConverterIS6_EEE12valid_actionEv
FN:330,_ZN8argparse19SingleValueArgumentIiNS_16DefaultConverterIiEEE12valid_actionEv
FNDA:6013,_ZN8argparse19SingleValueArgumentIiNS_16DefaultConverterIiEEE12valid_actionEv
FN:346,_ZN8argparse19SingleValueArgumentIdNS_16DefaultConverterIdEEE10reset_destEv
FNDA:0,_ZN8argparse19SingleValueArgumentIdNS_16DefaultConverterIdEEE10reset_destEv
FN:346,_ZN8argparse19SingleValueArgumentIiNS_16DefaultConverterIiEEE10reset_destEv
FNDA:0,_ZN8argparse19SingleValueArgumentIiNS_16DefaultConverterIiEEE10reset_destEv
FN:346,_ZN8argparse19SingleValueArgumentINSt7__cxx1112basic_stringIcSt11char_traitsIcESaIcEEENS_16DefaultConverterIS6_EEE10reset_destEv
FNDA:0,_ZN8argparse19SingleValueArgumentINSt7__cxx1112basic_stringIcSt11char_traitsIcESaIcEEENS_16DefaultConverterIS6_EEE10reset_destEv
FN:346,_ZN8argparse19SingleValueArgumentIfNS_16DefaultConverterIfEEE10reset_destEv
FNDA:0,_ZN8argparse19SingleValueArgumentIfNS_16DefaultConverterIfEEE10reset_destEv
FN:346,_ZN8argparse19SingleValueArgumentIi17ParseInitRegStateE10reset_destEv
FNDA:0,_ZN8argparse19SingleValueArgumentIi17ParseInitRegStateE10reset_destEv
FN:350,_ZN8argparse19SingleValueArgumentINSt7__cxx1112basic_stringIcSt11char_traitsIcESaIcEEENS_16DefaultConverterIS6_EEE14is_valid_valueES6_
FNDA:21220,_ZN8argparse19SingleValueArgumentINSt7__cxx1112basic_stringIcSt11char_traitsIcESaIcEEENS_16DefaultConverterIS6_EEE14is_valid_valueES6_
FN:350,_ZN8argparse19SingleValueArgumentIfNS_16DefaultConverterIfEEE14is_valid_valueENSt7__cxx1112basic_stringIcSt11char_traitsIcESaIcEEE
FNDA:90,_ZN8argparse19SingleValueArgumentIfNS_16DefaultConverterIfEEE14is_valid_valueENSt7__cxx1112basic_stringIcSt11char_traitsIcESaIcEEE
FN:350,_ZN8argparse19SingleValueArgumentIdNS_16DefaultConverterIdEEE14is_valid_valueENSt7__cxx1112basic_stringIcSt11char_traitsIcESaIcEEE
FNDA:6,_ZN8argparse19SingleValueArgumentIdNS_16DefaultConverterIdEEE14is_valid_valueENSt7__cxx1112basic_stringIcSt11char_traitsIcESaIcEEE
FN:350,_ZN8argparse19SingleValueArgumentIiNS_16DefaultConverterIiEEE14is_valid_valueENSt7__cxx1112basic_stringIcSt11char_traitsIcESaIcEEE
FNDA:525,_ZN8argparse19SingleValueArgumentIiNS_16DefaultConverterIiEEE14is_valid_valueENSt7__cxx1112basic_stringIcSt11char_traitsIcESaIcEEE
FN:350,_ZN8argparse19SingleValueArgumentIi17ParseInitRegStateE14is_valid_valueENSt7__cxx1112basic_stringIcSt11char_traitsIcESaIcEEE
FNDA:0,_ZN8argparse19SingleValueArgumentIi17ParseInitRegStateE14is_valid_valueENSt7__cxx1112basic_stringIcSt11char_traitsIcESaIcEEE
FN:367,_ZN8argparse19SingleValueArgumentIbNS_16DefaultConverterIbEEEC2ERNS_8ArgValueIbEENSt7__cxx1112basic_stringIcSt11char_traitsIcESaIcEEESC_
FNDA:84182,_ZN8argparse19SingleValueArgumentIbNS_16DefaultConverterIbEEEC2ERNS_8ArgValueIbEENSt7__cxx1112basic_stringIcSt11char_traitsIcESaIcEEESC_
FN:372,_ZN8argparse19SingleValueArgumentIbNS_16DefaultConverterIbEEE19set_dest_to_defaultEv
FNDA:0,_ZN8argparse19SingleValueArgumentIbNS_16DefaultConverterIbEEE19set_dest_to_defaultEv
FN:378,_ZN8argparse19SingleValueArgumentIbNS_16DefaultConverterIbEEE17add_value_to_destENSt7__cxx1112basic_stringIcSt11char_traitsIcESaIcEEE
FNDA:0,_ZN8argparse19SingleValueArgumentIbNS_16DefaultConverterIbEEE17add_value_to_destENSt7__cxx1112basic_stringIcSt11char_traitsIcESaIcEEE
FN:382,_ZN8argparse19SingleValueArgumentIbNS_16DefaultConverterIbEEE17set_dest_to_valueENSt7__cxx1112basic_stringIcSt11char_traitsIcESaIcEEE
FNDA:0,_ZN8argparse19SingleValueArgumentIbNS_16DefaultConverterIbEEE17set_dest_to_valueENSt7__cxx1112basic_stringIcSt11char_traitsIcESaIcEEE
FN:393,_ZN8argparse19SingleValueArgumentIbNS_16DefaultConverterIbEEE16set_dest_to_trueEv
FNDA:32,_ZN8argparse19SingleValueArgumentIbNS_16DefaultConverterIbEEE16set_dest_to_trueEv
FN:402,_ZN8argparse19SingleValueArgumentIbNS_16DefaultConverterIbEEE17set_dest_to_falseEv
FNDA:0,_ZN8argparse19SingleValueArgumentIbNS_16DefaultConverterIbEEE17set_dest_to_falseEv
FN:411,_ZN8argparse19SingleValueArgumentIbNS_16DefaultConverterIbEEE12valid_actionEv
FNDA:0,_ZN8argparse19SingleValueArgumentIbNS_16DefaultConverterIbEEE12valid_actionEv
FN:416,_ZN8argparse19SingleValueArgumentIbNS_16DefaultConverterIbEEE10reset_destEv
FNDA:0,_ZN8argparse19SingleValueArgumentIbNS_16DefaultConverterIbEEE10reset_destEv
FN:420,_ZN8argparse19SingleValueArgumentIbNS_16DefaultConverterIbEEE14is_valid_valueENSt7__cxx1112basic_stringIcSt11char_traitsIcESaIcEEE
FNDA:0,_ZN8argparse19SingleValueArgumentIbNS_16DefaultConverterIbEEE14is_valid_valueENSt7__cxx1112basic_stringIcSt11char_traitsIcESaIcEEE
FN:435,_ZN8argparse18MultiValueArgumentISt6vectorINSt7__cxx1112basic_stringIcSt11char_traitsIcESaIcEEESaIS7_EENS_16DefaultConverterIS7_EEEC2ERNS_8ArgValueIS9_EES7_S7_
FNDA:24052,_ZN8argparse18MultiValueArgumentISt6vectorINSt7__cxx1112basic_stringIcSt11char_traitsIcESaIcEEESaIS7_EENS_16DefaultConverterIS7_EEEC2ERNS_8ArgValueIS9_EES7_S7_
FN:441,_ZN8argparse18MultiValueArgumentISt6vectorINSt7__cxx1112basic_stringIcSt11char_traitsIcESaIcEEESaIS7_EENS_16DefaultConverterIS7_EEE19set_dest_to_defaultEv
FNDA:0,_ZN8argparse18MultiValueArgumentISt6vectorINSt7__cxx1112basic_stringIcSt11char_traitsIcESaIcEEESaIS7_EENS_16DefaultConverterIS7_EEE19set_dest_to_defaultEv
FN:452,_ZN8argparse18MultiValueArgumentISt6vectorINSt7__cxx1112basic_stringIcSt11char_traitsIcESaIcEEESaIS7_EENS_16DefaultConverterIS7_EEE17set_dest_to_valueES7_
FNDA:0,_ZN8argparse18MultiValueArgumentISt6vectorINSt7__cxx1112basic_stringIcSt11char_traitsIcESaIcEEESaIS7_EENS_16DefaultConverterIS7_EEE17set_dest_to_valueES7_
FN:456,_ZN8argparse18MultiValueArgumentISt6vectorINSt7__cxx1112basic_stringIcSt11char_traitsIcESaIcEEESaIS7_EENS_16DefaultConverterIS7_EEE17add_value_to_destES7_
FNDA:11365,_ZN8argparse18MultiValueArgumentISt6vectorINSt7__cxx1112basic_stringIcSt11char_traitsIcESaIcEEESaIS7_EENS_16DefaultConverterIS7_EEE17add_value_to_destES7_
FN:481,_ZN8argparse18MultiValueArgumentISt6vectorINSt7__cxx1112basic_stringIcSt11char_traitsIcESaIcEEESaIS7_EENS_16DefaultConverterIS7_EEE16set_dest_to_trueEv
FNDA:0,_ZN8argparse18MultiValueArgumentISt6vectorINSt7__cxx1112basic_stringIcSt11char_traitsIcESaIcEEESaIS7_EENS_16DefaultConverterIS7_EEE16set_dest_to_trueEv
FN:484,_ZN8argparse18MultiValueArgumentISt6vectorINSt7__cxx1112basic_stringIcSt11char_traitsIcESaIcEEESaIS7_EENS_16DefaultConverterIS7_EEE17set_dest_to_falseEv
FNDA:0,_ZN8argparse18MultiValueArgumentISt6vectorINSt7__cxx1112basic_stringIcSt11char_traitsIcESaIcEEESaIS7_EENS_16DefaultConverterIS7_EEE17set_dest_to_falseEv
FN:488,_ZN8argparse18MultiValueArgumentISt6vectorINSt7__cxx1112basic_stringIcSt11char_traitsIcESaIcEEESaIS7_EENS_16DefaultConverterIS7_EEE12valid_actionEv
FNDA:24052,_ZN8argparse18MultiValueArgumentISt6vectorINSt7__cxx1112basic_stringIcSt11char_traitsIcESaIcEEESaIS7_EENS_16DefaultConverterIS7_EEE12valid_actionEv
FN:496,_ZN8argparse18MultiValueArgumentISt6vectorINSt7__cxx1112basic_stringIcSt11char_traitsIcESaIcEEESaIS7_EENS_16DefaultConverterIS7_EEE10reset_destEv
FNDA:0,_ZN8argparse18MultiValueArgumentISt6vectorINSt7__cxx1112basic_stringIcSt11char_traitsIcESaIcEEESaIS7_EENS_16DefaultConverterIS7_EEE10reset_destEv
FN:500,_ZN8argparse18MultiValueArgumentISt6vectorINSt7__cxx1112basic_stringIcSt11char_traitsIcESaIcEEESaIS7_EENS_16DefaultConverterIS7_EEE14is_valid_valueES7_
FNDA:11365,_ZN8argparse18MultiValueArgumentISt6vectorINSt7__cxx1112basic_stringIcSt11char_traitsIcESaIcEEESaIS7_EENS_16DefaultConverterIS7_EEE14is_valid_valueES7_
DA:269,0
DA:269,577248
DA:297,6013
DA:299,18039
DA:300,6013
DA:297,6013
DA:299,18039
DA:300,6013
DA:297,6013
DA:299,18039
DA:300,6013
DA:297,24052
DA:299,72156
DA:300,24052
DA:297,54117
DA:299,162351
DA:300,54117
DA:302,18039
DA:303,18039
DA:304,36078
DA:305,36078
DA:306,18039
DA:302,18039
DA:303,36078
DA:304,36078
DA:305,36078
DA:306,18039
DA:302,0
DA:303,0
DA:304,0
DA:305,0
DA:306,0
DA:302,6013
DA:303,6013
DA:304,12026
DA:305,12026
DA:306,6013
DA:302,6013
DA:303,12026
DA:304,12026
DA:305,12026
DA:306,6013
DA:308,21220
DA:309,21220
DA:310,21220
DA:311,0
DA:314,21220
DA:315,42440
DA:316,42440
DA:317,21220
DA:308,525
DA:309,525
DA:310,525
DA:311,0
DA:314,1050
DA:315,1050
DA:316,1050
DA:317,525
DA:308,6
DA:309,6
DA:310,6
DA:311,0
DA:314,12
DA:315,12
DA:316,12
DA:317,6
DA:308,48
DA:309,48
DA:310,48
DA:311,0
DA:314,48
DA:315,96
DA:316,96
DA:317,48
DA:308,90
DA:309,90
DA:310,90
DA:311,0
DA:314,180
DA:315,180
DA:316,180
DA:317,90
DA:319,0
DA:320,0
DA:319,0
DA:320,0
DA:319,0
DA:320,0
DA:319,0
DA:320,0
DA:319,0
DA:320,0
DA:323,0
DA:324,0
DA:323,0
DA:324,0
DA:323,0
DA:324,0
DA:323,0
DA:324,0
DA:323,0
DA:324,0
DA:326,0
DA:327,0
DA:326,0
DA:327,0
DA:326,0
DA:327,0
DA:326,0
DA:327,0
DA:326,0
DA:327,0
DA:330,0
DA:332,0
DA:333,0
DA:334,0
DA:335,0
DA:336,0
DA:337,0
DA:338,0
DA:339,0
DA:340,0
DA:341,0
DA:343,0
DA:330,6013
DA:332,6013
DA:333,0
DA:334,0
DA:335,0
DA:336,6013
DA:337,0
DA:338,0
DA:339,0
DA:340,6013
DA:341,0
DA:343,6013
DA:330,0
DA:332,0
DA:333,0
DA:334,0
DA:335,0
DA:336,0
DA:337,0
DA:338,0
DA:339,0
DA:340,0
DA:341,0
DA:343,0
DA:330,0
DA:332,0
DA:333,0
DA:334,0
DA:335,0
DA:336,0
DA:337,0
DA:338,0
DA:339,0
DA:340,0
DA:341,0
DA:343,0
DA:330,6013
DA:332,6013
DA:333,0
DA:334,0
DA:335,0
DA:336,6013
DA:337,0
DA:338,0
DA:339,0
DA:340,6013
DA:341,0
DA:343,6013
DA:346,0
DA:347,0
DA:348,0
DA:346,0
DA:347,0
DA:348,0
DA:346,0
DA:347,0
DA:348,0
DA:346,0
DA:347,0
DA:348,0
DA:346,0
DA:347,0
DA:348,0
DA:350,21220
DA:351,63660
DA:353,21220
DA:356,63612
DA:350,525
DA:351,1575
DA:353,525
DA:356,1050
DA:350,6
DA:351,18
DA:353,6
DA:356,12
DA:350,0
DA:351,0
DA:353,0
DA:356,0
DA:350,90
DA:351,270
DA:353,90
DA:356,180
DA:367,84182
DA:369,252546
DA:370,84182
DA:372,0
DA:373,0
DA:374,0
DA:375,0
DA:376,0
DA:378,0
DA:379,0
DA:382,0
DA:383,0
DA:384,0
DA:385,0
DA:388,0
DA:389,0
DA:390,0
DA:391,0
DA:393,32
DA:394,32
DA:395,32
DA:397,32
DA:398,64
DA:399,92
DA:400,32
DA:402,0
DA:403,0
DA:404,0
DA:406,0
DA:407,0
DA:408,0
DA:409,0
DA:411,0
DA:413,0
DA:416,0
DA:417,0
DA:418,0
DA:420,0
DA:421,0
DA:423,0
DA:426,0
DA:435,24052
DA:437,72156
DA:438,24052
DA:441,0
DA:442,0
DA:443,0
DA:444,0
DA:445,0
DA:448,0
DA:449,0
DA:450,0
DA:452,0
DA:453,0
DA:456,11365
DA:457,11365
DA:458,14125
DA:459,0
DA:462,11365
DA:464,11365
DA:466,11365
DA:467,11365
DA:471,22730
DA:472,11365
DA:473,0
DA:475,11365
DA:477,22730
DA:478,31010
DA:479,11365
DA:481,0
DA:482,0
DA:484,0
DA:485,0
DA:488,24052
DA:490,24052
DA:491,0
DA:493,24052
DA:496,0
DA:497,0
DA:498,0
DA:500,11365
DA:501,34095
DA:503,11365
DA:506,25815
end_of_record
SF:/workspace/vtr-verilog-to-routing/libs/libvtrutil/src/vtr_string_interning.h
end_of_record
SF:/usr/include/c++/9/bits/stl_iterator_base_funcs.h
DA:98,79435200
DA:104,79435200
DA:138,79435200
DA:141,79435200
DA:174,0
DA:180,0
DA:181,0
DA:182,0
DA:183,0
DA:185,0
DA:202,0
DA:205,0
DA:206,0
end_of_record
SF:/workspace/vtr-verilog-to-routing/libs/libarchfpga/src/physical_types.h
DA:442,0
DA:507,0
DA:820,0
end_of_record
SF:/usr/include/c++/9/initializer_list
DA:71,99112
DA:75,99112
DA:79,99112
end_of_record
SF:/usr/include/c++/9/bits/range_access.h
DA:68,11365
DA:69,11365
end_of_record
SF:/workspace/vtr-verilog-to-routing/ODIN_II/SRC/odin_ii.cpp
FN:94,_ZL18synthesize_verilogv
FNDA:3109,_ZL18synthesize_verilogv
FN:210,_Z13start_odin_iiiPPc
FNDA:6013,_Z13start_odin_iiiPPc
FN:332,_Z17terminate_odin_iiP9netlist_t
FNDA:6013,_Z17terminate_odin_iiP9netlist_t
FN:344,_ZN17ParseInitRegState8from_strENSt7__cxx1112basic_stringIcSt11char_traitsIcESaIcEEE
FNDA:6061,_ZN17ParseInitRegState8from_strENSt7__cxx1112basic_stringIcSt11char_traitsIcESaIcEEE
FN:368,_ZN17ParseInitRegState15default_choicesB5cxx11Ev
FNDA:6013,_ZN17ParseInitRegState15default_choicesB5cxx11Ev
FN:376,_Z11get_optionsiPPc
FNDA:6013,_Z11get_optionsiPPc
FN:637,_Z18set_default_configv
FNDA:6013,_Z18set_default_configv
FN:669,_ZL17get_physical_lutsRSt6vectorIP9t_pb_typeSaIS1_EES1_
FNDA:155244,_ZL17get_physical_lutsRSt6vectorIP9t_pb_typeSaIS1_EES1_
FN:681,_ZL21set_physical_lut_sizev
FNDA:4132,_ZL21set_physical_lut_sizev
DA:94,3109
DA:95,3109
DA:97,3109
DA:98,3109
DA:100,3109
DA:103,3109
DA:104,3109
DA:106,3109
DA:108,3109
DA:111,3109
DA:112,3109
DA:113,3109
DA:120,3109
DA:121,0
DA:127,3109
DA:128,3109
DA:129,3109
DA:131,3103
DA:136,3103
DA:137,3103
DA:139,1564
DA:140,1564
DA:141,1564
DA:144,3103
DA:146,1564
DA:147,1564
DA:150,3103
DA:152,1005
DA:153,1005
DA:154,1005
DA:157,1005
DA:158,1005
DA:159,1005
DA:164,3103
DA:165,52
DA:168,3103
DA:169,3103
DA:170,3103
DA:173,3103
DA:179,3103
DA:181,3103
DA:182,3103
DA:184,3103
DA:186,3103
DA:187,3103
DA:188,3103
DA:189,3103
DA:191,3103
DA:193,3103
DA:196,3103
DA:198,6
DA:200,3109
DA:202,3109
DA:203,3109
DA:204,3109
DA:205,3109
DA:207,3109
DA:210,6013
DA:211,6013
DA:213,6013
DA:215,6013
DA:216,6013
DA:217,6013
DA:219,0
DA:220,0
DA:221,0
DA:223,6013
DA:224,6013
DA:226,6013
DA:229,6013
DA:231,12026
DA:233,0
DA:234,0
DA:235,0
DA:236,0
DA:237,0
DA:238,0
DA:242,6013
DA:243,84
DA:244,84
DA:245,84
DA:246,0
DA:247,0
DA:248,0
DA:253,6013
DA:254,4132
DA:255,4132
DA:257,4132
DA:258,4132
DA:259,4132
DA:260,4132
DA:261,0
DA:262,0
DA:263,0
DA:266,6013
DA:269,6013
DA:270,6194
DA:271,5459
DA:273,3109
DA:275,3109
DA:276,3109
DA:277,0
DA:278,0
DA:281,3109
DA:287,6013
DA:288,6013
DA:289,3109
DA:290,3109
DA:291,9122
DA:294,2904
DA:295,0
DA:296,0
DA:298,2904
DA:299,2904
DA:302,2904
DA:303,2904
DA:304,0
DA:305,0
DA:306,0
DA:311,2904
DA:312,5808
DA:313,2866
DA:314,2866
DA:316,2866
DA:319,6013
DA:321,6013
DA:322,6013
DA:323,6013
DA:324,6013
DA:325,6013
DA:326,6013
DA:327,6013
DA:328,6013
DA:329,6013
DA:332,6013
DA:333,6013
DA:336,6013
DA:337,6013
DA:338,6013
DA:340,6013
DA:344,6061
DA:345,6061
DA:347,6013
DA:349,6013
DA:351,0
DA:352,0
DA:353,0
DA:368,6013
DA:369,24052
DA:376,6013
DA:377,18039
DA:379,6013
DA:381,6013
DA:383,6013
DA:384,12026
DA:385,12026
DA:387,6013
DA:388,12026
DA:389,6013
DA:390,12026
DA:392,6013
DA:393,12026
DA:394,12026
DA:396,6013
DA:398,6013
DA:399,12026
DA:400,12026
DA:401,12026
DA:403,6013
DA:405,6013
DA:406,12026
DA:407,6013
DA:409,6013
DA:410,12026
DA:411,12026
DA:413,6013
DA:414,12026
DA:415,12026
DA:416,6013
DA:417,12026
DA:419,6013
DA:420,12026
DA:421,12026
DA:422,6013
DA:424,6013
DA:425,12026
DA:426,12026
DA:427,6013
DA:429,6013
DA:430,12026
DA:431,12026
DA:432,6013
DA:434,6013
DA:435,12026
DA:436,12026
DA:437,6013
DA:439,6013
DA:440,12026
DA:441,12026
DA:442,12026
DA:444,6013
DA:445,12026
DA:446,12026
DA:447,6013
DA:449,6013
DA:450,12026
DA:451,12026
DA:453,6013
DA:455,6013
DA:456,12026
DA:457,12026
DA:459,6013
DA:460,12026
DA:461,12026
DA:463,6013
DA:464,12026
DA:465,12026
DA:466,6013
DA:468,6013
DA:469,12026
DA:470,12026
DA:471,12026
DA:473,6013
DA:474,12026
DA:475,6013
DA:476,12026
DA:478,6013
DA:479,12026
DA:480,6013
DA:481,12026
DA:483,6013
DA:485,6013
DA:486,12026
DA:487,12026
DA:489,6013
DA:490,12026
DA:491,12026
DA:493,6013
DA:495,6013
DA:496,12026
DA:497,12026
DA:498,12026
DA:500,6013
DA:501,12026
DA:502,12026
DA:503,6013
DA:504,12026
DA:506,6013
DA:507,12026
DA:508,12026
DA:509,12026
DA:511,6013
DA:512,12026
DA:513,12026
DA:514,6013
DA:516,6013
DA:517,12026
DA:518,12026
DA:519,6013
DA:521,6013
DA:522,12026
DA:523,12026
DA:524,12026
DA:526,6013
DA:527,12026
DA:528,12026
DA:529,6013
DA:531,6013
DA:532,12026
DA:533,12026
DA:534,6013
DA:536,6013
DA:537,12026
DA:538,12026
DA:539,6013
DA:541,6013
DA:550,12026
DA:551,6013
DA:552,12026
DA:554,6013
DA:556,6013
DA:557,12026
DA:558,12026
DA:559,6013
DA:561,6013
DA:562,12026
DA:563,12026
DA:564,6013
DA:566,6013
DA:569,6013
DA:570,6013
DA:571,6013
DA:572,6013
DA:574,60
DA:575,60
DA:579,6013
DA:580,6013
DA:582,12026
DA:583,6017
DA:586,6013
DA:588,3085
DA:589,3085
DA:590,2928
DA:591,11616
DA:594,6013
DA:595,8216
DA:598,6013
DA:599,2
DA:602,6013
DA:603,2
DA:606,6013
DA:607,0
DA:610,6013
DA:611,0
DA:614,6013
DA:615,48
DA:618,6013
DA:619,12026
DA:622,6013
DA:623,0
DA:625,6013
DA:626,90
DA:627,90
DA:628,5923
DA:629,0
DA:630,0
DA:632,6013
DA:637,6013
DA:639,6013
DA:640,6013
DA:641,6013
DA:642,6013
DA:643,6013
DA:644,6013
DA:645,6013
DA:647,6013
DA:648,6013
DA:650,6013
DA:651,6013
DA:653,6013
DA:659,6013
DA:660,6013
DA:661,6013
DA:669,155244
DA:670,155244
DA:671,155244
DA:672,7982
DA:674,278198
DA:675,130936
DA:679,155244
DA:681,4132
DA:682,4132
DA:684,22532
DA:685,18400
DA:686,14268
DA:689,12114
DA:690,7982
DA:691,7982
DA:692,6030
DA:696,4132
end_of_record
SF:/usr/include/c++/9/bits/unordered_map.h
end_of_record
SF:/usr/include/c++/9/ostream
DA:565,0
DA:568,0
DA:570,0
DA:571,0
end_of_record
SF:/usr/include/c++/9/sstream
DA:831,0
DA:832,0
end_of_record
SF:/usr/include/c++/9/bits/stl_uninitialized.h
FN:76,_ZNSt20__uninitialized_copyILb0EE13__uninit_copyIN9__gnu_cxx17__normal_iteratorIPKNSt7__cxx1112basic_stringIcSt11char_traitsIcESaIcEEESt6vectorIS9_SaIS9_EEEEPS9_EET0_T_SI_SH_
FNDA:183475,_ZNSt20__uninitialized_copyILb0EE13__uninit_copyIN9__gnu_cxx17__normal_iteratorIPKNSt7__cxx1112basic_stringIcSt11char_traitsIcESaIcEEESt6vectorIS9_SaIS9_EEEEPS9_EET0_T_SI_SH_
FN:76,_ZNSt20__uninitialized_copyILb0EE13__uninit_copyIPKNSt7__cxx1112basic_stringIcSt11char_traitsIcESaIcEEEPS7_EET0_T_SC_SB_
FNDA:93099,_ZNSt20__uninitialized_copyILb0EE13__uninit_copyIPKNSt7__cxx1112basic_stringIcSt11char_traitsIcESaIcEEEPS7_EET0_T_SC_SB_
FN:76,_ZNSt20__uninitialized_copyILb0EE13__uninit_copyIPNSt7__cxx1112basic_stringIcSt11char_traitsIcESaIcEEES8_EET0_T_SA_S9_
FNDA:0,_ZNSt20__uninitialized_copyILb0EE13__uninit_copyIPNSt7__cxx1112basic_stringIcSt11char_traitsIcESaIcEEES8_EET0_T_SA_S9_
DA:76,183475
DA:79,183475
DA:82,559366
DA:83,751782
DA:84,183475
DA:86,0
DA:88,0
DA:89,0
DA:76,93099
DA:79,93099
DA:82,282406
DA:83,378614
DA:84,93099
DA:86,0
DA:88,0
DA:89,0
DA:76,0
DA:79,0
DA:82,0
DA:83,0
DA:84,0
DA:86,0
DA:88,0
DA:89,0
DA:115,186379
DA:134,186379
DA:140,186379
DA:305,186379
DA:307,186379
DA:905,1066870
DA:912,1066870
DA:913,1066870
DA:924,15964
DA:927,15964
DA:928,7982
DA:929,3850
DA:930,7982
DA:949,2716450
DA:950,2133740
DA:958,144118
DA:964,1502340
end_of_record
SF:/usr/include/c++/9/bits/hashtable_policy.h
DA:269,18
DA:1093,16158
DA:1108,9
DA:2017,16158
DA:2046,9
DA:2047,9
DA:2118,12026
DA:2120,12044
DA:2122,18
DA:2123,18
DA:2124,18
DA:2142,9
DA:2146,9
DA:2147,9
DA:2148,9
DA:2149,9
end_of_record
SF:/workspace/vtr-verilog-to-routing/libs/libvtrutil/src/vtr_flat_map.h
end_of_record
SF:/workspace/vtr-verilog-to-routing/libs/EXTERNAL/libargparse/src/argparse_util.tpp
FN:22,_ZN8argparse4joinISt6vectorINSt7__cxx1112basic_stringIcSt11char_traitsIcESaIcEEESaIS7_EEEES7_T_S7_
FNDA:0,_ZN8argparse4joinISt6vectorINSt7__cxx1112basic_stringIcSt11char_traitsIcESaIcEEESaIS7_EEEES7_T_S7_
DA:22,0
DA:23,0
DA:25,0
DA:26,0
DA:27,0
DA:28,0
DA:29,0
DA:32,0
end_of_record
SF:/usr/include/c++/9/bits/allocated_ptr.h
DA:52,204442
DA:53,408884
DA:70,408884
DA:73,408884
DA:78,204442
DA:80,204442
DA:85,204442
DA:95,204442
DA:97,204442
end_of_record
SF:/usr/include/c++/9/iostream
end_of_record
SF:/usr/include/c++/9/ext/type_traits.h
DA:152,79432300
end_of_record
SF:/usr/include/c++/9/bits/shared_ptr_base.h
FN:131,_ZNSt16_Sp_counted_baseILN9__gnu_cxx12_Lock_policyE2EE10_M_destroyEv
FNDA:0,_ZNSt16_Sp_counted_baseILN9__gnu_cxx12_Lock_policyE2EE10_M_destroyEv
FN:148,_ZNSt16_Sp_counted_baseILN9__gnu_cxx12_Lock_policyE2EE10_M_releaseEv
FNDA:204442,_ZNSt16_Sp_counted_baseILN9__gnu_cxx12_Lock_policyE2EE10_M_releaseEv
FN:404,_ZNSt15_Sp_counted_ptrIDnLN9__gnu_cxx12_Lock_policyE2EE10_M_disposeEv
FNDA:0,_ZNSt15_Sp_counted_ptrIDnLN9__gnu_cxx12_Lock_policyE2EE10_M_disposeEv
FN:552,_ZNSt23_Sp_counted_ptr_inplaceIN8argparse19SingleValueArgumentIiNS0_16DefaultConverterIiEEEESaIS4_ELN9__gnu_cxx12_Lock_policyE2EED2Ev
FNDA:0,_ZNSt23_Sp_counted_ptr_inplaceIN8argparse19SingleValueArgumentIiNS0_16DefaultConverterIiEEEESaIS4_ELN9__gnu_cxx12_Lock_policyE2EED2Ev
FN:552,_ZNSt23_Sp_counted_ptr_inplaceIN8argparse19SingleValueArgumentIiNS0_16DefaultConverterIiEEEESaIS4_ELN9__gnu_cxx12_Lock_policyE2EED0Ev
FNDA:0,_ZNSt23_Sp_counted_ptr_inplaceIN8argparse19SingleValueArgumentIiNS0_16DefaultConverterIiEEEESaIS4_ELN9__gnu_cxx12_Lock_policyE2EED0Ev
FN:552,_ZNSt23_Sp_counted_ptr_inplaceIN8argparse19SingleValueArgumentIdNS0_16DefaultConverterIdEEEESaIS4_ELN9__gnu_cxx12_Lock_policyE2EED0Ev
FNDA:0,_ZNSt23_Sp_counted_ptr_inplaceIN8argparse19SingleValueArgumentIdNS0_16DefaultConverterIdEEEESaIS4_ELN9__gnu_cxx12_Lock_policyE2EED0Ev
FN:552,_ZNSt23_Sp_counted_ptr_inplaceIN8argparse19SingleValueArgumentIdNS0_16DefaultConverterIdEEEESaIS4_ELN9__gnu_cxx12_Lock_policyE2EED2Ev
FNDA:0,_ZNSt23_Sp_counted_ptr_inplaceIN8argparse19SingleValueArgumentIdNS0_16DefaultConverterIdEEEESaIS4_ELN9__gnu_cxx12_Lock_policyE2EED2Ev
FN:552,_ZNSt23_Sp_counted_ptr_inplaceIN8argparse19SingleValueArgumentIbNS0_16DefaultConverterIbEEEESaIS4_ELN9__gnu_cxx12_Lock_policyE2EED2Ev
FNDA:0,_ZNSt23_Sp_counted_ptr_inplaceIN8argparse19SingleValueArgumentIbNS0_16DefaultConverterIbEEEESaIS4_ELN9__gnu_cxx12_Lock_policyE2EED2Ev
FN:552,_ZNSt23_Sp_counted_ptr_inplaceIN8argparse19SingleValueArgumentIbNS0_16DefaultConverterIbEEEESaIS4_ELN9__gnu_cxx12_Lock_policyE2EED0Ev
FNDA:0,_ZNSt23_Sp_counted_ptr_inplaceIN8argparse19SingleValueArgumentIbNS0_16DefaultConverterIbEEEESaIS4_ELN9__gnu_cxx12_Lock_policyE2EED0Ev
FN:552,_ZNSt23_Sp_counted_ptr_inplaceIN8argparse19SingleValueArgumentIi17ParseInitRegStateEESaIS3_ELN9__gnu_cxx12_Lock_policyE2EED0Ev
FNDA:0,_ZNSt23_Sp_counted_ptr_inplaceIN8argparse19SingleValueArgumentIi17ParseInitRegStateEESaIS3_ELN9__gnu_cxx12_Lock_policyE2EED0Ev
FN:552,_ZNSt23_Sp_counted_ptr_inplaceIN8argparse19SingleValueArgumentIi17ParseInitRegStateEESaIS3_ELN9__gnu_cxx12_Lock_policyE2EED2Ev
FNDA:0,_ZNSt23_Sp_counted_ptr_inplaceIN8argparse19SingleValueArgumentIi17ParseInitRegStateEESaIS3_ELN9__gnu_cxx12_Lock_policyE2EED2Ev
FN:552,_ZNSt23_Sp_counted_ptr_inplaceIN8argparse18MultiValueArgumentISt6vectorINSt7__cxx1112basic_stringIcSt11char_traitsIcESaIcEEESaIS8_EENS0_16DefaultConverterIS8_EEEESaISD_ELN9__gnu_cxx12_Lock_policyE2EED2Ev
FNDA:0,_ZNSt23_Sp_counted_ptr_inplaceIN8argparse18MultiValueArgumentISt6vectorINSt7__cxx1112basic_stringIcSt11char_traitsIcESaIcEEESaIS8_EENS0_16DefaultConverterIS8_EEEESaISD_ELN9__gnu_cxx12_Lock_policyE2EED2Ev
FN:552,_ZNSt23_Sp_counted_ptr_inplaceIN8argparse18MultiValueArgumentISt6vectorINSt7__cxx1112basic_stringIcSt11char_traitsIcESaIcEEESaIS8_EENS0_16DefaultConverterIS8_EEEESaISD_ELN9__gnu_cxx12_Lock_policyE2EED0Ev
FNDA:0,_ZNSt23_Sp_counted_ptr_inplaceIN8argparse18MultiValueArgumentISt6vectorINSt7__cxx1112basic_stringIcSt11char_traitsIcESaIcEEESaIS8_EENS0_16DefaultConverterIS8_EEEESaISD_ELN9__gnu_cxx12_Lock_policyE2EED0Ev
FN:552,_ZNSt23_Sp_counted_ptr_inplaceIN8argparse19SingleValueArgumentIfNS0_16DefaultConverterIfEEEESaIS4_ELN9__gnu_cxx12_Lock_policyE2EED0Ev
FNDA:0,_ZNSt23_Sp_counted_ptr_inplaceIN8argparse19SingleValueArgumentIfNS0_16DefaultConverterIfEEEESaIS4_ELN9__gnu_cxx12_Lock_policyE2EED0Ev
FN:552,_ZNSt23_Sp_counted_ptr_inplaceIN8argparse19SingleValueArgumentIfNS0_16DefaultConverterIfEEEESaIS4_ELN9__gnu_cxx12_Lock_policyE2EED2Ev
FNDA:0,_ZNSt23_Sp_counted_ptr_inplaceIN8argparse19SingleValueArgumentIfNS0_16DefaultConverterIfEEEESaIS4_ELN9__gnu_cxx12_Lock_policyE2EED2Ev
FN:552,_ZNSt23_Sp_counted_ptr_inplaceIN8argparse19SingleValueArgumentINSt7__cxx1112basic_stringIcSt11char_traitsIcESaIcEEENS0_16DefaultConverterIS7_EEEESaISA_ELN9__gnu_cxx12_Lock_policyE2EED2Ev
FNDA:0,_ZNSt23_Sp_counted_ptr_inplaceIN8argparse19SingleValueArgumentINSt7__cxx1112basic_stringIcSt11char_traitsIcESaIcEEENS0_16DefaultConverterIS7_EEEESaISA_ELN9__gnu_cxx12_Lock_policyE2EED2Ev
FN:552,_ZNSt23_Sp_counted_ptr_inplaceIN8argparse19SingleValueArgumentINSt7__cxx1112basic_stringIcSt11char_traitsIcESaIcEEENS0_16DefaultConverterIS7_EEEESaISA_ELN9__gnu_cxx12_Lock_policyE2EED0Ev
FNDA:0,_ZNSt23_Sp_counted_ptr_inplaceIN8argparse19SingleValueArgumentINSt7__cxx1112basic_stringIcSt11char_traitsIcESaIcEEENS0_16DefaultConverterIS7_EEEESaISA_ELN9__gnu_cxx12_Lock_policyE2EED0Ev
FN:555,_ZNSt23_Sp_counted_ptr_inplaceIN8argparse19SingleValueArgumentIfNS0_16DefaultConverterIfEEEESaIS4_ELN9__gnu_cxx12_Lock_policyE2EE10_M_disposeEv
FNDA:6013,_ZNSt23_Sp_counted_ptr_inplaceIN8argparse19SingleValueArgumentIfNS0_16DefaultConverterIfEEEESaIS4_ELN9__gnu_cxx12_Lock_policyE2EE10_M_disposeEv
FN:555,_ZNSt23_Sp_counted_ptr_inplaceIN8argparse19SingleValueArgumentIi17ParseInitRegStateEESaIS3_ELN9__gnu_cxx12_Lock_policyE2EE10_M_disposeEv
FNDA:6013,_ZNSt23_Sp_counted_ptr_inplaceIN8argparse19SingleValueArgumentIi17ParseInitRegStateEESaIS3_ELN9__gnu_cxx12_Lock_policyE2EE10_M_disposeEv
FN:555,_ZNSt23_Sp_counted_ptr_inplaceIN8argparse19SingleValueArgumentIdNS0_16DefaultConverterIdEEEESaIS4_ELN9__gnu_cxx12_Lock_policyE2EE10_M_disposeEv
FNDA:6013,_ZNSt23_Sp_counted_ptr_inplaceIN8argparse19SingleValueArgumentIdNS0_16DefaultConverterIdEEEESaIS4_ELN9__gnu_cxx12_Lock_policyE2EE10_M_disposeEv
FN:555,_ZNSt23_Sp_counted_ptr_inplaceIN8argparse19SingleValueArgumentINSt7__cxx1112basic_stringIcSt11char_traitsIcESaIcEEENS0_16DefaultConverterIS7_EEEESaISA_ELN9__gnu_cxx12_Lock_policyE2EE10_M_disposeEv
FNDA:54117,_ZNSt23_Sp_counted_ptr_inplaceIN8argparse19SingleValueArgumentINSt7__cxx1112basic_stringIcSt11char_traitsIcESaIcEEENS0_16DefaultConverterIS7_EEEESaISA_ELN9__gnu_cxx12_Lock_policyE2EE10_M_disposeEv
FN:555,_ZNSt23_Sp_counted_ptr_inplaceIN8argparse19SingleValueArgumentIiNS0_16DefaultConverterIiEEEESaIS4_ELN9__gnu_cxx12_Lock_policyE2EE10_M_disposeEv
FNDA:24052,_ZNSt23_Sp_counted_ptr_inplaceIN8argparse19SingleValueArgumentIiNS0_16DefaultConverterIiEEEESaIS4_ELN9__gnu_cxx12_Lock_policyE2EE10_M_disposeEv
FN:555,_ZNSt23_Sp_counted_ptr_inplaceIN8argparse18MultiValueArgumentISt6vectorINSt7__cxx1112basic_stringIcSt11char_traitsIcESaIcEEESaIS8_EENS0_16DefaultConverterIS8_EEEESaISD_ELN9__gnu_cxx12_Lock_policyE2EE10_M_disposeEv
FNDA:24052,_ZNSt23_Sp_counted_ptr_inplaceIN8argparse18MultiValueArgumentISt6vectorINSt7__cxx1112basic_stringIcSt11char_traitsIcESaIcEEESaIS8_EENS0_16DefaultConverterIS8_EEEESaISD_ELN9__gnu_cxx12_Lock_policyE2EE10_M_disposeEv
FN:555,_ZNSt23_Sp_counted_ptr_inplaceIN8argparse19SingleValueArgumentIbNS0_16DefaultConverterIbEEEESaIS4_ELN9__gnu_cxx12_Lock_policyE2EE10_M_disposeEv
FNDA:84182,_ZNSt23_Sp_counted_ptr_inplaceIN8argparse19SingleValueArgumentIbNS0_16DefaultConverterIbEEEESaIS4_ELN9__gnu_cxx12_Lock_policyE2EE10_M_disposeEv
FN:562,_ZNSt23_Sp_counted_ptr_inplaceIN8argparse19SingleValueArgumentIdNS0_16DefaultConverterIdEEEESaIS4_ELN9__gnu_cxx12_Lock_policyE2EE10_M_destroyEv
FNDA:6013,_ZNSt23_Sp_counted_ptr_inplaceIN8argparse19SingleValueArgumentIdNS0_16DefaultConverterIdEEEESaIS4_ELN9__gnu_cxx12_Lock_policyE2EE10_M_destroyEv
FN:562,_ZNSt23_Sp_counted_ptr_inplaceIN8argparse19SingleValueArgumentINSt7__cxx1112basic_stringIcSt11char_traitsIcESaIcEEENS0_16DefaultConverterIS7_EEEESaISA_ELN9__gnu_cxx12_Lock_policyE2EE10_M_destroyEv
FNDA:54117,_ZNSt23_Sp_counted_ptr_inplaceIN8argparse19SingleValueArgumentINSt7__cxx1112basic_stringIcSt11char_traitsIcESaIcEEENS0_16DefaultConverterIS7_EEEESaISA_ELN9__gnu_cxx12_Lock_policyE2EE10_M_destroyEv
FN:562,_ZNSt23_Sp_counted_ptr_inplaceIN8argparse18MultiValueArgumentISt6vectorINSt7__cxx1112basic_stringIcSt11char_traitsIcESaIcEEESaIS8_EENS0_16DefaultConverterIS8_EEEESaISD_ELN9__gnu_cxx12_Lock_policyE2EE10_M_destroyEv
FNDA:24052,_ZNSt23_Sp_counted_ptr_inplaceIN8argparse18MultiValueArgumentISt6vectorINSt7__cxx1112basic_stringIcSt11char_traitsIcESaIcEEESaIS8_EENS0_16DefaultConverterIS8_EEEESaISD_ELN9__gnu_cxx12_Lock_policyE2EE10_M_destroyEv
FN:562,_ZNSt23_Sp_counted_ptr_inplaceIN8argparse19SingleValueArgumentIfNS0_16DefaultConverterIfEEEESaIS4_ELN9__gnu_cxx12_Lock_policyE2EE10_M_destroyEv
FNDA:6013,_ZNSt23_Sp_counted_ptr_inplaceIN8argparse19SingleValueArgumentIfNS0_16DefaultConverterIfEEEESaIS4_ELN9__gnu_cxx12_Lock_policyE2EE10_M_destroyEv
FN:562,_ZNSt23_Sp_counted_ptr_inplaceIN8argparse19SingleValueArgumentIbNS0_16DefaultConverterIbEEEESaIS4_ELN9__gnu_cxx12_Lock_policyE2EE10_M_destroyEv
FNDA:84182,_ZNSt23_Sp_counted_ptr_inplaceIN8argparse19SingleValueArgumentIbNS0_16DefaultConverterIbEEEESaIS4_ELN9__gnu_cxx12_Lock_policyE2EE10_M_destroyEv
FN:562,_ZNSt23_Sp_counted_ptr_inplaceIN8argparse19SingleValueArgumentIi17ParseInitRegStateEESaIS3_ELN9__gnu_cxx12_Lock_policyE2EE10_M_destroyEv
FNDA:6013,_ZNSt23_Sp_counted_ptr_inplaceIN8argparse19SingleValueArgumentIi17ParseInitRegStateEESaIS3_ELN9__gnu_cxx12_Lock_policyE2EE10_M_destroyEv
FN:562,_ZNSt23_Sp_counted_ptr_inplaceIN8argparse19SingleValueArgumentIiNS0_16DefaultConverterIiEEEESaIS4_ELN9__gnu_cxx12_Lock_policyE2EE10_M_destroyEv
FNDA:24052,_ZNSt23_Sp_counted_ptr_inplaceIN8argparse19SingleValueArgumentIiNS0_16DefaultConverterIiEEEESaIS4_ELN9__gnu_cxx12_Lock_policyE2EE10_M_destroyEv
FN:575,_ZNSt23_Sp_counted_ptr_inplaceIN8argparse19SingleValueArgumentIiNS0_16DefaultConverterIiEEEESaIS4_ELN9__gnu_cxx12_Lock_policyE2EE14_M_get_deleterERKSt9type_info
FNDA:0,_ZNSt23_Sp_counted_ptr_inplaceIN8argparse19SingleValueArgumentIiNS0_16DefaultConverterIiEEEESaIS4_ELN9__gnu_cxx12_Lock_policyE2EE14_M_get_deleterERKSt9type_info
FN:575,_ZNSt23_Sp_counted_ptr_inplaceIN8argparse19SingleValueArgumentIfNS0_16DefaultConverterIfEEEESaIS4_ELN9__gnu_cxx12_Lock_policyE2EE14_M_get_deleterERKSt9type_info
FNDA:0,_ZNSt23_Sp_counted_ptr_inplaceIN8argparse19SingleValueArgumentIfNS0_16DefaultConverterIfEEEESaIS4_ELN9__gnu_cxx12_Lock_policyE2EE14_M_get_deleterERKSt9type_info
FN:575,_ZNSt23_Sp_counted_ptr_inplaceIN8argparse19SingleValueArgumentIbNS0_16DefaultConverterIbEEEESaIS4_ELN9__gnu_cxx12_Lock_policyE2EE14_M_get_deleterERKSt9type_info
FNDA:0,_ZNSt23_Sp_counted_ptr_inplaceIN8argparse19SingleValueArgumentIbNS0_16DefaultConverterIbEEEESaIS4_ELN9__gnu_cxx12_Lock_policyE2EE14_M_get_deleterERKSt9type_info
FN:575,_ZNSt23_Sp_counted_ptr_inplaceIN8argparse19SingleValueArgumentIi17ParseInitRegStateEESaIS3_ELN9__gnu_cxx12_Lock_policyE2EE14_M_get_deleterERKSt9type_info
FNDA:0,_ZNSt23_Sp_counted_ptr_inplaceIN8argparse19SingleValueArgumentIi17ParseInitRegStateEESaIS3_ELN9__gnu_cxx12_Lock_policyE2EE14_M_get_deleterERKSt9type_info
FN:575,_ZNSt23_Sp_counted_ptr_inplaceIN8argparse18MultiValueArgumentISt6vectorINSt7__cxx1112basic_stringIcSt11char_traitsIcESaIcEEESaIS8_EENS0_16DefaultConverterIS8_EEEESaISD_ELN9__gnu_cxx12_Lock_policyE2EE14_M_get_deleterERKSt9type_info
FNDA:0,_ZNSt23_Sp_counted_ptr_inplaceIN8argparse18MultiValueArgumentISt6vectorINSt7__cxx1112basic_stringIcSt11char_traitsIcESaIcEEESaIS8_EENS0_16DefaultConverterIS8_EEEESaISD_ELN9__gnu_cxx12_Lock_policyE2EE14_M_get_deleterERKSt9type_info
FN:575,_ZNSt23_Sp_counted_ptr_inplaceIN8argparse19SingleValueArgumentINSt7__cxx1112basic_stringIcSt11char_traitsIcESaIcEEENS0_16DefaultConverterIS7_EEEESaISA_ELN9__gnu_cxx12_Lock_policyE2EE14_M_get_deleterERKSt9type_info
FNDA:0,_ZNSt23_Sp_counted_ptr_inplaceIN8argparse19SingleValueArgumentINSt7__cxx1112basic_stringIcSt11char_traitsIcESaIcEEENS0_16DefaultConverterIS7_EEEESaISA_ELN9__gnu_cxx12_Lock_policyE2EE14_M_get_deleterERKSt9type_info
FN:575,_ZNSt23_Sp_counted_ptr_inplaceIN8argparse19SingleValueArgumentIdNS0_16DefaultConverterIdEEEESaIS4_ELN9__gnu_cxx12_Lock_policyE2EE14_M_get_deleterERKSt9type_info
FNDA:0,_ZNSt23_Sp_counted_ptr_inplaceIN8argparse19SingleValueArgumentIdNS0_16DefaultConverterIdEEEESaIS4_ELN9__gnu_cxx12_Lock_policyE2EE14_M_get_deleterERKSt9type_info
FN:672,_ZNSt14__shared_countILN9__gnu_cxx12_Lock_policyE2EEC2IN8argparse19SingleValueArgumentIfNS4_16DefaultConverterIfEEEESaIS8_EJRNS4_8ArgValueIfEERNSt7__cxx1112basic_stringIcSt11char_traitsIcESaIcEEESJ_EEERPT_St20_Sp_alloc_shared_tagIT0_EDpOT1_
FNDA:6013,_ZNSt14__shared_countILN9__gnu_cxx12_Lock_policyE2EEC2IN8argparse19SingleValueArgumentIfNS4_16DefaultConverterIfEEEESaIS8_EJRNS4_8ArgValueIfEERNSt7__cxx1112basic_stringIcSt11char_traitsIcESaIcEEESJ_EEERPT_St20_Sp_alloc_shared_tagIT0_EDpOT1_
FN:672,_ZNSt14__shared_countILN9__gnu_cxx12_Lock_policyE2EEC2IN8argparse19SingleValueArgumentIi17ParseInitRegStateEESaIS7_EJRNS4_8ArgValueIiEERNSt7__cxx1112basic_stringIcSt11char_traitsIcESaIcEEESI_EEERPT_St20_Sp_alloc_shared_tagIT0_EDpOT1_
FNDA:6013,_ZNSt14__shared_countILN9__gnu_cxx12_Lock_policyE2EEC2IN8argparse19SingleValueArgumentIi17ParseInitRegStateEESaIS7_EJRNS4_8ArgValueIiEERNSt7__cxx1112basic_stringIcSt11char_traitsIcESaIcEEESI_EEERPT_St20_Sp_alloc_shared_tagIT0_EDpOT1_
FN:672,_ZNSt14__shared_countILN9__gnu_cxx12_Lock_policyE2EEC2IN8argparse19SingleValueArgumentIdNS4_16DefaultConverterIdEEEESaIS8_EJRNS4_8ArgValueIdEERNSt7__cxx1112basic_stringIcSt11char_traitsIcESaIcEEESJ_EEERPT_St20_Sp_alloc_shared_tagIT0_EDpOT1_
FNDA:6013,_ZNSt14__shared_countILN9__gnu_cxx12_Lock_policyE2EEC2IN8argparse19SingleValueArgumentIdNS4_16DefaultConverterIdEEEESaIS8_EJRNS4_8ArgValueIdEERNSt7__cxx1112basic_stringIcSt11char_traitsIcESaIcEEESJ_EEERPT_St20_Sp_alloc_shared_tagIT0_EDpOT1_
FN:672,_ZNSt14__shared_countILN9__gnu_cxx12_Lock_policyE2EEC2IN8argparse19SingleValueArgumentIiNS4_16DefaultConverterIiEEEESaIS8_EJRNS4_8ArgValueIiEERNSt7__cxx1112basic_stringIcSt11char_traitsIcESaIcEEESJ_EEERPT_St20_Sp_alloc_shared_tagIT0_EDpOT1_
FNDA:24052,_ZNSt14__shared_countILN9__gnu_cxx12_Lock_policyE2EEC2IN8argparse19SingleValueArgumentIiNS4_16DefaultConverterIiEEEESaIS8_EJRNS4_8ArgValueIiEERNSt7__cxx1112basic_stringIcSt11char_traitsIcESaIcEEESJ_EEERPT_St20_Sp_alloc_shared_tagIT0_EDpOT1_
FN:672,_ZNSt14__shared_countILN9__gnu_cxx12_Lock_policyE2EEC2IN8argparse19SingleValueArgumentIbNS4_16DefaultConverterIbEEEESaIS8_EJRNS4_8ArgValueIbEERNSt7__cxx1112basic_stringIcSt11char_traitsIcESaIcEEESJ_EEERPT_St20_Sp_alloc_shared_tagIT0_EDpOT1_
FNDA:84182,_ZNSt14__shared_countILN9__gnu_cxx12_Lock_policyE2EEC2IN8argparse19SingleValueArgumentIbNS4_16DefaultConverterIbEEEESaIS8_EJRNS4_8ArgValueIbEERNSt7__cxx1112basic_stringIcSt11char_traitsIcESaIcEEESJ_EEERPT_St20_Sp_alloc_shared_tagIT0_EDpOT1_
FN:672,_ZNSt14__shared_countILN9__gnu_cxx12_Lock_policyE2EEC2IN8argparse18MultiValueArgumentISt6vectorINSt7__cxx1112basic_stringIcSt11char_traitsIcESaIcEEESaISC_EENS4_16DefaultConverterISC_EEEESaISH_EJRNS4_8ArgValueISE_EERSC_SM_EEERPT_St20_Sp_alloc_shared_tagIT0_EDpOT1_
FNDA:24052,_ZNSt14__shared_countILN9__gnu_cxx12_Lock_policyE2EEC2IN8argparse18MultiValueArgumentISt6vectorINSt7__cxx1112basic_stringIcSt11char_traitsIcESaIcEEESaISC_EENS4_16DefaultConverterISC_EEEESaISH_EJRNS4_8ArgValueISE_EERSC_SM_EEERPT_St20_Sp_alloc_shared_tagIT0_EDpOT1_
FN:672,_ZNSt14__shared_countILN9__gnu_cxx12_Lock_policyE2EEC2IN8argparse19SingleValueArgumentINSt7__cxx1112basic_stringIcSt11char_traitsIcESaIcEEENS4_16DefaultConverterISB_EEEESaISE_EJRNS4_8ArgValueISB_EERSB_SJ_EEERPT_St20_Sp_alloc_shared_tagIT0_EDpOT1_
FNDA:54117,_ZNSt14__shared_countILN9__gnu_cxx12_Lock_policyE2EEC2IN8argparse19SingleValueArgumentINSt7__cxx1112basic_stringIcSt11char_traitsIcESaIcEEENS4_16DefaultConverterISB_EEEESaISE_EJRNS4_8ArgValueISB_EERSB_SJ_EEERPT_St20_Sp_alloc_shared_tagIT0_EDpOT1_
DA:117,204442
DA:118,204442
DA:121,0
DA:131,0
DA:132,0
DA:148,204442
DA:152,408884
DA:155,204442
DA:167,408884
DA:171,204442
DA:174,204442
DA:404,0
DA:412,204442
DA:414,204442
DA:418,408884
DA:508,0
DA:510,0
DA:511,0
DA:526,204442
DA:531,204442
DA:533,408884
DA:543,204442
DA:544,204442
DA:548,408884
DA:550,204442
DA:552,0
DA:552,0
DA:552,0
DA:552,0
DA:552,0
DA:552,0
DA:552,0
DA:552,0
DA:552,0
DA:552,0
DA:552,0
DA:552,0
DA:552,0
DA:552,0
DA:552,204442
DA:555,54117
DA:557,54117
DA:558,54117
DA:555,24052
DA:557,24052
DA:558,24052
DA:555,84182
DA:557,84182
DA:558,84182
DA:555,24052
DA:557,24052
DA:558,24052
DA:555,6013
DA:557,6013
DA:558,6013
DA:555,6013
DA:557,6013
DA:558,6013
DA:555,6013
DA:557,6013
DA:558,6013
DA:562,54117
DA:564,54117
DA:565,54117
DA:566,54117
DA:567,54117
DA:562,24052
DA:564,24052
DA:565,24052
DA:566,24052
DA:567,24052
DA:562,84182
DA:564,84182
DA:565,84182
DA:566,84182
DA:567,84182
DA:562,24052
DA:564,24052
DA:565,24052
DA:566,24052
DA:567,24052
DA:562,6013
DA:564,6013
DA:565,6013
DA:566,6013
DA:567,6013
DA:562,6013
DA:564,6013
DA:565,6013
DA:566,6013
DA:567,6013
DA:562,6013
DA:564,6013
DA:565,6013
DA:566,6013
DA:567,6013
DA:575,0
DA:577,0
DA:583,0
DA:585,0
DA:590,0
DA:575,0
DA:577,0
DA:583,0
DA:585,0
DA:590,0
DA:575,0
DA:577,0
DA:583,0
DA:585,0
DA:590,0
DA:575,0
DA:577,0
DA:583,0
DA:585,0
DA:590,0
DA:575,0
DA:577,0
DA:583,0
DA:585,0
DA:590,0
DA:575,0
DA:577,0
DA:583,0
DA:585,0
DA:590,0
DA:575,0
DA:577,0
DA:583,0
DA:585,0
DA:590,0
DA:594,408884
DA:616,408884
DA:672,6013
DA:676,6013
DA:677,0
DA:678,6013
DA:679,12026
DA:680,6013
DA:681,6013
DA:682,6013
DA:683,6013
DA:684,6013
DA:672,6013
DA:676,6013
DA:677,0
DA:678,6013
DA:679,12026
DA:680,6013
DA:681,6013
DA:682,6013
DA:683,6013
DA:684,6013
DA:672,6013
DA:676,6013
DA:677,0
DA:678,6013
DA:679,12026
DA:680,6013
DA:681,6013
DA:682,6013
DA:683,6013
DA:684,6013
DA:672,24052
DA:676,24052
DA:677,0
DA:678,24052
DA:679,48104
DA:680,24052
DA:681,24052
DA:682,24052
DA:683,24052
DA:684,24052
DA:672,84182
DA:676,84182
DA:677,0
DA:678,84182
DA:679,168364
DA:680,84182
DA:681,84182
DA:682,84182
DA:683,84182
DA:684,84182
DA:672,24052
DA:676,24052
DA:677,0
DA:678,24052
DA:679,48104
DA:680,24052
DA:681,24052
DA:682,24052
DA:683,24052
DA:684,24052
DA:672,54117
DA:676,54117
DA:677,0
DA:678,54117
DA:679,108234
DA:680,54117
DA:681,54117
DA:682,54117
DA:683,54117
DA:684,54117
DA:727,613326
DA:729,613326
DA:730,204442
DA:756,408884
DA:758,408884
DA:759,408884
DA:760,408884
DA:1005,204442
DA:1008,204442
DA:1012,294637
DA:1015,294637
DA:1020,499079
DA:1021,499079
DA:1169,817768
DA:1176,204442
DA:1177,204442
DA:1179,204442
DA:1180,204442
DA:1184,204442
DA:1185,204442
DA:1187,204442
DA:1188,204442
DA:1309,499079
DA:1343,204442
DA:1344,204442
DA:1345,204442
DA:1388,204442
end_of_record
SF:/workspace/vtr-verilog-to-routing/libs/libvtrutil/src/vtr_bimap.h
end_of_record
SF:/workspace/vtr-verilog-to-routing/ODIN_II/SRC/include/MixingOptimization.hpp
FN:61,_ZN9MixingOptD0Ev
FNDA:0,_ZN9MixingOptD0Ev
FN:61,_ZN9MixingOptD2Ev
FNDA:0,_ZN9MixingOptD2Ev
DA:61,0
DA:61,0
end_of_record
SF:/usr/include/c++/9/bits/hashtable.h
FN:1348,_ZNSt10_HashtableIiSt4pairIKiN3vtr5bimapI13t_logical_pin14t_physical_pinSt3mapS6_EEESaIS8_ENSt8__detail10_Select1stESt8equal_toIiESt4hashIiENSA_18_Mod_range_hashingENSA_20_Default_ranged_hashENSA_20_Prime_rehash_policyENSA_17_Hashtable_traitsILb0ELb0ELb1EEEED2Ev
FNDA:0,_ZNSt10_HashtableIiSt4pairIKiN3vtr5bimapI13t_logical_pin14t_physical_pinSt3mapS6_EEESaIS8_ENSt8__detail10_Select1stESt8equal_toIiESt4hashIiENSA_18_Mod_range_hashingENSA_20_Default_ranged_hashENSA_20_Prime_rehash_policyENSA_17_Hashtable_traitsILb0ELb0ELb1EEEED2Ev
FN:1348,_ZNSt10_HashtableIiSt4pairIKiSt13unordered_mapIiN3vtr5bimapI13t_logical_pin14t_physical_pinSt3mapS7_EESt4hashIiESt8equal_toIiESaIS0_IS1_S8_EEEESaISG_ENSt8__detail10_Select1stESC_SA_NSI_18_Mod_range_hashingENSI_20_Default_ranged_hashENSI_20_Prime_rehash_policyENSI_17_Hashtable_traitsILb0ELb0ELb1EEEED2Ev
FNDA:4132,_ZNSt10_HashtableIiSt4pairIKiSt13unordered_mapIiN3vtr5bimapI13t_logical_pin14t_physical_pinSt3mapS7_EESt4hashIiESt8equal_toIiESaIS0_IS1_S8_EEEESaISG_ENSt8__detail10_Select1stESC_SA_NSI_18_Mod_range_hashingENSI_20_Default_ranged_hashENSI_20_Prime_rehash_policyENSI_17_Hashtable_traitsILb0ELb0ELb1EEEED2Ev
FN:1348,_ZNSt10_HashtableINSt7__cxx1112basic_stringIcSt11char_traitsIcESaIcEEESt4pairIKS5_13t_metal_layerESaIS9_ENSt8__detail10_Select1stESt8equal_toIS5_ESt4hashIS5_ENSB_18_Mod_range_hashingENSB_20_Default_ranged_hashENSB_20_Prime_rehash_policyENSB_17_Hashtable_traitsILb1ELb0ELb1EEEED2Ev
FNDA:6013,_ZNSt10_HashtableINSt7__cxx1112basic_stringIcSt11char_traitsIcESaIcEEESt4pairIKS5_13t_metal_layerESaIS9_ENSt8__detail10_Select1stESt8equal_toIS5_ESt4hashIS5_ENSB_18_Mod_range_hashingENSB_20_Default_ranged_hashENSB_20_Prime_rehash_policyENSB_17_Hashtable_traitsILb1ELb0ELb1EEEED2Ev
FN:1348,_ZNSt10_HashtableINSt7__cxx1112basic_stringIcSt11char_traitsIcESaIcEEESt4pairIKS5_N3vtr8StrongIdINS8_19interned_string_tagEiLin1EEEESaISC_ENSt8__detail10_Select1stESt8equal_toIS5_ESt4hashIS5_ENSE_18_Mod_range_hashingENSE_20_Default_ranged_hashENSE_20_Prime_rehash_policyENSE_17_Hashtable_traitsILb1ELb0ELb1EEEED2Ev
FNDA:6013,_ZNSt10_HashtableINSt7__cxx1112basic_stringIcSt11char_traitsIcESaIcEEESt4pairIKS5_N3vtr8StrongIdINS8_19interned_string_tagEiLin1EEEESaISC_ENSt8__detail10_Select1stESt8equal_toIS5_ESt4hashIS5_ENSE_18_Mod_range_hashingENSE_20_Default_ranged_hashENSE_20_Prime_rehash_policyENSE_17_Hashtable_traitsILb1ELb0ELb1EEEED2Ev
FN:2024,_ZNSt10_HashtableIiSt4pairIKiN3vtr5bimapI13t_logical_pin14t_physical_pinSt3mapS6_EEESaIS8_ENSt8__detail10_Select1stESt8equal_toIiESt4hashIiENSA_18_Mod_range_hashingENSA_20_Default_ranged_hashENSA_20_Prime_rehash_policyENSA_17_Hashtable_traitsILb0ELb0ELb1EEEE5clearEv
FNDA:0,_ZNSt10_HashtableIiSt4pairIKiN3vtr5bimapI13t_logical_pin14t_physical_pinSt3mapS6_EEESaIS8_ENSt8__detail10_Select1stESt8equal_toIiESt4hashIiENSA_18_Mod_range_hashingENSA_20_Default_ranged_hashENSA_20_Prime_rehash_policyENSA_17_Hashtable_traitsILb0ELb0ELb1EEEE5clearEv
FN:2024,_ZNSt10_HashtableIiSt4pairIKiSt13unordered_mapIiN3vtr5bimapI13t_logical_pin14t_physical_pinSt3mapS7_EESt4hashIiESt8equal_toIiESaIS0_IS1_S8_EEEESaISG_ENSt8__detail10_Select1stESC_SA_NSI_18_Mod_range_hashingENSI_20_Default_ranged_hashENSI_20_Prime_rehash_policyENSI_17_Hashtable_traitsILb0ELb0ELb1EEEE5clearEv
FNDA:4132,_ZNSt10_HashtableIiSt4pairIKiSt13unordered_mapIiN3vtr5bimapI13t_logical_pin14t_physical_pinSt3mapS7_EESt4hashIiESt8equal_toIiESaIS0_IS1_S8_EEEESaISG_ENSt8__detail10_Select1stESC_SA_NSI_18_Mod_range_hashingENSI_20_Default_ranged_hashENSI_20_Prime_rehash_policyENSI_17_Hashtable_traitsILb0ELb0ELb1EEEE5clearEv
FN:2024,_ZNSt10_HashtableINSt7__cxx1112basic_stringIcSt11char_traitsIcESaIcEEESt4pairIKS5_13t_metal_layerESaIS9_ENSt8__detail10_Select1stESt8equal_toIS5_ESt4hashIS5_ENSB_18_Mod_range_hashingENSB_20_Default_ranged_hashENSB_20_Prime_rehash_policyENSB_17_Hashtable_traitsILb1ELb0ELb1EEEE5clearEv
FNDA:6013,_ZNSt10_HashtableINSt7__cxx1112basic_stringIcSt11char_traitsIcESaIcEEESt4pairIKS5_13t_metal_layerESaIS9_ENSt8__detail10_Select1stESt8equal_toIS5_ESt4hashIS5_ENSB_18_Mod_range_hashingENSB_20_Default_ranged_hashENSB_20_Prime_rehash_policyENSB_17_Hashtable_traitsILb1ELb0ELb1EEEE5clearEv
FN:2024,_ZNSt10_HashtableINSt7__cxx1112basic_stringIcSt11char_traitsIcESaIcEEESt4pairIKS5_N3vtr8StrongIdINS8_19interned_string_tagEiLin1EEEESaISC_ENSt8__detail10_Select1stESt8equal_toIS5_ESt4hashIS5_ENSE_18_Mod_range_hashingENSE_20_Default_ranged_hashENSE_20_Prime_rehash_policyENSE_17_Hashtable_traitsILb1ELb0ELb1EEEE5clearEv
FNDA:6013,_ZNSt10_HashtableINSt7__cxx1112basic_stringIcSt11char_traitsIcESaIcEEESt4pairIKS5_N3vtr8StrongIdINS8_19interned_string_tagEiLin1EEEESaISC_ENSt8__detail10_Select1stESt8equal_toIS5_ESt4hashIS5_ENSE_18_Mod_range_hashingENSE_20_Default_ranged_hashENSE_20_Prime_rehash_policyENSE_17_Hashtable_traitsILb1ELb0ELb1EEEE5clearEv
DA:342,16158
DA:343,16158
DA:365,16158
DA:367,16158
DA:370,9
DA:374,16158
DA:375,32316
DA:383,16158
DA:1348,0
DA:1352,0
DA:1353,0
DA:1354,0
DA:1348,4132
DA:1352,4132
DA:1353,4132
DA:1354,4132
DA:1348,6013
DA:1352,6013
DA:1353,6013
DA:1354,6013
DA:1348,6013
DA:1352,6013
DA:1353,6013
DA:1354,6013
DA:2024,0
DA:2028,0
DA:2029,0
DA:2030,0
DA:2031,0
DA:2032,0
DA:2024,4132
DA:2028,4132
DA:2029,4132
DA:2030,4132
DA:2031,4132
DA:2032,4132
DA:2024,6013
DA:2028,6013
DA:2029,6013
DA:2030,6013
DA:2031,6013
DA:2032,6013
DA:2024,6013
DA:2028,6013
DA:2029,6013
DA:2030,6013
DA:2031,6013
DA:2032,6013
end_of_record
SF:/usr/include/c++/9/bits/basic_string.tcc
FN:206,_ZNSt7__cxx1112basic_stringIcSt11char_traitsIcESaIcEE12_M_constructIPcEEvT_S7_St20forward_iterator_tag
FNDA:2333030,_ZNSt7__cxx1112basic_stringIcSt11char_traitsIcESaIcEE12_M_constructIPcEEvT_S7_St20forward_iterator_tag
FN:206,_ZNSt7__cxx1112basic_stringIcSt11char_traitsIcESaIcEE12_M_constructIPKcEEvT_S8_St20forward_iterator_tag
FNDA:77099300,_ZNSt7__cxx1112basic_stringIcSt11char_traitsIcESaIcEE12_M_constructIPKcEEvT_S8_St20forward_iterator_tag
FN:1158,_ZStplIcSt11char_traitsIcESaIcEENSt7__cxx1112basic_stringIT_T0_T1_EEPKS5_RKS8_
FNDA:420,_ZStplIcSt11char_traitsIcESaIcEENSt7__cxx1112basic_stringIT_T0_T1_EEPKS5_RKS8_
DA:206,2333030
DA:211,2333030
DA:212,0
DA:215,2333030
DA:217,2333030
DA:219,236604
DA:220,236604
DA:225,2333030
DA:232,2333030
DA:233,2333030
DA:206,77099300
DA:211,77099300
DA:212,0
DA:215,77099300
DA:217,77099300
DA:219,714305
DA:220,714305
DA:225,77099300
DA:232,77099300
DA:233,77099300
DA:1158,420
DA:1164,420
DA:1165,420
DA:1166,420
DA:1167,420
DA:1168,420
DA:1169,420
end_of_record
SF:/usr/include/c++/9/bits/ptr_traits.h
DA:146,14609700
DA:147,14609700
DA:156,204442
end_of_record
SF:/usr/include/c++/9/ext/atomicity.h
DA:48,408884
DA:49,408884
DA:65,0
DA:67,0
DA:68,0
DA:69,0
DA:78,408884
DA:81,408884
DA:82,408884
DA:84,0
end_of_record
SF:/usr/include/c++/9/bits/stl_bvector.h
FN:537,_ZNSt13_Bvector_baseISaIbEE13_M_deallocateEv
FNDA:30805,_ZNSt13_Bvector_baseISaIbEE13_M_deallocateEv
FN:687,_ZNSt6vectorIbSaIbEEC2ESt16initializer_listIbERKS0_
FNDA:6013,_ZNSt6vectorIbSaIbEEC2ESt16initializer_listIbERKS0_
FN:1120,_ZNSt6vectorIbSaIbEE13_M_initializeEm
FNDA:6013,_ZNSt6vectorIbSaIbEE13_M_initializeEm
DA:77,18039
DA:90,18039
DA:92,18039
DA:93,6073
DA:95,11966
DA:96,18039
DA:148,26303
DA:149,6013
DA:152,18039
DA:154,18039
DA:156,0
DA:157,0
DA:172,6013
DA:174,6013
DA:175,6013
DA:176,6013
DA:177,6013
DA:179,0
DA:180,0
DA:182,6013
DA:226,20290
DA:228,6013
DA:229,6013
DA:236,18039
DA:237,18039
DA:240,18039
DA:242,18039
DA:243,18039
DA:270,6013
DA:272,12026
DA:273,6013
DA:284,6013
DA:286,6013
DA:287,12026
DA:444,6013
DA:445,6013
DA:465,14277
DA:467,14277
DA:468,14277
DA:469,14277
DA:472,6013
DA:481,6013
DA:482,6013
DA:490,14277
DA:492,14277
DA:493,14277
DA:519,6013
DA:520,6013
DA:526,6013
DA:527,6013
DA:533,6013
DA:534,12026
DA:537,30805
DA:539,30805
DA:541,14277
DA:542,28554
DA:543,14277
DA:545,14277
DA:547,30805
DA:556,12026
DA:557,6013
DA:687,6013
DA:689,6013
DA:691,6013
DA:693,6013
DA:714,6013
DA:1120,6013
DA:1122,6013
DA:1124,6013
DA:1125,6013
DA:1126,6013
DA:1130,0
DA:1131,0
DA:1133,6013
DA:1135,6013
end_of_record
SF:/usr/include/c++/9/tuple
end_of_record
SF:/usr/include/c++/9/bits/ios_base.h
DA:165,25294
DA:166,25294
end_of_record
SF:/workspace/vtr-verilog-to-routing/libs/libarchfpga/src/clock_types.h
end_of_record
SF:/usr/include/c++/9/bits/move.h
DA:47,9547480
DA:74,2316260
DA:99,3745730
DA:138,16697600
DA:139,14609700
end_of_record
SF:/usr/include/c++/9/bits/basic_ios.h
DA:137,25294
DA:190,25294
DA:191,25294
DA:201,25294
DA:202,25294
end_of_record
SF:/workspace/vtr-verilog-to-routing/libs/EXTERNAL/libargparse/src/argparse_error.hpp
DA:7,0
DA:11,0
end_of_record
SF:/usr/include/c++/9/bits/basic_string.h
FN:6097,_ZStplIcSt11char_traitsIcESaIcEENSt7__cxx1112basic_stringIT_T0_T1_EEOS8_S9_
FNDA:0,_ZStplIcSt11char_traitsIcESaIcEENSt7__cxx1112basic_stringIT_T0_T1_EEOS8_S9_
FN:6109,_ZStplIcSt11char_traitsIcESaIcEENSt7__cxx1112basic_stringIT_T0_T1_EEPKS5_OS8_
FNDA:16,_ZStplIcSt11char_traitsIcESaIcEENSt7__cxx1112basic_stringIT_T0_T1_EEPKS5_OS8_
FN:6121,_ZStplIcSt11char_traitsIcESaIcEENSt7__cxx1112basic_stringIT_T0_T1_EEOS8_PKS5_
FNDA:0,_ZStplIcSt11char_traitsIcESaIcEENSt7__cxx1112basic_stringIT_T0_T1_EEOS8_PKS5_
FN:6149,_ZSteqIcEN9__gnu_cxx11__enable_ifIXsrSt9__is_charIT_E7__valueEbE6__typeERKNSt7__cxx1112basic_stringIS3_St11char_traitsIS3_ESaIS3_EEESE_
FNDA:2760,_ZSteqIcEN9__gnu_cxx11__enable_ifIXsrSt9__is_charIT_E7__valueEbE6__typeERKNSt7__cxx1112basic_stringIS3_St11char_traitsIS3_ESaIS3_EEESE_
DA:150,12683200
DA:159,1751430
DA:160,3109680
DA:178,2354880
DA:179,950909
DA:182,81188100
DA:183,81188100
DA:186,176889000
DA:190,5081240
DA:193,2042790
DA:200,14041500
DA:203,14041500
DA:210,996641
DA:211,950909
DA:214,81188100
DA:216,81188100
DA:217,397579
DA:221,14041500
DA:222,14041500
DA:229,12683200
DA:231,10141800
DA:232,13940500
DA:236,1257250
DA:237,1257250
DA:243,2333030
DA:247,2333030
DA:263,2333030
DA:266,4052740
DA:286,2615490
DA:287,1257250
DA:290,2333030
DA:291,2333030
DA:346,79432300
DA:348,79432300
DA:349,2264360
DA:351,79432300
DA:392,2333030
DA:393,2333030
DA:396,77099300
DA:398,77099300
DA:431,397579
DA:433,397579
DA:434,397579
DA:448,2333030
DA:450,1719700
DA:451,1719700
DA:552,1358240
DA:553,1358240
DA:555,1358240
DA:557,1312510
DA:562,45732
DA:563,45732
DA:569,1358240
DA:570,1358230
DA:571,1358230
DA:657,10141800
DA:658,11077100
DA:665,246013
DA:696,246013
DA:704,6013
DA:705,6013
DA:930,420
DA:936,3077930
DA:993,0
DA:995,0
DA:1031,0
DA:1032,0
DA:1221,420
DA:1222,420
DA:1364,246013
DA:1366,246013
DA:1639,0
DA:1641,0
DA:2300,20549
DA:2301,20549
DA:2312,2760
DA:2313,2760
DA:6097,0
DA:6100,0
DA:6101,0
DA:6102,0
DA:6103,0
DA:6104,0
DA:6109,16
DA:6111,16
DA:6121,0
DA:6123,0
DA:6149,2760
DA:6151,2760
DA:6152,2760
DA:6153,2760
DA:6175,210503
DA:6177,210503
DA:6188,2760
DA:6191,2760
DA:6416,0
DA:6421,0
end_of_record
SF:/workspace/vtr-verilog-to-routing/ODIN_II/SRC/include/odin_types.h
end_of_record
SF:/usr/include/c++/9/bits/unique_ptr.h
end_of_record
SF:/usr/include/c++/9/new
DA:173,2544730
DA:174,2544730
end_of_record
SF:/workspace/vtr-verilog-to-routing/libs/EXTERNAL/libargparse/src/argparse_value.hpp
FN:64,_ZN8argparse8ArgValueINSt7__cxx1112basic_stringIcSt11char_traitsIcESaIcEEEE3setENS_14ConvertedValueIS6_EENS_10ProvenanceE
FNDA:39259,_ZN8argparse8ArgValueINSt7__cxx1112basic_stringIcSt11char_traitsIcESaIcEEEE3setENS_14ConvertedValueIS6_EENS_10ProvenanceE
FN:64,_ZN8argparse8ArgValueIbE3setENS_14ConvertedValueIbEENS_10ProvenanceE
FNDA:32,_ZN8argparse8ArgValueIbE3setENS_14ConvertedValueIbEENS_10ProvenanceE
FN:64,_ZN8argparse8ArgValueIiE3setENS_14ConvertedValueIiEENS_10ProvenanceE
FNDA:18564,_ZN8argparse8ArgValueIiE3setENS_14ConvertedValueIiEENS_10ProvenanceE
FN:64,_ZN8argparse8ArgValueIdE3setENS_14ConvertedValueIdEENS_10ProvenanceE
FNDA:6,_ZN8argparse8ArgValueIdE3setENS_14ConvertedValueIdEENS_10ProvenanceE
FN:64,_ZN8argparse8ArgValueIfE3setENS_14ConvertedValueIfEENS_10ProvenanceE
FNDA:6103,_ZN8argparse8ArgValueIfE3setENS_14ConvertedValueIfEENS_10ProvenanceE
DA:9,212030
DA:13,186704
DA:14,0
DA:16,61989
DA:17,0
DA:19,44571
DA:20,44571
DA:50,47049
DA:53,44625
DA:56,84372
DA:61,2760
DA:64,39259
DA:65,39259
DA:68,0
DA:70,39259
DA:71,39259
DA:72,39259
DA:64,32
DA:65,32
DA:68,0
DA:70,32
DA:71,32
DA:72,32
DA:64,18564
DA:65,18564
DA:68,0
DA:70,18564
DA:71,18564
DA:72,18564
DA:64,6
DA:65,6
DA:68,0
DA:70,6
DA:71,6
DA:72,6
DA:64,6103
DA:65,6103
DA:68,0
DA:70,6103
DA:71,6103
DA:72,6103
DA:74,12098
DA:75,24
DA:76,12098
DA:79,11365
DA:80,11365
DA:81,11365
DA:84,81390
DA:85,162780
DA:86,81390
DA:88,81390
DA:89,162780
DA:90,81390
end_of_record
SF:/usr/include/c++/9/ext/aligned_buffer.h
DA:64,597667000
DA:65,597667000
DA:72,597667000
DA:73,597667000
DA:102,613326
DA:104,408884
DA:114,613326
DA:115,613326
end_of_record
SF:/usr/include/c++/9/bits/shared_ptr.h
DA:103,817768
DA:254,204442
DA:255,204442
DA:263,204442
DA:264,204442
DA:358,204442
DA:359,408884
DA:699,204442
DA:702,204442
DA:714,204442
DA:718,204442
end_of_record
SF:/workspace/vtr-verilog-to-routing/libs/libvtrutil/src/vtr_vector.h
end_of_record
SF:/usr/include/c++/9/bits/allocator.h
DA:138,1411900
DA:141,3503420
DA:142,3105840
DA:151,414906
DA:153,13924600
end_of_record
SF:/usr/include/c++/9/istream
DA:214,6193
DA:215,6193
DA:218,12
DA:219,12
end_of_record
SF:/usr/include/c++/9/bits/stl_map.h
end_of_record
SF:/usr/include/x86_64-linux-gnu/c++/9/bits/gthr-default.h
DA:248,408884
DA:250,408884
DA:252,408884
end_of_record
SF:/usr/include/c++/9/bits/vector.tcc
FN:109,_ZNSt6vectorISt10shared_ptrIN8argparse8ArgumentEESaIS3_EE12emplace_backIJS3_EEEvDpOT_
FNDA:204442,_ZNSt6vectorISt10shared_ptrIN8argparse8ArgumentEESaIS3_EE12emplace_backIJS3_EEEvDpOT_
FN:198,_ZNSt6vectorINSt7__cxx1112basic_stringIcSt11char_traitsIcESaIcEEESaIS5_EEaSERKS7_
FNDA:246960,_ZNSt6vectorINSt7__cxx1112basic_stringIcSt11char_traitsIcESaIcEEESaIS5_EEaSERKS7_
FN:300,_ZNSt6vectorINSt7__cxx1112basic_stringIcSt11char_traitsIcESaIcEEESaIS5_EE13_M_assign_auxIPKS5_EEvT_SB_St20forward_iterator_tag
FNDA:2904,_ZNSt6vectorINSt7__cxx1112basic_stringIcSt11char_traitsIcESaIcEEESaIS5_EE13_M_assign_auxIPKS5_EEvT_SB_St20forward_iterator_tag
FN:340,_ZNSt6vectorINSt7__cxx1112basic_stringIcSt11char_traitsIcESaIcEEESaIS5_EE14_M_insert_rvalEN9__gnu_cxx17__normal_iteratorIPKS5_S7_EEOS5_
FNDA:11365,_ZNSt6vectorINSt7__cxx1112basic_stringIcSt11char_traitsIcESaIcEEESaIS5_EE14_M_insert_rvalEN9__gnu_cxx17__normal_iteratorIPKS5_S7_EEOS5_
FN:395,_ZNSt6vectorINSt7__cxx1112basic_stringIcSt11char_traitsIcESaIcEEESaIS5_EE13_M_insert_auxIS5_EEvN9__gnu_cxx17__normal_iteratorIPS5_S7_EEOT_
FNDA:0,_ZNSt6vectorINSt7__cxx1112basic_stringIcSt11char_traitsIcESaIcEEESaIS5_EE13_M_insert_auxIS5_EEvN9__gnu_cxx17__normal_iteratorIPS5_S7_EEOT_
FN:426,_ZNSt6vectorISt10shared_ptrIN8argparse8ArgumentEESaIS3_EE17_M_realloc_insertIJS3_EEEvN9__gnu_cxx17__normal_iteratorIPS3_S5_EEDpOT_
FNDA:132286,_ZNSt6vectorISt10shared_ptrIN8argparse8ArgumentEESaIS3_EE17_M_realloc_insertIJS3_EEEvN9__gnu_cxx17__normal_iteratorIPS3_S5_EEDpOT_
FN:426,_ZNSt6vectorINSt7__cxx1112basic_stringIcSt11char_traitsIcESaIcEEESaIS5_EE17_M_realloc_insertIJS5_EEEvN9__gnu_cxx17__normal_iteratorIPS5_S7_EEDpOT_
FNDA:291359,_ZNSt6vectorINSt7__cxx1112basic_stringIcSt11char_traitsIcESaIcEEESaIS5_EE17_M_realloc_insertIJS5_EEEvN9__gnu_cxx17__normal_iteratorIPS5_S7_EEDpOT_
FN:426,_ZNSt6vectorIP9t_pb_typeSaIS1_EE17_M_realloc_insertIJRKS1_EEEvN9__gnu_cxx17__normal_iteratorIPS1_S3_EEDpOT_
FNDA:7982,_ZNSt6vectorIP9t_pb_typeSaIS1_EE17_M_realloc_insertIJRKS1_EEEvN9__gnu_cxx17__normal_iteratorIPS1_S3_EEDpOT_
DA:109,204442
DA:112,204442
DA:115,72156
DA:117,72156
DA:121,132286
DA:125,204442
DA:198,246960
DA:201,246960
DA:223,246960
DA:224,246960
DA:226,93280
DA:228,93280
DA:229,93280
DA:230,186560
DA:231,93280
DA:232,93280
DA:233,93280
DA:234,93280
DA:236,153680
DA:238,307360
DA:239,153680
DA:243,0
DA:245,246960
DA:246,0
DA:248,0
DA:250,246960
DA:252,246960
DA:300,2904
DA:304,2904
DA:306,2904
DA:308,2904
DA:309,2904
DA:310,2904
DA:311,2904
DA:313,5808
DA:314,2904
DA:315,2904
DA:316,2904
DA:317,2904
DA:318,2904
DA:320,0
DA:321,0
DA:324,0
DA:325,0
DA:326,0
DA:327,0
DA:329,0
DA:330,0
DA:332,0
DA:335,2904
DA:340,11365
DA:343,11365
DA:344,11365
DA:345,0
DA:348,0
DA:349,0
DA:350,0
DA:354,0
DA:356,11365
DA:358,11365
DA:395,0
DA:405,0
DA:406,0
DA:407,0
DA:412,0
DA:418,0
DA:420,0
DA:426,132286
DA:435,132286
DA:437,132286
DA:438,132286
DA:439,132286
DA:440,132286
DA:441,132286
DA:449,132286
DA:450,132286
DA:456,132286
DA:461,132286
DA:462,132286
DA:464,132286
DA:466,132286
DA:467,132286
DA:500,264572
DA:501,132286
DA:502,132286
DA:503,132286
DA:504,132286
DA:505,132286
DA:426,291359
DA:435,291359
DA:437,291359
DA:438,291359
DA:439,291359
DA:440,291359
DA:441,291359
DA:449,582718
DA:450,291359
DA:456,291359
DA:461,291359
DA:462,291359
DA:464,291359
DA:466,291359
DA:467,291359
DA:500,582718
DA:501,291359
DA:502,291359
DA:503,291359
DA:504,291359
DA:505,291359
DA:426,7982
DA:435,7982
DA:437,7982
DA:438,7982
DA:439,7982
DA:440,7982
DA:441,7982
DA:449,7982
DA:450,7982
DA:456,7982
DA:461,7982
DA:462,7982
DA:464,7982
DA:466,7982
DA:467,7982
DA:500,15964
DA:501,7982
DA:502,7982
DA:503,7982
DA:504,7982
DA:505,7982
end_of_record
SF:/workspace/vtr-verilog-to-routing/libs/EXTERNAL/libargparse/src/argparse.tpp
FN:7,_ZN8argparse25make_singlevalue_argumentIi17ParseInitRegStateEESt10shared_ptrINS_8ArgumentEERNS_8ArgValueIT_EENSt7__cxx1112basic_stringIcSt11char_traitsIcESaIcEEESE_
FNDA:6013,_ZN8argparse25make_singlevalue_argumentIi17ParseInitRegStateEESt10shared_ptrINS_8ArgumentEERNS_8ArgValueIT_EENSt7__cxx1112basic_stringIcSt11char_traitsIcESaIcEEESE_
FN:7,_ZN8argparse25make_singlevalue_argumentIdNS_16DefaultConverterIdEEEESt10shared_ptrINS_8ArgumentEERNS_8ArgValueIT_EENSt7__cxx1112basic_stringIcSt11char_traitsIcESaIcEEESF_
FNDA:6013,_ZN8argparse25make_singlevalue_argumentIdNS_16DefaultConverterIdEEEESt10shared_ptrINS_8ArgumentEERNS_8ArgValueIT_EENSt7__cxx1112basic_stringIcSt11char_traitsIcESaIcEEESF_
FN:7,_ZN8argparse25make_singlevalue_argumentIiNS_16DefaultConverterIiEEEESt10shared_ptrINS_8ArgumentEERNS_8ArgValueIT_EENSt7__cxx1112basic_stringIcSt11char_traitsIcESaIcEEESF_
FNDA:24052,_ZN8argparse25make_singlevalue_argumentIiNS_16DefaultConverterIiEEEESt10shared_ptrINS_8ArgumentEERNS_8ArgValueIT_EENSt7__cxx1112basic_stringIcSt11char_traitsIcESaIcEEESF_
FN:7,_ZN8argparse25make_singlevalue_argumentIbNS_16DefaultConverterIbEEEESt10shared_ptrINS_8ArgumentEERNS_8ArgValueIT_EENSt7__cxx1112basic_stringIcSt11char_traitsIcESaIcEEESF_
FNDA:84182,_ZN8argparse25make_singlevalue_argumentIbNS_16DefaultConverterIbEEEESt10shared_ptrINS_8ArgumentEERNS_8ArgValueIT_EENSt7__cxx1112basic_stringIcSt11char_traitsIcESaIcEEESF_
FN:7,_ZN8argparse25make_singlevalue_argumentINSt7__cxx1112basic_stringIcSt11char_traitsIcESaIcEEENS_16DefaultConverterIS6_EEEESt10shared_ptrINS_8ArgumentEERNS_8ArgValueIT_EES6_S6_
FNDA:54117,_ZN8argparse25make_singlevalue_argumentINSt7__cxx1112basic_stringIcSt11char_traitsIcESaIcEEENS_16DefaultConverterIS6_EEEESt10shared_ptrINS_8ArgumentEERNS_8ArgValueIT_EES6_S6_
FN:7,_ZN8argparse25make_singlevalue_argumentIfNS_16DefaultConverterIfEEEESt10shared_ptrINS_8ArgumentEERNS_8ArgValueIT_EENSt7__cxx1112basic_stringIcSt11char_traitsIcESaIcEEESF_
FNDA:6013,_ZN8argparse25make_singlevalue_argumentIfNS_16DefaultConverterIfEEEESt10shared_ptrINS_8ArgumentEERNS_8ArgValueIT_EENSt7__cxx1112basic_stringIcSt11char_traitsIcESaIcEEESF_
FN:21,_ZN8argparse24make_multivalue_argumentISt6vectorINSt7__cxx1112basic_stringIcSt11char_traitsIcESaIcEEESaIS7_EENS_16DefaultConverterIS7_EEEESt10shared_ptrINS_8ArgumentEERNS_8ArgValueIT_EES7_S7_
FNDA:24052,_ZN8argparse24make_multivalue_argumentISt6vectorINSt7__cxx1112basic_stringIcSt11char_traitsIcESaIcEEESaIS7_EENS_16DefaultConverterIS7_EEEESt10shared_ptrINS_8ArgumentEERNS_8ArgValueIT_EES7_S7_
FN:61,_ZN8argparse13ArgumentGroup12add_argumentINSt7__cxx1112basic_stringIcSt11char_traitsIcESaIcEEENS_16DefaultConverterIS7_EEEERNS_8ArgumentERNS_8ArgValueIT_EES7_
FNDA:54117,_ZN8argparse13ArgumentGroup12add_argumentINSt7__cxx1112basic_stringIcSt11char_traitsIcESaIcEEENS_16DefaultConverterIS7_EEEERNS_8ArgumentERNS_8ArgValueIT_EES7_
FN:61,_ZN8argparse13ArgumentGroup12add_argumentIbNS_16DefaultConverterIbEEEERNS_8ArgumentERNS_8ArgValueIT_EENSt7__cxx1112basic_stringIcSt11char_traitsIcESaIcEEE
FNDA:84182,_ZN8argparse13ArgumentGroup12add_argumentIbNS_16DefaultConverterIbEEEERNS_8ArgumentERNS_8ArgValueIT_EENSt7__cxx1112basic_stringIcSt11char_traitsIcESaIcEEE
FN:61,_ZN8argparse13ArgumentGroup12add_argumentIiNS_16DefaultConverterIiEEEERNS_8ArgumentERNS_8ArgValueIT_EENSt7__cxx1112basic_stringIcSt11char_traitsIcESaIcEEE
FNDA:24052,_ZN8argparse13ArgumentGroup12add_argumentIiNS_16DefaultConverterIiEEEERNS_8ArgumentERNS_8ArgValueIT_EENSt7__cxx1112basic_stringIcSt11char_traitsIcESaIcEEE
FN:61,_ZN8argparse13ArgumentGroup12add_argumentIdNS_16DefaultConverterIdEEEERNS_8ArgumentERNS_8ArgValueIT_EENSt7__cxx1112basic_stringIcSt11char_traitsIcESaIcEEE
FNDA:6013,_ZN8argparse13ArgumentGroup12add_argumentIdNS_16DefaultConverterIdEEEERNS_8ArgumentERNS_8ArgValueIT_EENSt7__cxx1112basic_stringIcSt11char_traitsIcESaIcEEE
FN:61,_ZN8argparse13ArgumentGroup12add_argumentIi17ParseInitRegStateEERNS_8ArgumentERNS_8ArgValueIT_EENSt7__cxx1112basic_stringIcSt11char_traitsIcESaIcEEE
FNDA:6013,_ZN8argparse13ArgumentGroup12add_argumentIi17ParseInitRegStateEERNS_8ArgumentERNS_8ArgValueIT_EENSt7__cxx1112basic_stringIcSt11char_traitsIcESaIcEEE
FN:61,_ZN8argparse13ArgumentGroup12add_argumentIfNS_16DefaultConverterIfEEEERNS_8ArgumentERNS_8ArgValueIT_EENSt7__cxx1112basic_stringIcSt11char_traitsIcESaIcEEE
FNDA:6013,_ZN8argparse13ArgumentGroup12add_argumentIfNS_16DefaultConverterIfEEEERNS_8ArgumentERNS_8ArgValueIT_EENSt7__cxx1112basic_stringIcSt11char_traitsIcESaIcEEE
FN:66,_ZN8argparse13ArgumentGroup12add_argumentINSt7__cxx1112basic_stringIcSt11char_traitsIcESaIcEEENS_16DefaultConverterIS7_EEEERNS_8ArgumentERNS_8ArgValueIT_EES7_S7_
FNDA:54117,_ZN8argparse13ArgumentGroup12add_argumentINSt7__cxx1112basic_stringIcSt11char_traitsIcESaIcEEENS_16DefaultConverterIS7_EEEERNS_8ArgumentERNS_8ArgValueIT_EES7_S7_
FN:66,_ZN8argparse13ArgumentGroup12add_argumentIbNS_16DefaultConverterIbEEEERNS_8ArgumentERNS_8ArgValueIT_EENSt7__cxx1112basic_stringIcSt11char_traitsIcESaIcEEESF_
FNDA:84182,_ZN8argparse13ArgumentGroup12add_argumentIbNS_16DefaultConverterIbEEEERNS_8ArgumentERNS_8ArgValueIT_EENSt7__cxx1112basic_stringIcSt11char_traitsIcESaIcEEESF_
FN:66,_ZN8argparse13ArgumentGroup12add_argumentIiNS_16DefaultConverterIiEEEERNS_8ArgumentERNS_8ArgValueIT_EENSt7__cxx1112basic_stringIcSt11char_traitsIcESaIcEEESF_
FNDA:24052,_ZN8argparse13ArgumentGroup12add_argumentIiNS_16DefaultConverterIiEEEERNS_8ArgumentERNS_8ArgValueIT_EENSt7__cxx1112basic_stringIcSt11char_traitsIcESaIcEEESF_
FN:66,_ZN8argparse13ArgumentGroup12add_argumentIdNS_16DefaultConverterIdEEEERNS_8ArgumentERNS_8ArgValueIT_EENSt7__cxx1112basic_stringIcSt11char_traitsIcESaIcEEESF_
FNDA:6013,_ZN8argparse13ArgumentGroup12add_argumentIdNS_16DefaultConverterIdEEEERNS_8ArgumentERNS_8ArgValueIT_EENSt7__cxx1112basic_stringIcSt11char_traitsIcESaIcEEESF_
FN:66,_ZN8argparse13ArgumentGroup12add_argumentIi17ParseInitRegStateEERNS_8ArgumentERNS_8ArgValueIT_EENSt7__cxx1112basic_stringIcSt11char_traitsIcESaIcEEESE_
FNDA:6013,_ZN8argparse13ArgumentGroup12add_argumentIi17ParseInitRegStateEERNS_8ArgumentERNS_8ArgValueIT_EENSt7__cxx1112basic_stringIcSt11char_traitsIcESaIcEEESE_
FN:66,_ZN8argparse13ArgumentGroup12add_argumentIfNS_16DefaultConverterIfEEEERNS_8ArgumentERNS_8ArgValueIT_EENSt7__cxx1112basic_stringIcSt11char_traitsIcESaIcEEESF_
FNDA:6013,_ZN8argparse13ArgumentGroup12add_argumentIfNS_16DefaultConverterIfEEEERNS_8ArgumentERNS_8ArgValueIT_EENSt7__cxx1112basic_stringIcSt11char_traitsIcESaIcEEESF_
FN:75,_ZN8argparse13ArgumentGroup12add_argumentINSt7__cxx1112basic_stringIcSt11char_traitsIcESaIcEEENS_16DefaultConverterIS7_EEEERNS_8ArgumentERNS_8ArgValueISt6vectorIT_SaISE_EEEES7_
FNDA:24052,_ZN8argparse13ArgumentGroup12add_argumentINSt7__cxx1112basic_stringIcSt11char_traitsIcESaIcEEENS_16DefaultConverterIS7_EEEERNS_8ArgumentERNS_8ArgValueISt6vectorIT_SaISE_EEEES7_
FN:80,_ZN8argparse13ArgumentGroup12add_argumentINSt7__cxx1112basic_stringIcSt11char_traitsIcESaIcEEENS_16DefaultConverterIS7_EEEERNS_8ArgumentERNS_8ArgValueISt6vectorIT_SaISE_EEEES7_S7_
FNDA:24052,_ZN8argparse13ArgumentGroup12add_argumentINSt7__cxx1112basic_stringIcSt11char_traitsIcESaIcEEENS_16DefaultConverterIS7_EEEERNS_8ArgumentERNS_8ArgValueISt6vectorIT_SaISE_EEEES7_S7_
DA:7,6013
DA:8,12026
DA:12,6013
DA:13,6013
DA:17,6013
DA:7,6013
DA:8,12026
DA:12,12026
DA:13,6013
DA:14,6013
DA:17,12026
DA:7,6013
DA:8,12026
DA:12,6013
DA:13,6013
DA:17,6013
DA:7,24052
DA:8,48104
DA:12,24052
DA:13,24052
DA:17,24052
DA:7,84182
DA:8,168364
DA:12,168364
DA:13,84182
DA:14,84182
DA:17,168364
DA:7,54117
DA:8,108234
DA:12,54117
DA:13,54117
DA:17,54117
DA:21,24052
DA:22,48104
DA:26,24052
DA:27,24052
DA:31,24052
DA:61,6013
DA:62,12026
DA:61,6013
DA:62,12026
DA:61,6013
DA:62,12026
DA:61,24052
DA:62,48104
DA:61,84182
DA:62,180390
DA:61,54117
DA:62,108234
DA:66,6013
DA:67,18039
DA:69,6013
DA:70,12026
DA:71,6013
DA:66,6013
DA:67,18039
DA:69,6013
DA:70,12026
DA:71,6013
DA:66,6013
DA:67,18039
DA:69,6013
DA:70,12026
DA:71,6013
DA:66,24052
DA:67,72156
DA:69,24052
DA:70,48104
DA:71,24052
DA:66,84182
DA:67,264572
DA:69,84182
DA:70,168364
DA:71,84182
DA:66,54117
DA:67,162351
DA:69,54117
DA:70,108234
DA:71,54117
DA:75,24052
DA:76,48104
DA:80,24052
DA:81,72156
DA:83,24052
DA:84,48104
DA:85,24052
end_of_record
SF:/usr/include/c++/9/ext/alloc_traits.h
DA:97,2423230
DA:98,1809900
end_of_record
SF:/usr/include/c++/9/typeinfo
DA:120,0
DA:122,0
DA:123,0
DA:124,0
end_of_record
SF:/usr/include/c++/9/bits/stl_pair.h
DA:208,0
end_of_record
SF:/usr/include/x86_64-linux-gnu/bits/stdio2.h
DA:105,81449
DA:107,72327
end_of_record
TN:
SF:/usr/include/c++/9/bits/alloc_traits.h
DA:469,16336
DA:470,16336
end_of_record
SF:/usr/include/c++/9/ext/new_allocator.h
DA:89,16528
DA:119,16336
DA:128,16336
end_of_record
SF:/workspace/vtr-verilog-to-routing/ODIN_II/SRC/netlist_visualizer.cpp
FN:46,_Z21graphVizOutputNetlistNSt7__cxx1112basic_stringIcSt11char_traitsIcESaIcEEEPKcmP9netlist_t
FNDA:52,_Z21graphVizOutputNetlistNSt7__cxx1112basic_stringIcSt11char_traitsIcESaIcEEEPKcmP9netlist_t
FN:67,_Z35depth_first_traversal_graph_displayP8_IO_FILEmP9netlist_t
FNDA:52,_Z35depth_first_traversal_graph_displayP8_IO_FILEmP9netlist_t
FN:86,_Z30depth_first_traverse_visualizeP7nnode_tP8_IO_FILEm
FNDA:7948,_Z30depth_first_traverse_visualizeP7nnode_tP8_IO_FILEm
FN:166,_Z30graphVizOutputCombinationalNetNSt7__cxx1112basic_stringIcSt11char_traitsIcESaIcEEEPKcmP7nnode_t
FNDA:0,_Z30graphVizOutputCombinationalNetNSt7__cxx1112basic_stringIcSt11char_traitsIcESaIcEEEPKcmP7nnode_t
FN:189,_Z35forward_traversal_net_graph_displayP8_IO_FILEmP7nnode_t
FNDA:0,_Z35forward_traversal_net_graph_displayP8_IO_FILEmP7nnode_t
FN:278,_Z36backward_traversal_net_graph_displayP8_IO_FILEmP7nnode_t
FNDA:0,_Z36backward_traversal_net_graph_displayP8_IO_FILEmP7nnode_t
DA:46,52
DA:47,52
DA:48,52
DA:51,52
DA:52,52
DA:55,52
DA:57,52
DA:60,52
DA:61,52
DA:62,52
DA:67,52
DA:68,52
DA:71,316
DA:72,264
DA:73,264
DA:77,52
DA:78,52
DA:79,52
DA:80,52
DA:81,52
DA:86,7948
DA:87,7948
DA:88,7948
DA:89,7948
DA:91,7948
DA:95,1368
DA:96,1368
DA:99,1368
DA:101,1368
DA:102,1368
DA:103,356
DA:104,1012
DA:105,164
DA:106,848
DA:107,100
DA:108,748
DA:109,84
DA:111,664
DA:113,1368
DA:115,4388
DA:116,3020
DA:117,0
DA:119,26412
DA:120,26412
DA:121,23392
DA:122,23392
DA:123,15812
DA:130,7580
DA:131,7580
DA:133,7580
DA:135,0
DA:136,0
DA:137,0
DA:138,0
DA:140,7580
DA:142,84
DA:143,84
DA:144,84
DA:145,84
DA:148,7580
DA:149,7580
DA:150,6748
DA:151,7580
DA:153,7580
DA:154,7580
DA:157,7580
DA:166,0
DA:167,0
DA:168,0
DA:171,0
DA:172,0
DA:175,0
DA:177,0
DA:178,0
DA:181,0
DA:182,0
DA:183,0
DA:189,0
DA:190,0
DA:191,0
DA:192,0
DA:193,0
DA:194,0
DA:195,0
DA:197,0
DA:198,0
DA:200,0
DA:201,0
DA:204,0
DA:207,0
DA:208,0
DA:209,0
DA:210,0
DA:211,0
DA:212,0
DA:213,0
DA:214,0
DA:215,0
DA:216,0
DA:217,0
DA:219,0
DA:221,0
DA:224,0
DA:225,0
DA:226,0
DA:228,0
DA:229,0
DA:230,0
DA:233,0
DA:235,0
DA:236,0
DA:238,0
DA:239,0
DA:240,0
DA:242,0
DA:243,0
DA:245,0
DA:247,0
DA:248,0
DA:251,0
DA:253,0
DA:254,0
DA:256,0
DA:258,0
DA:259,0
DA:260,0
DA:266,0
DA:269,0
DA:270,0
DA:272,0
DA:273,0
DA:278,0
DA:279,0
DA:280,0
DA:281,0
DA:282,0
DA:283,0
DA:284,0
DA:286,0
DA:287,0
DA:289,0
DA:290,0
DA:293,0
DA:296,0
DA:297,0
DA:298,0
DA:299,0
DA:300,0
DA:301,0
DA:302,0
DA:303,0
DA:304,0
DA:305,0
DA:307,0
DA:310,0
DA:313,0
DA:314,0
DA:315,0
DA:317,0
DA:318,0
DA:322,0
DA:323,0
DA:324,0
DA:325,0
DA:327,0
DA:328,0
DA:330,0
DA:332,0
DA:333,0
DA:335,0
DA:337,0
DA:338,0
DA:339,0
DA:345,0
DA:348,0
DA:349,0
DA:351,0
DA:352,0
end_of_record
SF:/usr/include/x86_64-linux-gnu/bits/stdio2.h
DA:98,23380
DA:100,23380
DA:101,8116
end_of_record
SF:/usr/include/c++/9/bits/allocator.h
DA:153,16528
end_of_record
SF:/usr/include/c++/9/bits/move.h
DA:47,16528
DA:138,16528
DA:139,16528
end_of_record
SF:/usr/include/c++/9/bits/basic_string.h
DA:150,16528
DA:186,49444
DA:200,16528
DA:203,16528
DA:221,16528
DA:222,16528
DA:229,16528
DA:231,16528
DA:232,32864
DA:236,16336
DA:237,16336
DA:286,16336
DA:287,16336
DA:657,16528
DA:658,16528
DA:2300,16580
DA:2301,16580
end_of_record
SF:/usr/include/c++/9/iostream
end_of_record
SF:/usr/include/c++/9/bits/ptr_traits.h
DA:146,16528
DA:147,16528
end_of_record
TN:
SF:/workspace/vtr-verilog-to-routing/ODIN_II/SRC/string_cache.cpp
FN:15,_Z11string_hashP12STRING_CACHEPKc
FNDA:0,_Z11string_hashP12STRING_CACHEPKc
FN:27,_Z16generate_sc_hashP12STRING_CACHE
FNDA:269595,_Z16generate_sc_hashP12STRING_CACHE
FN:48,_Z19sc_new_string_cachev
FNDA:260259,_Z19sc_new_string_cachev
FN:65,_Z16sc_lookup_stringP12STRING_CACHEPKc
FNDA:78208600,_Z16sc_lookup_stringP12STRING_CACHEPKc
FN:83,_Z16sc_remove_stringP12STRING_CACHEPKc
FNDA:0,_Z16sc_remove_stringP12STRING_CACHEPKc
FN:107,_Z13sc_add_stringP12STRING_CACHEPKc
FNDA:33285600,_Z13sc_add_stringP12STRING_CACHEPKc
FN:143,_Z11sc_valid_idP12STRING_CACHEl
FNDA:0,_Z11sc_valid_idP12STRING_CACHEl
FN:152,_Z11sc_do_allocll
FNDA:1338640,_Z11sc_do_allocll
FN:170,_Z20sc_free_string_cacheP12STRING_CACHE
FNDA:235631,_Z20sc_free_string_cacheP12STRING_CACHE
FN:205,_Z21sc_merge_string_cachePP12STRING_CACHES0_
FNDA:52226,_Z21sc_merge_string_cachePP12STRING_CACHES0_
DA:15,109587000
DA:17,109587000
DA:19,109587000
DA:20,109587000
DA:21,109587000
DA:22,4275990000
DA:23,4166400000
DA:24,109587000
DA:27,269595
DA:28,269595
DA:29,269595
DA:31,269595
DA:32,9336
DA:33,269595
DA:34,9336
DA:35,269595
DA:36,269595
DA:37,269595
DA:38,269595
DA:39,269595
DA:40,18230300
DA:41,17960700
DA:42,17960700
DA:43,17960700
DA:45,269595
DA:48,260259
DA:49,260259
DA:51,260259
DA:52,260259
DA:53,260259
DA:54,260259
DA:55,260259
DA:56,260259
DA:57,260259
DA:58,260259
DA:59,260259
DA:60,260259
DA:61,260259
DA:62,260259
DA:65,78208600
DA:67,78208600
DA:69,78208600
DA:72,78204500
DA:73,78204500
DA:74,89453000
DA:75,63161200
DA:76,51912800
DA:77,11248500
DA:83,0
DA:85,0
DA:87,0
DA:88,0
DA:89,0
DA:90,0
DA:91,0
DA:92,0
DA:93,0
DA:94,0
DA:95,0
DA:97,0
DA:98,0
DA:100,0
DA:107,33285600
DA:109,33285600
DA:110,33285600
DA:111,33285600
DA:113,33285600
DA:114,33285600
DA:116,13421900
DA:117,9336
DA:119,9336
DA:120,9336
DA:121,9336
DA:122,9336
DA:123,9336
DA:125,9336
DA:126,9336
DA:127,9336
DA:128,9336
DA:129,9336
DA:131,9336
DA:133,13421900
DA:134,13421900
DA:135,13421900
DA:136,13421900
DA:137,13421900
DA:138,13421900
DA:139,13421900
DA:140,13421900
DA:143,0
DA:145,0
DA:147,0
DA:148,0
DA:152,1338640
DA:154,1338640
DA:156,1338640
DA:158,1338640
DA:160,1338640
DA:161,1338640
DA:162,0
DA:165,0
DA:167,1338640
DA:170,235631
DA:171,235631
DA:172,234883
DA:173,3016410
DA:174,2781530
DA:175,2781530
DA:177,2781530
DA:179,234883
DA:181,234883
DA:183,234883
DA:184,234883
DA:186,234883
DA:188,234883
DA:189,234883
DA:191,234883
DA:193,234883
DA:194,234883
DA:196,234883
DA:198,234883
DA:200,235631
DA:202,235631
DA:205,52226
DA:206,52226
DA:207,52226
DA:208,0
DA:209,0
DA:211,0
DA:215,52226
DA:216,52226
DA:217,52226
end_of_record
SF:/usr/include/x86_64-linux-gnu/bits/string_fortified.h
DA:31,18672
DA:34,18672
DA:59,269595
DA:71,269595
end_of_record
SF:/usr/include/x86_64-linux-gnu/bits/stdio2.h
DA:98,0
DA:100,0
end_of_record
TN:
SF:/workspace/vtr-verilog-to-routing/libs/librtlnumber/src/include/internal_bits.hpp
FN:454,_ZN8BitSpace11VerilogBitsC2Emh
FNDA:723982000,_ZN8BitSpace11VerilogBitsC2Emh
FN:595,_ZN8BitSpace11VerilogBits15twos_complementEh
FNDA:0,_ZN8BitSpace11VerilogBits15twos_complementEh
FN:674,_ZN7VNumberaSEOS_
FNDA:209662000,_ZN7VNumberaSEOS_
FN:680,_ZN7VNumberC2EN8BitSpace11VerilogBitsEbb
FNDA:0,_ZN7VNumberC2EN8BitSpace11VerilogBitsEbb
FN:742,_ZN7VNumberC2Emhbb
FNDA:361991000,_ZN7VNumberC2Emhbb
FN:1007,_ZN7VNumber16get_bit_from_msbEm
FNDA:889416,_ZN7VNumber16get_bit_from_msbEm
FN:1012,_ZN7VNumber16get_bit_from_lsbEm
FNDA:390482000,_ZN7VNumber16get_bit_from_lsbEm
FN:1070,_ZN7VNumber15twos_complementEh
FNDA:0,_ZN7VNumber15twos_complementEh
DA:376,385447000
DA:377,385447000
DA:378,385447000
DA:379,385447000
DA:384,733362000
DA:385,733362000
DA:390,385447000
DA:391,385447000
DA:392,385447000
DA:394,385447000
DA:398,0
DA:399,0
DA:401,0
DA:402,0
DA:404,0
DA:405,0
DA:406,0
DA:408,0
DA:409,0
DA:425,1109430000
DA:435,0
DA:440,385447000
DA:441,385447000
DA:454,723982000
DA:455,723982000
DA:456,723982000
DA:458,723982000
DA:460,1457340000
DA:461,1466720000
DA:463,723982000
DA:470,392261000
DA:471,392261000
DA:478,385447000
DA:486,385447000
DA:489,385447000
DA:497,385447000
DA:500,0
DA:507,0
DA:595,0
DA:596,0
DA:598,0
DA:599,0
DA:601,0
DA:602,0
DA:605,0
DA:674,1143300000
DA:680,0
DA:681,0
DA:682,0
DA:683,0
DA:684,0
DA:742,361991000
DA:743,723982000
DA:744,361991000
DA:745,361991000
DA:746,361991000
DA:1000,1778830
DA:1001,1778830
DA:1007,889416
DA:1008,889416
DA:1009,889416
DA:1012,390482000
DA:1013,390482000
DA:1014,384557000
DA:1016,396407000
DA:1030,390482000
DA:1031,390482000
DA:1034,5925170
DA:1035,889416
DA:1038,5925170
DA:1039,5925170
DA:1070,0
DA:1071,0
end_of_record
SF:/usr/include/c++/9/bits/shared_ptr.h
DA:103,19849800
DA:333,5473360
DA:335,5473360
DA:358,5473360
DA:359,10946700
DA:388,11344800000
DA:389,11344800000
DA:699,5473360
DA:702,5473360
DA:714,5473360
DA:718,5473360
end_of_record
SF:/usr/include/c++/9/bits/allocator.h
DA:138,3201560000
DA:141,1659240000
DA:142,1659240000
DA:151,5498590
DA:153,5012380000
end_of_record
SF:/usr/include/c++/9/bits/invoke.h
DA:59,1980
DA:60,1980
DA:89,1980
DA:95,1980
end_of_record
SF:/usr/include/c++/9/bits/vector.tcc
FN:109,_ZNSt6vectorISt6threadSaIS0_EE12emplace_backIJS0_EEEvDpOT_
FNDA:1980,_ZNSt6vectorISt6threadSaIS0_EE12emplace_backIJS0_EEEvDpOT_
FN:109,_ZNSt6vectorIN8BitSpace9BitFieldsItEESaIS2_EE12emplace_backIJS2_EEEvDpOT_
FNDA:733362000,_ZNSt6vectorIN8BitSpace9BitFieldsItEESaIS2_EE12emplace_backIJS2_EEEvDpOT_
FN:109,_ZNSt6vectorINSt7__cxx1112basic_stringIcSt11char_traitsIcESaIcEEESaIS5_EE12emplace_backIJS5_EEEvDpOT_
FNDA:0,_ZNSt6vectorINSt7__cxx1112basic_stringIcSt11char_traitsIcESaIcEEESaIS5_EE12emplace_backIJS5_EEEvDpOT_
FN:198,_ZNSt6vectorIhSaIhEEaSERKS1_
FNDA:4484580,_ZNSt6vectorIhSaIhEEaSERKS1_
FN:426,_ZNSt6vectorISt6threadSaIS0_EE17_M_realloc_insertIJS0_EEEvN9__gnu_cxx17__normal_iteratorIPS0_S2_EEDpOT_
FNDA:1980,_ZNSt6vectorISt6threadSaIS0_EE17_M_realloc_insertIJS0_EEEvN9__gnu_cxx17__normal_iteratorIPS0_S2_EEDpOT_
FN:426,_ZNSt6vectorIN8BitSpace9BitFieldsItEESaIS2_EE17_M_realloc_insertIJS2_EEEvN9__gnu_cxx17__normal_iteratorIPS2_S4_EEDpOT_
FNDA:0,_ZNSt6vectorIN8BitSpace9BitFieldsItEESaIS2_EE17_M_realloc_insertIJS2_EEEvN9__gnu_cxx17__normal_iteratorIPS2_S4_EEDpOT_
FN:426,_ZNSt6vectorINSt7__cxx1112basic_stringIcSt11char_traitsIcESaIcEEESaIS5_EE17_M_realloc_insertIJS5_EEEvN9__gnu_cxx17__normal_iteratorIPS5_S7_EEDpOT_
FNDA:0,_ZNSt6vectorINSt7__cxx1112basic_stringIcSt11char_traitsIcESaIcEEESaIS5_EE17_M_realloc_insertIJS5_EEEvN9__gnu_cxx17__normal_iteratorIPS5_S7_EEDpOT_
DA:109,1980
DA:112,1980
DA:115,0
DA:117,0
DA:121,1980
DA:125,1980
DA:109,733362000
DA:112,733362000
DA:115,2077060
DA:117,2077060
DA:121,731285000
DA:125,733362000
DA:109,0
DA:112,0
DA:115,0
DA:117,0
DA:121,0
DA:125,0
DA:198,4484580
DA:201,4484580
DA:223,4484580
DA:224,4484580
DA:226,0
DA:228,0
DA:229,0
DA:230,0
DA:231,0
DA:232,0
DA:233,0
DA:234,0
DA:236,4484580
DA:238,8969160
DA:239,4484580
DA:243,0
DA:245,4484580
DA:246,0
DA:248,0
DA:250,4484580
DA:252,4484580
DA:426,1980
DA:435,1980
DA:437,1980
DA:438,1980
DA:439,1980
DA:440,1980
DA:441,1980
DA:449,1980
DA:450,1980
DA:456,1980
DA:461,1980
DA:462,1980
DA:464,1980
DA:466,1980
DA:467,1980
DA:500,3960
DA:501,1980
DA:502,1980
DA:503,1980
DA:504,1980
DA:505,1980
DA:426,0
DA:435,0
DA:437,0
DA:438,0
DA:439,0
DA:440,0
DA:441,0
DA:449,0
DA:450,0
DA:456,0
DA:461,0
DA:462,0
DA:464,0
DA:466,0
DA:467,0
DA:500,0
DA:501,0
DA:502,0
DA:503,0
DA:504,0
DA:505,0
DA:426,0
DA:435,0
DA:437,0
DA:438,0
DA:439,0
DA:440,0
DA:441,0
DA:449,0
DA:450,0
DA:456,0
DA:461,0
DA:462,0
DA:464,0
DA:466,0
DA:467,0
DA:500,0
DA:501,0
DA:502,0
DA:503,0
DA:504,0
DA:505,0
end_of_record
SF:/usr/include/x86_64-linux-gnu/c++/9/bits/gthr-default.h
DA:248,0
DA:250,0
DA:252,0
DA:691,1
DA:693,1
end_of_record
SF:/usr/include/c++/9/new
DA:173,375353000
DA:174,375273000
end_of_record
SF:/usr/include/c++/9/ext/aligned_buffer.h
DA:102,43799800
DA:104,38326400
DA:108,17594000
DA:110,17594000
DA:114,43799800
DA:115,38326400
DA:118,17594000
DA:119,17594000
end_of_record
SF:/usr/include/c++/9/ext/string_conversions.h
FN:99,_ZN9__gnu_cxx12__to_xstringINSt7__cxx1112basic_stringIcSt11char_traitsIcESaIcEEEcEET_PFiPT0_mPKS8_P13__va_list_tagEmSB_z
FNDA:0,_ZN9__gnu_cxx12__to_xstringINSt7__cxx1112basic_stringIcSt11char_traitsIcESaIcEEEcEET_PFiPT0_mPKS8_P13__va_list_tagEmSB_z
DA:99,0
DA:105,0
DA:109,0
DA:111,0
DA:113,0
DA:115,0
end_of_record
SF:/workspace/vtr-verilog-to-routing/libs/EXTERNAL/libargparse/src/argparse_value.hpp
DA:50,17261
DA:53,5215650
DA:56,5732
end_of_record
SF:/usr/include/c++/9/bits/stl_pair.h
FN:304,_ZNSt4pairIKNSt7__cxx1112basic_stringIcSt11char_traitsIcESaIcEEES5_EC2EOS7_
FNDA:0,_ZNSt4pairIKNSt7__cxx1112basic_stringIcSt11char_traitsIcESaIcEEES5_EC2EOS7_
FN:341,_ZNSt4pairIKNSt7__cxx1112basic_stringIcSt11char_traitsIcESaIcEEES5_EC2IRPcSA_Lb1EEEOT_OT0_
FNDA:0,_ZNSt4pairIKNSt7__cxx1112basic_stringIcSt11char_traitsIcESaIcEEES5_EC2IRPcSA_Lb1EEEOT_OT0_
DA:304,0
DA:341,16418200
DA:342,16418200
DA:524,3144140
DA:529,3144140
end_of_record
SF:/usr/include/x86_64-linux-gnu/bits/stdio2.h
DA:64,0
DA:67,0
DA:98,8598
DA:100,8598
DA:105,22220
DA:107,19710
DA:255,1389020
DA:257,1389020
DA:259,0
DA:262,0
DA:263,0
DA:265,1389020
end_of_record
SF:/usr/include/c++/9/typeinfo
DA:120,0
DA:122,0
DA:123,0
DA:124,0
end_of_record
SF:/usr/include/c++/9/ext/alloc_traits.h
DA:97,351546000
DA:98,351546000
end_of_record
SF:/usr/include/c++/9/bits/stl_deque.h
FN:678,_ZNSt11_Deque_baseIP7nnode_tSaIS1_EED2Ev
FNDA:2866,_ZNSt11_Deque_baseIP7nnode_tSaIS1_EED2Ev
FN:699,_ZNSt11_Deque_baseIP7nnode_tSaIS1_EE17_M_initialize_mapEm
FNDA:2866,_ZNSt11_Deque_baseIP7nnode_tSaIS1_EE17_M_initialize_mapEm
FN:738,_ZNSt11_Deque_baseIP7nnode_tSaIS1_EE15_M_create_nodesEPPS1_S5_
FNDA:2866,_ZNSt11_Deque_baseIP7nnode_tSaIS1_EE15_M_create_nodesEPPS1_S5_
FN:1605,_ZNSt5dequeIP7nnode_tSaIS1_EE9pop_frontEv
FNDA:5185890,_ZNSt5dequeIP7nnode_tSaIS1_EE9pop_frontEv
FN:2194,_ZNSt5dequeIP7nnode_tSaIS1_EE22_M_reserve_map_at_backEm
FNDA:79902,_ZNSt5dequeIP7nnode_tSaIS1_EE22_M_reserve_map_at_backEm
DA:130,244979
DA:150,2866
DA:151,2866
DA:167,5188750
DA:168,5188750
DA:169,5188750
DA:179,5185890
DA:273,165077
DA:275,165077
DA:276,165077
DA:277,79902
DA:286,5188750
DA:370,79902
DA:375,79902
DA:376,79902
DA:508,2866
DA:509,2866
DA:510,2866
DA:567,2866
DA:575,2866
DA:577,2866
DA:605,82768
DA:606,79902
DA:609,88472
DA:610,88472
DA:613,8570
DA:614,8570
DA:617,82768
DA:620,79902
DA:624,82768
DA:627,79902
DA:631,4285
DA:633,2838
DA:634,8570
DA:638,4285
DA:640,1419
DA:641,4285
DA:642,2866
DA:678,2866
DA:681,2866
DA:683,5732
DA:684,2866
DA:685,2866
DA:687,2866
DA:699,2866
DA:702,2866
DA:705,5732
DA:706,2866
DA:707,2866
DA:714,2866
DA:715,2866
DA:716,2866
DA:719,2866
DA:720,0
DA:722,0
DA:723,0
DA:724,0
DA:725,0
DA:728,2866
DA:729,2866
DA:730,2866
DA:731,2866
DA:732,2866
DA:733,2866
DA:734,2866
DA:738,2866
DA:744,5732
DA:745,2866
DA:747,0
DA:749,0
DA:750,0
DA:752,2866
DA:756,2866
DA:760,5732
DA:761,2866
DA:915,74717
DA:1071,2866
DA:1072,2866
DA:1193,5188750
DA:1194,5188750
DA:1210,2866
DA:1211,2866
DA:1298,79902
DA:1299,79902
DA:1303,79902
DA:1304,79902
DA:1384,5188750
DA:1385,5188750
DA:1478,5185890
DA:1481,5185890
DA:1569,5185890
DA:1571,5185890
DA:1572,5185890
DA:1574,5105990
DA:1576,5105990
DA:1579,79902
DA:1605,5185890
DA:1608,5185890
DA:1609,5185890
DA:1611,5105990
DA:1613,5105990
DA:1616,5185890
DA:1617,5185890
DA:1896,79902
DA:1899,79902
DA:1900,79902
DA:2113,2866
DA:2194,79902
DA:2196,79902
DA:2197,79902
DA:2198,2407
DA:2199,79902
end_of_record
SF:/usr/include/c++/9/bits/ptr_traits.h
DA:146,2340910000
DA:147,2340910000
DA:156,21891600
end_of_record
SF:/usr/include/c++/9/bits/basic_string.tcc
FN:206,_ZNSt7__cxx1112basic_stringIcSt11char_traitsIcESaIcEE12_M_constructIPcEEvT_S7_St20forward_iterator_tag
FNDA:0,_ZNSt7__cxx1112basic_stringIcSt11char_traitsIcESaIcEE12_M_constructIPcEEvT_S7_St20forward_iterator_tag
FN:206,_ZNSt7__cxx1112basic_stringIcSt11char_traitsIcESaIcEE12_M_constructIPKcEEvT_S8_St20forward_iterator_tag
FNDA:2324220000,_ZNSt7__cxx1112basic_stringIcSt11char_traitsIcESaIcEE12_M_constructIPKcEEvT_S8_St20forward_iterator_tag
DA:206,0
DA:211,0
DA:212,0
DA:215,0
DA:217,0
DA:219,0
DA:220,0
DA:225,0
DA:232,0
DA:233,0
DA:206,2324220000
DA:211,2324220000
DA:212,0
DA:215,2324220000
DA:217,2324220000
DA:219,2105010000
DA:220,2105010000
DA:225,2324220000
DA:232,2324220000
DA:233,2324220000
end_of_record
SF:/usr/include/c++/9/ext/atomicity.h
DA:48,0
DA:49,0
DA:65,0
DA:67,0
DA:68,0
DA:69,0
DA:78,0
DA:81,0
DA:82,0
DA:84,0
end_of_record
SF:/usr/include/c++/9/bits/atomic_base.h
DA:120,22689600000
DA:121,11344800000
DA:288,10946700
DA:290,10946700
DA:390,10946700
DA:392,10946700
DA:397,10946700
DA:433,22689600000
DA:436,11344800000
end_of_record
SF:/usr/include/c++/9/bits/stl_function.h
DA:355,0
DA:356,0
end_of_record
SF:/usr/include/c++/9/ext/type_traits.h
DA:152,2324220000
end_of_record
SF:/usr/include/c++/9/iostream
end_of_record
SF:/usr/include/c++/9/bits/shared_ptr_base.h
FN:131,_ZNSt16_Sp_counted_baseILN9__gnu_cxx12_Lock_policyE2EE10_M_destroyEv
FNDA:0,_ZNSt16_Sp_counted_baseILN9__gnu_cxx12_Lock_policyE2EE10_M_destroyEv
FN:148,_ZNSt16_Sp_counted_baseILN9__gnu_cxx12_Lock_policyE2EE10_M_releaseEv
FNDA:0,_ZNSt16_Sp_counted_baseILN9__gnu_cxx12_Lock_policyE2EE10_M_releaseEv
FN:404,_ZNSt15_Sp_counted_ptrIDnLN9__gnu_cxx12_Lock_policyE2EE10_M_disposeEv
FNDA:0,_ZNSt15_Sp_counted_ptrIDnLN9__gnu_cxx12_Lock_policyE2EE10_M_disposeEv
FN:552,_ZNSt23_Sp_counted_ptr_inplaceI12AtomicBufferSaIS0_ELN9__gnu_cxx12_Lock_policyE2EED0Ev
FNDA:0,_ZNSt23_Sp_counted_ptr_inplaceI12AtomicBufferSaIS0_ELN9__gnu_cxx12_Lock_policyE2EED0Ev
FN:552,_ZNSt23_Sp_counted_ptr_inplaceI12AtomicBufferSaIS0_ELN9__gnu_cxx12_Lock_policyE2EED2Ev
FNDA:0,_ZNSt23_Sp_counted_ptr_inplaceI12AtomicBufferSaIS0_ELN9__gnu_cxx12_Lock_policyE2EED2Ev
FN:555,_ZNSt23_Sp_counted_ptr_inplaceI12AtomicBufferSaIS0_ELN9__gnu_cxx12_Lock_policyE2EE10_M_disposeEv
FNDA:0,_ZNSt23_Sp_counted_ptr_inplaceI12AtomicBufferSaIS0_ELN9__gnu_cxx12_Lock_policyE2EE10_M_disposeEv
FN:562,_ZNSt23_Sp_counted_ptr_inplaceI12AtomicBufferSaIS0_ELN9__gnu_cxx12_Lock_policyE2EE10_M_destroyEv
FNDA:0,_ZNSt23_Sp_counted_ptr_inplaceI12AtomicBufferSaIS0_ELN9__gnu_cxx12_Lock_policyE2EE10_M_destroyEv
FN:575,_ZNSt23_Sp_counted_ptr_inplaceI12AtomicBufferSaIS0_ELN9__gnu_cxx12_Lock_policyE2EE14_M_get_deleterERKSt9type_info
FNDA:0,_ZNSt23_Sp_counted_ptr_inplaceI12AtomicBufferSaIS0_ELN9__gnu_cxx12_Lock_policyE2EE14_M_get_deleterERKSt9type_info
FN:672,_ZNSt14__shared_countILN9__gnu_cxx12_Lock_policyE2EEC2I12AtomicBufferSaIS4_EJhEEERPT_St20_Sp_alloc_shared_tagIT0_EDpOT1_
FNDA:5473360,_ZNSt14__shared_countILN9__gnu_cxx12_Lock_policyE2EEC2I12AtomicBufferSaIS4_EJhEEERPT_St20_Sp_alloc_shared_tagIT0_EDpOT1_
DA:117,5473360
DA:118,5473360
DA:121,0
DA:131,0
DA:132,0
DA:148,0
DA:152,0
DA:155,0
DA:167,0
DA:171,0
DA:174,0
DA:404,0
DA:412,0
DA:414,5473360
DA:418,0
DA:508,0
DA:510,0
DA:511,0
DA:526,0
DA:531,5473360
DA:533,0
DA:543,5473360
DA:544,5473360
DA:548,10946700
DA:552,0
DA:552,0
DA:552,0
DA:555,0
DA:557,0
DA:558,0
DA:562,0
DA:564,0
DA:565,0
DA:566,0
DA:567,0
DA:575,0
DA:577,0
DA:583,0
DA:585,0
DA:590,0
DA:594,5473360
DA:616,5473360
DA:672,5473360
DA:676,5473360
DA:677,10946700
DA:678,5473360
DA:679,5473360
DA:680,5473360
DA:681,5473360
DA:682,5473360
DA:683,5473360
DA:684,5473360
DA:727,10946700
DA:729,5473360
DA:730,0
DA:756,5473360
DA:758,5473360
DA:759,5473360
DA:1012,11344800000
DA:1015,11344800000
DA:1020,11344800000
DA:1021,11344800000
DA:1080,19769500
DA:1169,5473360
DA:1176,5473360
DA:1177,5473360
DA:1179,5473360
DA:1180,5473360
DA:1263,5473360
DA:1265,5473360
DA:1309,11344800000
DA:1312,11358300000
DA:1324,5473360
DA:1326,5473360
DA:1327,5473360
DA:1343,5473360
DA:1344,5473360
DA:1345,5473360
DA:1388,5473360
end_of_record
SF:/usr/include/c++/9/bits/hashtable.h
FN:1348,_ZNSt10_HashtableIP7nnode_tS1_SaIS1_ENSt8__detail9_IdentityESt8equal_toIS1_ESt4hashIS1_ENS3_18_Mod_range_hashingENS3_20_Default_ranged_hashENS3_20_Prime_rehash_policyENS3_17_Hashtable_traitsILb0ELb1ELb1EEEED2Ev
FNDA:5732,_ZNSt10_HashtableIP7nnode_tS1_SaIS1_ENSt8__detail9_IdentityESt8equal_toIS1_ESt4hashIS1_ENS3_18_Mod_range_hashingENS3_20_Default_ranged_hashENS3_20_Prime_rehash_policyENS3_17_Hashtable_traitsILb0ELb1ELb1EEEED2Ev
FN:1348,_ZNSt10_HashtableINSt7__cxx1112basic_stringIcSt11char_traitsIcESaIcEEESt4pairIKS5_S5_ESaIS8_ENSt8__detail10_Select1stESt8equal_toIS5_ESt4hashIS5_ENSA_18_Mod_range_hashingENSA_20_Default_ranged_hashENSA_20_Prime_rehash_policyENSA_17_Hashtable_traitsILb1ELb0ELb1EEEED2Ev
FNDA:0,_ZNSt10_HashtableINSt7__cxx1112basic_stringIcSt11char_traitsIcESaIcEEESt4pairIKS5_S5_ESaIS8_ENSt8__detail10_Select1stESt8equal_toIS5_ESt4hashIS5_ENSA_18_Mod_range_hashingENSA_20_Default_ranged_hashENSA_20_Prime_rehash_policyENSA_17_Hashtable_traitsILb1ELb0ELb1EEEED2Ev
FN:1348,_ZNSt10_HashtableIllSaIlENSt8__detail9_IdentityESt8equal_toIlESt4hashIlENS1_18_Mod_range_hashingENS1_20_Default_ranged_hashENS1_20_Prime_rehash_policyENS1_17_Hashtable_traitsILb0ELb1ELb1EEEED2Ev
FNDA:0,_ZNSt10_HashtableIllSaIlENSt8__detail9_IdentityESt8equal_toIlESt4hashIlENS1_18_Mod_range_hashingENS1_20_Default_ranged_hashENS1_20_Prime_rehash_policyENS1_17_Hashtable_traitsILb0ELb1ELb1EEEED2Ev
FN:1412,_ZNSt10_HashtableINSt7__cxx1112basic_stringIcSt11char_traitsIcESaIcEEESt4pairIKS5_S5_ESaIS8_ENSt8__detail10_Select1stESt8equal_toIS5_ESt4hashIS5_ENSA_18_Mod_range_hashingENSA_20_Default_ranged_hashENSA_20_Prime_rehash_policyENSA_17_Hashtable_traitsILb1ELb0ELb1EEEE4findERS7_
FNDA:0,_ZNSt10_HashtableINSt7__cxx1112basic_stringIcSt11char_traitsIcESaIcEEESt4pairIKS5_S5_ESaIS8_ENSt8__detail10_Select1stESt8equal_toIS5_ESt4hashIS5_ENSA_18_Mod_range_hashingENSA_20_Default_ranged_hashENSA_20_Prime_rehash_policyENSA_17_Hashtable_traitsILb1ELb0ELb1EEEE4findERS7_
FN:1532,_ZNKSt10_HashtableINSt7__cxx1112basic_stringIcSt11char_traitsIcESaIcEEESt4pairIKS5_S5_ESaIS8_ENSt8__detail10_Select1stESt8equal_toIS5_ESt4hashIS5_ENSA_18_Mod_range_hashingENSA_20_Default_ranged_hashENSA_20_Prime_rehash_policyENSA_17_Hashtable_traitsILb1ELb0ELb1EEEE19_M_find_before_nodeEmRS7_m
FNDA:0,_ZNKSt10_HashtableINSt7__cxx1112basic_stringIcSt11char_traitsIcESaIcEEESt4pairIKS5_S5_ESaIS8_ENSt8__detail10_Select1stESt8equal_toIS5_ESt4hashIS5_ENSA_18_Mod_range_hashingENSA_20_Default_ranged_hashENSA_20_Prime_rehash_policyENSA_17_Hashtable_traitsILb1ELb0ELb1EEEE19_M_find_before_nodeEmRS7_m
FN:1560,_ZNSt10_HashtableIllSaIlENSt8__detail9_IdentityESt8equal_toIlESt4hashIlENS1_18_Mod_range_hashingENS1_20_Default_ranged_hashENS1_20_Prime_rehash_policyENS1_17_Hashtable_traitsILb0ELb1ELb1EEEE22_M_insert_bucket_beginEmPNS1_10_Hash_nodeIlLb0EEE
FNDA:0,_ZNSt10_HashtableIllSaIlENSt8__detail9_IdentityESt8equal_toIlESt4hashIlENS1_18_Mod_range_hashingENS1_20_Default_ranged_hashENS1_20_Prime_rehash_policyENS1_17_Hashtable_traitsILb0ELb1ELb1EEEE22_M_insert_bucket_beginEmPNS1_10_Hash_nodeIlLb0EEE
FN:1560,_ZNSt10_HashtableINSt7__cxx1112basic_stringIcSt11char_traitsIcESaIcEEESt4pairIKS5_S5_ESaIS8_ENSt8__detail10_Select1stESt8equal_toIS5_ESt4hashIS5_ENSA_18_Mod_range_hashingENSA_20_Default_ranged_hashENSA_20_Prime_rehash_policyENSA_17_Hashtable_traitsILb1ELb0ELb1EEEE22_M_insert_bucket_beginEmPNSA_10_Hash_nodeIS8_Lb1EEE
FNDA:0,_ZNSt10_HashtableINSt7__cxx1112basic_stringIcSt11char_traitsIcESaIcEEESt4pairIKS5_S5_ESaIS8_ENSt8__detail10_Select1stESt8equal_toIS5_ESt4hashIS5_ENSA_18_Mod_range_hashingENSA_20_Default_ranged_hashENSA_20_Prime_rehash_policyENSA_17_Hashtable_traitsILb1ELb0ELb1EEEE22_M_insert_bucket_beginEmPNSA_10_Hash_nodeIS8_Lb1EEE
FN:1560,_ZNSt10_HashtableIP7nnode_tS1_SaIS1_ENSt8__detail9_IdentityESt8equal_toIS1_ESt4hashIS1_ENS3_18_Mod_range_hashingENS3_20_Default_ranged_hashENS3_20_Prime_rehash_policyENS3_17_Hashtable_traitsILb0ELb1ELb1EEEE22_M_insert_bucket_beginEmPNS3_10_Hash_nodeIS1_Lb0EEE
FNDA:16418200,_ZNSt10_HashtableIP7nnode_tS1_SaIS1_ENSt8__detail9_IdentityESt8equal_toIS1_ESt4hashIS1_ENS3_18_Mod_range_hashingENS3_20_Default_ranged_hashENS3_20_Prime_rehash_policyENS3_17_Hashtable_traitsILb0ELb1ELb1EEEE22_M_insert_bucket_beginEmPNS3_10_Hash_nodeIS1_Lb0EEE
FN:1632,_ZNSt10_HashtableINSt7__cxx1112basic_stringIcSt11char_traitsIcESaIcEEESt4pairIKS5_S5_ESaIS8_ENSt8__detail10_Select1stESt8equal_toIS5_ESt4hashIS5_ENSA_18_Mod_range_hashingENSA_20_Default_ranged_hashENSA_20_Prime_rehash_policyENSA_17_Hashtable_traitsILb1ELb0ELb1EEEE10_M_emplaceIJS8_EEES6_INSA_14_Node_iteratorIS8_Lb0ELb1EEEbESt17integral_constantIbLb1EEDpOT_
FNDA:0,_ZNSt10_HashtableINSt7__cxx1112basic_stringIcSt11char_traitsIcESaIcEEESt4pairIKS5_S5_ESaIS8_ENSt8__detail10_Select1stESt8equal_toIS5_ESt4hashIS5_ENSA_18_Mod_range_hashingENSA_20_Default_ranged_hashENSA_20_Prime_rehash_policyENSA_17_Hashtable_traitsILb1ELb0ELb1EEEE10_M_emplaceIJS8_EEES6_INSA_14_Node_iteratorIS8_Lb0ELb1EEEbESt17integral_constantIbLb1EEDpOT_
FN:1698,_ZNSt10_HashtableINSt7__cxx1112basic_stringIcSt11char_traitsIcESaIcEEESt4pairIKS5_S5_ESaIS8_ENSt8__detail10_Select1stESt8equal_toIS5_ESt4hashIS5_ENSA_18_Mod_range_hashingENSA_20_Default_ranged_hashENSA_20_Prime_rehash_policyENSA_17_Hashtable_traitsILb1ELb0ELb1EEEE21_M_insert_unique_nodeEmmPNSA_10_Hash_nodeIS8_Lb1EEEm
FNDA:0,_ZNSt10_HashtableINSt7__cxx1112basic_stringIcSt11char_traitsIcESaIcEEESt4pairIKS5_S5_ESaIS8_ENSt8__detail10_Select1stESt8equal_toIS5_ESt4hashIS5_ENSA_18_Mod_range_hashingENSA_20_Default_ranged_hashENSA_20_Prime_rehash_policyENSA_17_Hashtable_traitsILb1ELb0ELb1EEEE21_M_insert_unique_nodeEmmPNSA_10_Hash_nodeIS8_Lb1EEEm
FN:1698,_ZNSt10_HashtableIP7nnode_tS1_SaIS1_ENSt8__detail9_IdentityESt8equal_toIS1_ESt4hashIS1_ENS3_18_Mod_range_hashingENS3_20_Default_ranged_hashENS3_20_Prime_rehash_policyENS3_17_Hashtable_traitsILb0ELb1ELb1EEEE21_M_insert_unique_nodeEmmPNS3_10_Hash_nodeIS1_Lb0EEEm
FNDA:16418200,_ZNSt10_HashtableIP7nnode_tS1_SaIS1_ENSt8__detail9_IdentityESt8equal_toIS1_ESt4hashIS1_ENS3_18_Mod_range_hashingENS3_20_Default_ranged_hashENS3_20_Prime_rehash_policyENS3_17_Hashtable_traitsILb0ELb1ELb1EEEE21_M_insert_unique_nodeEmmPNS3_10_Hash_nodeIS1_Lb0EEEm
FN:1698,_ZNSt10_HashtableIllSaIlENSt8__detail9_IdentityESt8equal_toIlESt4hashIlENS1_18_Mod_range_hashingENS1_20_Default_ranged_hashENS1_20_Prime_rehash_policyENS1_17_Hashtable_traitsILb0ELb1ELb1EEEE21_M_insert_unique_nodeEmmPNS1_10_Hash_nodeIlLb0EEEm
FNDA:0,_ZNSt10_HashtableIllSaIlENSt8__detail9_IdentityESt8equal_toIlESt4hashIlENS1_18_Mod_range_hashingENS1_20_Default_ranged_hashENS1_20_Prime_rehash_policyENS1_17_Hashtable_traitsILb0ELb1ELb1EEEE21_M_insert_unique_nodeEmmPNS1_10_Hash_nodeIlLb0EEEm
FN:1803,_ZNSt10_HashtableIllSaIlENSt8__detail9_IdentityESt8equal_toIlESt4hashIlENS1_18_Mod_range_hashingENS1_20_Default_ranged_hashENS1_20_Prime_rehash_policyENS1_17_Hashtable_traitsILb0ELb1ELb1EEEE9_M_insertIRKlNS1_10_AllocNodeISaINS1_10_Hash_nodeIlLb0EEEEEEEESt4pairINS1_14_Node_iteratorIlLb1ELb0EEEbEOT_RKT0_St17integral_constantIbLb1EEm
FNDA:0,_ZNSt10_HashtableIllSaIlENSt8__detail9_IdentityESt8equal_toIlESt4hashIlENS1_18_Mod_range_hashingENS1_20_Default_ranged_hashENS1_20_Prime_rehash_policyENS1_17_Hashtable_traitsILb0ELb1ELb1EEEE9_M_insertIRKlNS1_10_AllocNodeISaINS1_10_Hash_nodeIlLb0EEEEEEEESt4pairINS1_14_Node_iteratorIlLb1ELb0EEEbEOT_RKT0_St17integral_constantIbLb1EEm
FN:1803,_ZNSt10_HashtableIP7nnode_tS1_SaIS1_ENSt8__detail9_IdentityESt8equal_toIS1_ESt4hashIS1_ENS3_18_Mod_range_hashingENS3_20_Default_ranged_hashENS3_20_Prime_rehash_policyENS3_17_Hashtable_traitsILb0ELb1ELb1EEEE9_M_insertIRKS1_NS3_10_AllocNodeISaINS3_10_Hash_nodeIS1_Lb0EEEEEEEESt4pairINS3_14_Node_iteratorIS1_Lb1ELb0EEEbEOT_RKT0_St17integral_constantIbLb1EEm
FNDA:19562400,_ZNSt10_HashtableIP7nnode_tS1_SaIS1_ENSt8__detail9_IdentityESt8equal_toIS1_ESt4hashIS1_ENS3_18_Mod_range_hashingENS3_20_Default_ranged_hashENS3_20_Prime_rehash_policyENS3_17_Hashtable_traitsILb0ELb1ELb1EEEE9_M_insertIRKS1_NS3_10_AllocNodeISaINS3_10_Hash_nodeIS1_Lb0EEEEEEEESt4pairINS3_14_Node_iteratorIS1_Lb1ELb0EEEbEOT_RKT0_St17integral_constantIbLb1EEm
FN:2024,_ZNSt10_HashtableIllSaIlENSt8__detail9_IdentityESt8equal_toIlESt4hashIlENS1_18_Mod_range_hashingENS1_20_Default_ranged_hashENS1_20_Prime_rehash_policyENS1_17_Hashtable_traitsILb0ELb1ELb1EEEE5clearEv
FNDA:0,_ZNSt10_HashtableIllSaIlENSt8__detail9_IdentityESt8equal_toIlESt4hashIlENS1_18_Mod_range_hashingENS1_20_Default_ranged_hashENS1_20_Prime_rehash_policyENS1_17_Hashtable_traitsILb0ELb1ELb1EEEE5clearEv
FN:2024,_ZNSt10_HashtableINSt7__cxx1112basic_stringIcSt11char_traitsIcESaIcEEESt4pairIKS5_S5_ESaIS8_ENSt8__detail10_Select1stESt8equal_toIS5_ESt4hashIS5_ENSA_18_Mod_range_hashingENSA_20_Default_ranged_hashENSA_20_Prime_rehash_policyENSA_17_Hashtable_traitsILb1ELb0ELb1EEEE5clearEv
FNDA:0,_ZNSt10_HashtableINSt7__cxx1112basic_stringIcSt11char_traitsIcESaIcEEESt4pairIKS5_S5_ESaIS8_ENSt8__detail10_Select1stESt8equal_toIS5_ESt4hashIS5_ENSA_18_Mod_range_hashingENSA_20_Default_ranged_hashENSA_20_Prime_rehash_policyENSA_17_Hashtable_traitsILb1ELb0ELb1EEEE5clearEv
FN:2024,_ZNSt10_HashtableIP7nnode_tS1_SaIS1_ENSt8__detail9_IdentityESt8equal_toIS1_ESt4hashIS1_ENS3_18_Mod_range_hashingENS3_20_Default_ranged_hashENS3_20_Prime_rehash_policyENS3_17_Hashtable_traitsILb0ELb1ELb1EEEE5clearEv
FNDA:761306,_ZNSt10_HashtableIP7nnode_tS1_SaIS1_ENSt8__detail9_IdentityESt8equal_toIS1_ESt4hashIS1_ENS3_18_Mod_range_hashingENS3_20_Default_ranged_hashENS3_20_Prime_rehash_policyENS3_17_Hashtable_traitsILb0ELb1ELb1EEEE5clearEv
FN:2061,_ZNSt10_HashtableIP7nnode_tS1_SaIS1_ENSt8__detail9_IdentityESt8equal_toIS1_ESt4hashIS1_ENS3_18_Mod_range_hashingENS3_20_Default_ranged_hashENS3_20_Prime_rehash_policyENS3_17_Hashtable_traitsILb0ELb1ELb1EEEE9_M_rehashEmRKm
FNDA:16661,_ZNSt10_HashtableIP7nnode_tS1_SaIS1_ENSt8__detail9_IdentityESt8equal_toIS1_ESt4hashIS1_ENS3_18_Mod_range_hashingENS3_20_Default_ranged_hashENS3_20_Prime_rehash_policyENS3_17_Hashtable_traitsILb0ELb1ELb1EEEE9_M_rehashEmRKm
FN:2061,_ZNSt10_HashtableINSt7__cxx1112basic_stringIcSt11char_traitsIcESaIcEEESt4pairIKS5_S5_ESaIS8_ENSt8__detail10_Select1stESt8equal_toIS5_ESt4hashIS5_ENSA_18_Mod_range_hashingENSA_20_Default_ranged_hashENSA_20_Prime_rehash_policyENSA_17_Hashtable_traitsILb1ELb0ELb1EEEE9_M_rehashEmRKm
FNDA:0,_ZNSt10_HashtableINSt7__cxx1112basic_stringIcSt11char_traitsIcESaIcEEESt4pairIKS5_S5_ESaIS8_ENSt8__detail10_Select1stESt8equal_toIS5_ESt4hashIS5_ENSA_18_Mod_range_hashingENSA_20_Default_ranged_hashENSA_20_Prime_rehash_policyENSA_17_Hashtable_traitsILb1ELb0ELb1EEEE9_M_rehashEmRKm
FN:2061,_ZNSt10_HashtableIllSaIlENSt8__detail9_IdentityESt8equal_toIlESt4hashIlENS1_18_Mod_range_hashingENS1_20_Default_ranged_hashENS1_20_Prime_rehash_policyENS1_17_Hashtable_traitsILb0ELb1ELb1EEEE9_M_rehashEmRKm
FNDA:0,_ZNSt10_HashtableIllSaIlENSt8__detail9_IdentityESt8equal_toIlESt4hashIlENS1_18_Mod_range_hashingENS1_20_Default_ranged_hashENS1_20_Prime_rehash_policyENS1_17_Hashtable_traitsILb0ELb1ELb1EEEE9_M_rehashEmRKm
FN:2084,_ZNSt10_HashtableIllSaIlENSt8__detail9_IdentityESt8equal_toIlESt4hashIlENS1_18_Mod_range_hashingENS1_20_Default_ranged_hashENS1_20_Prime_rehash_policyENS1_17_Hashtable_traitsILb0ELb1ELb1EEEE13_M_rehash_auxEmSt17integral_constantIbLb1EE
FNDA:0,_ZNSt10_HashtableIllSaIlENSt8__detail9_IdentityESt8equal_toIlESt4hashIlENS1_18_Mod_range_hashingENS1_20_Default_ranged_hashENS1_20_Prime_rehash_policyENS1_17_Hashtable_traitsILb0ELb1ELb1EEEE13_M_rehash_auxEmSt17integral_constantIbLb1EE
FN:2084,_ZNSt10_HashtableIP7nnode_tS1_SaIS1_ENSt8__detail9_IdentityESt8equal_toIS1_ESt4hashIS1_ENS3_18_Mod_range_hashingENS3_20_Default_ranged_hashENS3_20_Prime_rehash_policyENS3_17_Hashtable_traitsILb0ELb1ELb1EEEE13_M_rehash_auxEmSt17integral_constantIbLb1EE
FNDA:16661,_ZNSt10_HashtableIP7nnode_tS1_SaIS1_ENSt8__detail9_IdentityESt8equal_toIS1_ESt4hashIS1_ENS3_18_Mod_range_hashingENS3_20_Default_ranged_hashENS3_20_Prime_rehash_policyENS3_17_Hashtable_traitsILb0ELb1ELb1EEEE13_M_rehash_auxEmSt17integral_constantIbLb1EE
FN:2084,_ZNSt10_HashtableINSt7__cxx1112basic_stringIcSt11char_traitsIcESaIcEEESt4pairIKS5_S5_ESaIS8_ENSt8__detail10_Select1stESt8equal_toIS5_ESt4hashIS5_ENSA_18_Mod_range_hashingENSA_20_Default_ranged_hashENSA_20_Prime_rehash_policyENSA_17_Hashtable_traitsILb1ELb0ELb1EEEE13_M_rehash_auxEmSt17integral_constantIbLb1EE
FNDA:0,_ZNSt10_HashtableINSt7__cxx1112basic_stringIcSt11char_traitsIcESaIcEEESt4pairIKS5_S5_ESaIS8_ENSt8__detail10_Select1stESt8equal_toIS5_ESt4hashIS5_ENSA_18_Mod_range_hashingENSA_20_Default_ranged_hashENSA_20_Prime_rehash_policyENSA_17_Hashtable_traitsILb1ELb0ELb1EEEE13_M_rehash_auxEmSt17integral_constantIbLb1EE
DA:342,22393
DA:343,22393
DA:353,16661
DA:355,16661
DA:357,0
DA:358,0
DA:361,16661
DA:365,22393
DA:367,22393
DA:370,16661
DA:374,22393
DA:375,16661
DA:383,777967
DA:414,2866
DA:512,18736300
DA:513,37097600
DA:639,12383100
DA:640,12383100
DA:643,38315300
DA:644,16661
DA:652,0
DA:655,0
DA:656,0
DA:657,0
DA:1348,0
DA:1352,0
DA:1353,0
DA:1354,0
DA:1348,0
DA:1352,0
DA:1353,0
DA:1354,0
DA:1348,5732
DA:1352,5732
DA:1353,5732
DA:1354,5732
DA:1412,18736300
DA:1417,18736300
DA:1418,18736300
DA:1419,18736300
DA:1420,18736300
DA:1532,0
DA:1538,0
DA:1539,0
DA:1542,0
DA:1545,0
DA:1546,0
DA:1548,0
DA:1560,0
DA:1564,0
DA:1568,0
DA:1569,0
DA:1576,0
DA:1577,0
DA:1578,0
DA:1581,0
DA:1582,0
DA:1584,0
DA:1560,0
DA:1564,0
DA:1568,0
DA:1569,0
DA:1576,0
DA:1577,0
DA:1578,0
DA:1581,0
DA:1582,0
DA:1584,0
DA:1560,16418200
DA:1564,16418200
DA:1568,3281540
DA:1569,3281540
DA:1576,13136700
DA:1577,13136700
DA:1578,13136700
DA:1581,12383100
DA:1582,13136700
DA:1584,16418200
DA:1632,0
DA:1638,0
DA:1639,0
DA:1643,0
DA:1651,0
DA:1652,0
DA:1655,0
DA:1656,0
DA:1660,0
DA:1698,0
DA:1704,0
DA:1705,0
DA:1711,0
DA:1713,0
DA:1714,0
DA:1717,0
DA:1720,0
DA:1721,0
DA:1722,0
DA:1724,0
DA:1726,0
DA:1727,0
DA:1698,0
DA:1704,0
DA:1705,0
DA:1711,0
DA:1713,0
DA:1714,0
DA:1717,0
DA:1720,0
DA:1721,0
DA:1722,0
DA:1724,0
DA:1726,0
DA:1727,0
DA:1698,16418200
DA:1704,16418200
DA:1705,16418200
DA:1711,16418200
DA:1713,16661
DA:1714,16661
DA:1717,16418200
DA:1720,16418200
DA:1721,16418200
DA:1722,16418200
DA:1724,0
DA:1726,0
DA:1727,0
DA:1803,0
DA:1809,0
DA:1810,0
DA:1811,0
DA:1813,0
DA:1814,0
DA:1815,0
DA:1817,0
DA:1818,0
DA:1803,19562400
DA:1809,19562400
DA:1810,19562400
DA:1811,19562400
DA:1813,19562400
DA:1814,19562400
DA:1815,3144140
DA:1817,16418200
DA:1818,16418200
DA:2024,0
DA:2028,0
DA:2029,0
DA:2030,0
DA:2031,0
DA:2032,0
DA:2024,0
DA:2028,0
DA:2029,0
DA:2030,0
DA:2031,0
DA:2032,0
DA:2024,761306
DA:2028,761306
DA:2029,761306
DA:2030,761306
DA:2031,761306
DA:2032,761306
DA:2061,0
DA:2067,0
DA:2069,0
DA:2073,0
DA:2074,0
DA:2076,0
DA:2061,0
DA:2067,0
DA:2069,0
DA:2073,0
DA:2074,0
DA:2076,0
DA:2061,16661
DA:2067,16661
DA:2069,0
DA:2073,0
DA:2074,0
DA:2076,16661
DA:2084,0
DA:2088,0
DA:2089,0
DA:2090,0
DA:2091,0
DA:2092,0
DA:2094,0
DA:2095,0
DA:2096,0
DA:2098,0
DA:2099,0
DA:2100,0
DA:2101,0
DA:2102,0
DA:2107,0
DA:2108,0
DA:2113,0
DA:2114,0
DA:2115,0
DA:2116,0
DA:2084,0
DA:2088,0
DA:2089,0
DA:2090,0
DA:2091,0
DA:2092,0
DA:2094,0
DA:2095,0
DA:2096,0
DA:2098,0
DA:2099,0
DA:2100,0
DA:2101,0
DA:2102,0
DA:2107,0
DA:2108,0
DA:2113,0
DA:2114,0
DA:2115,0
DA:2116,0
DA:2084,16661
DA:2088,16661
DA:2089,16661
DA:2090,16661
DA:2091,16661
DA:2092,5227640
DA:2094,5210980
DA:2095,5210980
DA:2096,5210980
DA:2098,4142920
DA:2099,4142920
DA:2100,4142920
DA:2101,4142920
DA:2102,4131960
DA:2107,1068050
DA:2108,1068050
DA:2113,16661
DA:2114,16661
DA:2115,16661
DA:2116,16661
end_of_record
SF:/usr/include/c++/9/bits/stl_queue.h
DA:96,2866
DA:160,2866
DA:161,71851
DA:197,5188750
DA:198,5188750
DA:210,5185890
DA:213,5185890
DA:259,5185890
DA:260,19639900
DA:292,5185890
DA:295,5185890
end_of_record
SF:/usr/include/c++/9/atomic
DA:80,10946700
DA:81,10946700
DA:120,22689600000
DA:121,11344800000
end_of_record
SF:/usr/include/c++/9/bits/unique_ptr.h
DA:75,0
DA:81,0
DA:82,0
DA:147,1980
DA:153,3960
DA:155,0
DA:211,1980
DA:212,1980
DA:286,1980
DA:290,1980
DA:291,1980
DA:292,1980
DA:365,0
DA:366,0
end_of_record
SF:/workspace/vtr-verilog-to-routing/ODIN_II/SRC/include/AtomicBuffer.hpp
FN:28,_ZN12AtomicBuffer7lock_itEv
FNDA:11344800000,_ZN12AtomicBuffer7lock_itEv
FN:84,_ZN12AtomicBufferC2Ea
FNDA:5473360,_ZN12AtomicBufferC2Ea
FN:98,_ZN12AtomicBuffer15init_all_valuesEa
FNDA:5473360,_ZN12AtomicBuffer15init_all_valuesEa
FN:129,_ZN12AtomicBuffer9get_cycleEv
FNDA:3679490000,_ZN12AtomicBuffer9get_cycleEv
FN:142,_ZN12AtomicBuffer9get_valueEl
FNDA:6396510000,_ZN12AtomicBuffer9get_valueEl
FN:149,_ZN12AtomicBuffer12update_valueEal
FNDA:1268790000,_ZN12AtomicBuffer12update_valueEal
DA:28,11344800000
DA:29,11344800000
DA:30,11344800000
DA:31,1
DA:33,11344800000
DA:35,11344800000
DA:36,11344800000
DA:37,11344800000
DA:40,6396510000
DA:41,6396510000
DA:42,6396510000
DA:43,6396510000
DA:44,6396510000
DA:45,1607940000
DA:46,1607940000
DA:47,1597450000
DA:48,1597450000
DA:49,1593080000
DA:50,1593080000
DA:51,1598040000
DA:52,1598040000
DA:58,1334470000
DA:59,1334470000
DA:60,1334470000
DA:61,1334470000
DA:63,1334470000
DA:65,1334470000
DA:66,336941000
DA:67,336941000
DA:68,336941000
DA:69,333504000
DA:70,333504000
DA:71,333504000
DA:72,332345000
DA:73,332345000
DA:74,332345000
DA:75,331677000
DA:76,331677000
DA:77,331677000
DA:84,5473360
DA:85,5473360
DA:86,5473360
DA:87,5473360
DA:88,5473360
DA:98,5473360
DA:99,5473360
DA:100,71153600
DA:101,131361000
DA:102,5473360
DA:104,3679490000
DA:105,3679490000
DA:108,1268790000
DA:110,1268790000
DA:111,1268790000
DA:113,6396510000
DA:114,12793000000
DA:117,1268790000
DA:118,1268790000
DA:119,1268790000
DA:120,1268790000
DA:129,3679490000
DA:130,3679490000
DA:131,3679490000
DA:132,3679490000
DA:133,3679490000
DA:142,6396510000
DA:143,6396510000
DA:144,6396510000
DA:145,6396510000
DA:146,6396510000
DA:149,1268790000
DA:150,1268790000
DA:151,1268790000
DA:152,1268790000
DA:153,1268790000
end_of_record
SF:/usr/include/c++/9/tuple
DA:76,1980
DA:113,0
DA:122,1980
DA:125,1980
DA:126,1980
DA:132,3960
DA:133,3960
DA:160,5940
DA:195,1980
DA:201,1980
DA:206,1980
DA:207,1980
DA:216,1980
DA:218,1980
DA:227,1980
DA:230,1980
DA:231,1980
DA:334,3960
DA:339,1980
DA:340,1980
DA:348,1980
DA:349,1980
DA:358,1980
DA:360,1980
DA:626,1980
DA:627,1980
DA:642,1980
DA:918,1980
DA:919,1980
DA:1309,5940
DA:1310,5940
DA:1320,5940
DA:1321,1980
DA:1332,1980
DA:1335,1980
end_of_record
SF:/usr/include/c++/9/bits/basic_string.h
FN:6097,_ZStplIcSt11char_traitsIcESaIcEENSt7__cxx1112basic_stringIT_T0_T1_EEOS8_S9_
FNDA:0,_ZStplIcSt11char_traitsIcESaIcEENSt7__cxx1112basic_stringIT_T0_T1_EEOS8_S9_
FN:6109,_ZStplIcSt11char_traitsIcESaIcEENSt7__cxx1112basic_stringIT_T0_T1_EEPKS5_OS8_
FNDA:0,_ZStplIcSt11char_traitsIcESaIcEENSt7__cxx1112basic_stringIT_T0_T1_EEPKS5_OS8_
FN:6121,_ZStplIcSt11char_traitsIcESaIcEENSt7__cxx1112basic_stringIT_T0_T1_EEOS8_PKS5_
FNDA:0,_ZStplIcSt11char_traitsIcESaIcEENSt7__cxx1112basic_stringIT_T0_T1_EEOS8_PKS5_
FN:6149,_ZSteqIcEN9__gnu_cxx11__enable_ifIXsrSt9__is_charIT_E7__valueEbE6__typeERKNSt7__cxx1112basic_stringIS3_St11char_traitsIS3_ESaIS3_EEESE_
FNDA:0,_ZSteqIcEN9__gnu_cxx11__enable_ifIXsrSt9__is_charIT_E7__valueEbE6__typeERKNSt7__cxx1112basic_stringIS3_St11char_traitsIS3_ESaIS3_EEESE_
DA:150,2324350000
DA:156,0
DA:157,0
DA:159,130474
DA:160,130474
DA:178,2105010000
DA:179,2105010000
DA:182,2324220000
DA:183,2324220000
DA:186,9078130000
DA:190,130474
DA:193,130474
DA:200,2324350000
DA:203,2324350000
DA:210,2105010000
DA:211,2105010000
DA:214,2324220000
DA:216,2324220000
DA:217,0
DA:221,2324350000
DA:222,2324350000
DA:229,2324350000
DA:231,2324350000
DA:232,4429360000
DA:236,2105010000
DA:237,2105010000
DA:243,130474
DA:247,130474
DA:263,130474
DA:266,0
DA:286,2105010000
DA:287,2105010000
DA:290,130474
DA:291,130474
DA:346,2324220000
DA:348,2324220000
DA:349,10224
DA:351,2324220000
DA:392,0
DA:393,0
DA:396,2324220000
DA:398,2324220000
DA:431,0
DA:433,0
DA:434,0
DA:448,130474
DA:450,130474
DA:451,130474
DA:552,0
DA:553,0
DA:555,0
DA:557,0
DA:562,0
DA:563,0
DA:569,0
DA:570,0
DA:571,0
DA:625,0
DA:627,0
DA:628,0
DA:657,2324350000
DA:658,2324350000
DA:665,0
DA:696,0
DA:826,108456
DA:827,108456
DA:842,108456
DA:843,108456
DA:930,108456
DA:936,130474
DA:993,0
DA:995,0
DA:1168,0
DA:1169,0
DA:1221,0
DA:1222,0
DA:1364,0
DA:1366,0
DA:1639,0
DA:1641,0
DA:2300,26892
DA:2301,26892
DA:2312,64396
DA:2313,64396
DA:2361,64396
DA:2363,64396
DA:6097,0
DA:6100,0
DA:6101,0
DA:6102,0
DA:6103,0
DA:6104,0
DA:6109,0
DA:6111,0
DA:6121,0
DA:6123,0
DA:6149,0
DA:6151,0
DA:6152,0
DA:6153,0
DA:6175,2323290000
DA:6177,2323290000
DA:6416,0
DA:6421,0
DA:6546,0
DA:6547,0
DA:6548,0
DA:6557,0
DA:6558,0
DA:6559,0
DA:6734,0
DA:6735,0
end_of_record
SF:/usr/include/c++/9/bits/ios_base.h
FN:1023,_ZSt3decRSt8ios_base
FNDA:1540060,_ZSt3decRSt8ios_base
FN:1031,_ZSt3hexRSt8ios_base
FNDA:6763430,_ZSt3hexRSt8ios_base
DA:83,8303490
DA:84,8303490
DA:87,8303490
DA:88,8303490
DA:95,8303490
DA:96,8303490
DA:99,8303490
DA:100,8303490
DA:103,8303490
DA:104,8303490
DA:670,8303490
DA:672,8303490
DA:673,8303490
DA:674,8303490
DA:675,8303490
DA:1023,1540060
DA:1025,1540060
DA:1026,1540060
DA:1031,6763430
DA:1033,6763430
DA:1034,6763430
end_of_record
SF:/usr/include/c++/9/bits/move.h
DA:47,351738000
DA:74,806162000
DA:99,2034620000
DA:138,2340910000
DA:139,2340910000
DA:182,5477320
DA:193,5477320
DA:194,5477320
DA:195,5477320
end_of_record
SF:/usr/include/c++/9/bits/stl_iterator_base_funcs.h
DA:98,2324220000
DA:104,2324220000
DA:138,2324220000
DA:141,2324220000
end_of_record
SF:/usr/include/c++/9/bits/deque.tcc
FN:479,_ZNSt5dequeIP7nnode_tSaIS1_EE16_M_push_back_auxIJRKS1_EEEvDpOT_
FNDA:79902,_ZNSt5dequeIP7nnode_tSaIS1_EE16_M_push_back_auxIJRKS1_EEEvDpOT_
FN:926,_ZNSt5dequeIP7nnode_tSaIS1_EE17_M_reallocate_mapEmb
FNDA:2407,_ZNSt5dequeIP7nnode_tSaIS1_EE17_M_reallocate_mapEmb
DA:479,79902
DA:487,79902
DA:488,0
DA:491,79902
DA:492,79902
DA:496,79902
DA:502,79902
DA:504,79902
DA:511,79902
DA:571,79902
DA:574,79902
DA:576,79902
DA:577,79902
DA:578,79902
DA:579,79902
DA:926,2407
DA:929,2407
DA:930,2407
DA:931,2407
DA:934,2407
DA:936,1976
DA:937,988
DA:938,988
DA:939,988
DA:940,988
DA:944,0
DA:950,1419
DA:951,1419
DA:954,1419
DA:955,2838
DA:956,1419
DA:957,2838
DA:958,1419
DA:960,1419
DA:962,1419
DA:963,1419
DA:966,2407
DA:967,2407
DA:968,2407
end_of_record
SF:/usr/include/c++/9/streambuf
end_of_record
SF:/usr/include/c++/9/thread
FN:117,_ZNSt6threadC2IRFviiiP8stages_tiEJRiS5_S5_RS2_S5_EvEEOT_DpOT0_
FNDA:1980,_ZNSt6threadC2IRFviiiP8stages_tiEJRiS5_S5_RS2_S5_EvEEOT_DpOT0_
FN:195,_ZNSt6thread11_State_implINS_8_InvokerISt5tupleIJPFviiiP8stages_tiEiiiS4_iEEEEE6_M_runEv
FNDA:1980,_ZNSt6thread11_State_implINS_8_InvokerISt5tupleIJPFviiiP8stages_tiEiiiS4_iEEEEE6_M_runEv
FN:203,_ZNSt6thread13_S_make_stateINS_8_InvokerISt5tupleIJPFviiiP8stages_tiEiiiS4_iEEEEEESt10unique_ptrINS_6_StateESt14default_deleteISA_EEOT_
FNDA:1980,_ZNSt6thread13_S_make_stateINS_8_InvokerISt5tupleIJPFviiiP8stages_tiEiiiS4_iEEEEEESt10unique_ptrINS_6_StateESt14default_deleteISA_EEOT_
DA:67,1980
DA:82,9900
DA:117,1980
DA:118,1980
DA:126,1980
DA:130,1980
DA:134,1980
DA:136,5940
DA:137,1980
DA:138,5940
DA:139,0
DA:144,3960
DA:145,3960
DA:158,3960
DA:159,3960
DA:162,5940
DA:163,5940
DA:191,1980
DA:195,3959
DA:203,1980
DA:206,1980
DA:230,1980
DA:243,1980
DA:244,1980
DA:247,1980
DA:251,1980
DA:263,1980
DA:267,1980
DA:276,5940
DA:282,5940
DA:353,1
DA:356,1
DA:358,1
end_of_record
SF:/usr/include/c++/9/utility
DA:174,0
DA:175,0
DA:219,0
DA:220,0
end_of_record
SF:/usr/include/c++/9/bits/functional_hash.h
DA:109,13550400
DA:110,42342300
DA:156,0
DA:195,0
DA:197,0
end_of_record
SF:/usr/include/c++/9/bits/alloc_traits.h
DA:443,21978600
DA:444,21982900
DA:469,3137970000
DA:470,3137970000
DA:482,5107970
DA:484,29078600
DA:495,21606100
DA:497,21606100
DA:505,6675370
DA:506,6675370
DA:514,351416000
DA:515,351546000
DA:545,1295630000
DA:546,1295630000
DA:553,1295630000
DA:557,1295630000
end_of_record
SF:/workspace/vtr-verilog-to-routing/ODIN_II/SRC/simulate_blif.cpp
FN:56,_ZL13get_edge_typeP6npin_ti
FNDA:374995000,_ZL13get_edge_typeP6npin_ti
FN:84,_ZL10ff_trigger11edge_type_eP6npin_ti
FNDA:374995000,_ZL10ff_trigger11edge_type_eP6npin_ti
FN:114,_ZL10compute_ffbP6npin_tS0_i
FNDA:371007000,_ZL10compute_ffbP6npin_tS0_i
FN:118,_ZL13is_clock_nodeP7nnode_t
FNDA:1161930000,_ZL13is_clock_nodeP7nnode_t
FN:208,_Z16simulate_netlistP9netlist_t
FNDA:2866,_Z16simulate_netlistP9netlist_t
FN:244,_Z15init_simulationP9netlist_t
FNDA:2866,_Z15init_simulationP9netlist_t
FN:342,_Z20terminate_simulationP10sim_data_t
FNDA:2866,_Z20terminate_simulationP10sim_data_t
FN:361,_Z14simulate_stepsP10sim_data_td
FNDA:2866,_Z14simulate_stepsP10sim_data_td
FN:422,_Z11single_stepP10sim_data_ti
FNDA:354823,_Z11single_stepP10sim_data_ti
FN:475,_ZL22compute_and_store_partiiiP8stages_ti
FNDA:141301000,_ZL22compute_and_store_partiiiP8stages_ti
FN:481,_ZL14simulate_cycleiP8stages_t
FNDA:351957,_ZL14simulate_cycleiP8stages_t
FN:524,_ZL26update_undriven_input_pinsP7nnode_ti
FNDA:18934100,_ZL26update_undriven_input_pinsP7nnode_ti
FN:550,_ZL13is_node_readyP7nnode_ti
FNDA:1175370000,_ZL13is_node_readyP7nnode_ti
FN:620,_ZL20simulate_first_cycleP9netlist_tiP7lines_t
FNDA:2866,_ZL20simulate_first_cycleP9netlist_tiP7lines_t
FN:682,_ZL19stage_ordered_nodesPP7nnode_ti
FNDA:2866,_ZL19stage_ordered_nodesPP7nnode_ti
FN:770,_ZL23compute_and_store_valueP7nnode_ti
FNDA:1161620000,_ZL23compute_and_store_valueP7nnode_ti
FN:1116,_ZL21get_num_covered_nodesP8stages_t
FNDA:3106,_ZL21get_num_covered_nodesP8stages_t
FN:1140,_Z15set_clock_ratioiP7nnode_t
FNDA:0,_Z15set_clock_ratioiP7nnode_t
FN:1151,_Z15get_clock_ratioP7nnode_t
FNDA:0,_Z15get_clock_ratioP7nnode_t
FN:1174,_Z15get_children_ofP7nnode_tPi
FNDA:10371800,_Z15get_children_ofP7nnode_tPi
FN:1260,_Z23get_children_of_nodepinP7nnode_tPii
FNDA:0,_Z23get_children_of_nodepinP7nnode_tPii
FN:1355,_ZL14initialize_pinP6npin_t
FNDA:8148340,_ZL14initialize_pinP6npin_t
FN:1386,_ZL16update_pin_valueP6npin_thi
FNDA:1268790000,_ZL16update_pin_valueP6npin_thi
FN:1395,_Z13get_pin_valueP6npin_ti
FNDA:6396510000,_Z13get_pin_valueP6npin_ti
FN:1404,_ZL13get_pin_cycleP6npin_t
FNDA:3679490000,_ZL13get_pin_cycleP6npin_t
FN:1413,_ZL21compute_flipflop_nodeP7nnode_ti
FNDA:371007000,_ZL21compute_flipflop_nodeP7nnode_ti
FN:1429,_ZL18compute_mux_2_nodeP7nnode_ti
FNDA:258587000,_ZL18compute_mux_2_nodeP7nnode_ti
FN:1493,_ZL20compute_hard_ip_nodeP7nnode_ti
FNDA:0,_ZL20compute_hard_ip_nodeP7nnode_ti
FN:1551,_ZL20compute_generic_nodeP7nnode_ti
FNDA:0,_ZL20compute_generic_nodeP7nnode_ti
FN:1594,_ZL16compute_add_nodeP7nnode_ti
FNDA:75100600,_ZL16compute_add_nodeP7nnode_ti
FN:1643,_ZL22compute_unary_sub_nodeP7nnode_ti
FNDA:0,_ZL22compute_unary_sub_nodeP7nnode_ti
FN:1684,_ZL19compute_memory_nodeP7nnode_ti
FNDA:3987460,_ZL19compute_memory_nodeP7nnode_ti
FN:1710,_ZL20read_write_to_memoryP7nnode_tP13signal_list_tS2_S2_bP6npin_ti
FNDA:6570380,_ZL20read_write_to_memoryP7nnode_tP13signal_list_tS2_S2_bP6npin_ti
FN:1744,_ZL26compute_single_port_memoryP7nnode_ti
FNDA:1404540,_ZL26compute_single_port_memoryP7nnode_ti
FN:1760,_ZL24compute_dual_port_memoryP7nnode_ti
FNDA:2582920,_ZL24compute_dual_port_memoryP7nnode_ti
FN:1779,_ZL18instantiate_memoryP7nnode_tll
FNDA:10563,_ZL18instantiate_memoryP7nnode_tll
FN:1789,_ZL15parse_mif_radixNSt7__cxx1112basic_stringIcSt11char_traitsIcESaIcEEE
FNDA:0,_ZL15parse_mif_radixNSt7__cxx1112basic_stringIcSt11char_traitsIcESaIcEEE
FN:1793,_ZL27assign_memory_from_mif_fileP7nnode_tPKcil
FNDA:0,_ZL27assign_memory_from_mif_fileP7nnode_tPKcil
FN:1940,_ZL19assign_node_to_lineP7nnode_tP7lines_tii
FNDA:149302,_ZL19assign_node_to_lineP7nnode_tP7lines_tii
FN:1983,_ZL20insert_pin_into_lineP6npin_tiP6line_ti
FNDA:149302,_ZL20insert_pin_into_lineP6npin_tiP6line_ti
FN:2014,_ZL12create_linesP9netlist_ti
FNDA:5732,_ZL12create_linesP9netlist_ti
FN:2049,_ZL20write_vector_headersP8_IO_FILEP7lines_t
FNDA:5732,_ZL20write_vector_headersP8_IO_FILEP7lines_t
FN:2062,_ZL26verify_test_vector_headersP8_IO_FILEP7lines_t
FNDA:2516,_ZL26verify_test_vector_headersP8_IO_FILEP7lines_t
FN:2146,_ZL11create_linePc
FNDA:17656,_ZL11create_linePc
FN:2214,_ZL20compare_test_vectorsP11test_vectorS0_
FNDA:345727,_ZL20compare_test_vectorsP11test_vectorS0_
FN:2253,_ZL17parse_test_vectorPc
FNDA:1034720,_ZL17parse_test_vectorPc
FN:2315,_ZL25contains_a_substr_of_nameSt6vectorINSt7__cxx1112basic_stringIcSt11char_traitsIcESaIcEEESaIS5_EEPKc
FNDA:101228,_ZL25contains_a_substr_of_nameSt6vectorINSt7__cxx1112basic_stringIcSt11char_traitsIcESaIcEEESaIS5_EEPKc
FN:2411,_ZL19write_cycle_to_fileP7lines_tP8_IO_FILEi
FNDA:709646,_ZL19write_cycle_to_fileP7lines_tP8_IO_FILEi
FN:2542,_ZL21verify_output_vectorsPKci
FNDA:2510,_ZL21verify_output_vectorsPKci
FN:2638,_ZL29add_additional_items_to_linesP7nnode_tP7lines_t
FNDA:5185890,_ZL29add_additional_items_to_linesP7nnode_tP7lines_t
FN:2745,_Z18get_line_pin_valueP6line_tii
FNDA:0,_Z18get_line_pin_valueP6line_tii
FN:2752,_ZL18count_test_vectorsP8_IO_FILE
FNDA:2516,_ZL18count_test_vectorsP8_IO_FILE
FN:2771,_ZL24count_empty_test_vectorsP8_IO_FILE
FNDA:0,_ZL24count_empty_test_vectorsP8_IO_FILE
FN:2792,_ZL9is_vectorPc
FNDA:1383990,_ZL9is_vectorPc
FN:2811,_ZL15get_next_vectorP8_IO_FILEPc
FNDA:1388040,_ZL15get_next_vectorP8_IO_FILEPc
FN:2827,_ZL10free_linesP7lines_t
FNDA:5732,_ZL10free_linesP7lines_t
FN:2851,_ZL11free_stagesP8stages_t
FNDA:2866,_ZL11free_stagesP8stages_t
FN:2873,_ZL16free_test_vectorP11test_vector
FNDA:1046280,_ZL16free_test_vectorP11test_vector
FN:2926,_ZL14print_ancestryP7nnode_ti
FNDA:0,_ZL14print_ancestryP7nnode_ti
FN:3018,_ZL18print_update_traceP7nnode_ti
FNDA:0,_ZL18print_update_traceP7nnode_ti
DA:43,5483920
DA:45,5483920
DA:56,374995000
DA:57,374995000
DA:59,374995000
DA:60,374995000
DA:62,374995000
DA:63,373967000
DA:64,373967000
DA:67,373967000
DA:68,373967000
DA:70,186940000
DA:71,186940000
DA:74,374995000
DA:75,188730000
DA:77,93845400
DA:78,93845400
DA:84,374995000
DA:85,374995000
DA:87,374995000
DA:88,374995000
DA:89,374995000
DA:90,280111000
DA:91,280111000
DA:92,655106000
DA:95,371007000
DA:96,371007000
DA:99,371007000
DA:100,371007000
DA:103,371007000
DA:104,371007000
DA:114,371007000
DA:115,371007000
DA:118,1161930000
DA:119,3485500000
DA:120,3485590000
DA:208,2866
DA:209,2866
DA:210,2866
DA:211,2866
DA:213,2866
DA:214,2866
DA:215,6
DA:216,2860
DA:217,26
DA:220,2866
DA:222,2866
DA:223,2866
DA:225,2866
DA:227,2866
DA:228,2510
DA:229,2510
DA:231,0
DA:232,2510
DA:236,2866
DA:238,2866
DA:239,2866
DA:244,2866
DA:245,2866
DA:246,2866
DA:247,4
DA:249,2866
DA:251,2866
DA:253,2866
DA:254,2866
DA:255,2866
DA:258,2866
DA:259,2866
DA:260,2866
DA:261,2866
DA:262,0
DA:265,2866
DA:266,2866
DA:267,2866
DA:268,2866
DA:269,0
DA:272,2866
DA:273,2866
DA:274,2866
DA:275,2866
DA:276,0
DA:279,2866
DA:280,2866
DA:281,2866
DA:282,2866
DA:283,0
DA:286,2866
DA:287,2866
DA:288,0
DA:290,2866
DA:291,2866
DA:292,0
DA:294,2866
DA:299,2866
DA:300,2516
DA:301,2516
DA:302,0
DA:305,2866
DA:306,2516
DA:309,2516
DA:310,0
DA:312,2516
DA:313,2516
DA:317,350
DA:318,0
DA:320,350
DA:322,350
DA:323,350
DA:325,350
DA:329,2866
DA:330,2866
DA:332,2866
DA:334,2866
DA:335,0
DA:336,0
DA:339,2866
DA:342,2866
DA:343,2866
DA:345,2866
DA:347,2866
DA:348,2866
DA:350,2866
DA:351,2866
DA:352,2866
DA:353,2516
DA:355,2866
DA:356,2866
DA:357,2866
DA:358,2866
DA:361,2866
DA:362,2866
DA:364,2866
DA:365,2866
DA:367,2866
DA:369,2866
DA:370,2866
DA:371,357689
DA:372,354823
DA:375,354823
DA:376,10922
DA:377,240
DA:378,240
DA:379,234
DA:380,26
DA:381,26
DA:382,26
DA:383,208
DA:385,182
DA:386,182
DA:390,6
DA:391,0
DA:395,354823
DA:396,354823
DA:398,354823
DA:401,354823
DA:404,354823
DA:405,2866
DA:407,354823
DA:410,354823
DA:411,351957
DA:412,351957
DA:415,354823
DA:417,2866
DA:422,354823
DA:423,354823
DA:427,354823
DA:430,354823
DA:431,343265
DA:433,343265
DA:434,0
DA:436,343265
DA:438,11558
DA:441,354823
DA:442,354823
DA:443,354823
DA:444,354823
DA:446,354823
DA:449,2866
DA:452,2866
DA:453,0
DA:456,351957
DA:458,354823
DA:460,354823
DA:462,354823
DA:475,141301000
DA:476,1297740000
DA:477,1156440000
DA:478,1156440000
DA:479,141301000
DA:481,351957
DA:482,351957
DA:483,141651000
DA:484,141299000
DA:486,141299000
DA:487,141299000
DA:489,141299000
DA:490,141299000
DA:492,282599000
DA:493,141301000
DA:494,141301000
DA:496,141301000
DA:497,141301000
DA:499,141301000
DA:500,141301000
DA:501,3960
DA:503,141299000
DA:507,141301000
DA:508,1980
DA:510,141299000
DA:512,351957
DA:524,18934100
DA:525,18934100
DA:526,18934100
DA:527,0
DA:530,18934100
DA:531,0
DA:532,0
DA:534,0
DA:536,0
DA:545,18934100
DA:550,1175370000
DA:551,1175370000
DA:557,527316000
DA:558,508382000
DA:560,508382000
DA:561,1016760000
DA:562,508382000
DA:564,508382000
DA:567,0
DA:568,0
DA:569,0
DA:572,0
DA:573,0
DA:574,0
DA:576,0
DA:580,18934100
DA:583,1175370000
DA:584,372629000
DA:585,372629000
DA:588,372629000
DA:591,372629000
DA:592,0
DA:593,802741000
DA:595,121249000
DA:596,117250000
DA:598,117250000
DA:599,6606680
DA:602,110643000
DA:608,3601440000
DA:609,2810660000
DA:620,2866
DA:621,2866
DA:624,71851
DA:625,68985
DA:626,68985
DA:627,137970
DA:632,2866
DA:633,2866
DA:634,11464
DA:635,8598
DA:636,8598
DA:637,17196
DA:644,5188750
DA:645,5185890
DA:646,5185890
DA:647,5185890
DA:649,5185890
DA:652,5185890
DA:653,5185890
DA:655,19562400
DA:656,14376500
DA:658,14376500
DA:659,5108300
DA:660,19484800
DA:663,5185890
DA:665,5185890
DA:668,5185890
DA:669,5185890
DA:673,2866
DA:674,2866
DA:676,2866
DA:682,2866
DA:683,2866
DA:684,2866
DA:685,2866
DA:686,2866
DA:687,2866
DA:688,2866
DA:689,2866
DA:690,2866
DA:691,2866
DA:692,2866
DA:693,2866
DA:696,2866
DA:697,2866
DA:699,2866
DA:700,5188750
DA:701,5185890
DA:702,5185890
DA:705,5185890
DA:706,5185890
DA:709,10371800
DA:712,5185890
DA:713,5185890
DA:714,18361400
DA:715,27100800
DA:719,5185890
DA:720,374921
DA:721,374921
DA:722,374921
DA:723,374921
DA:724,374921
DA:725,374921
DA:726,374921
DA:728,374921
DA:729,374921
DA:733,5185890
DA:734,5185890
DA:737,5185890
DA:740,19562400
DA:742,14376500
DA:746,5185890
DA:748,5185890
DA:750,5185890
DA:752,2866
DA:753,2866
DA:754,5732
DA:770,1161620000
DA:772,1161620000
DA:773,1161620000
DA:774,1161010000
DA:775,258587000
DA:776,258587000
DA:777,258587000
DA:778,371007000
DA:779,371007000
DA:780,371007000
DA:781,3987460
DA:782,3987460
DA:783,3987460
DA:784,1063990
DA:785,1063990
DA:786,1063990
DA:787,2127970
DA:788,2127970
DA:789,2127970
DA:790,31610300
DA:791,30546300
DA:793,1063990
DA:795,1639860
DA:796,1639860
DA:797,1639860
DA:798,1639860
DA:799,1639860
DA:800,1639860
DA:802,56441700
DA:803,56441700
DA:804,56441700
DA:805,112883000
DA:806,56441700
DA:807,56441700
DA:808,56441700
DA:810,27112000
DA:811,27112000
DA:812,54224000
DA:813,27112000
DA:814,27112000
DA:815,27112000
DA:817,14948
DA:818,14948
DA:819,29896
DA:820,14948
DA:821,14948
DA:822,14948
DA:824,57116000
DA:825,57116000
DA:826,57116000
DA:827,57116000
DA:828,114232000
DA:829,57116000
DA:830,57116000
DA:831,57116000
DA:833,0
DA:834,0
DA:835,0
DA:837,0
DA:838,0
DA:839,0
DA:841,0
DA:842,0
DA:843,0
DA:844,0
DA:846,0
DA:850,19970300
DA:851,19970300
DA:852,19970300
DA:854,19970300
DA:855,19970300
DA:856,19970300
DA:858,19970300
DA:859,3723430
DA:860,16246800
DA:861,339020
DA:863,15907800
DA:867,98137600
DA:868,98137600
DA:869,98137600
DA:871,98137600
DA:872,98137600
DA:873,98137600
DA:874,98137600
DA:876,98137600
DA:878,92915700
DA:879,92915700
DA:880,92915700
DA:882,92915700
DA:883,92915700
DA:884,92915700
DA:885,92915700
DA:887,92915700
DA:889,27151300
DA:890,27151300
DA:891,27151300
DA:892,27151300
DA:893,54302500
DA:894,27151300
DA:895,27151300
DA:896,27151300
DA:898,41825800
DA:899,41825800
DA:900,41825800
DA:901,41825800
DA:902,83651600
DA:903,41825800
DA:904,41825800
DA:905,41825800
DA:907,0
DA:908,0
DA:909,0
DA:910,0
DA:911,0
DA:913,0
DA:914,0
DA:915,0
DA:916,0
DA:917,0
DA:918,0
DA:919,0
DA:920,0
DA:922,0
DA:924,0
DA:925,0
DA:926,0
DA:927,0
DA:928,0
DA:929,0
DA:930,0
DA:931,0
DA:933,0
DA:935,0
DA:936,0
DA:937,0
DA:938,0
DA:939,0
DA:940,0
DA:941,0
DA:942,0
DA:944,0
DA:946,0
DA:947,0
DA:948,0
DA:949,0
DA:950,0
DA:951,0
DA:952,0
DA:953,0
DA:955,0
DA:957,0
DA:958,0
DA:959,0
DA:960,0
DA:961,0
DA:962,0
DA:963,0
DA:964,0
DA:966,0
DA:968,0
DA:969,0
DA:970,0
DA:971,0
DA:972,0
DA:973,0
DA:974,0
DA:975,0
DA:977,0
DA:979,0
DA:980,0
DA:981,0
DA:982,0
DA:983,0
DA:984,0
DA:985,0
DA:986,0
DA:988,0
DA:990,615018
DA:991,615018
DA:993,615018
DA:996,615018
DA:997,615018
DA:998,0
DA:999,0
DA:1000,0
DA:1003,0
DA:1004,0
DA:1005,0
DA:1007,0
DA:1008,0
DA:1010,0
DA:1011,0
DA:1012,0
DA:1015,0
DA:1016,0
DA:1020,0
DA:1022,0
DA:1023,0
DA:1024,0
DA:1026,0
DA:1027,0
DA:1028,0
DA:1030,0
DA:1035,354823
DA:1036,354823
DA:1037,354823
DA:1038,354823
DA:1039,354823
DA:1040,354823
DA:1041,354823
DA:1042,354823
DA:1043,354823
DA:1044,354823
DA:1046,354823
DA:1047,354823
DA:1050,15196500
DA:1051,15196500
DA:1053,15196500
DA:1054,15196500
DA:1055,0
DA:1056,0
DA:1057,0
DA:1058,0
DA:1059,0
DA:1060,0
DA:1061,75100600
DA:1062,75100600
DA:1063,75100600
DA:1064,0
DA:1065,0
DA:1066,0
DA:1068,0
DA:1071,0
DA:1072,0
DA:1073,0
DA:1074,0
DA:1075,0
DA:1076,0
DA:1077,0
DA:1078,0
DA:1079,0
DA:1080,0
DA:1081,0
DA:1082,0
DA:1083,0
DA:1084,0
DA:1088,1161620000
DA:1089,1161620000
DA:1092,2400840000
DA:1093,1253570000
DA:1094,1253570000
DA:1097,1253570000
DA:1098,77463500
DA:1099,77463500
DA:1100,1690260
DA:1105,1161620000
DA:1110,1161620000
DA:1116,3106
DA:1117,3106
DA:1118,382357
DA:1119,5580930
DA:1120,5225640
DA:1122,3106
DA:1140,4154
DA:1142,4154
DA:1145,4154
DA:1151,0
DA:1153,0
DA:1156,0
DA:1162,18854100
DA:1163,21529200
DA:1164,18854300
DA:1174,10371800
DA:1175,10371800
DA:1176,10371800
DA:1177,10371800
DA:1178,21318500
DA:1179,10946800
DA:1180,10946800
DA:1181,10946800
DA:1185,21572200
DA:1186,0
DA:1187,0
DA:1188,0
DA:1190,0
DA:1192,0
DA:1193,0
DA:1194,0
DA:1196,0
DA:1205,0
DA:1206,0
DA:1207,0
DA:1211,39539000
DA:1212,28752900
DA:1213,28752900
DA:1214,28752900
DA:1216,28752900
DA:1218,28752900
DA:1219,0
DA:1220,0
DA:1221,0
DA:1223,28752900
DA:1224,28752900
DA:1225,28752900
DA:1226,57506000
DA:1227,28753100
DA:1228,28753100
DA:1230,28753100
DA:1231,28752900
DA:1235,28752900
DA:1236,0
DA:1237,0
DA:1238,0
DA:1242,0
DA:1244,28752900
DA:1245,28752900
DA:1251,10371800
DA:1252,10371800
DA:1260,0
DA:1261,0
DA:1262,0
DA:1263,0
DA:1264,0
DA:1265,0
DA:1266,0
DA:1269,0
DA:1270,0
DA:1271,0
DA:1275,0
DA:1276,0
DA:1277,0
DA:1278,0
DA:1280,0
DA:1282,0
DA:1283,0
DA:1284,0
DA:1286,0
DA:1295,0
DA:1296,0
DA:1297,0
DA:1301,0
DA:1302,0
DA:1303,0
DA:1304,0
DA:1306,0
DA:1308,0
DA:1309,0
DA:1310,0
DA:1311,0
DA:1313,0
DA:1314,0
DA:1315,0
DA:1316,0
DA:1317,0
DA:1318,0
DA:1320,0
DA:1321,0
DA:1325,0
DA:1326,0
DA:1327,0
DA:1328,0
DA:1332,0
DA:1334,0
DA:1335,0
DA:1341,0
DA:1342,0
DA:1355,8148340
DA:1357,16216400
DA:1358,5349930
DA:1359,2674960
DA:1362,8148340
DA:1365,5473380
DA:1366,5393060
DA:1367,10786100
DA:1370,5393060
DA:1372,19769500
DA:1373,14376500
DA:1374,28752900
DA:1376,160634
DA:1386,1268790000
DA:1387,1268790000
DA:1388,223941
DA:1389,1268790000
DA:1390,1268790000
DA:1395,6396510000
DA:1396,6396510000
DA:1397,0
DA:1398,6396510000
DA:1404,3679490000
DA:1405,3679490000
DA:1406,5249430
DA:1407,3679490000
DA:1413,371007000
DA:1414,371007000
DA:1416,371007000
DA:1417,371007000
DA:1418,371007000
DA:1419,371007000
DA:1420,371007000
DA:1422,371007000
DA:1423,371007000
DA:1424,371007000
DA:1429,258587000
DA:1430,258587000
DA:1431,258587000
DA:1432,258587000
DA:1434,258587000
DA:1437,258587000
DA:1438,258587000
DA:1439,258587000
DA:1440,258587000
DA:1441,972827000
DA:1442,714241000
DA:1443,714241000
DA:1445,714241000
DA:1447,566774000
DA:1448,224264000
DA:1454,714241000
DA:1455,0
DA:1459,258587000
DA:1460,0
DA:1461,0
DA:1464,258587000
DA:1467,258587000
DA:1472,34243900
DA:1473,0
DA:1475,34243900
DA:1478,224343000
DA:1479,78273
DA:1481,224264000
DA:1482,224264000
DA:1488,224264000
DA:1490,258587000
DA:1493,0
DA:1494,0
DA:1495,0
DA:1498,0
DA:1499,0
DA:1501,0
DA:1502,0
DA:1504,0
DA:1505,0
DA:1508,0
DA:1510,0
DA:1512,0
DA:1513,0
DA:1516,0
DA:1518,0
DA:1520,0
DA:1521,0
DA:1522,0
DA:1525,0
DA:1527,0
DA:1528,0
DA:1529,0
DA:1533,0
DA:1534,0
DA:1536,0
DA:1538,0
DA:1539,0
DA:1541,0
DA:1542,0
DA:1548,0
DA:1551,0
DA:1552,0
DA:1553,0
DA:1555,0
DA:1556,0
DA:1557,0
DA:1561,0
DA:1563,0
DA:1564,0
DA:1565,0
DA:1566,0
DA:1567,0
DA:1570,0
DA:1574,0
DA:1577,0
DA:1578,0
DA:1579,0
DA:1581,0
DA:1583,0
DA:1584,0
DA:1586,0
DA:1594,75100600
DA:1595,75100600
DA:1596,75100600
DA:1598,75100600
DA:1599,75100600
DA:1601,75100600
DA:1602,75100600
DA:1604,75100600
DA:1611,75100600
DA:1612,75100600
DA:1613,3361210
DA:1615,3361210
DA:1616,1389220
DA:1617,1389220
DA:1619,1389220
DA:1621,1389220
DA:1622,1389220
DA:1628,75100600
DA:1629,150201000
DA:1631,150201000
DA:1633,150201000
DA:1634,75100600
DA:1636,75100600
DA:1637,75100600
DA:1643,0
DA:1644,0
DA:1645,0
DA:1647,0
DA:1649,0
DA:1650,0
DA:1652,0
DA:1659,0
DA:1660,0
DA:1661,0
DA:1662,0
DA:1664,0
DA:1666,0
DA:1667,0
DA:1672,0
DA:1673,0
DA:1675,0
DA:1676,0
DA:1678,0
DA:1679,0
DA:1684,3987460
DA:1685,3987460
DA:1686,1404540
DA:1687,2582920
DA:1688,2582920
DA:1690,0
DA:1692,3987460
DA:1710,6570380
DA:1711,6570380
DA:1714,6570380
DA:1715,6570380
DA:1716,6570380
DA:1719,6570380
DA:1720,6570380
DA:1722,2242290
DA:1725,2242290
DA:1726,187956
DA:1727,93978
DA:1730,2242290
DA:1736,13140800
DA:1737,6570380
DA:1739,6570380
DA:1744,1404540
DA:1745,1404540
DA:1747,1404540
DA:1749,1404540
DA:1750,3936
DA:1752,1404540
DA:1754,1404540
DA:1755,1404540
DA:1760,2582920
DA:1761,2582920
DA:1762,2582920
DA:1764,2582920
DA:1765,19881
DA:1766,6627
DA:1767,6627
DA:1769,2582920
DA:1770,2582920
DA:1772,2582920
DA:1773,2582920
DA:1779,10563
DA:1780,10563
DA:1781,10563
DA:1782,10563
DA:1783,0
DA:1784,0
DA:1785,0
DA:1787,10563
DA:1789,0
DA:1790,0
DA:1793,0
DA:1794,0
DA:1795,0
DA:1796,0
DA:1798,0
DA:1799,0
DA:1800,0
DA:1803,0
DA:1805,0
DA:1806,0
DA:1807,0
DA:1809,0
DA:1810,0
DA:1812,0
DA:1813,0
DA:1815,0
DA:1816,0
DA:1817,0
DA:1819,0
DA:1821,0
DA:1824,0
DA:1826,0
DA:1827,0
DA:1829,0
DA:1833,0
DA:1834,0
DA:1836,0
DA:1838,0
DA:1840,0
DA:1841,0
DA:1843,0
DA:1844,0
DA:1846,0
DA:1847,0
DA:1849,0
DA:1850,0
DA:1853,0
DA:1854,0
DA:1856,0
DA:1865,0
DA:1866,0
DA:1867,0
DA:1868,0
DA:1871,0
DA:1872,0
DA:1873,0
DA:1876,0
DA:1879,0
DA:1882,0
DA:1883,0
DA:1884,0
DA:1886,0
DA:1887,0
DA:1888,0
DA:1891,0
DA:1892,0
DA:1893,0
DA:1895,0
DA:1896,0
DA:1897,0
DA:1898,0
DA:1902,0
DA:1903,0
DA:1904,0
DA:1905,0
DA:1906,0
DA:1907,0
DA:1910,0
DA:1911,0
DA:1912,0
DA:1913,0
DA:1914,0
DA:1915,0
DA:1921,0
DA:1924,0
DA:1928,0
DA:1931,0
DA:1933,0
DA:1934,0
DA:1940,149302
DA:1942,149302
DA:1943,80317
DA:1944,80317
DA:1945,80317
DA:1949,149302
DA:1950,149302
DA:1951,149302
DA:1952,140501
DA:1954,8801
DA:1955,8801
DA:1958,149302
DA:1959,149302
DA:1961,149302
DA:1962,8801
DA:1963,0
DA:1966,8801
DA:1967,8801
DA:1968,8801
DA:1969,8801
DA:1972,140501
DA:1973,0
DA:1976,140501
DA:1978,149302
DA:1983,149302
DA:1985,149302
DA:1986,149302
DA:1989,149302
DA:1990,3562970
DA:1991,3413670
DA:1994,0
DA:1995,0
DA:1996,0
DA:2002,149302
DA:2003,149302
DA:2004,149302
DA:2005,149302
DA:2006,149302
DA:2014,5732
DA:2015,5732
DA:2016,5732
DA:2017,5732
DA:2019,5732
DA:2020,5732
DA:2022,5732
DA:2023,155034
DA:2024,149302
DA:2025,149302
DA:2027,149302
DA:2028,17656
DA:2029,17656
DA:2030,17656
DA:2032,149302
DA:2037,149302
DA:2038,4154
DA:2040,149302
DA:2042,5732
DA:2049,5732
DA:2050,5732
DA:2051,5732
DA:2052,5732
DA:2053,5732
DA:2054,5732
DA:2062,2516
DA:2063,2516
DA:2064,2516
DA:2067,2516
DA:2068,2516
DA:2069,2516
DA:2070,0
DA:2073,2516
DA:2074,2516
DA:2075,2516
DA:2076,89699
DA:2077,89699
DA:2079,89699
DA:2080,0
DA:2081,0
DA:2082,89699
DA:2083,10295
DA:2084,10295
DA:2085,0
DA:2088,10295
DA:2089,0
DA:2090,0
DA:2095,0
DA:2096,0
DA:2098,10295
DA:2099,10295
DA:2103,10295
DA:2106,79404
DA:2107,79404
DA:2146,17656
DA:2147,17656
DA:2149,17656
DA:2150,17656
DA:2151,17656
DA:2152,17656
DA:2153,17656
DA:2155,17656
DA:2157,17656
DA:2214,345727
DA:2215,345727
DA:2216,345727
DA:2217,0
DA:2218,0
DA:2222,1475490
DA:2224,16973700
DA:2225,15843900
DA:2226,44
DA:2238,1129760
DA:2239,2656
DA:2240,2656
DA:2241,35322
DA:2242,32666
DA:2253,1034720
DA:2254,1034720
DA:2255,1034720
DA:2256,1034720
DA:2257,1034720
DA:2258,1034720
DA:2260,1034720
DA:2262,1034720
DA:2263,1034720
DA:2264,5434730
DA:2265,4400010
DA:2266,4400010
DA:2267,4400010
DA:2268,4400010
DA:2270,4400010
DA:2271,2517520
DA:2272,2517520
DA:2273,2517520
DA:2274,2517520
DA:2275,12658800
DA:2276,10141300
DA:2278,10141300
DA:2279,10141300
DA:2280,50706600
DA:2281,40565200
DA:2282,40565200
DA:2283,23577800
DA:2284,23577800
DA:2286,40565200
DA:2287,40565200
DA:2291,1882490
DA:2292,7399640
DA:2293,5517150
DA:2294,5517150
DA:2296,4411600
DA:2297,724521
DA:2299,5517150
DA:2300,5517150
DA:2303,4400010
DA:2304,4400010
DA:2306,1034720
DA:2307,1034720
DA:2315,101228
DA:2316,101228
DA:2319,101228
DA:2322,145288
DA:2323,44060
DA:2325,106726
DA:2326,64396
DA:2327,64396
DA:2328,1730
DA:2330,42330
DA:2411,709646
DA:2412,709646
DA:2413,5732
DA:2415,709646
DA:2416,709646
DA:2542,2510
DA:2543,2510
DA:2546,2510
DA:2547,0
DA:2548,0
DA:2555,2510
DA:2556,2510
DA:2559,2510
DA:2560,2510
DA:2561,2510
DA:2562,2510
DA:2563,0
DA:2569,348237
DA:2570,345727
DA:2571,0
DA:2572,0
DA:2574,345727
DA:2575,0
DA:2576,0
DA:2580,345727
DA:2581,0
DA:2582,0
DA:2592,345727
DA:2593,345727
DA:2595,345727
DA:2598,345727
DA:2599,0
DA:2600,0
DA:2601,0
DA:2602,0
DA:2607,345727
DA:2608,40
DA:2609,40
DA:2610,40
DA:2617,345727
DA:2618,345727
DA:2623,2510
DA:2624,0
DA:2625,0
DA:2628,2510
DA:2629,2510
DA:2631,2510
DA:2638,5185890
DA:2639,10371800
DA:2640,5185890
DA:2646,0
DA:2647,0
DA:2649,0
DA:2650,0
DA:2651,0
DA:2656,0
DA:2659,0
DA:2660,0
DA:2661,0
DA:2666,0
DA:2671,0
DA:2672,0
DA:2673,0
DA:2680,0
DA:2681,0
DA:2683,0
DA:2684,0
DA:2685,0
DA:2686,0
DA:2688,0
DA:2690,0
DA:2691,0
DA:2692,0
DA:2693,0
DA:2695,0
DA:2696,0
DA:2700,5185890
DA:2745,0
DA:2746,0
DA:2752,2516
DA:2753,2516
DA:2756,348297
DA:2757,348297
DA:2758,345781
DA:2760,2516
DA:2761,2516
DA:2763,2516
DA:2765,2516
DA:2771,0
DA:2772,0
DA:2774,0
DA:2775,0
DA:2776,0
DA:2777,0
DA:2778,0
DA:2780,0
DA:2781,0
DA:2783,0
DA:2785,0
DA:2792,1383990
DA:2793,1383990
DA:2794,1383990
DA:2796,1383990
DA:2797,1383020
DA:2798,1383020
DA:2800,978
DA:2801,978
DA:2811,1388040
DA:2812,1388040
DA:2814,1388040
DA:2817,2778040
DA:2818,1383990
DA:2827,5732
DA:2828,5732
DA:2829,5732
DA:2830,23346
DA:2831,17656
DA:2832,17656
DA:2833,17656
DA:2834,17656
DA:2835,17656
DA:2836,17656
DA:2837,17656
DA:2838,17656
DA:2842,5690
DA:2844,5732
DA:2846,5732
DA:2851,2866
DA:2852,2866
DA:2853,2866
DA:2855,2866
DA:2856,380653
DA:2857,377787
DA:2858,377787
DA:2860,2866
DA:2863,2866
DA:2864,2866
DA:2866,2866
DA:2868,2866
DA:2873,1046280
DA:2874,1046280
DA:2875,1046280
DA:2876,5500820
DA:2877,4454550
DA:2878,4454360
DA:2880,1046260
DA:2883,1046280
DA:2884,1046260
DA:2885,1046280
DA:2887,1046280
DA:2926,0
DA:2927,0
DA:2929,0
DA:2930,0
DA:2931,0
DA:2932,0
DA:2933,0
DA:2935,0
DA:2936,0
DA:2937,0
DA:2938,0
DA:2939,0
DA:2940,0
DA:2942,0
DA:2943,0
DA:2944,0
DA:2945,0
DA:2947,0
DA:2948,0
DA:2949,0
DA:2950,0
DA:2951,0
DA:2952,0
DA:2954,0
DA:3002,0
DA:3005,0
DA:3006,0
DA:3007,0
DA:3018,0
DA:3020,0
DA:3021,0
DA:3031,0
DA:3034,0
DA:3036,0
DA:3037,0
DA:3040,0
DA:3041,0
DA:3042,0
DA:3043,0
DA:3044,0
DA:3045,0
DA:3046,0
DA:3047,0
DA:3048,0
DA:3049,0
DA:3052,0
DA:3053,0
DA:3054,0
DA:3056,0
DA:3057,0
DA:3060,0
DA:3061,0
DA:3063,0
DA:3064,0
DA:3065,0
DA:3069,0
DA:3070,0
DA:3071,0
DA:3074,0
DA:3076,0
DA:3077,0
DA:3081,0
DA:3082,0
DA:3083,0
DA:3092,0
end_of_record
SF:/usr/include/c++/9/bits/locale_facets.h
FN:872,_ZNKSt5ctypeIcE5widenEc
FNDA:0,_ZNKSt5ctypeIcE5widenEc
FN:1084,_ZNKSt5ctypeIcE8do_widenEc
FNDA:0,_ZNKSt5ctypeIcE8do_widenEc
DA:872,0
DA:874,0
DA:875,0
DA:876,0
DA:877,0
DA:1084,0
DA:1085,0
end_of_record
SF:/usr/include/c++/9/bits/allocated_ptr.h
DA:52,0
DA:53,5473360
DA:70,5473360
DA:73,0
DA:78,5473360
DA:80,5473360
DA:85,5473360
DA:95,5473360
DA:97,5473360
end_of_record
SF:/usr/include/c++/9/bits/unordered_set.h
DA:97,2866
DA:135,2866
DA:333,18736300
DA:334,18736300
DA:420,19562400
DA:421,19562400
DA:572,755574
DA:573,377787
DA:649,18736300
DA:650,37472500
end_of_record
SF:/usr/include/c++/9/bits/unordered_map.h
DA:102,0
DA:141,0
DA:346,0
DA:347,0
DA:585,0
DA:586,0
DA:920,0
DA:921,0
end_of_record
SF:/usr/include/c++/9/ostream
DA:108,0
DA:113,0
DA:565,0
DA:568,0
DA:570,0
DA:571,0
end_of_record
SF:/usr/include/x86_64-linux-gnu/bits/string_fortified.h
DA:59,0
DA:71,0
DA:88,17656
DA:90,17656
end_of_record
SF:/usr/include/c++/9/bits/hashtable_policy.h
DA:84,19562400
DA:85,37173000
DA:92,0
DA:94,0
DA:161,19562400
DA:162,19562400
DA:166,16418200
DA:167,16418200
DA:218,16421100
DA:229,16418200
DA:236,32853100
DA:237,32853100
DA:240,17594000
DA:241,17594000
DA:244,16661
DA:245,16661
DA:248,17594000
DA:249,17594000
DA:269,0
DA:279,16418200
DA:282,17594000
DA:294,56660000
DA:295,0
DA:304,0
DA:311,18736300
DA:314,18736300
DA:340,56660000
DA:341,57034900
DA:384,0
DA:385,0
DA:391,0
DA:393,0
DA:400,0
DA:401,0
DA:431,55909300
DA:433,17594000
DA:449,2866
DA:450,2866
DA:476,16418200
DA:477,16418200
DA:484,0
DA:485,0
DA:805,19562400
DA:820,19562400
DA:822,19562400
DA:823,19562400
DA:824,19562400
DA:1002,0
DA:1004,0
DA:1005,0
DA:1093,5732
DA:1096,2866
DA:1104,55909300
DA:1108,68850300
DA:1288,38298600
DA:1292,38298600
DA:1296,38315300
DA:1297,38315300
DA:1300,17594000
DA:1304,17594000
DA:1307,16418200
DA:1323,17594000
DA:1326,19579000
DA:1329,38298600
DA:1335,55909300
DA:1380,0
DA:1384,0
DA:1388,0
DA:1390,0
DA:1393,0
DA:1396,0
DA:1399,0
DA:1400,0
DA:1415,0
DA:1418,0
DA:1421,0
DA:1427,0
DA:1448,0
DA:1450,0
DA:1829,0
DA:1834,0
DA:1846,0
DA:2017,5732
DA:2036,2866
DA:2046,49271300
DA:2047,32836400
DA:2079,16418200
DA:2081,16418200
DA:2082,16418200
DA:2085,16418200
DA:2086,16418200
DA:2100,16418200
DA:2102,0
DA:2103,16418200
DA:2104,16418200
DA:2108,16418200
DA:2111,16418200
DA:2112,16418200
DA:2113,16418200
DA:2118,761306
DA:2120,17179500
DA:2122,16418200
DA:2123,16418200
DA:2124,17179500
DA:2142,16661
DA:2146,16661
DA:2147,16661
DA:2148,16661
DA:2149,16661
end_of_record
SF:/usr/include/c++/9/sstream
end_of_record
SF:/usr/include/c++/9/bits/stl_uninitialized.h
FN:76,_ZNSt20__uninitialized_copyILb0EE13__uninit_copyIN9__gnu_cxx17__normal_iteratorIPKNSt7__cxx1112basic_stringIcSt11char_traitsIcESaIcEEESt6vectorIS9_SaIS9_EEEEPS9_EET0_T_SI_SH_
FNDA:5287120,_ZNSt20__uninitialized_copyILb0EE13__uninit_copyIN9__gnu_cxx17__normal_iteratorIPKNSt7__cxx1112basic_stringIcSt11char_traitsIcESaIcEEESt6vectorIS9_SaIS9_EEEEPS9_EET0_T_SI_SH_
FN:215,_ZNSt22__uninitialized_fill_nILb0EE15__uninit_fill_nIPSt6vectorIhSaIhEEmS4_EET_S6_T0_RKT1_
FNDA:10563,_ZNSt22__uninitialized_fill_nILb0EE15__uninit_fill_nIPSt6vectorIhSaIhEEmS4_EET_S6_T0_RKT1_
DA:76,5287120
DA:79,5287120
DA:82,5353190
DA:83,132156
DA:84,5287120
DA:86,0
DA:88,0
DA:89,0
DA:99,346128000
DA:101,346128000
DA:115,351416000
DA:134,351416000
DA:140,351416000
DA:215,10563
DA:218,10563
DA:221,346139000
DA:222,346128000
DA:223,10563
DA:225,0
DA:227,0
DA:228,0
DA:238,6580950
DA:240,13161900
DA:256,6591510
DA:270,6591510
DA:273,13172500
DA:305,351416000
DA:307,5287120
DA:382,10563
DA:384,6591510
DA:905,1980
DA:912,1980
DA:913,1980
DA:949,1980
DA:950,1980
DA:964,3960
end_of_record
SF:/usr/include/c++/9/bits/stl_construct.h
DA:74,692389000
DA:75,346194000
DA:97,68058
DA:98,68058
DA:105,0
DA:107,146675000
DA:108,68058
DA:117,2312020000
DA:127,0
DA:137,0
DA:203,151092000
DA:206,2458630000
end_of_record
SF:/workspace/vtr-verilog-to-routing/libs/librtlnumber/src/include/rtl_utils.hpp
FN:47,_Z12_assert_WerrbPKciNSt7__cxx1112basic_stringIcSt11char_traitsIcESaIcEEE
FNDA:889416,_Z12_assert_WerrbPKciNSt7__cxx1112basic_stringIcSt11char_traitsIcESaIcEEE
DA:47,889416
DA:48,889416
DA:49,0
DA:50,0
DA:51,0
DA:52,0
DA:54,889416
end_of_record
SF:/usr/include/string.h
DA:213,0
DA:215,0
DA:219,0
DA:221,0
DA:317,0
DA:319,0
end_of_record
SF:/usr/include/c++/9/bits/stl_iterator.h
DA:806,1096570000
DA:807,141343000
DA:819,509064
DA:827,507334
DA:829,66078
DA:830,441256
DA:859,4484580
DA:860,4484580
DA:871,3960
DA:893,9274580
DA:896,9274580
DA:907,147246000
DA:910,147246000
DA:989,1980
DA:992,1980
DA:1010,355098000
DA:1012,355098000
end_of_record
SF:/usr/include/c++/9/bits/stl_algobase.h
DA:198,6675370
DA:222,19519
DA:227,12892
DA:228,660
DA:280,352712000
DA:289,4484580
DA:290,4484580
DA:295,352712000
DA:375,350615000
DA:384,350615000
DA:385,350615000
DA:386,350615000
DA:387,350615000
DA:393,350615000
DA:398,346128000
DA:404,350615000
DA:438,0
DA:440,8969160
DA:465,350615000
DA:474,355102000
DA:577,0
DA:586,0
DA:587,0
DA:588,0
DA:589,0
DA:595,0
DA:600,0
DA:606,0
DA:613,0
DA:615,0
DA:641,0
DA:652,0
DA:721,6580950
DA:723,6580950
DA:724,6580950
DA:725,6580950
DA:779,6580950
DA:781,13161900
DA:802,6580950
DA:808,6580950
end_of_record
SF:/usr/include/c++/9/bits/stl_vector.h
FN:519,_ZNSt6vectorIS_IhSaIhEESaIS1_EEC2EmRKS1_RKS2_
FNDA:10563,_ZNSt6vectorIS_IhSaIhEESaIS1_EEC2EmRKS1_RKS2_
FN:519,_ZNSt6vectorIhSaIhEEC2EmRKhRKS0_
FNDA:6580950,_ZNSt6vectorIhSaIhEEC2EmRKhRKS0_
FN:550,_ZNSt6vectorIhSaIhEEC2ERKS1_
FNDA:346128000,_ZNSt6vectorIhSaIhEEC2ERKS1_
FN:550,_ZNSt6vectorINSt7__cxx1112basic_stringIcSt11char_traitsIcESaIcEEESaIS5_EEC2ERKS7_
FNDA:5287120,_ZNSt6vectorINSt7__cxx1112basic_stringIcSt11char_traitsIcESaIcEEESaIS5_EEC2ERKS7_
FN:550,_ZNSt6vectorIN8BitSpace9BitFieldsItEESaIS2_EEC2ERKS4_
FNDA:0,_ZNSt6vectorIN8BitSpace9BitFieldsItEESaIS2_EEC2ERKS4_
FN:675,_ZNSt6vectorINSt7__cxx1112basic_stringIcSt11char_traitsIcESaIcEEESaIS5_EED2Ev
FNDA:5287120,_ZNSt6vectorINSt7__cxx1112basic_stringIcSt11char_traitsIcESaIcEEESaIS5_EED2Ev
FN:675,_ZNSt6vectorIS_IhSaIhEESaIS1_EED2Ev
FNDA:21126,_ZNSt6vectorIS_IhSaIhEESaIS1_EED2Ev
FN:675,_ZNSt6vectorISt6threadSaIS0_EED2Ev
FNDA:141299000,_ZNSt6vectorISt6threadSaIS0_EED2Ev
FN:1753,_ZNKSt6vectorISt6threadSaIS0_EE12_M_check_lenEmPKc
FNDA:1980,_ZNKSt6vectorISt6threadSaIS0_EE12_M_check_lenEmPKc
FN:1753,_ZNKSt6vectorIN8BitSpace9BitFieldsItEESaIS2_EE12_M_check_lenEmPKc
FNDA:0,_ZNKSt6vectorIN8BitSpace9BitFieldsItEESaIS2_EE12_M_check_lenEmPKc
FN:1753,_ZNKSt6vectorINSt7__cxx1112basic_stringIcSt11char_traitsIcESaIcEEESaIS5_EE12_M_check_lenEmPKc
FNDA:0,_ZNKSt6vectorINSt7__cxx1112basic_stringIcSt11char_traitsIcESaIcEEESaIS5_EE12_M_check_lenEmPKc
DA:94,1794940000
DA:95,1794940000
DA:106,1295630000
DA:108,1295630000
DA:109,1295630000
DA:110,1295630000
DA:114,1295630000
DA:118,1295630000
DA:119,1295630000
DA:120,1295630000
DA:121,1295630000
DA:125,2458630000
DA:128,865280000
DA:130,865280000
DA:133,1653640000
DA:134,1653640000
DA:273,1980
DA:274,1980
DA:277,1647050000
DA:278,1647050000
DA:281,1295630000
DA:282,1295630000
DA:285,865280000
DA:290,1295630000
DA:291,1295630000
DA:300,358007000
DA:301,358007000
DA:302,358007000
DA:330,2458630000
DA:332,3678960000
DA:333,2458630000
DA:334,2458630000
DA:347,2458630000
DA:350,514322000
DA:351,1880490000
DA:356,358007000
DA:358,6591510
DA:359,358007000
DA:360,358007000
DA:453,9900
DA:462,3960
DA:466,3960
DA:484,865280000
DA:494,1295630000
DA:495,1295630000
DA:519,10563
DA:521,10563
DA:522,21126
DA:519,6580950
DA:521,6580950
DA:522,13161900
DA:550,346128000
DA:552,346128000
DA:554,346128000
DA:555,692257000
DA:557,346128000
DA:558,346128000
DA:550,5287120
DA:552,5287120
DA:554,5287120
DA:555,10574200
DA:557,5287120
DA:558,5287120
DA:550,0
DA:552,0
DA:554,0
DA:555,0
DA:557,0
DA:558,0
DA:675,5287120
DA:677,10574200
DA:678,5287120
DA:680,5287120
DA:675,21126
DA:677,42252
DA:678,21126
DA:680,21126
DA:675,141299000
DA:677,282597000
DA:678,141299000
DA:680,141299000
DA:675,2312020000
DA:677,2312020000
DA:678,2312020000
DA:680,2604430000
DA:706,1295640000
DA:708,1295640000
DA:711,10563
DA:808,145829000
DA:809,141345000
DA:817,365175000
DA:818,360690000
DA:826,877115000
DA:827,877115000
DA:835,365175000
DA:836,355900000
DA:915,0
DA:916,358142000
DA:920,3960
DA:921,5940
DA:995,4484580
DA:997,4484580
DA:1004,9274580
DA:1005,9274580
DA:1040,396595000
DA:1043,396595000
DA:1200,733364000
DA:1201,733364000
DA:1590,6591510
DA:1592,6591510
DA:1593,10563
DA:1594,6591510
DA:1753,1980
DA:1755,1980
DA:1756,0
DA:1758,1980
DA:1759,1980
DA:1753,0
DA:1755,0
DA:1756,0
DA:1758,0
DA:1759,0
DA:1753,0
DA:1755,0
DA:1756,0
DA:1758,0
DA:1759,0
DA:1764,6591510
DA:1766,6591510
DA:1767,0
DA:1773,6595470
DA:1780,6595470
DA:1781,6595470
DA:1812,1295630000
DA:1814,1657620000
DA:1815,1295630000
DA:1816,1295630000
DA:1817,1295630000
end_of_record
SF:/usr/include/c++/9/bits/stl_algo.h
DA:4326,108456
DA:4336,485066
DA:4337,376610
end_of_record
SF:/usr/include/c++/9/bits/cpp_type_traits.h
DA:428,350615000
end_of_record
SF:/workspace/vtr-verilog-to-routing/ODIN_II/SRC/include/odin_buffer.hpp
FN:20,_ZN16dynamic_buffer_t4pushEc
FNDA:0,_ZN16dynamic_buffer_t4pushEc
FN:82,_ZN17buffered_reader_tC2EP8_IO_FILEPKcS3_S3_
FNDA:0,_ZN17buffered_reader_tC2EP8_IO_FILEPKcS3_S3_
FN:110,_ZN17buffered_reader_t8get_lineEv
FNDA:0,_ZN17buffered_reader_t8get_lineEv
DA:20,0
DA:21,0
DA:22,0
DA:23,0
DA:26,0
DA:27,0
DA:28,0
DA:30,0
DA:31,0
DA:32,0
DA:33,0
DA:55,0
DA:56,0
DA:59,0
DA:60,0
DA:63,0
DA:64,0
DA:67,0
DA:68,0
DA:71,0
DA:72,0
DA:75,0
DA:76,0
DA:82,0
DA:83,0
DA:85,0
DA:86,0
DA:87,0
DA:90,0
DA:91,0
DA:92,0
DA:94,0
DA:95,0
DA:98,0
DA:99,0
DA:100,0
DA:101,0
DA:102,0
DA:110,0
DA:111,0
DA:113,0
DA:114,0
DA:116,0
DA:118,0
DA:119,0
DA:120,0
DA:122,0
DA:125,0
DA:126,0
DA:127,0
DA:128,0
DA:130,0
DA:131,0
DA:134,0
DA:136,0
DA:137,0
DA:139,0
DA:140,0
DA:141,0
DA:142,0
DA:143,0
DA:144,0
DA:146,0
DA:148,0
DA:150,0
DA:151,0
DA:152,0
DA:153,0
DA:154,0
DA:155,0
DA:156,0
DA:157,0
DA:161,0
DA:163,0
DA:165,0
DA:168,0
end_of_record
SF:/usr/include/c++/9/ext/new_allocator.h
DA:80,3207060000
DA:83,1659240000
DA:89,5012100000
DA:102,21978600
DA:104,21978600
DA:105,0
DA:114,4285
DA:119,3137970000
DA:128,3137970000
DA:132,28654000
DA:144,29158500
DA:147,29078600
DA:151,21606100
DA:153,1980
end_of_record
SF:/usr/include/c++/9/bits/char_traits.h
DA:299,2324230000
DA:300,10224
DA:315,0
DA:317,0
DA:325,0
DA:329,0
DA:335,0
DA:361,2324210000
DA:363,2324210000
DA:365,2324210000
end_of_record
TN:
SF:/usr/include/c++/9/bits/stl_uninitialized.h
DA:924,10086
DA:927,10086
DA:928,5043
DA:929,1934
DA:930,5043
DA:958,6977
DA:964,6977
end_of_record
SF:/usr/include/c++/9/bits/alloc_traits.h
DA:469,5043
DA:470,5043
DA:482,34337
DA:484,34337
DA:495,34323
DA:497,34323
DA:505,10086
DA:506,10086
end_of_record
SF:/usr/include/c++/9/ext/new_allocator.h
DA:89,6013
DA:119,5043
DA:128,5043
DA:132,10086
DA:144,34337
DA:147,34337
DA:151,34323
end_of_record
SF:/usr/include/c++/9/bits/stl_algobase.h
DA:198,10086
DA:222,5043
DA:227,5043
DA:228,3109
DA:280,6977
end_of_record
SF:/usr/include/c++/9/bits/stl_vector.h
FN:675,_ZNSt6vectorIP8sc_scopeSaIS1_EED2Ev
FNDA:6013,_ZNSt6vectorIP8sc_scopeSaIS1_EED2Ev
FN:1753,_ZNKSt6vectorIP8sc_scopeSaIS1_EE12_M_check_lenEmPKc
FNDA:5043,_ZNKSt6vectorIP8sc_scopeSaIS1_EE12_M_check_lenEmPKc
DA:125,6013
DA:273,5043
DA:274,5043
DA:277,10086
DA:278,10086
DA:330,6013
DA:332,12026
DA:333,6013
DA:334,6013
DA:347,11056
DA:350,5043
DA:351,5043
DA:450,10086
DA:453,15129
DA:462,5043
DA:466,6977
DA:675,6013
DA:677,6013
DA:678,6013
DA:680,6013
DA:808,5043
DA:809,5043
DA:817,68646
DA:818,68646
DA:826,126111
DA:827,5043
DA:835,68646
DA:836,68646
DA:915,41286
DA:916,26157
DA:920,10086
DA:921,15129
DA:1004,68646
DA:1005,68646
DA:1140,60618
DA:1143,60618
DA:1200,34337
DA:1201,34337
DA:1222,34323
DA:1225,34323
DA:1226,34323
DA:1228,34323
DA:1753,5043
DA:1755,5043
DA:1756,0
DA:1758,5043
DA:1759,5043
DA:1773,10086
DA:1780,10086
DA:1781,10086
end_of_record
SF:/usr/include/c++/9/bits/stl_iterator.h
DA:806,44409
DA:807,34337
DA:819,121068
DA:867,121068
DA:868,60618
DA:871,6977
DA:893,68646
DA:896,68646
DA:989,5043
DA:992,5043
end_of_record
SF:/usr/include/c++/9/bits/stl_construct.h
DA:117,6013
DA:127,6013
DA:137,6013
DA:203,6013
DA:206,6013
end_of_record
SF:/usr/include/c++/9/new
DA:173,34337
DA:174,34337
end_of_record
SF:/usr/include/c++/9/bits/vector.tcc
FN:109,_ZNSt6vectorIP8sc_scopeSaIS1_EE12emplace_backIJS1_EEEvDpOT_
FNDA:34337,_ZNSt6vectorIP8sc_scopeSaIS1_EE12emplace_backIJS1_EEEvDpOT_
FN:426,_ZNSt6vectorIP8sc_scopeSaIS1_EE17_M_realloc_insertIJS1_EEEvN9__gnu_cxx17__normal_iteratorIPS1_S3_EEDpOT_
FNDA:5043,_ZNSt6vectorIP8sc_scopeSaIS1_EE17_M_realloc_insertIJS1_EEEvN9__gnu_cxx17__normal_iteratorIPS1_S3_EEDpOT_
DA:109,34337
DA:112,34337
DA:115,29294
DA:117,29294
DA:121,5043
DA:125,34337
DA:426,5043
DA:435,5043
DA:437,5043
DA:438,5043
DA:439,5043
DA:440,5043
DA:441,5043
DA:449,5043
DA:450,5043
DA:456,5043
DA:461,5043
DA:462,5043
DA:464,5043
DA:466,5043
DA:467,5043
DA:500,10086
DA:501,5043
DA:502,5043
DA:503,5043
DA:504,5043
DA:505,5043
end_of_record
SF:/usr/include/c++/9/bits/allocator.h
DA:153,6013
end_of_record
SF:/usr/include/c++/9/bits/move.h
DA:74,39380
DA:99,34337
end_of_record
SF:/workspace/vtr-verilog-to-routing/ODIN_II/SRC/scope_util.cpp
FN:8,_Z12new_sc_scopev
FNDA:34337,_Z12new_sc_scopev
FN:17,_Z19move_sc_scope_itemsPP8sc_scopeS0_
FNDA:26113,_Z19move_sc_scope_itemsPP8sc_scopeS0_
FN:28,_Z13free_sc_scopePP8sc_scopePP12STRING_CACHES4_
FNDA:0,_Z13free_sc_scopePP8sc_scopePP12STRING_CACHES4_
FN:44,_Z9pop_scopev
FNDA:8210,_Z9pop_scopev
FN:61,_Z16merge_top_scopesv
FNDA:26157,_Z16merge_top_scopesv
FN:68,_Z10push_scopev
FNDA:34337,_Z10push_scopev
DA:8,34337
DA:9,34337
DA:10,34337
DA:11,34337
DA:12,34337
DA:14,34337
DA:17,26113
DA:18,26113
DA:19,26113
DA:20,26113
DA:21,26113
DA:22,26113
DA:23,26113
DA:25,26113
DA:26,26113
DA:28,0
DA:29,0
DA:30,0
DA:31,0
DA:32,0
DA:34,0
DA:35,0
DA:37,0
DA:38,0
DA:41,0
DA:42,0
DA:44,34323
DA:45,34323
DA:46,8210
DA:47,34323
DA:48,34323
DA:52,34323
DA:53,26295
DA:55,8028
DA:58,34323
DA:61,26157
DA:62,26157
DA:63,26113
DA:64,26113
DA:66,26157
DA:68,34337
DA:69,34337
DA:72,34337
DA:73,34337
end_of_record
TN:
SF:/usr/include/c++/9/bits/char_traits.h
DA:299,29235700
DA:300,400290
DA:361,28435100
DA:363,28435100
DA:365,28435100
end_of_record
SF:/usr/include/c++/9/ext/new_allocator.h
DA:80,29680600
DA:89,29258200
DA:119,20847600
DA:128,20847600
end_of_record
SF:/usr/include/c++/9/bits/stl_vector.h
DA:1040,2904
DA:1043,2904
end_of_record
SF:/usr/include/string.h
DA:213,9861590
DA:215,9861590
DA:317,19481700
DA:319,19481700
end_of_record
SF:/usr/include/c++/9/bits/unordered_map.h
DA:102,425320
DA:141,422416
end_of_record
SF:/usr/include/x86_64-linux-gnu/bits/string_fortified.h
DA:126,1275700
DA:128,1275700
end_of_record
SF:/usr/include/c++/9/bits/hashtable_policy.h
DA:218,425320
DA:269,7949600
DA:449,425320
DA:450,422416
DA:1093,425320
DA:1096,425320
DA:1108,422796
DA:2017,425320
DA:2036,422416
DA:2046,422796
DA:2047,422796
DA:2118,425320
DA:2120,8374920
DA:2122,7949600
DA:2123,7949600
DA:2124,7949600
DA:2142,422796
DA:2146,422796
DA:2147,422796
DA:2148,422796
DA:2149,422796
end_of_record
SF:/usr/include/c++/9/bits/alloc_traits.h
DA:469,20847600
DA:470,20847600
end_of_record
SF:/workspace/vtr-verilog-to-routing/ODIN_II/SRC/include/Hashtable.hpp
DA:32,847736
end_of_record
SF:/usr/include/c++/9/bits/stl_iterator_base_funcs.h
DA:98,28835400
DA:104,28835400
DA:138,28835400
DA:141,28835400
end_of_record
SF:/usr/include/c++/9/bits/move.h
DA:47,29258200
DA:138,29258200
DA:139,29258200
end_of_record
SF:/usr/include/c++/9/bits/basic_string.h
DA:150,28835400
DA:178,20424800
DA:179,20424800
DA:182,28835400
DA:183,28835400
DA:186,106934000
DA:200,28835400
DA:203,28835400
DA:210,20424800
DA:211,20424800
DA:214,28835400
DA:216,28835400
DA:217,28835400
DA:221,28835400
DA:222,28835400
DA:229,28835400
DA:231,28835400
DA:232,49260300
DA:236,20424800
DA:237,20424800
DA:286,20424800
DA:287,20424800
DA:346,28835400
DA:348,28835400
DA:349,400290
DA:351,28835400
DA:396,28835400
DA:398,28835400
DA:657,28835400
DA:658,28835400
DA:1177,0
DA:1178,0
DA:2300,2904
DA:2301,2904
end_of_record
SF:/usr/include/stdlib.h
DA:361,1017620
DA:363,1017620
end_of_record
SF:/usr/include/c++/9/iostream
end_of_record
SF:/usr/include/c++/9/ext/type_traits.h
DA:152,28835400
end_of_record
SF:/usr/include/c++/9/bits/hashtable.h
FN:1348,_ZNSt10_HashtableINSt7__cxx1112basic_stringIcSt11char_traitsIcESaIcEEESt4pairIKS5_PvESaIS9_ENSt8__detail10_Select1stESt8equal_toIS5_ESt4hashIS5_ENSB_18_Mod_range_hashingENSB_20_Default_ranged_hashENSB_20_Prime_rehash_policyENSB_17_Hashtable_traitsILb1ELb0ELb1EEEED2Ev
FNDA:425320,_ZNSt10_HashtableINSt7__cxx1112basic_stringIcSt11char_traitsIcESaIcEEESt4pairIKS5_PvESaIS9_ENSt8__detail10_Select1stESt8equal_toIS5_ESt4hashIS5_ENSB_18_Mod_range_hashingENSB_20_Default_ranged_hashENSB_20_Prime_rehash_policyENSB_17_Hashtable_traitsILb1ELb0ELb1EEEED2Ev
FN:2024,_ZNSt10_HashtableINSt7__cxx1112basic_stringIcSt11char_traitsIcESaIcEEESt4pairIKS5_PvESaIS9_ENSt8__detail10_Select1stESt8equal_toIS5_ESt4hashIS5_ENSB_18_Mod_range_hashingENSB_20_Default_ranged_hashENSB_20_Prime_rehash_policyENSB_17_Hashtable_traitsILb1ELb0ELb1EEEE5clearEv
FNDA:425320,_ZNSt10_HashtableINSt7__cxx1112basic_stringIcSt11char_traitsIcESaIcEEESt4pairIKS5_PvESaIS9_ENSt8__detail10_Select1stESt8equal_toIS5_ESt4hashIS5_ENSB_18_Mod_range_hashingENSB_20_Default_ranged_hashENSB_20_Prime_rehash_policyENSB_17_Hashtable_traitsILb1ELb0ELb1EEEE5clearEv
DA:342,425320
DA:343,425320
DA:365,425320
DA:367,425320
DA:370,422796
DA:374,425320
DA:375,850640
DA:383,425320
DA:414,422416
DA:1348,425320
DA:1352,425320
DA:1353,425320
DA:1354,425320
DA:2024,425320
DA:2028,425320
DA:2029,425320
DA:2030,425320
DA:2031,425320
DA:2032,425320
end_of_record
SF:/usr/include/c++/9/bits/basic_string.tcc
FN:206,_ZNSt7__cxx1112basic_stringIcSt11char_traitsIcESaIcEE12_M_constructIPKcEEvT_S8_St20forward_iterator_tag
FNDA:28835400,_ZNSt7__cxx1112basic_stringIcSt11char_traitsIcESaIcEE12_M_constructIPKcEEvT_S8_St20forward_iterator_tag
DA:206,28835400
DA:211,28835400
DA:212,0
DA:215,28835400
DA:217,28835400
DA:219,20424800
DA:220,20424800
DA:225,28835400
DA:232,28835400
DA:233,28835400
end_of_record
SF:/usr/include/c++/9/bits/ptr_traits.h
DA:146,29258200
DA:147,29258200
end_of_record
SF:/usr/include/c++/9/bits/stl_pair.h
end_of_record
SF:/usr/include/x86_64-linux-gnu/bits/stdio2.h
DA:34,209154
DA:36,209154
DA:37,209154
DA:105,11616
DA:107,11616
end_of_record
SF:/workspace/vtr-verilog-to-routing/ODIN_II/SRC/read_blif.cpp
FN:133,_Z9read_blifv
FNDA:2904,_Z9read_blifv
FN:190,_Z11read_tokensPcP17hard_block_modelsP8_IO_FILEP9Hashtable
FNDA:18407700,_Z11read_tokensPcP17hard_block_modelsP8_IO_FILEP9Hashtable
FN:229,_Z31assign_node_type_from_node_namePc
FNDA:3802060,_Z31assign_node_type_from_node_namePc
FN:267,_Z28create_latch_node_and_driverP8_IO_FILEP9Hashtable
FNDA:1017620,_Z28create_latch_node_and_driverP8_IO_FILEP9Hashtable
FN:367,_Z17search_clock_nameP8_IO_FILE
FNDA:0,_Z17search_clock_nameP8_IO_FILE
FN:435,_Z23create_hard_block_nodesP17hard_block_modelsP8_IO_FILEP9Hashtable
FNDA:208552,_Z23create_hard_block_nodesP17hard_block_modelsP8_IO_FILEP9Hashtable
FN:587,_Z31create_internal_node_and_driverP8_IO_FILEP9Hashtable
FNDA:3810750,_Z31create_internal_node_and_driverP8_IO_FILEP9Hashtable
FN:708,_Z30read_bit_map_find_unknown_gateiP7nnode_tP8_IO_FILE
FNDA:80437,_Z30read_bit_map_find_unknown_gateiP7nnode_tP8_IO_FILE
FN:959,_ZL20build_top_input_nodePKcP9Hashtable
FNDA:69193,_ZL20build_top_input_nodePKcP9Hashtable
FN:1001,_Z19add_top_input_nodesP8_IO_FILEP9Hashtable
FNDA:2898,_Z19add_top_input_nodesP8_IO_FILEP9Hashtable
FN:1024,_Z26rb_create_top_output_nodesP8_IO_FILE
FNDA:2898,_Z26rb_create_top_output_nodesP8_IO_FILE
FN:1063,_Z18rb_look_for_clocksv
FNDA:2904,_Z18rb_look_for_clocksv
FN:1082,_Z25rb_create_top_driver_netsPKcP9Hashtable
FNDA:2904,_Z25rb_create_top_driver_netsPKcP9Hashtable
FN:1147,_Z12hook_up_netsP9Hashtable
FNDA:2898,_Z12hook_up_netsP9Hashtable
FN:1167,_Z12hook_up_nodeP7nnode_tP9Hashtable
FNDA:5108650,_Z12hook_up_nodeP7nnode_tP9Hashtable
FN:1186,_Z21read_hard_block_modelPcP16hard_block_portsP8_IO_FILE
FNDA:602,_Z21read_hard_block_modelPcP16hard_block_portsP8_IO_FILE
FN:1275,_ZL28compare_hard_block_pin_namesPKvS0_
FNDA:2478170,_ZL28compare_hard_block_pin_namesPKvS0_
FN:1299,_Z11index_namesPPci
FNDA:210960,_Z11index_namesPPci
FN:1312,_Z15associate_namesPPcS0_i
FNDA:208552,_Z15associate_namesPPcS0_i
FN:1325,_Z20get_hard_block_portsPPci
FNDA:209756,_Z20get_hard_block_portsPPci
FN:1365,_Z37verify_hard_block_ports_against_modelP16hard_block_portsP16hard_block_model
FNDA:602,_Z37verify_hard_block_ports_against_modelP16hard_block_portsP16hard_block_model
FN:1413,_Z35generate_hard_block_ports_signatureP16hard_block_ports
FNDA:209756,_Z35generate_hard_block_ports_signatureP16hard_block_ports
FN:1436,_Z24get_hard_block_port_namePc
FNDA:7918520,_Z24get_hard_block_port_namePc
FN:1452,_Z25get_hard_block_pin_numberPc
FNDA:1943070,_Z25get_hard_block_pin_numberPc
FN:1473,_Z20add_hard_block_modelP16hard_block_modelP16hard_block_portsP17hard_block_models
FNDA:602,_Z20add_hard_block_modelP16hard_block_modelP16hard_block_portsP17hard_block_models
FN:1498,_Z20get_hard_block_modelPcP16hard_block_portsP17hard_block_models
FNDA:208552,_Z20get_hard_block_modelPcP16hard_block_portsP17hard_block_models
FN:1518,_Z24create_hard_block_modelsv
FNDA:2904,_Z24create_hard_block_modelsv
FN:1531,_Z16count_blif_linesP8_IO_FILE
FNDA:2904,_Z16count_blif_linesP8_IO_FILE
FN:1547,_Z22free_hard_block_modelsP17hard_block_models
FNDA:2904,_Z22free_hard_block_modelsP17hard_block_models
FN:1561,_Z21free_hard_block_modelP16hard_block_model
FNDA:602,_Z21free_hard_block_modelP16hard_block_model
FN:1575,_Z20free_hard_block_pinsP15hard_block_pins
FNDA:1204,_Z20free_hard_block_pinsP15hard_block_pins
FN:1589,_Z21free_hard_block_portsP16hard_block_ports
FNDA:209756,_Z21free_hard_block_portsP16hard_block_ports
DA:133,2904
DA:134,2904
DA:136,2904
DA:137,2904
DA:138,2904
DA:140,2904
DA:142,2904
DA:143,2904
DA:144,0
DA:146,2904
DA:148,2904
DA:150,2904
DA:151,2904
DA:153,2904
DA:156,2904
DA:157,2904
DA:159,2904
DA:160,2904
DA:161,2904
DA:163,2904
DA:164,2904
DA:165,18407700
DA:166,18407700
DA:167,18404800
DA:169,2904
DA:171,2904
DA:173,2904
DA:174,2904
DA:175,2904
DA:178,2904
DA:179,2904
DA:180,2904
DA:181,2904
DA:190,18407700
DA:193,18407700
DA:195,18407700
DA:196,13165100
DA:197,34638000
DA:199,5048520
DA:200,5048520
DA:201,2898
DA:202,5045620
DA:203,2898
DA:204,5042720
DA:205,3810750
DA:206,1231970
DA:207,1017620
DA:208,214348
DA:209,208552
DA:210,5796
DA:213,2898
DA:214,2898
DA:215,2898
DA:217,18413500
DA:229,3802060
DA:231,3802060
DA:233,3802060
DA:234,3802060
DA:235,41197300
DA:237,20715600
DA:240,3802060
DA:242,3800280
DA:243,3800280
DA:244,20507000
DA:245,16706700
DA:248,3800280
DA:249,117123000
DA:250,117044000
DA:251,115693000
DA:252,3721620
DA:253,3721620
DA:257,3800280
DA:259,3802060
DA:267,1017620
DA:269,1017620
DA:270,1017620
DA:272,1017620
DA:274,6105730
DA:275,6105730
DA:276,5088110
DA:277,5088110
DA:279,5088110
DA:283,1017620
DA:285,0
DA:286,0
DA:287,0
DA:289,0
DA:290,0
DA:291,0
DA:293,0
DA:294,0
DA:295,0
DA:296,0
DA:299,0
DA:304,1017620
DA:305,1017620
DA:306,1017620
DA:307,1017620
DA:309,1017620
DA:312,1017620
DA:313,1017620
DA:316,1017620
DA:320,3052870
DA:321,2035240
DA:325,1017620
DA:326,1017620
DA:327,1017620
DA:328,1017620
DA:330,1017620
DA:331,1017620
DA:332,1017620
DA:333,1017620
DA:336,1017620
DA:339,1017620
DA:340,1017620
DA:343,1017620
DA:344,1017620
DA:346,1017620
DA:347,1017620
DA:348,1017620
DA:349,1017620
DA:350,1017620
DA:352,1017620
DA:355,6105730
DA:356,5088110
DA:358,1017620
DA:359,1017620
DA:360,1017620
DA:367,0
DA:368,0
DA:369,0
DA:370,0
DA:371,0
DA:373,0
DA:377,0
DA:378,0
DA:379,0
DA:380,0
DA:383,0
DA:386,0
DA:387,0
DA:388,0
DA:391,0
DA:393,0
DA:394,0
DA:395,0
DA:397,0
DA:398,0
DA:400,0
DA:401,0
DA:402,0
DA:403,0
DA:407,0
DA:408,0
DA:412,0
DA:413,0
DA:415,0
DA:416,0
DA:418,0
DA:419,0
DA:420,0
DA:421,0
DA:426,0
DA:428,0
DA:435,208552
DA:436,208552
DA:437,208552
DA:444,1681290
DA:445,1472740
DA:446,1472740
DA:450,208552
DA:451,208552
DA:453,1681290
DA:454,1472740
DA:455,1472740
DA:459,208552
DA:462,208552
DA:464,1681290
DA:465,1472740
DA:467,208552
DA:470,208552
DA:472,1681290
DA:473,1472740
DA:474,1472740
DA:477,208552
DA:478,208552
DA:481,208552
DA:482,208552
DA:484,602
DA:486,602
DA:489,208552
DA:492,208552
DA:493,208552
DA:494,208552
DA:497,208552
DA:498,208552
DA:499,208552
DA:500,2970
DA:501,205582
DA:502,195019
DA:503,10563
DA:504,0
DA:506,10563
DA:508,208552
DA:511,208552
DA:512,208552
DA:513,208552
DA:514,861682
DA:515,653130
DA:517,208552
DA:518,618750
DA:519,410198
DA:523,208552
DA:524,208552
DA:525,208552
DA:526,208552
DA:529,1185230
DA:530,976679
DA:531,976679
DA:533,976679
DA:534,0
DA:536,976679
DA:537,976679
DA:538,976679
DA:539,976679
DA:541,976679
DA:545,704609
DA:546,496057
DA:547,496057
DA:549,496057
DA:551,496057
DA:552,496057
DA:553,496057
DA:554,496057
DA:556,496057
DA:558,496057
DA:559,496057
DA:561,496057
DA:564,992114
DA:568,208552
DA:569,208552
DA:570,208552
DA:573,208552
DA:574,208552
DA:576,208552
DA:577,208552
DA:578,417104
DA:579,208552
DA:580,208552
DA:587,3810750
DA:589,3810750
DA:590,3810750
DA:591,3810750
DA:592,18906200
DA:593,18906200
DA:594,15095400
DA:595,15095400
DA:599,3810750
DA:600,3810750
DA:603,3810750
DA:604,3810750
DA:605,3807860
DA:606,3804960
DA:607,8694
DA:608,8694
DA:611,3802060
DA:613,3802060
DA:614,3721620
DA:615,3721620
DA:618,80437
DA:619,80437
DA:620,80437
DA:624,3802060
DA:626,3802060
DA:629,3802060
DA:630,1300100
DA:631,1300100
DA:634,7102450
DA:635,4600490
DA:641,15086700
DA:642,11284700
DA:643,11284700
DA:644,11284700
DA:645,11284700
DA:649,3802060
DA:650,0
DA:651,0
DA:653,0
DA:654,0
DA:655,0
DA:656,0
DA:659,3802060
DA:660,0
DA:661,0
DA:663,0
DA:664,0
DA:665,0
DA:666,0
DA:670,3802060
DA:671,3802060
DA:674,3802060
DA:677,3802060
DA:678,3802060
DA:682,3802060
DA:683,3802060
DA:684,3802060
DA:686,3802060
DA:688,3802060
DA:689,3802060
DA:690,3802040
DA:691,3802040
DA:692,7604080
DA:694,3802060
DA:697,18906200
DA:698,15095400
DA:700,3810750
DA:701,3810750
DA:708,80437
DA:709,80437
DA:711,80437
DA:712,80437
DA:713,80437
DA:714,80437
DA:715,80437
DA:717,80437
DA:718,80437
DA:719,80437
DA:720,80437
DA:722,80437
DA:723,0
DA:724,0
DA:726,0
DA:727,0
DA:729,0
DA:731,0
DA:734,0
DA:737,160874
DA:738,160874
DA:739,160874
DA:741,160874
DA:744,80437
DA:745,80437
DA:746,80437
DA:747,80437
DA:750,80437
DA:753,80437
DA:757,80437
DA:758,80437
DA:759,80437
DA:762,80437
DA:764,80437
DA:769,80437
DA:776,160874
DA:779,80437
DA:780,80437
DA:782,0
DA:783,0
DA:788,80437
DA:789,0
DA:792,80437
DA:795,80437
DA:796,0
DA:798,0
DA:799,0
DA:805,0
DA:807,0
DA:811,0
DA:812,0
DA:814,0
DA:816,0
DA:817,0
DA:818,0
DA:819,0
DA:820,0
DA:824,0
DA:825,0
DA:826,0
DA:827,0
DA:828,0
DA:832,0
DA:834,0
DA:835,0
DA:836,0
DA:840,0
DA:841,0
DA:842,0
DA:843,0
DA:844,0
DA:845,0
DA:849,80437
DA:852,0
DA:853,0
DA:855,0
DA:856,0
DA:861,0
DA:869,0
DA:873,0
DA:874,0
DA:876,0
DA:877,0
DA:882,0
DA:890,0
DA:891,0
DA:897,80437
DA:899,0
DA:900,0
DA:902,0
DA:903,0
DA:904,0
DA:905,0
DA:910,0
DA:918,0
DA:926,0
DA:927,0
DA:928,0
DA:932,80437
DA:933,0
DA:934,0
DA:935,0
DA:938,80437
DA:939,80437
DA:941,80437
DA:942,160874
DA:943,80437
DA:945,80437
DA:948,80437
DA:949,80437
DA:951,80437
DA:959,69193
DA:960,69193
DA:964,69193
DA:966,69193
DA:967,69193
DA:970,69193
DA:973,69193
DA:974,69193
DA:977,69193
DA:978,69193
DA:979,69193
DA:982,69193
DA:984,69193
DA:985,69193
DA:987,69193
DA:989,69193
DA:990,69193
DA:998,69193
DA:999,69193
DA:1001,2898
DA:1008,2898
DA:1009,2898
DA:1010,2898
DA:1013,69193
DA:1014,69193
DA:1015,69193
DA:1016,66295
DA:1018,2898
DA:1024,2898
DA:1025,83315
DA:1026,83315
DA:1028,83315
DA:1029,80417
DA:1030,80417
DA:1035,80417
DA:1036,80417
DA:1037,80417
DA:1040,80417
DA:1043,80417
DA:1044,80417
DA:1047,80417
DA:1048,80417
DA:1050,80417
DA:1054,80417
DA:1055,80417
DA:1057,2898
DA:1063,2904
DA:1064,2904
DA:1065,1020530
DA:1066,1017620
DA:1067,1017620
DA:1068,1280
DA:1071,2904
DA:1082,2904
DA:1083,2904
DA:1088,2904
DA:1089,2904
DA:1090,2904
DA:1091,2904
DA:1092,2904
DA:1093,2904
DA:1094,2904
DA:1095,2904
DA:1098,2904
DA:1099,2904
DA:1100,2904
DA:1101,2904
DA:1102,2904
DA:1103,2904
DA:1104,2904
DA:1105,2904
DA:1108,2904
DA:1109,2904
DA:1110,2904
DA:1111,2904
DA:1112,2904
DA:1113,2904
DA:1114,2904
DA:1115,2904
DA:1118,2904
DA:1119,2904
DA:1122,2904
DA:1123,2904
DA:1126,2904
DA:1127,2904
DA:1129,2904
DA:1130,2904
DA:1131,2904
DA:1132,2904
DA:1139,16236100
DA:1147,2898
DA:1148,2898
DA:1149,2898
DA:1150,2898
DA:1153,2898
DA:1154,11592
DA:1156,5117340
DA:1157,5108650
DA:1158,5108650
DA:1161,2898
DA:1167,5108650
DA:1168,5108650
DA:1169,19485700
DA:1170,14377000
DA:1172,14377000
DA:1174,14377000
DA:1175,0
DA:1177,14377000
DA:1179,5108650
DA:1186,602
DA:1188,602
DA:1189,602
DA:1190,602
DA:1192,602
DA:1194,602
DA:1195,602
DA:1198,26396700
DA:1199,26396700
DA:1200,26396700
DA:1201,26396700
DA:1203,26396700
DA:1204,602
DA:1205,602
DA:1206,602
DA:1207,602
DA:1208,602
DA:1210,602
DA:1211,602
DA:1212,602
DA:1215,2408
DA:1216,2408
DA:1217,2408
DA:1218,2408
DA:1219,9888
DA:1220,9888
DA:1221,9286
DA:1222,9286
DA:1224,1806
DA:1225,8015
DA:1226,8015
DA:1227,7413
DA:1228,7413
DA:1230,1204
DA:1239,602
DA:1240,0
DA:1243,602
DA:1244,602
DA:1247,602
DA:1248,602
DA:1251,602
DA:1252,602
DA:1255,602
DA:1258,0
DA:1260,0
DA:1263,602
DA:1264,602
DA:1266,602
DA:1275,2478170
DA:1276,2478170
DA:1277,2478170
DA:1279,2478170
DA:1280,2478170
DA:1281,2478170
DA:1282,2478170
DA:1283,2478170
DA:1286,2478170
DA:1287,971537
DA:1288,971537
DA:1289,971537
DA:1299,210960
DA:1300,210960
DA:1301,1293600
DA:1302,1082640
DA:1303,1082640
DA:1304,2165280
DA:1306,210960
DA:1312,208552
DA:1313,208552
DA:1314,1681290
DA:1315,2945470
DA:1317,208552
DA:1325,209756
DA:1327,209756
DA:1328,209756
DA:1329,209756
DA:1330,209756
DA:1331,209756
DA:1332,209756
DA:1333,1699190
DA:1334,1489440
DA:1336,1489440
DA:1337,1065940
DA:1338,1065940
DA:1340,1065940
DA:1341,1065940
DA:1342,1065940
DA:1345,1489440
DA:1346,1279680
DA:1348,1489440
DA:1349,1489440
DA:1352,209756
DA:1353,209756
DA:1355,209756
DA:1356,209756
DA:1358,209756
DA:1365,602
DA:1366,602
DA:1367,602
DA:1368,1806
DA:1369,1204
DA:1370,1204
DA:1371,3816
DA:1373,2612
DA:1374,2612
DA:1375,2612
DA:1377,2612
DA:1383,2612
DA:1385,2612
DA:1392,602
DA:1393,602
DA:1394,602
DA:1395,3214
DA:1397,2612
DA:1398,2612
DA:1399,2612
DA:1401,2612
DA:1413,209756
DA:1414,209756
DA:1415,209756
DA:1417,209756
DA:1419,209756
DA:1420,1275700
DA:1421,1065940
DA:1422,1065940
DA:1423,1065940
DA:1425,209756
DA:1436,7918520
DA:1437,7918520
DA:1438,7918520
DA:1439,7349920
DA:1452,1943070
DA:1453,1943070
DA:1456,1943070
DA:1457,1943070
DA:1458,1943070
DA:1459,1943070
DA:1460,1943070
DA:1462,1943070
DA:1463,0
DA:1465,1943070
DA:1473,602
DA:1474,602
DA:1475,602
DA:1477,602
DA:1478,602
DA:1479,0
DA:1480,0
DA:1481,0
DA:1482,0
DA:1484,602
DA:1485,602
DA:1487,602
DA:1488,602
DA:1489,1204
DA:1492,602
DA:1498,208552
DA:1499,208552
DA:1500,208552
DA:1502,208552
DA:1503,208552
DA:1504,0
DA:1505,0
DA:1506,0
DA:1507,0
DA:1509,208552
DA:1510,417104
DA:1512,208552
DA:1518,2904
DA:1519,2904
DA:1520,2904
DA:1521,2904
DA:1522,2904
DA:1524,2904
DA:1531,2904
DA:1532,2904
DA:1533,19481700
DA:1534,19481700
DA:1535,19481700
DA:1537,19478800
DA:1539,2904
DA:1540,2904
DA:1547,2904
DA:1549,5808
DA:1551,3506
DA:1552,602
DA:1554,2904
DA:1555,2904
DA:1556,2904
DA:1561,602
DA:1562,602
DA:1563,602
DA:1565,602
DA:1566,602
DA:1568,602
DA:1569,602
DA:1570,602
DA:1575,1204
DA:1576,17903
DA:1577,16699
DA:1579,1204
DA:1581,1204
DA:1582,2408
DA:1583,1204
DA:1584,1204
DA:1589,209756
DA:1590,1275700
DA:1591,1065940
DA:1593,209756
DA:1594,209756
DA:1595,209756
DA:1597,209756
DA:1598,419512
DA:1599,209756
DA:1600,209756
end_of_record
SF:/usr/include/c++/9/ext/aligned_buffer.h
end_of_record
SF:/usr/include/c++/9/bits/allocator.h
DA:138,29257800
DA:151,422796
DA:153,29258200
end_of_record
TN:
SF:/usr/include/c++/9/bits/char_traits.h
DA:299,170703
DA:300,3167
DA:315,0
DA:317,0
DA:325,0
DA:329,0
DA:335,0
DA:361,162090
DA:363,159410
DA:365,162090
end_of_record
SF:/usr/include/c++/9/ext/new_allocator.h
DA:80,3779580
DA:83,4787160
DA:89,8107700
DA:119,3217360
DA:128,3217360
DA:132,0
DA:144,1134460
DA:147,1134460
DA:151,0
end_of_record
SF:/usr/include/c++/9/bits/cpp_type_traits.h
DA:428,0
end_of_record
SF:/usr/include/c++/9/bits/stl_vector.h
FN:622,_ZNSt6vectorI7VNumberSaIS0_EEC2ESt16initializer_listIS0_ERKS1_
FNDA:122253,_ZNSt6vectorI7VNumberSaIS0_EEC2ESt16initializer_listIS0_ERKS1_
FN:675,_ZNSt6vectorI7VNumberSaIS0_EED2Ev
FNDA:122253,_ZNSt6vectorI7VNumberSaIS0_EED2Ev
FN:1753,_ZNKSt6vectorIN8BitSpace9BitFieldsItEESaIS2_EE12_M_check_lenEmPKc
FNDA:0,_ZNKSt6vectorIN8BitSpace9BitFieldsItEESaIS2_EE12_M_check_lenEmPKc
DA:94,4780330
DA:95,4780330
DA:106,4658080
DA:108,4658080
DA:109,4658080
DA:110,4658080
DA:114,4658080
DA:118,4658080
DA:119,4658080
DA:120,4658080
DA:121,4658080
DA:125,7866760
DA:128,3485470
DA:130,3485470
DA:133,4780330
DA:134,4780330
DA:273,0
DA:274,0
DA:277,4658080
DA:278,4658080
DA:281,4658080
DA:282,4658080
DA:285,3485470
DA:290,4780330
DA:291,4780330
DA:330,7866760
DA:332,10666700
DA:333,7866760
DA:334,7866760
DA:347,7866760
DA:350,1581340
DA:351,5886380
DA:453,0
DA:462,0
DA:466,0
DA:484,3485470
DA:494,4658080
DA:495,4658080
DA:622,122253
DA:624,122253
DA:626,122253
DA:628,122253
DA:675,7866760
DA:677,7989020
DA:678,7866760
DA:680,9253370
DA:706,4658080
DA:708,4658080
DA:711,5830680
DA:808,0
DA:809,0
DA:817,0
DA:818,0
DA:826,6783400
DA:827,6783400
DA:835,0
DA:836,0
DA:915,0
DA:916,0
DA:920,0
DA:921,0
DA:995,0
DA:997,0
DA:1040,50235700
DA:1043,50235700
DA:1200,7917850
DA:1201,7917850
DA:1505,0
DA:1508,0
DA:1511,0
DA:1512,0
DA:1753,0
DA:1755,0
DA:1756,0
DA:1758,0
DA:1759,0
DA:1773,0
DA:1780,0
DA:1781,0
DA:1812,4658080
DA:1814,5830680
DA:1815,4658080
DA:1816,4658080
DA:1817,4658080
end_of_record
SF:/usr/include/c++/9/bits/stl_algobase.h
DA:198,0
DA:222,0
DA:227,0
DA:228,0
DA:280,0
DA:289,0
DA:290,0
DA:295,0
DA:375,0
DA:384,0
DA:385,0
DA:386,0
DA:387,0
DA:393,0
DA:398,0
DA:404,0
DA:438,0
DA:440,0
DA:465,0
DA:474,0
end_of_record
SF:/usr/include/c++/9/bits/stl_iterator.h
DA:806,6783400
DA:819,0
DA:827,0
DA:829,0
DA:859,0
DA:860,0
DA:871,0
DA:907,0
DA:910,0
DA:989,0
DA:992,0
DA:1010,0
DA:1012,0
end_of_record
SF:/workspace/vtr-verilog-to-routing/ODIN_II/SRC/ast_elaborate.cpp
FN:156,_Z15find_top_moduleP5ast_t
FNDA:3109,_Z15find_top_moduleP5ast_t
FN:226,_Z19simplify_ast_modulePP10ast_node_tP12sc_hierarchy
FNDA:3103,_Z19simplify_ast_modulePP10ast_node_tP12sc_hierarchy
FN:286,_Z15build_hierarchyP10ast_node_tS0_iP12sc_hierarchybbP6e_data
FNDA:6194220,_Z15build_hierarchyP10ast_node_tS0_iP12sc_hierarchybbP6e_data
FN:1128,_Z12finalize_astP10ast_node_tS0_P12sc_hierarchybb
FNDA:7965100,_Z12finalize_astP10ast_node_tS0_P12sc_hierarchybb
FN:1763,_Z18reduce_expressionsP10ast_node_tP12sc_hierarchyPll
FNDA:3183500,_Z18reduce_expressionsP10ast_node_tP12sc_hierarchyPll
FN:2107,_Z20update_string_cachesP12sc_hierarchy
FNDA:55083,_Z20update_string_cachesP12sc_hierarchy
FN:2156,_Z48update_instance_parameter_table_direct_instancesP10ast_node_tP12STRING_CACHE
FNDA:103844,_Z48update_instance_parameter_table_direct_instancesP10ast_node_tP12STRING_CACHE
FN:2208,_Z41update_instance_parameter_table_defparamsP10ast_node_tP12STRING_CACHE
FNDA:103844,_Z41update_instance_parameter_table_defparamsP10ast_node_tP12STRING_CACHE
FN:2251,_Z37override_parameters_for_all_instancesP10ast_node_tP12sc_hierarchy
FNDA:54599,_Z37override_parameters_for_all_instancesP10ast_node_tP12sc_hierarchy
FN:2286,_Z22convert_2D_to_1D_arrayPP10ast_node_t
FNDA:57,_Z22convert_2D_to_1D_arrayPP10ast_node_t
FN:2335,_Z26convert_2D_to_1D_array_refPP10ast_node_tP12sc_hierarchy
FNDA:150,_Z26convert_2D_to_1D_array_refPP10ast_node_tP12sc_hierarchy
FN:2362,_Z15verify_terminalP10ast_node_tS0_
FNDA:402,_Z15verify_terminalP10ast_node_tS0_
FN:2378,_Z14verify_genvarsP10ast_node_tP12sc_hierarchyPPPci
FNDA:2088,_Z14verify_genvarsP10ast_node_tP12sc_hierarchyPPPci
FN:2427,_Z28look_for_matching_hard_blockP10ast_node_tPcP12sc_hierarchy
FNDA:608,_Z28look_for_matching_hard_blockP10ast_node_tPcP12sc_hierarchy
FN:2619,_Z28look_for_matching_soft_logicP10ast_node_tPc
FNDA:9,_Z28look_for_matching_soft_logicP10ast_node_tPc
FN:2641,_Z28create_param_table_for_scopeP10ast_node_tP12sc_hierarchy
FNDA:1388,_Z28create_param_table_for_scopeP10ast_node_tP12sc_hierarchy
DA:156,3109
DA:157,3109
DA:159,3109
DA:162,3109
DA:163,6218
DA:164,3109
DA:166,3109
DA:167,0
DA:168,0
DA:169,0
DA:172,3109
DA:173,6
DA:175,11131
DA:176,16056
DA:178,8028
DA:179,8028
DA:182,8028
DA:183,8028
DA:185,0
DA:186,0
DA:187,0
DA:188,0
DA:189,0
DA:190,8028
DA:195,3103
DA:197,3103
DA:199,6885
DA:201,3103
DA:202,0
DA:204,3103
DA:205,3103
DA:213,3109
DA:214,0
DA:217,3109
DA:218,0
DA:220,3109
DA:223,6218
DA:226,3103
DA:228,3103
DA:231,3103
DA:233,3103
DA:234,3103
DA:235,3103
DA:237,3103
DA:238,3103
DA:239,3103
DA:241,3103
DA:246,3103
DA:247,3103
DA:250,3103
DA:253,3103
DA:254,3157
DA:255,54
DA:256,54
DA:257,54
DA:258,54
DA:260,54
DA:261,54
DA:265,3103
DA:266,3103
DA:267,3103
DA:269,3103
DA:270,54
DA:271,54
DA:272,54
DA:273,54
DA:275,3103
DA:276,3103
DA:286,6194220
DA:287,6194220
DA:288,6194220
DA:290,6194220
DA:291,6194220
DA:293,6194220
DA:294,5107300
DA:295,2729870
DA:299,5107300
DA:303,105008
DA:306,105008
DA:308,105008
DA:309,105008
DA:310,105008
DA:313,83482
DA:316,415049
DA:317,310041
DA:318,310041
DA:319,0
DA:324,105008
DA:325,105008
DA:328,105008
DA:330,104409
DA:331,104400
DA:332,608
DA:333,608
DA:334,608
DA:335,608
DA:337,608
DA:343,250
DA:344,250
DA:346,38
DA:347,38
DA:349,38
DA:350,38
DA:352,38
DA:353,38
DA:355,38
DA:356,38
DA:358,38
DA:359,38
DA:361,38
DA:362,212
DA:366,134
DA:369,134
DA:370,134
DA:371,134
DA:374,134
DA:375,134
DA:376,134
DA:379,134
DA:380,134
DA:381,134
DA:382,134
DA:383,134
DA:385,134
DA:386,134
DA:387,134
DA:389,134
DA:390,134
DA:392,134
DA:393,134
DA:394,268
DA:395,0
DA:400,134
DA:401,134
DA:402,1250
DA:403,1116
DA:407,51815
DA:408,51815
DA:410,8
DA:411,8
DA:413,8
DA:414,8
DA:416,8
DA:417,8
DA:419,8
DA:420,8
DA:422,8
DA:423,8
DA:425,8
DA:426,51807
DA:430,234
DA:432,234
DA:433,234
DA:434,234
DA:435,234
DA:437,234
DA:438,70
DA:439,70
DA:440,164
DA:441,164
DA:442,164
DA:443,0
DA:444,0
DA:447,234
DA:448,234
DA:450,0
DA:451,0
DA:455,234
DA:456,234
DA:459,136
DA:460,136
DA:462,136
DA:463,136
DA:465,136
DA:467,128
DA:468,128
DA:469,128
DA:472,128
DA:473,128
DA:474,8
DA:476,8
DA:477,16
DA:478,8
DA:479,8
DA:483,136
DA:484,136
DA:490,4193
DA:491,4193
DA:493,8
DA:494,8
DA:496,8
DA:497,8
DA:499,8
DA:500,8
DA:502,8
DA:503,8
DA:505,8
DA:506,8
DA:508,8
DA:509,4185
DA:513,184
DA:515,184
DA:516,184
DA:517,184
DA:518,136
DA:519,372
DA:520,308
DA:521,308
DA:522,64
DA:523,64
DA:525,244
DA:526,0
DA:530,244
DA:531,244
DA:532,416
DA:533,244
DA:534,72
DA:535,72
DA:536,144
DA:538,0
DA:539,0
DA:548,136
DA:549,136
DA:552,136
DA:553,136
DA:555,136
DA:556,136
DA:558,136
DA:560,128
DA:561,128
DA:562,128
DA:565,128
DA:566,128
DA:567,8
DA:569,8
DA:570,16
DA:571,8
DA:572,8
DA:576,136
DA:577,136
DA:580,136
DA:581,136
DA:582,0
DA:584,0
DA:587,48
DA:588,0
DA:594,8679
DA:595,8679
DA:596,0
DA:597,0
DA:598,0
DA:600,0
DA:601,0
DA:605,0
DA:606,0
DA:607,0
DA:608,0
DA:609,0
DA:610,0
DA:614,0
DA:615,0
DA:616,0
DA:618,0
DA:619,0
DA:623,1093900
DA:624,1093900
DA:625,984
DA:626,984
DA:627,352
DA:629,352
DA:630,0
DA:631,0
DA:635,0
DA:636,0
DA:637,0
DA:638,0
DA:640,0
DA:641,0
DA:645,352
DA:646,352
DA:651,399035
DA:652,399035
DA:654,399035
DA:655,399035
DA:657,309306
DA:658,309306
DA:660,309306
DA:661,309306
DA:663,56480
DA:664,56480
DA:665,56480
DA:666,56480
DA:667,56480
DA:668,56480
DA:675,6194220
DA:676,5107300
DA:680,2729820
DA:681,2729820
DA:683,2729820
DA:684,2729820
DA:685,141826
DA:691,2727530
DA:695,8866900
DA:696,6137080
DA:697,6137080
DA:699,6136900
DA:700,6136900
DA:701,6136900
DA:703,6136900
DA:706,1325
DA:710,6137080
DA:711,96
DA:712,384
DA:713,288
DA:717,6137080
DA:718,6137080
DA:719,2729820
DA:724,6194220
DA:726,5107300
DA:731,106527
DA:732,51560
DA:733,103120
DA:736,51560
DA:737,26208
DA:740,192
DA:741,122
DA:742,192
DA:743,122
DA:745,122
DA:746,0
DA:753,122
DA:754,52
DA:755,52
DA:757,52
DA:758,52
DA:760,52
DA:761,36
DA:762,36
DA:765,52
DA:767,52
DA:768,52
DA:774,55021
DA:779,54
DA:780,54
DA:782,108
DA:783,54
DA:784,54
DA:787,54
DA:789,54
DA:790,0
DA:795,54
DA:797,54
DA:798,54
DA:799,54
DA:800,54
DA:803,54
DA:804,54
DA:805,54
DA:806,54
DA:807,54
DA:808,54
DA:811,54
DA:812,54
DA:813,54
DA:814,54
DA:817,54
DA:820,54
DA:823,55029
DA:828,62
DA:829,62
DA:831,124
DA:832,62
DA:833,62
DA:836,62
DA:838,62
DA:839,0
DA:844,62
DA:846,62
DA:847,62
DA:848,62
DA:849,62
DA:852,62
DA:853,62
DA:854,62
DA:855,62
DA:856,62
DA:859,62
DA:860,62
DA:861,62
DA:862,62
DA:865,62
DA:868,62
DA:873,104400
DA:877,104400
DA:878,52200
DA:879,104064
DA:880,53432
DA:881,2464
DA:882,1840
DA:883,1232
DA:884,1232
DA:886,52200
DA:887,52200
DA:889,52200
DA:890,52200
DA:892,14980500
DA:893,14928300
DA:894,14928300
DA:895,14928300
DA:896,14927900
DA:897,336
DA:901,52200
DA:902,336
DA:903,672
DA:906,51864
DA:907,51864
DA:909,51864
DA:910,51864
DA:911,51864
DA:917,51864
DA:918,51864
DA:920,103728
DA:921,51864
DA:922,51864
DA:925,51864
DA:927,51864
DA:928,0
DA:933,51864
DA:935,51864
DA:936,51864
DA:937,51864
DA:939,51864
DA:942,51864
DA:943,51864
DA:944,51864
DA:946,51864
DA:947,51864
DA:948,51864
DA:949,51864
DA:952,51864
DA:953,51864
DA:954,51864
DA:955,51864
DA:958,51864
DA:961,368
DA:962,368
DA:964,51864
DA:967,51864
DA:971,38181
DA:972,38181
DA:974,0
DA:977,38181
DA:978,38181
DA:979,86
DA:980,43
DA:981,43
DA:982,43
DA:983,43
DA:985,0
DA:986,0
DA:988,43
DA:989,43
DA:993,424632
DA:994,424632
DA:996,0
DA:1001,424632
DA:1002,1126
DA:1003,1126
DA:1005,992
DA:1006,992
DA:1008,992
DA:1011,992
DA:1013,2976
DA:1015,1126
DA:1020,31512
DA:1021,31512
DA:1023,0
DA:1028,31512
DA:1029,2
DA:1030,2
DA:1032,2
DA:1034,6
DA:1036,2
DA:1040,8679
DA:1042,8679
DA:1043,0
DA:1044,0
DA:1045,0
DA:1046,0
DA:1051,81669
DA:1052,81669
DA:1057,0
DA:1058,0
DA:1060,0
DA:1061,0
DA:1062,0
DA:1064,0
DA:1066,0
DA:1068,0
DA:1069,0
DA:1070,0
DA:1071,0
DA:1072,0
DA:1073,0
DA:1075,0
DA:1078,0
DA:1080,0
DA:1083,0
DA:1088,0
DA:1089,0
DA:1090,0
DA:1091,0
DA:1092,0
DA:1103,6194220
DA:1111,6194220
DA:1112,2729870
DA:1115,6194220
DA:1128,7965100
DA:1129,7965100
DA:1130,7965100
DA:1132,7965100
DA:1133,7965100
DA:1135,7965100
DA:1136,6395830
DA:1137,3263230
DA:1141,6395830
DA:1142,54967
DA:1143,54967
DA:1144,54967
DA:1146,106
DA:1147,106
DA:1148,52
DA:1152,54
DA:1154,54
DA:1155,54
DA:1156,54
DA:1160,24
DA:1163,184
DA:1164,130
DA:1165,130
DA:1166,0
DA:1172,114
DA:1173,114
DA:1174,52
DA:1178,62
DA:1180,62
DA:1181,62
DA:1182,62
DA:1186,0
DA:1189,214
DA:1190,152
DA:1191,152
DA:1192,152
DA:1193,152
DA:1194,0
DA:1200,54967
DA:1202,54967
DA:1203,54967
DA:1205,523958
DA:1206,468991
DA:1207,468991
DA:1209,0
DA:1210,0
DA:1211,0
DA:1213,0
DA:1214,0
DA:1216,0
DA:1222,433357
DA:1223,433357
DA:1224,433357
DA:1226,1108450
DA:1227,1108450
DA:1228,1107580
DA:1229,1107580
DA:1230,30650
DA:1232,30650
DA:1233,0
DA:1234,0
DA:1238,0
DA:1239,0
DA:1240,0
DA:1241,0
DA:1243,0
DA:1244,0
DA:1248,30650
DA:1249,30650
DA:1254,78
DA:1255,78
DA:1258,78
DA:1259,78
DA:1260,78
DA:1263,78
DA:1264,78
DA:1265,78
DA:1268,78
DA:1269,0
DA:1270,0
DA:1271,0
DA:1272,0
DA:1274,0
DA:1275,0
DA:1276,0
DA:1278,0
DA:1279,0
DA:1281,0
DA:1282,0
DA:1283,0
DA:1284,0
DA:1289,78
DA:1290,78
DA:1291,78
DA:1293,56156
DA:1294,56156
DA:1295,56156
DA:1296,56156
DA:1297,56156
DA:1299,402535
DA:1300,402535
DA:1302,402535
DA:1303,402481
DA:1305,402481
DA:1306,290262
DA:1307,290262
DA:1309,0
DA:1318,8783
DA:1319,8783
DA:1320,8783
DA:1321,0
DA:1323,17566
DA:1324,0
DA:1328,8783
DA:1329,8783
DA:1330,8783
DA:1331,8783
DA:1332,142106
DA:1333,133323
DA:1337,8783
DA:1338,8783
DA:1339,8783
DA:1341,8783
DA:1342,8783
DA:1344,8783
DA:1349,781692
DA:1350,450104
DA:1360,6395830
DA:1364,2529060
DA:1365,2529060
DA:1367,2529060
DA:1368,2529060
DA:1369,143036
DA:1375,2527670
DA:1379,9125150
DA:1380,6596090
DA:1381,6596090
DA:1383,6596010
DA:1384,6596010
DA:1385,6596010
DA:1387,6596010
DA:1390,182967
DA:1394,6596090
DA:1395,72
DA:1396,774
DA:1397,702
DA:1401,6596090
DA:1402,6596090
DA:1403,2529060
DA:1409,6395830
DA:1413,106831
DA:1414,51864
DA:1419,51864
DA:1420,51864
DA:1422,103728
DA:1423,51864
DA:1424,51864
DA:1427,51864
DA:1430,51864
DA:1432,0
DA:1435,0
DA:1436,0
DA:1441,0
DA:1443,0
DA:1444,0
DA:1445,0
DA:1448,0
DA:1449,0
DA:1450,0
DA:1451,0
DA:1452,0
DA:1455,0
DA:1456,0
DA:1457,0
DA:1458,0
DA:1460,51864
DA:1463,51864
DA:1466,51864
DA:1467,51864
DA:1468,51864
DA:1471,51864
DA:1472,51864
DA:1475,51864
DA:1478,55021
DA:1483,54
DA:1484,54
DA:1486,108
DA:1487,54
DA:1488,54
DA:1491,54
DA:1492,54
DA:1493,54
DA:1495,54
DA:1498,54
DA:1499,54
DA:1500,54
DA:1503,54
DA:1504,54
DA:1507,54
DA:1510,55029
DA:1515,62
DA:1516,62
DA:1518,124
DA:1519,62
DA:1520,62
DA:1524,62
DA:1525,62
DA:1526,62
DA:1528,62
DA:1531,62
DA:1532,62
DA:1533,62
DA:1536,62
DA:1537,62
DA:1540,62
DA:1545,103728
DA:1549,103728
DA:1550,51864
DA:1551,51864
DA:1552,52488
DA:1553,1248
DA:1554,1248
DA:1555,624
DA:1556,624
DA:1558,51864
DA:1559,51864
DA:1561,51864
DA:1562,51864
DA:1564,29954500
DA:1565,29902600
DA:1566,29902600
DA:1567,29902600
DA:1568,29850700
DA:1569,51864
DA:1573,51864
DA:1574,51864
DA:1575,53535
DA:1578,0
DA:1582,433357
DA:1584,433357
DA:1585,57
DA:1586,57
DA:1587,57
DA:1592,639267
DA:1593,639267
DA:1595,0
DA:1600,639267
DA:1601,448366
DA:1602,448366
DA:1604,405053
DA:1605,405053
DA:1607,405053
DA:1610,405053
DA:1612,1215160
DA:1614,448366
DA:1619,32928
DA:1620,32928
DA:1622,0
DA:1627,32928
DA:1628,3650
DA:1629,3650
DA:1631,918
DA:1633,2754
DA:1635,3650
DA:1639,8783
DA:1641,8783
DA:1642,8783
DA:1643,8783
DA:1644,8783
DA:1645,8783
DA:1647,215666
DA:1648,215666
DA:1653,718059
DA:1654,502393
DA:1656,502393
DA:1657,122253
DA:1658,122253
DA:1660,611265
DA:1662,122253
DA:1664,244506
DA:1665,122253
DA:1666,380140
DA:1667,380140
DA:1668,380140
DA:1669,380140
DA:1671,502393
DA:1674,215666
DA:1676,215666
DA:1679,0
DA:1684,215666
DA:1685,150017
DA:1686,150017
DA:1687,150017
DA:1688,150017
DA:1694,118366
DA:1695,118366
DA:1696,118366
DA:1697,236732
DA:1700,118366
DA:1701,118366
DA:1702,236732
DA:1705,118366
DA:1709,0
DA:1715,213222
DA:1716,213222
DA:1717,213222
DA:1718,426004
DA:1721,213222
DA:1722,150
DA:1723,132
DA:1724,264
DA:1728,213222
DA:1730,220
DA:1731,220
DA:1732,220
DA:1735,213222
DA:1741,6395830
DA:1749,6395830
DA:1750,3263230
DA:1754,7965100
DA:1763,3183500
DA:1764,3183500
DA:1765,3183500
DA:1767,3183500
DA:1768,3170490
DA:1770,3170490
DA:1772,3170490
DA:1773,1758120
DA:1776,3170490
DA:1780,106
DA:1781,106
DA:1782,106
DA:1784,52
DA:1785,52
DA:1786,52
DA:1788,51864
DA:1789,51864
DA:1790,51864
DA:1792,402131
DA:1793,402131
DA:1795,402131
DA:1796,402077
DA:1798,402077
DA:1799,402077
DA:1801,402077
DA:1802,283593
DA:1803,283593
DA:1805,0
DA:1809,118484
DA:1810,118484
DA:1811,236968
DA:1814,402077
DA:1820,402077
DA:1821,119322
DA:1822,119322
DA:1823,108086
DA:1825,11236
DA:1828,119322
DA:1829,119322
DA:1830,119322
DA:1831,119322
DA:1832,119322
DA:1833,238640
DA:1835,4
DA:1837,238644
DA:1849,55047
DA:1850,55047
DA:1851,55047
DA:1853,248153
DA:1854,248153
DA:1856,248153
DA:1857,248153
DA:1859,844941
DA:1860,844941
DA:1862,844887
DA:1863,844887
DA:1864,844887
DA:1865,844887
DA:1867,844887
DA:1868,844887
DA:1870,0
DA:1871,0
DA:1875,844887
DA:1876,1500
DA:1878,844887
DA:1879,844887
DA:1883,0
DA:1894,3170490
DA:1902,3691780
DA:1903,2442800
DA:1904,2442800
DA:1906,2442800
DA:1907,2442800
DA:1908,2442800
DA:1910,2442800
DA:1912,0
DA:1916,2442800
DA:1917,0
DA:1918,0
DA:1919,0
DA:1923,2442800
DA:1924,2442800
DA:1925,1248970
DA:1931,3170490
DA:1936,106831
DA:1941,51864
DA:1942,51864
DA:1944,103728
DA:1945,51864
DA:1946,51864
DA:1949,51864
DA:1951,51864
DA:1952,51864
DA:1955,51864
DA:1956,51864
DA:1959,51864
DA:1962,55021
DA:1967,54
DA:1968,54
DA:1970,108
DA:1971,54
DA:1972,54
DA:1975,54
DA:1977,54
DA:1978,54
DA:1981,54
DA:1982,54
DA:1985,54
DA:1990,52850
DA:1991,52850
DA:1992,52850
DA:1994,233942
DA:1995,233942
DA:1997,0
DA:2001,233942
DA:2002,233942
DA:2004,1064
DA:2005,1064
DA:2007,1064
DA:2009,84
DA:2010,0
DA:2016,1064
DA:2018,3192
DA:2020,233942
DA:2021,233942
DA:2023,31860
DA:2024,31860
DA:2026,0
DA:2030,31860
DA:2031,31860
DA:2033,712
DA:2034,712
DA:2036,712
DA:2038,0
DA:2039,0
DA:2045,712
DA:2047,2136
DA:2049,31860
DA:2050,31860
DA:2052,844941
DA:2054,844941
DA:2056,844941
DA:2057,844887
DA:2058,844887
DA:2059,844887
DA:2061,844887
DA:2062,562917
DA:2064,844887
DA:2065,0
DA:2067,844887
DA:2068,0
DA:2071,844887
DA:2074,844887
DA:2075,352975
DA:2076,352975
DA:2077,224083
DA:2084,567433
DA:2085,567433
DA:2086,372965
DA:2087,372965
DA:2088,96526
DA:2099,3170490
DA:2100,1758120
DA:2104,3183500
DA:2107,55083
DA:2108,55083
DA:2109,55083
DA:2110,55083
DA:2112,55083
DA:2114,55083
DA:2115,60989
DA:2116,6022
DA:2117,6022
DA:2118,0
DA:2119,0
DA:2120,0
DA:2121,0
DA:2122,0
DA:2125,6120
DA:2126,98
DA:2127,98
DA:2130,6022
DA:2134,6022
DA:2135,6022
DA:2136,6022
DA:2137,12044
DA:2139,6022
DA:2140,6022
DA:2144,524478
DA:2145,469395
DA:2146,334021
DA:2147,307409
DA:2148,307409
DA:2149,307409
DA:2150,776804
DA:2151,162040
DA:2154,55083
DA:2156,103844
DA:2157,103844
DA:2158,372
DA:2159,372
DA:2160,372
DA:2162,744
DA:2163,372
DA:2166,746
DA:2167,426
DA:2168,374
DA:2169,374
DA:2170,0
DA:2172,374
DA:2173,48
DA:2175,62
DA:2176,14
DA:2177,0
DA:2183,48
DA:2184,48
DA:2185,0
DA:2190,326
DA:2191,326
DA:2192,326
DA:2195,52
DA:2196,52
DA:2200,372
DA:2201,0
DA:2206,103844
DA:2208,103844
DA:2209,103844
DA:2210,372
DA:2211,372
DA:2214,798
DA:2215,426
DA:2216,426
DA:2217,426
DA:2218,0
DA:2222,426
DA:2223,426
DA:2224,0
DA:2225,426
DA:2226,4
DA:2231,422
DA:2232,422
DA:2233,422
DA:2236,480
DA:2237,54
DA:2238,0
DA:2239,0
DA:2240,0
DA:2243,426
DA:2247,372
DA:2249,103844
DA:2251,54599
DA:2252,54599
DA:2253,54599
DA:2255,106095
DA:2256,51496
DA:2261,51496
DA:2262,51496
DA:2264,102992
DA:2265,51496
DA:2266,51496
DA:2269,51496
DA:2271,51496
DA:2273,51496
DA:2275,51496
DA:2278,51496
DA:2279,51496
DA:2280,51496
DA:2282,51496
DA:2284,54599
DA:2286,57
DA:2287,57
DA:2288,57
DA:2290,57
DA:2291,57
DA:2293,57
DA:2294,57
DA:2296,57
DA:2297,57
DA:2299,57
DA:2300,57
DA:2302,57
DA:2303,0
DA:2305,57
DA:2306,0
DA:2310,57
DA:2312,57
DA:2313,0
DA:2317,57
DA:2319,57
DA:2321,57
DA:2323,57
DA:2324,57
DA:2326,57
DA:2327,57
DA:2329,57
DA:2330,57
DA:2332,57
DA:2333,57
DA:2335,150
DA:2336,150
DA:2338,150
DA:2341,150
DA:2342,150
DA:2344,150
DA:2346,150
DA:2348,150
DA:2349,150
DA:2352,150
DA:2353,150
DA:2355,150
DA:2357,150
DA:2358,150
DA:2359,150
DA:2360,150
DA:2362,402
DA:2363,402
DA:2364,402
DA:2365,134
DA:2366,268
DA:2367,0
DA:2368,268
DA:2369,134
DA:2371,134
DA:2378,2088
DA:2379,2088
DA:2380,1762
DA:2381,158
DA:2382,158
DA:2383,158
DA:2384,158
DA:2386,158
DA:2388,0
DA:2392,158
DA:2394,158
DA:2395,0
DA:2397,158
DA:2398,0
DA:2403,182
DA:2404,24
DA:2405,0
DA:2410,158
DA:2411,158
DA:2412,158
DA:2415,316
DA:2416,158
DA:2420,3400
DA:2421,1796
DA:2425,2088
DA:2427,608
DA:2428,608
DA:2429,608
DA:2431,608
DA:2433,9
DA:2435,599
DA:2436,599
DA:2438,599
DA:2439,599
DA:2441,3485
DA:2442,2886
DA:2443,2886
DA:2446,1684
DA:2447,1085
DA:2448,1085
DA:2451,599
DA:2454,599
DA:2458,599
DA:2462,4522
DA:2463,3935
DA:2464,3935
DA:2465,3935
DA:2466,3935
DA:2468,15891
DA:2469,11956
DA:2472,3935
DA:2473,1559
DA:2474,486
DA:2478,2862
DA:2481,1073
DA:2486,1073
DA:2489,12
DA:2494,12
DA:2497,12
DA:2498,12
DA:2499,12
DA:2501,12
DA:2502,12
DA:2505,12
DA:2510,12
DA:2511,12
DA:2512,12
DA:2515,12
DA:2517,12
DA:2520,12
DA:2521,12
DA:2522,12
DA:2523,12
DA:2524,12
DA:2526,12
DA:2527,0
DA:2529,0
DA:2530,0
DA:2531,0
DA:2533,0
DA:2534,0
DA:2537,12
DA:2538,12
DA:2540,12
DA:2541,0
DA:2542,0
DA:2544,12
DA:2545,12
DA:2552,12
DA:2553,0
DA:2554,0
DA:2555,0
DA:2556,0
DA:2557,0
DA:2559,0
DA:2560,0
DA:2562,0
DA:2563,0
DA:2564,0
DA:2566,0
DA:2567,0
DA:2570,0
DA:2571,0
DA:2573,0
DA:2574,0
DA:2575,0
DA:2577,0
DA:2578,0
DA:2587,12
DA:2588,0
DA:2589,0
DA:2593,12
DA:2594,36
DA:2595,24
DA:2596,24
DA:2597,24
DA:2598,24
DA:2600,24
DA:2601,12
DA:2602,12
DA:2603,12
DA:2604,12
DA:2609,599
DA:2610,599
DA:2611,599
DA:2613,599
DA:2615,0
DA:2619,9
DA:2620,9
DA:2622,9
DA:2626,9
DA:2627,9
DA:2628,9
DA:2629,9
DA:2641,1388
DA:2643,1388
DA:2644,1388
DA:2645,1388
DA:2646,1388
DA:2648,1388
DA:2649,1388
DA:2652,1388
DA:2653,2776
DA:2654,1388
DA:2656,0
DA:2657,0
DA:2660,0
DA:2661,0
DA:2664,0
DA:2665,0
DA:2667,0
DA:2669,0
DA:2671,0
DA:2676,0
DA:2678,0
DA:2680,0
DA:2682,0
DA:2683,0
DA:2688,0
DA:2691,0
DA:2693,0
DA:2694,0
DA:2699,0
DA:2702,0
DA:2704,0
DA:2705,0
DA:2706,0
DA:2709,0
DA:2710,0
DA:2711,0
DA:2716,0
DA:2718,1388
end_of_record
SF:/workspace/vtr-verilog-to-routing/libs/librtlnumber/src/include/rtl_utils.hpp
FN:47,_Z12_assert_WerrbPKciNSt7__cxx1112basic_stringIcSt11char_traitsIcESaIcEEE
FNDA:0,_Z12_assert_WerrbPKciNSt7__cxx1112basic_stringIcSt11char_traitsIcESaIcEEE
DA:47,0
DA:48,0
DA:49,0
DA:50,0
DA:51,0
DA:52,0
DA:54,0
end_of_record
SF:/usr/include/c++/9/bits/stl_construct.h
DA:74,489012
DA:75,244506
DA:97,244506
DA:98,244506
DA:105,0
DA:107,366759
DA:108,489012
DA:117,7744510
DA:127,0
DA:137,0
DA:203,122253
DA:206,7866760
end_of_record
SF:/usr/include/c++/9/bits/stl_uninitialized.h
FN:76,_ZNSt20__uninitialized_copyILb0EE13__uninit_copyIPK7VNumberPS2_EET0_T_S7_S6_
FNDA:122253,_ZNSt20__uninitialized_copyILb0EE13__uninit_copyIPK7VNumberPS2_EET0_T_S7_S6_
DA:76,122253
DA:79,122253
DA:82,366759
DA:83,244506
DA:84,122253
DA:86,0
DA:88,0
DA:89,0
DA:115,0
DA:134,0
DA:140,0
DA:305,0
DA:307,0
DA:905,0
DA:912,0
DA:913,0
DA:949,0
DA:950,0
DA:964,0
end_of_record
SF:/usr/include/c++/9/ostream
DA:108,0
DA:113,0
DA:565,0
DA:568,0
DA:570,0
DA:571,0
end_of_record
SF:/usr/include/c++/9/bits/locale_facets.h
FN:872,_ZNKSt5ctypeIcE5widenEc
FNDA:0,_ZNKSt5ctypeIcE5widenEc
FN:1084,_ZNKSt5ctypeIcE8do_widenEc
FNDA:0,_ZNKSt5ctypeIcE8do_widenEc
DA:872,0
DA:874,0
DA:875,0
DA:876,0
DA:877,0
DA:1084,0
DA:1085,0
end_of_record
SF:/usr/include/c++/9/bits/alloc_traits.h
DA:469,3217360
DA:470,3217360
DA:482,0
DA:484,1134460
DA:495,0
DA:497,0
DA:505,0
DA:506,0
DA:514,1856
DA:515,1856
DA:545,4658080
DA:546,4658080
DA:553,4658080
DA:557,4658080
end_of_record
SF:/usr/include/c++/9/initializer_list
DA:71,122253
DA:75,122253
DA:79,122253
end_of_record
SF:/usr/include/c++/9/bits/stl_iterator_base_funcs.h
DA:98,162577
DA:104,162577
DA:138,162577
DA:141,162577
end_of_record
SF:/usr/include/c++/9/bits/move.h
DA:47,489012
DA:74,7917850
DA:99,12582700
DA:138,193710
DA:139,182472
end_of_record
SF:/usr/include/c++/9/bits/basic_string.h
FN:6057,_ZStplIcSt11char_traitsIcESaIcEENSt7__cxx1112basic_stringIT_T0_T1_EERKS8_PKS5_
FNDA:1856,_ZStplIcSt11char_traitsIcESaIcEENSt7__cxx1112basic_stringIT_T0_T1_EERKS8_PKS5_
FN:6085,_ZStplIcSt11char_traitsIcESaIcEENSt7__cxx1112basic_stringIT_T0_T1_EEOS8_RKS8_
FNDA:4959,_ZStplIcSt11char_traitsIcESaIcEENSt7__cxx1112basic_stringIT_T0_T1_EEOS8_RKS8_
FN:6109,_ZStplIcSt11char_traitsIcESaIcEENSt7__cxx1112basic_stringIT_T0_T1_EEPKS5_OS8_
FNDA:0,_ZStplIcSt11char_traitsIcESaIcEENSt7__cxx1112basic_stringIT_T0_T1_EEPKS5_OS8_
FN:6121,_ZStplIcSt11char_traitsIcESaIcEENSt7__cxx1112basic_stringIT_T0_T1_EEOS8_PKS5_
FNDA:0,_ZStplIcSt11char_traitsIcESaIcEENSt7__cxx1112basic_stringIT_T0_T1_EEOS8_PKS5_
FN:6149,_ZSteqIcEN9__gnu_cxx11__enable_ifIXsrSt9__is_charIT_E7__valueEbE6__typeERKNSt7__cxx1112basic_stringIS3_St11char_traitsIS3_ESaIS3_EEESE_
FNDA:0,_ZSteqIcEN9__gnu_cxx11__enable_ifIXsrSt9__is_charIT_E7__valueEbE6__typeERKNSt7__cxx1112basic_stringIS3_St11char_traitsIS3_ESaIS3_EEESE_
DA:150,181920
DA:156,16
DA:157,16
DA:159,1856
DA:160,6815
DA:178,11915
DA:179,4677
DA:182,167536
DA:183,167536
DA:186,648323
DA:190,11790
DA:193,1856
DA:200,186879
DA:203,186879
DA:210,6956
DA:211,4677
DA:214,167536
DA:216,167536
DA:217,167536
DA:221,186879
DA:222,186879
DA:229,181920
DA:231,175641
DA:232,190588
DA:236,8668
DA:237,8668
DA:243,1872
DA:247,1872
DA:263,1872
DA:266,16
DA:286,13627
DA:287,8668
DA:290,1856
DA:291,1856
DA:346,162577
DA:348,162577
DA:349,3167
DA:351,162577
DA:392,1872
DA:393,1872
DA:396,160705
DA:398,160705
DA:448,1856
DA:450,0
DA:451,0
DA:540,0
DA:541,0
DA:542,0
DA:552,4959
DA:553,4959
DA:555,4959
DA:557,2680
DA:562,2279
DA:563,2279
DA:569,4959
DA:570,4959
DA:571,4959
DA:625,16
DA:627,16
DA:628,16
DA:657,175641
DA:658,174409
DA:704,8034
DA:705,8034
DA:930,8062
DA:936,1856
DA:1168,3103
DA:1169,3103
DA:1177,0
DA:1178,0
DA:1221,8062
DA:1222,3103
DA:2300,110466
DA:2301,110466
DA:2312,0
DA:2313,0
DA:2571,122
DA:2572,122
DA:2655,122
DA:2656,122
DA:6057,1856
DA:6060,1856
DA:6061,1856
DA:6062,1856
DA:6085,4959
DA:6087,4959
DA:6109,0
DA:6111,0
DA:6121,0
DA:6123,0
DA:6149,0
DA:6151,0
DA:6152,0
DA:6153,0
DA:6175,16056
DA:6177,16056
DA:6213,16056
DA:6215,16056
DA:6416,0
DA:6421,0
DA:6546,16
DA:6547,16
DA:6548,16
DA:6562,0
DA:6563,0
DA:6565,0
end_of_record
SF:/usr/include/c++/9/iostream
end_of_record
SF:/usr/include/c++/9/ext/type_traits.h
DA:152,162577
end_of_record
SF:/usr/include/c++/9/bits/ptr_traits.h
DA:146,182472
DA:147,182472
end_of_record
SF:/usr/include/c++/9/bits/basic_string.tcc
FN:206,_ZNSt7__cxx1112basic_stringIcSt11char_traitsIcESaIcEE12_M_constructIPcEEvT_S7_St20forward_iterator_tag
FNDA:1872,_ZNSt7__cxx1112basic_stringIcSt11char_traitsIcESaIcEE12_M_constructIPcEEvT_S7_St20forward_iterator_tag
FN:206,_ZNSt7__cxx1112basic_stringIcSt11char_traitsIcESaIcEE12_M_constructIPKcEEvT_S8_St20forward_iterator_tag
FNDA:160705,_ZNSt7__cxx1112basic_stringIcSt11char_traitsIcESaIcEE12_M_constructIPKcEEvT_S8_St20forward_iterator_tag
DA:206,1872
DA:211,1872
DA:212,0
DA:215,1872
DA:217,1872
DA:219,0
DA:220,0
DA:225,1872
DA:232,1872
DA:233,1872
DA:206,160705
DA:211,160705
DA:212,0
DA:215,160705
DA:217,160705
DA:219,4677
DA:220,4677
DA:225,160705
DA:232,160705
DA:233,160705
end_of_record
SF:/usr/include/c++/9/ext/alloc_traits.h
DA:97,1856
DA:98,1856
end_of_record
SF:/usr/include/x86_64-linux-gnu/bits/stdio2.h
DA:105,3109
DA:107,3109
end_of_record
SF:/workspace/vtr-verilog-to-routing/libs/EXTERNAL/libargparse/src/argparse_value.hpp
DA:50,0
DA:56,3109
end_of_record
SF:/usr/include/c++/9/ext/string_conversions.h
FN:99,_ZN9__gnu_cxx12__to_xstringINSt7__cxx1112basic_stringIcSt11char_traitsIcESaIcEEEcEET_PFiPT0_mPKS8_P13__va_list_tagEmSB_z
FNDA:16,_ZN9__gnu_cxx12__to_xstringINSt7__cxx1112basic_stringIcSt11char_traitsIcESaIcEEEcEET_PFiPT0_mPKS8_P13__va_list_tagEmSB_z
DA:99,16
DA:105,16
DA:109,16
DA:111,16
DA:113,16
DA:115,16
end_of_record
SF:/usr/include/c++/9/new
DA:173,1378960
DA:174,1378960
end_of_record
SF:/usr/include/c++/9/bits/vector.tcc
FN:109,_ZNSt6vectorIN8BitSpace9BitFieldsItEESaIS2_EE12emplace_backIJS2_EEEvDpOT_
FNDA:7917850,_ZNSt6vectorIN8BitSpace9BitFieldsItEESaIS2_EE12emplace_backIJS2_EEEvDpOT_
FN:198,_ZNSt6vectorIN8BitSpace9BitFieldsItEESaIS2_EEaSERKS4_
FNDA:0,_ZNSt6vectorIN8BitSpace9BitFieldsItEESaIS2_EEaSERKS4_
FN:426,_ZNSt6vectorIN8BitSpace9BitFieldsItEESaIS2_EE17_M_realloc_insertIJS2_EEEvN9__gnu_cxx17__normal_iteratorIPS2_S4_EEDpOT_
FNDA:0,_ZNSt6vectorIN8BitSpace9BitFieldsItEESaIS2_EE17_M_realloc_insertIJS2_EEEvN9__gnu_cxx17__normal_iteratorIPS2_S4_EEDpOT_
DA:109,7917850
DA:112,7917850
DA:115,1134460
DA:117,1134460
DA:121,6783400
DA:125,7917850
DA:198,0
DA:201,0
DA:223,0
DA:224,0
DA:226,0
DA:228,0
DA:229,0
DA:230,0
DA:231,0
DA:232,0
DA:233,0
DA:234,0
DA:236,0
DA:238,0
DA:239,0
DA:243,0
DA:245,0
DA:246,0
DA:248,0
DA:250,0
DA:252,0
DA:426,0
DA:435,0
DA:437,0
DA:438,0
DA:439,0
DA:440,0
DA:441,0
DA:449,0
DA:450,0
DA:456,0
DA:461,0
DA:462,0
DA:464,0
DA:466,0
DA:467,0
DA:500,0
DA:501,0
DA:502,0
DA:503,0
DA:504,0
DA:505,0
end_of_record
SF:/usr/include/c++/9/bits/allocator.h
DA:138,3779580
DA:141,4787160
DA:142,4787160
DA:153,8211770
end_of_record
SF:/workspace/vtr-verilog-to-routing/libs/librtlnumber/src/include/internal_bits.hpp
FN:308,_ZN8BitSpaceL13bits_to_hex_cEsb
FNDA:0,_ZN8BitSpaceL13bits_to_hex_cEsb
FN:454,_ZN8BitSpace11VerilogBitsC2Emh
FNDA:3485470,_ZN8BitSpace11VerilogBitsC2Emh
FN:510,_ZN8BitSpace11VerilogBits12to_printableB5cxx11Ev
FNDA:0,_ZN8BitSpace11VerilogBits12to_printableB5cxx11Ev
FN:520,_ZN8BitSpace11VerilogBits4getcEv
FNDA:0,_ZN8BitSpace11VerilogBits4getcEv
FN:615,_ZN8BitSpace11VerilogBits6resizeEhm
FNDA:1172600,_ZN8BitSpace11VerilogBits6resizeEhm
FN:716,_ZN7VNumberC2ERKS_
FNDA:1140270,_ZN7VNumberC2ERKS_
FN:722,_ZN7VNumberC2EPS_
FNDA:0,_ZN7VNumberC2EPS_
FN:728,_ZN7VNumberC2ES_m
FNDA:1172600,_ZN7VNumberC2ES_m
FN:751,_ZN7VNumber9get_valueEv
FNDA:0,_ZN7VNumber9get_valueEv
FN:777,_ZN7VNumber9to_stringB5cxx11Ebb
FNDA:0,_ZN7VNumber9to_stringB5cxx11Ebb
FN:792,_ZN7VNumber10to_UstringB5cxx11Eb
FNDA:0,_ZN7VNumber10to_UstringB5cxx11Eb
FN:807,_ZN7VNumber12to_log2radixB5cxx11Esbb
FNDA:0,_ZN7VNumber12to_log2radixB5cxx11Esbb
FN:832,_ZN7VNumber9to_base10B5cxx11Ebb
FNDA:0,_ZN7VNumber9to_base10B5cxx11Ebb
FN:857,_ZN7VNumber20to_verilog_bitstringB5cxx11Ev
FNDA:0,_ZN7VNumber20to_verilog_bitstringB5cxx11Ev
FN:864,_ZN7VNumber10to_vstringB5cxx11Ec
FNDA:0,_ZN7VNumber10to_vstringB5cxx11Ec
FN:1007,_ZN7VNumber16get_bit_from_msbEm
FNDA:0,_ZN7VNumber16get_bit_from_msbEm
FN:1012,_ZN7VNumber16get_bit_from_lsbEm
FNDA:0,_ZN7VNumber16get_bit_from_lsbEm
DA:286,0
DA:287,0
DA:290,0
DA:291,0
DA:292,0
DA:293,0
DA:294,0
DA:295,0
DA:299,0
DA:300,0
DA:303,0
DA:304,0
DA:308,0
DA:309,0
DA:312,0
DA:313,0
DA:314,0
DA:315,0
DA:316,0
DA:317,0
DA:318,0
DA:319,0
DA:320,0
DA:321,0
DA:322,0
DA:323,0
DA:324,0
DA:325,0
DA:326,0
DA:327,0
DA:328,0
DA:329,0
DA:330,0
DA:331,0
DA:332,0
DA:333,0
DA:334,0
DA:335,0
DA:336,0
DA:337,0
DA:338,0
DA:339,0
DA:340,0
DA:341,0
DA:342,0
DA:343,0
DA:346,0
DA:349,0
DA:376,50235700
DA:377,50235700
DA:378,50235700
DA:379,50235700
DA:384,7917850
DA:385,2312870
DA:390,48399400
DA:391,48399400
DA:392,14600400
DA:394,0
DA:398,35635300
DA:399,35635300
DA:401,35635300
DA:402,35635300
DA:404,35635300
DA:405,35635300
DA:406,35635300
DA:408,35635300
DA:409,35635300
DA:416,0
DA:418,0
DA:419,0
DA:425,0
DA:435,9217270
DA:440,50235700
DA:441,50235700
DA:454,3485470
DA:455,3485470
DA:456,3485470
DA:458,3485470
DA:460,11403300
DA:461,10230700
DA:463,3485470
DA:470,50812400
DA:471,50812400
DA:478,50235700
DA:486,50235700
DA:489,48399400
DA:497,48399400
DA:500,35635300
DA:507,35635300
DA:510,0
DA:511,0
DA:513,0
DA:514,0
DA:517,0
DA:520,0
DA:521,0
DA:522,0
DA:525,458649
DA:526,15059000
DA:527,14600400
DA:561,0
DA:562,0
DA:563,0
DA:615,1172600
DA:619,1172600
DA:620,0
DA:621,0
DA:623,0
DA:624,0
DA:625,0
DA:627,0
DA:628,0
DA:629,0
DA:635,0
DA:638,1172600
DA:640,1172600
DA:642,34971700
DA:643,33799100
DA:644,33799100
DA:647,3008880
DA:648,1836280
DA:649,1836280
DA:652,1172600
DA:674,3300440
DA:716,1140270
DA:717,1140270
DA:718,1140270
DA:719,1140270
DA:720,1140270
DA:722,0
DA:723,0
DA:724,0
DA:725,0
DA:726,0
DA:728,1172600
DA:729,1172600
DA:730,2345210
DA:731,1172600
DA:732,1172600
DA:751,0
DA:752,0
DA:754,0
DA:757,0
DA:758,0
DA:759,0
DA:760,0
DA:763,0
DA:764,0
DA:766,0
DA:767,0
DA:768,0
DA:769,0
DA:771,0
DA:774,0
DA:777,0
DA:779,0
DA:780,0
DA:781,0
DA:782,0
DA:783,0
DA:785,0
DA:789,0
DA:792,0
DA:794,0
DA:795,0
DA:796,0
DA:797,0
DA:798,0
DA:800,0
DA:804,0
DA:807,0
DA:808,0
DA:811,0
DA:812,0
DA:813,0
DA:816,0
DA:818,0
DA:819,0
DA:820,0
DA:822,0
DA:829,0
DA:832,0
DA:833,0
DA:834,0
DA:835,0
DA:837,0
DA:839,0
DA:840,0
DA:841,0
DA:842,0
DA:843,0
DA:845,0
DA:847,0
DA:848,0
DA:850,0
DA:853,0
DA:857,0
DA:858,0
DA:859,0
DA:861,0
DA:864,0
DA:865,0
DA:866,0
DA:867,0
DA:868,0
DA:873,0
DA:874,0
DA:875,0
DA:876,0
DA:877,0
DA:878,0
DA:879,0
DA:880,0
DA:881,0
DA:882,0
DA:883,0
DA:884,0
DA:885,0
DA:886,0
DA:887,0
DA:888,0
DA:890,0
DA:891,0
DA:892,0
DA:894,0
DA:896,0
DA:1000,0
DA:1001,0
DA:1007,0
DA:1008,0
DA:1009,0
DA:1012,0
DA:1013,0
DA:1014,0
DA:1016,0
DA:1019,0
DA:1020,0
DA:1030,781706
DA:1031,781706
DA:1034,1172600
DA:1035,988333
DA:1038,1172600
DA:1039,1172600
DA:1050,0
DA:1051,917298
DA:1066,0
DA:1067,0
end_of_record
TN:
SF:/workspace/vtr-verilog-to-routing/ODIN_II/SRC/odin_error.cpp
FN:27,_Z20verify_delayed_error10odin_error
FNDA:3109,_Z20verify_delayed_error10odin_error
FN:33,_ZL20make_marker_from_strNSt7__cxx1112basic_stringIcSt11char_traitsIcESaIcEEEi
FNDA:2049,_ZL20make_marker_from_strNSt7__cxx1112basic_stringIcSt11char_traitsIcESaIcEEEi
FN:52,_ZL16get_culprit_lineiPKc
FNDA:9517,_ZL16get_culprit_lineiPKc
FN:79,_ZL31print_culprit_line_with_contextiiPKci
FNDA:2049,_ZL31print_culprit_line_with_contextiiPKci
FN:90,_Z12_log_message10odin_error5loc_tbPKciS2_S2_z
FNDA:2149,_Z12_log_message10odin_error5loc_tbPKciS2_S2_z
FN:128,_Z15_verbose_assertbPKcS0_iS0_
FNDA:2447700000,_Z15_verbose_assertbPKcS0_iS0_
DA:27,3109
DA:28,3109
DA:29,0
DA:31,3109
DA:33,2049
DA:34,2049
DA:36,23926
DA:37,23564
DA:39,21877
DA:40,6063
DA:41,15814
DA:44,21877
DA:48,2049
DA:49,2049
DA:52,9517
DA:53,9517
DA:54,9517
DA:55,9517
DA:59,387365000
DA:60,387365000
DA:61,387365000
DA:63,387365000
DA:64,10340900
DA:65,10340900
DA:67,10332000
DA:70,377024000
DA:71,251256
DA:74,9517
DA:76,9517
DA:79,2049
DA:80,12054
DA:81,19034
DA:82,9517
DA:83,9517
DA:84,9517
DA:85,6270
DA:88,2049
DA:90,2149
DA:91,2149
DA:93,2149
DA:95,2149
DA:96,2049
DA:97,2049
DA:98,2049
DA:101,2149
DA:102,2149
DA:104,0
DA:107,2149
DA:109,2149
DA:110,2149
DA:111,2149
DA:112,2149
DA:113,2149
DA:115,2149
DA:116,765
DA:119,2049
DA:120,4198
DA:121,2049
DA:124,2149
DA:125,2149
DA:126,2149
DA:128,2447700000
DA:129,2447700000
DA:130,2447700000
DA:131,0
DA:132,0
DA:134,0
DA:136,0
DA:139,0
DA:141,0
DA:142,0
DA:144,2447700000
end_of_record
SF:/usr/include/c++/9/bits/alloc_traits.h
DA:469,14316
DA:470,14316
DA:514,2049
DA:515,2049
end_of_record
SF:/usr/include/c++/9/bits/stl_iterator_base_funcs.h
DA:98,11566
DA:104,11566
DA:138,11566
DA:141,11566
end_of_record
SF:/usr/include/x86_64-linux-gnu/bits/stdlib.h
DA:37,2049
DA:39,2049
DA:45,0
DA:48,2049
end_of_record
SF:/usr/include/c++/9/bits/stl_algobase.h
DA:222,2049
DA:227,2049
DA:228,488
end_of_record
SF:/usr/include/c++/9/bits/stl_vector.h
FN:675,_ZNSt6vectorISt4pairINSt7__cxx1112basic_stringIcSt11char_traitsIcESaIcEEEiESaIS7_EED2Ev
FNDA:6013,_ZNSt6vectorISt4pairINSt7__cxx1112basic_stringIcSt11char_traitsIcESaIcEEEiESaIS7_EED2Ev
DA:125,6013
DA:273,6013
DA:274,6013
DA:330,6013
DA:332,12026
DA:333,6013
DA:334,6013
DA:347,6013
DA:350,6013
DA:351,3109
DA:675,6013
DA:677,12026
DA:678,6013
DA:680,6013
DA:915,4098
DA:916,4098
DA:1040,4098
DA:1043,4098
end_of_record
SF:/usr/include/c++/9/bits/stl_construct.h
DA:97,3203
DA:98,3203
DA:107,9216
DA:108,6406
DA:137,6013
DA:203,6013
DA:206,6013
end_of_record
SF:/usr/include/c++/9/ext/new_allocator.h
DA:80,11566
DA:83,2049
DA:89,27964
DA:119,14316
DA:128,14316
end_of_record
SF:/usr/include/c++/9/bits/char_traits.h
DA:299,11566
DA:300,0
DA:361,11566
DA:363,11566
DA:365,0
end_of_record
SF:/usr/include/c++/9/bits/allocator.h
DA:138,11566
DA:141,2049
DA:142,2049
DA:153,51890
end_of_record
SF:/usr/include/c++/9/ext/alloc_traits.h
DA:97,2049
DA:98,2049
end_of_record
SF:/usr/include/c++/9/bits/stl_pair.h
DA:208,6406
end_of_record
SF:/usr/include/x86_64-linux-gnu/bits/stdio2.h
DA:98,20827
DA:100,18678
DA:101,0
DA:127,2149
DA:130,2149
end_of_record
SF:/usr/include/c++/9/ext/type_traits.h
DA:152,11566
end_of_record
SF:/usr/include/c++/9/bits/basic_string.tcc
FN:206,_ZNSt7__cxx1112basic_stringIcSt11char_traitsIcESaIcEE12_M_constructIPcEEvT_S7_St20forward_iterator_tag
FNDA:0,_ZNSt7__cxx1112basic_stringIcSt11char_traitsIcESaIcEE12_M_constructIPcEEvT_S7_St20forward_iterator_tag
FN:206,_ZNSt7__cxx1112basic_stringIcSt11char_traitsIcESaIcEE12_M_constructIPKcEEvT_S8_St20forward_iterator_tag
FNDA:11566,_ZNSt7__cxx1112basic_stringIcSt11char_traitsIcESaIcEE12_M_constructIPKcEEvT_S8_St20forward_iterator_tag
DA:206,0
DA:211,0
DA:212,0
DA:215,0
DA:217,0
DA:219,0
DA:220,0
DA:225,0
DA:232,0
DA:233,0
DA:206,11566
DA:211,11566
DA:212,0
DA:215,11566
DA:217,11566
DA:219,0
DA:220,0
DA:225,11566
DA:232,11566
DA:233,11566
end_of_record
SF:/usr/include/c++/9/bits/ptr_traits.h
DA:146,17361
DA:147,17361
end_of_record
SF:/usr/include/c++/9/bits/basic_string.h
DA:150,16818
DA:159,2049
DA:160,2049
DA:178,0
DA:179,0
DA:182,11566
DA:183,11566
DA:186,113917
DA:190,2049
DA:193,2049
DA:200,16818
DA:203,16818
DA:210,0
DA:211,0
DA:214,11566
DA:216,11566
DA:217,11566
DA:221,16818
DA:222,16818
DA:229,16818
DA:231,15312
DA:232,28025
DA:236,11207
DA:237,11207
DA:243,2049
DA:247,2049
DA:263,2049
DA:266,4098
DA:286,11207
DA:287,11207
DA:290,2049
DA:291,2049
DA:346,11566
DA:348,11566
DA:349,0
DA:351,11566
DA:392,0
DA:393,0
DA:396,11566
DA:398,11566
DA:448,2049
DA:450,2049
DA:451,2049
DA:657,15312
DA:658,16398
DA:930,23926
DA:936,2049
DA:1063,45047
DA:1070,21877
DA:1177,2049
DA:1178,2049
DA:1186,21877
DA:1188,21877
DA:2300,15664
DA:2301,15664
end_of_record
SF:/usr/include/c++/9/bits/move.h
DA:47,3203
DA:99,2049
DA:138,18867
DA:139,17361
end_of_record
TN:
SF:/workspace/vtr-verilog-to-routing/ODIN_II/SRC/partial_map.cpp
FN:67,_Z15partial_map_topP9netlist_t
FNDA:3103,_Z15partial_map_topP9netlist_t
FN:78,_Z36depth_first_traversal_to_partial_mapsP9netlist_t
FNDA:3103,_Z36depth_first_traversal_to_partial_mapsP9netlist_t
FN:96,_Z32depth_first_traverse_partial_mapP7nnode_tmP9netlist_t
FNDA:66766500,_Z32depth_first_traverse_partial_mapP7nnode_tmP9netlist_t
FN:129,_Z16partial_map_nodeP7nnode_tsP9netlist_t
FNDA:9951660,_Z16partial_map_nodeP7nnode_tsP9netlist_t
FN:268,_Z26instantiate_soft_logic_ramP7nnode_tsP9netlist_t
FNDA:45,_Z26instantiate_soft_logic_ramP7nnode_tsP9netlist_t
FN:281,_Z26instantiate_multi_port_muxP7nnode_tsP9netlist_t
FNDA:96228,_Z26instantiate_multi_port_muxP7nnode_tsP9netlist_t
FN:320,_Z21instantiate_not_logicP7nnode_tsP9netlist_t
FNDA:11357,_Z21instantiate_not_logicP7nnode_tsP9netlist_t
FN:347,_Z16eliminate_bufferP7nnode_tsP9netlist_t
FNDA:1520120,_Z16eliminate_bufferP7nnode_tsP9netlist_t
FN:370,_Z25instantiate_logical_logicP7nnode_t14operation_listsP9netlist_t
FNDA:1059460,_Z25instantiate_logical_logicP7nnode_t14operation_listsP9netlist_t
FN:425,_Z29instantiate_bitwise_reductionP7nnode_t14operation_listsP9netlist_t
FNDA:2129460,_Z29instantiate_bitwise_reductionP7nnode_t14operation_listsP9netlist_t
FN:489,_Z25instantiate_bitwise_logicP7nnode_t14operation_listsP9netlist_t
FNDA:217176,_Z25instantiate_bitwise_logicP7nnode_t14operation_listsP9netlist_t
FN:551,_Z23instantiate_add_w_carryP7nnode_tsP9netlist_t
FNDA:18336,_Z23instantiate_add_w_carryP7nnode_tsP9netlist_t
FN:577,_Z23instantiate_sub_w_carryP7nnode_tsP9netlist_t
FNDA:2199,_Z23instantiate_sub_w_carryP7nnode_tsP9netlist_t
FN:603,_Z21instantiate_unary_subP7nnode_tsP9netlist_t
FNDA:0,_Z21instantiate_unary_subP7nnode_tsP9netlist_t
FN:612,_Z17instantiate_EQUALP7nnode_t14operation_listsP9netlist_t
FNDA:121847,_Z17instantiate_EQUALP7nnode_t14operation_listsP9netlist_t
FN:686,_Z14instantiate_GTP7nnode_t14operation_listsP9netlist_t
FNDA:8849,_Z14instantiate_GTP7nnode_t14operation_listsP9netlist_t
FN:822,_Z14instantiate_GEP7nnode_t14operation_listsP9netlist_t
FNDA:3472,_Z14instantiate_GEP7nnode_t14operation_listsP9netlist_t
FN:905,_Z17instantiate_shiftP7nnode_t14operation_listsP9netlist_t
FNDA:576,_Z17instantiate_shiftP7nnode_t14operation_listsP9netlist_t
DA:67,3103
DA:69,3103
DA:71,3103
DA:73,3103
DA:78,3103
DA:79,3103
DA:82,88163
DA:83,85060
DA:84,85060
DA:88,3103
DA:89,3103
DA:90,3103
DA:91,3103
DA:96,66766500
DA:97,66766500
DA:99,66766500
DA:103,9951660
DA:105,24404400
DA:106,14452700
DA:107,14392500
DA:108,14392500
DA:109,97972500
DA:110,83638800
DA:111,83638800
DA:113,66672100
DA:122,9951660
DA:124,66766500
DA:129,9951660
DA:130,9951660
DA:131,11357
DA:132,11357
DA:133,11357
DA:134,1520120
DA:135,1520120
DA:136,1520120
DA:137,97062
DA:138,97062
DA:139,97062
DA:140,97062
DA:141,97062
DA:142,97062
DA:143,97062
DA:144,86530
DA:145,10532
DA:146,10532
DA:148,0
DA:151,1062280
DA:152,1062280
DA:153,1062280
DA:154,1062280
DA:155,1062280
DA:156,1062280
DA:157,1062280
DA:158,1059460
DA:166,411061
DA:167,411061
DA:169,404251
DA:171,6810
DA:174,272085
DA:175,272085
DA:176,269886
DA:177,269886
DA:178,269886
DA:179,269886
DA:181,0
DA:182,0
DA:183,0
DA:184,0
DA:185,9951660
DA:187,0
DA:189,2199
DA:190,1668
DA:191,531
DA:192,9952200
DA:194,0
DA:198,118375
DA:199,118375
DA:200,118375
DA:201,118375
DA:202,3472
DA:203,3472
DA:204,3472
DA:205,3472
DA:206,5377
DA:207,5377
DA:208,5377
DA:209,5377
DA:210,576
DA:211,576
DA:212,576
DA:213,576
DA:214,576
DA:215,576
DA:216,95178
DA:217,95178
DA:218,95178
DA:219,9857
DA:220,9857
DA:221,9857
DA:223,1108770
DA:224,1108770
DA:225,1108770
DA:226,1108770
DA:227,1108720
DA:228,1108720
DA:231,1108720
DA:232,1108720
DA:234,0
DA:235,0
DA:238,45
DA:242,224
DA:243,224
DA:245,224
DA:258,0
DA:259,0
DA:260,0
DA:261,0
DA:262,0
DA:263,0
DA:264,0
DA:266,9951660
DA:268,45
DA:269,45
DA:270,36
DA:271,9
DA:272,9
DA:274,0
DA:275,45
DA:281,96228
DA:282,96228
DA:283,96228
DA:284,96228
DA:285,96228
DA:286,96228
DA:289,96228
DA:290,96228
DA:291,96228
DA:293,96228
DA:294,3477310
DA:295,3381080
DA:298,3477310
DA:299,12941800
DA:301,9560730
DA:304,9560730
DA:305,292630
DA:307,9268100
DA:311,3381080
DA:313,96228
DA:314,96228
DA:315,96228
DA:320,11357
DA:321,11357
DA:322,11357
DA:323,11357
DA:325,11357
DA:327,30536
DA:328,19179
DA:332,30536
DA:334,19179
DA:335,19179
DA:338,11357
DA:339,11357
DA:340,11357
DA:347,1520120
DA:348,1520120
DA:350,3040230
DA:351,1520120
DA:354,1520120
DA:356,1518950
DA:359,1518950
DA:364,1520120
DA:370,1059460
DA:371,1059460
DA:372,1059460
DA:373,1059460
DA:374,1059460
DA:375,1059460
DA:376,1059460
DA:377,1059460
DA:379,1059460
DA:380,1059460
DA:381,1059460
DA:383,1059460
DA:384,1059460
DA:385,1059460
DA:388,1059460
DA:389,1059460
DA:390,1059460
DA:393,2120190
DA:395,1060730
DA:396,1060730
DA:402,2120190
DA:404,1060730
DA:405,1060730
DA:412,1059460
DA:413,1059460
DA:415,1059460
DA:416,1059460
DA:418,1059460
DA:419,1059460
DA:420,1059460
DA:425,2129460
DA:426,2129460
DA:427,2129460
DA:428,2129460
DA:429,2129460
DA:431,2129460
DA:432,2129460
DA:433,2129460
DA:435,2129460
DA:437,2129460
DA:442,2126900
DA:443,2126900
DA:444,2126900
DA:445,2126900
DA:446,0
DA:447,0
DA:448,0
DA:449,0
DA:450,1420
DA:451,1420
DA:452,1420
DA:453,1420
DA:454,0
DA:455,0
DA:456,0
DA:457,0
DA:458,0
DA:459,0
DA:460,0
DA:461,0
DA:462,0
DA:463,0
DA:464,0
DA:465,0
DA:468,2129460
DA:471,4407080
DA:473,2277620
DA:474,2277620
DA:481,2129460
DA:482,2129460
DA:483,2129460
DA:489,217176
DA:490,217176
DA:492,217176
DA:493,217176
DA:494,217176
DA:495,217176
DA:497,217176
DA:516,0
DA:517,0
DA:518,0
DA:519,0
DA:523,1229920
DA:524,1012740
DA:525,1012740
DA:527,3038220
DA:529,2025480
DA:530,2025480
DA:534,0
DA:536,2025480
DA:539,1012740
DA:542,217176
DA:551,18336
DA:553,18336
DA:555,18336
DA:557,18336
DA:559,18336
DA:560,18336
DA:562,0
DA:564,18336
DA:565,18336
DA:567,18336
DA:569,18336
DA:570,18336
DA:577,2199
DA:579,2199
DA:581,2199
DA:583,2199
DA:584,2199
DA:586,2199
DA:587,531
DA:588,531
DA:589,1668
DA:590,1668
DA:591,1668
DA:594,2199
DA:596,2199
DA:597,2199
DA:603,531
DA:604,531
DA:605,531
DA:612,121847
DA:613,121847
DA:614,121847
DA:615,121847
DA:616,121847
DA:617,121847
DA:618,121847
DA:619,121847
DA:621,121847
DA:622,121847
DA:623,121847
DA:624,121847
DA:625,121847
DA:626,121847
DA:627,121847
DA:630,121847
DA:631,120709
DA:632,120709
DA:634,1138
DA:635,1138
DA:640,817895
DA:642,696048
DA:643,696048
DA:645,696048
DA:648,0
DA:652,696048
DA:653,696048
DA:656,696048
DA:659,0
DA:664,696048
DA:668,121847
DA:670,121847
DA:671,120709
DA:673,1138
DA:676,121847
DA:678,121847
DA:679,121847
DA:686,8849
DA:687,8849
DA:688,8849
DA:689,8849
DA:690,8849
DA:691,8849
DA:692,8849
DA:693,8849
DA:694,8849
DA:695,8849
DA:696,8849
DA:697,8849
DA:698,8849
DA:699,8849
DA:701,8849
DA:702,8849
DA:703,8849
DA:704,8849
DA:705,8849
DA:706,8849
DA:707,8849
DA:710,8849
DA:711,4114
DA:712,4114
DA:713,4114
DA:714,4114
DA:715,4735
DA:716,4735
DA:717,4735
DA:718,4735
DA:719,4735
DA:721,0
DA:722,0
DA:723,0
DA:724,0
DA:725,0
DA:729,8849
DA:731,8799
DA:735,8849
DA:737,8849
DA:739,8849
DA:741,145589
DA:742,136740
DA:743,136740
DA:744,127891
DA:749,145589
DA:751,136740
DA:753,136740
DA:754,136740
DA:755,127891
DA:758,0
DA:759,0
DA:760,0
DA:763,136740
DA:766,136740
DA:767,136740
DA:768,127891
DA:771,0
DA:772,0
DA:773,0
DA:776,136740
DA:778,127891
DA:780,119092
DA:783,8799
DA:785,127891
DA:787,127891
DA:790,127891
DA:794,8849
DA:798,136740
DA:800,136740
DA:801,127891
DA:806,8849
DA:807,8849
DA:808,8849
DA:809,8799
DA:812,8849
DA:813,8849
DA:814,8849
DA:815,8849
DA:822,3472
DA:823,3472
DA:824,3472
DA:825,3472
DA:826,3472
DA:827,3472
DA:828,3472
DA:829,3472
DA:830,3472
DA:831,3472
DA:833,3472
DA:834,3472
DA:835,3472
DA:836,3472
DA:837,3472
DA:838,3472
DA:839,3472
DA:840,3472
DA:842,3472
DA:843,3472
DA:846,3472
DA:848,3472
DA:849,2314
DA:851,1158
DA:853,3472
DA:856,82582
DA:858,79110
DA:860,79110
DA:861,79110
DA:864,0
DA:865,0
DA:868,79110
DA:871,79110
DA:872,79110
DA:875,0
DA:876,0
DA:879,3472
DA:880,3472
DA:883,3472
DA:884,3472
DA:887,3472
DA:889,3472
DA:890,2314
DA:892,1158
DA:894,3472
DA:895,3472
DA:905,576
DA:913,576
DA:915,576
DA:916,576
DA:917,576
DA:918,576
DA:919,576
DA:920,576
DA:922,20544
DA:923,19968
DA:926,576
DA:927,576
DA:928,576
DA:929,576
DA:931,10560
DA:932,9984
DA:933,515328
DA:934,505344
DA:936,505344
DA:937,505344
DA:938,505344
DA:940,505344
DA:941,505344
DA:942,505344
DA:946,10560
DA:947,9984
DA:953,9984
DA:955,9984
DA:957,9984
DA:965,129936
DA:966,124992
DA:967,124992
DA:970,4944
DA:971,132480
DA:972,127536
DA:973,31860
DA:974,31860
DA:977,95676
DA:991,130128
DA:992,125088
DA:993,125088
DA:997,132768
DA:998,127728
DA:1003,515328
DA:1005,505344
DA:1008,9984
DA:1009,9984
DA:1011,515328
DA:1012,505344
DA:1013,495360
DA:1014,495360
DA:1015,495360
DA:1016,495360
DA:1018,495360
DA:1020,495360
DA:1022,495360
DA:1025,495360
DA:1028,9984
DA:1029,9984
DA:1034,576
DA:1035,10560
DA:1036,9984
DA:1038,576
DA:1039,576
end_of_record
SF:/usr/include/c++/9/bits/basic_string.h
DA:186,3103
DA:2300,3103
DA:2301,3103
end_of_record
SF:/usr/include/c++/9/iostream
end_of_record
SF:/usr/include/x86_64-linux-gnu/bits/stdio2.h
DA:105,0
DA:107,0
end_of_record
TN:
SF:/usr/include/c++/9/bits/char_traits.h
DA:299,314
DA:300,156
DA:329,0
DA:335,0
DA:361,2
DA:363,2
DA:365,2
end_of_record
SF:/usr/include/c++/9/ext/new_allocator.h
DA:80,68724800
DA:83,1497610
DA:89,68726300
DA:119,24244000
DA:128,24244000
DA:132,1567940000
DA:144,818305000
DA:147,818305000
DA:151,34335300
end_of_record
SF:/usr/include/c++/9/bits/cpp_type_traits.h
DA:428,1295210
end_of_record
SF:/usr/include/c++/9/bits/stl_vector.h
FN:622,_ZNSt6vectorIP10ast_node_tSaIS1_EEC2ESt16initializer_listIS1_ERKS2_
FNDA:1497450,_ZNSt6vectorIP10ast_node_tSaIS1_EEC2ESt16initializer_listIS1_ERKS2_
FN:1753,_ZNKSt6vectorIN8BitSpace9BitFieldsItEESaIS2_EE12_M_check_lenEmPKc
FNDA:783969000,_ZNKSt6vectorIN8BitSpace9BitFieldsItEESaIS2_EE12_M_check_lenEmPKc
DA:94,1497450
DA:95,1497450
DA:106,0
DA:108,0
DA:109,0
DA:110,0
DA:114,0
DA:118,0
DA:119,0
DA:120,0
DA:121,0
DA:125,1497450
DA:128,0
DA:130,0
DA:133,1497450
DA:134,1497450
DA:273,783969000
DA:274,790850000
DA:277,1567940000
DA:278,1567940000
DA:281,0
DA:282,0
DA:285,0
DA:290,1497450
DA:291,1497450
DA:330,1497450
DA:332,2994900
DA:333,1497450
DA:334,1497450
DA:347,792347000
DA:350,790850000
DA:351,32620900
DA:453,3170210000
DA:462,1567940000
DA:466,818305000
DA:484,0
DA:494,0
DA:495,0
DA:622,1497450
DA:624,1497450
DA:626,1497450
DA:628,1497450
DA:675,1497450
DA:677,1497450
DA:678,1497450
DA:680,2994900
DA:706,0
DA:708,0
DA:711,0
DA:808,785265000
DA:809,783969000
DA:817,8175410
DA:818,8175410
DA:826,1295210
DA:827,1295210
DA:835,8175410
DA:836,8175410
DA:915,0
DA:916,8178520
DA:920,1567940000
DA:921,2351910000
DA:995,8175410
DA:997,8175410
DA:1040,1852970000
DA:1043,1852970000
DA:1200,0
DA:1201,0
DA:1505,6880200
DA:1508,6880200
DA:1511,6880200
DA:1512,6880200
DA:1753,783969000
DA:1755,783969000
DA:1756,0
DA:1758,783969000
DA:1759,783969000
DA:1773,1567940000
DA:1780,1567940000
DA:1781,1567940000
DA:1812,0
DA:1814,0
DA:1815,0
DA:1816,0
DA:1817,0
end_of_record
SF:/usr/include/c++/9/bits/stl_algobase.h
DA:198,1567940000
DA:222,783969000
DA:227,783969000
DA:228,768104000
DA:280,0
DA:289,1295210
DA:290,1295210
DA:295,0
DA:375,1295210
DA:384,1295210
DA:385,1295210
DA:386,1295210
DA:387,1295210
DA:393,1295210
DA:398,1295210
DA:404,1295210
DA:438,1295210
DA:440,2590420
DA:465,1295210
DA:474,2590420
end_of_record
SF:/usr/include/c++/9/bits/stl_iterator.h
DA:806,792145000
DA:819,30788400
DA:827,30788400
DA:829,30788400
DA:859,1295210
DA:860,1295210
DA:871,1567940000
DA:907,37668600
DA:910,37668600
DA:989,783969000
DA:992,783969000
DA:1010,2590420
DA:1012,2590420
end_of_record
SF:/workspace/vtr-verilog-to-routing/libs/librtlnumber/src/include/rtl_utils.hpp
FN:47,_Z12_assert_WerrbPKciNSt7__cxx1112basic_stringIcSt11char_traitsIcESaIcEEE
FNDA:156616000,_Z12_assert_WerrbPKciNSt7__cxx1112basic_stringIcSt11char_traitsIcESaIcEEE
DA:47,156616000
DA:48,156616000
DA:49,0
DA:50,0
DA:51,0
DA:52,0
DA:54,156616000
end_of_record
SF:/usr/include/c++/9/bits/stl_construct.h
DA:74,61576800
DA:75,30788400
DA:117,8377650
DA:127,8377650
DA:137,8377650
DA:203,1295210
DA:206,8377650
end_of_record
SF:/usr/include/c++/9/bits/stl_uninitialized.h
DA:76,6880200
DA:79,6880200
DA:82,37668600
DA:83,30788400
DA:115,6880200
DA:134,0
DA:140,15055600
DA:305,6880200
DA:307,15055600
DA:905,34335300
DA:912,34335300
DA:913,34335300
DA:949,34335300
DA:950,34335300
DA:964,818305000
end_of_record
SF:/workspace/vtr-verilog-to-routing/ODIN_II/SRC/parse_making_ast.cpp
FN:94,_Z12parse_to_astv
FNDA:3109,_Z12parse_to_astv
FN:121,_Z11init_parserv
FNDA:3109,_Z11init_parserv
FN:158,_Z14cleanup_parserv
FNDA:3103,_Z14cleanup_parserv
FN:172,_Z24next_parsed_verilog_fileP10ast_node_t
FNDA:3109,_Z24next_parsed_verilog_fileP10ast_node_t
FN:193,_Z13newSymbolNodePc5loc_t
FNDA:498737,_Z13newSymbolNodePc5loc_t
FN:200,_Z13newStringNodePc5loc_t
FNDA:210,_Z13newStringNodePc5loc_t
FN:209,_Z13newNumberNodePc5loc_t
FNDA:674464,_Z13newNumberNodePc5loc_t
FN:218,_Z7newList3idsP10ast_node_t5loc_t
FNDA:375128,_Z7newList3idsP10ast_node_t5loc_t
FN:227,_Z15newfunctionList3idsP10ast_node_t5loc_t
FNDA:54,_Z15newfunctionList3idsP10ast_node_t5loc_t
FN:241,_Z13newList_entryP10ast_node_tS0_
FNDA:685863,_Z13newList_entryP10ast_node_tS0_
FN:251,_Z16newListReplicateP10ast_node_tS0_5loc_t
FNDA:661,_Z16newListReplicateP10ast_node_tS0_5loc_t
FN:264,_Z8newBlockPcP10ast_node_t
FNDA:26235,_Z8newBlockPcP10ast_node_t
FN:276,_ZL19resolve_symbol_nodeP10ast_node_t
FNDA:280220,_ZL19resolve_symbol_nodeP10ast_node_t
FN:313,_Z13resolve_ports3idsP10ast_node_t
FNDA:8132,_Z13resolve_ports3idsP10ast_node_t
FN:417,_Z22markAndProcessPortWith3idsS_S_P10ast_node_t14operation_list
FNDA:55544,_Z22markAndProcessPortWith3idsS_S_P10ast_node_t14operation_list
FN:589,_Z27markAndProcessParameterWith3idsP10ast_node_t14operation_list
FNDA:1957,_Z27markAndProcessParameterWith3idsP10ast_node_t14operation_list
FN:624,_Z28markAndProcessSymbolListWith3idsS_P10ast_node_t14operation_list
FNDA:170631,_Z28markAndProcessSymbolListWith3idsS_P10ast_node_t14operation_list
FN:719,_Z11newArrayRefPcP10ast_node_t5loc_t
FNDA:133920,_Z11newArrayRefPcP10ast_node_t5loc_t
FN:734,_Z11newRangeRefPcP10ast_node_tS1_5loc_t
FNDA:33182,_Z11newRangeRefPcP10ast_node_tS1_5loc_t
FN:751,_Z21newMinusColonRangeRefPcP10ast_node_tS1_5loc_t
FNDA:48,_Z21newMinusColonRangeRefPcP10ast_node_tS1_5loc_t
FN:779,_Z20newPlusColonRangeRefPcP10ast_node_tS1_5loc_t
FNDA:436,_Z20newPlusColonRangeRefPcP10ast_node_tS1_5loc_t
FN:805,_Z18newBinaryOperation14operation_listP10ast_node_tS1_5loc_t
FNDA:142733,_Z18newBinaryOperation14operation_listP10ast_node_tS1_5loc_t
FN:819,_Z17newUnaryOperation14operation_listP10ast_node_t5loc_t
FNDA:8926,_Z17newUnaryOperation14operation_listP10ast_node_t5loc_t
FN:833,_Z10newNegedgeP10ast_node_t5loc_t
FNDA:63,_Z10newNegedgeP10ast_node_t5loc_t
FN:845,_Z10newPosedgeP10ast_node_t5loc_t
FNDA:10953,_Z10newPosedgeP10ast_node_t5loc_t
FN:857,_Z11newCaseItemP10ast_node_tS0_5loc_t
FNDA:23227,_Z11newCaseItemP10ast_node_tS0_5loc_t
FN:869,_Z14newDefaultCaseP10ast_node_t5loc_t
FNDA:1107,_Z14newDefaultCaseP10ast_node_t5loc_t
FN:881,_Z21newParallelConnectionP10ast_node_tS0_5loc_t
FNDA:0,_Z21newParallelConnectionP10ast_node_tS0_5loc_t
FN:892,_Z14newNonBlockingP10ast_node_tS0_5loc_t
FNDA:89298,_Z14newNonBlockingP10ast_node_tS0_5loc_t
FN:904,_Z10newInitialP10ast_node_t5loc_t
FNDA:10,_Z10newInitialP10ast_node_t5loc_t
FN:915,_Z11newBlockingP10ast_node_tS0_5loc_t
FNDA:69103,_Z11newBlockingP10ast_node_tS0_5loc_t
FN:926,_Z20newFunctionAssigningP10ast_node_tS0_5loc_t
FNDA:0,_Z20newFunctionAssigningP10ast_node_tS0_5loc_t
FN:945,_Z6newForP10ast_node_tS0_S0_S0_5loc_t
FNDA:140,_Z6newForP10ast_node_tS0_S0_S0_5loc_t
FN:957,_Z8newWhileP10ast_node_tS0_5loc_t
FNDA:0,_Z8newWhileP10ast_node_tS0_5loc_t
FN:971,_Z5newIfP10ast_node_tS0_S0_5loc_t
FNDA:21658,_Z5newIfP10ast_node_tS0_S0_5loc_t
FN:983,_Z13newIfQuestionP10ast_node_tS0_S0_5loc_t
FNDA:11766,_Z13newIfQuestionP10ast_node_tS0_S0_5loc_t
FN:994,_Z7newCaseP10ast_node_tS0_5loc_t
FNDA:1744,_Z7newCaseP10ast_node_tS0_5loc_t
FN:1006,_Z9newAlwaysP10ast_node_tS0_5loc_t
FNDA:12541,_Z9newAlwaysP10ast_node_tS0_5loc_t
FN:1015,_Z12newStatementP10ast_node_t5loc_t
FNDA:104,_Z12newStatementP10ast_node_t5loc_t
FN:1027,_Z12newCFunction3idsP10ast_node_tS1_5loc_t
FNDA:20,_Z12newCFunction3idsP10ast_node_tS1_5loc_t
FN:1037,_Z12newCFunction3idsP10ast_node_tS1_S1_5loc_t
FNDA:0,_Z12newCFunction3idsP10ast_node_tS1_S1_5loc_t
FN:1047,_Z12newCFunction3idsP10ast_node_tS1_S1_S1_5loc_t
FNDA:0,_Z12newCFunction3idsP10ast_node_tS1_S1_S1_5loc_t
FN:1057,_Z19newModuleConnectionPcP10ast_node_t5loc_t
FNDA:194223,_Z19newModuleConnectionPcP10ast_node_t5loc_t
FN:1084,_Z18newModuleParameterPcP10ast_node_t5loc_t
FNDA:134,_Z18newModuleParameterPcP10ast_node_t5loc_t
FN:1111,_Z22newModuleNamedInstancePcP10ast_node_tS1_5loc_t
FNDA:38915,_Z22newModuleNamedInstancePcP10ast_node_tS1_5loc_t
FN:1131,_Z24newFunctionNamedInstanceP10ast_node_tS0_5loc_t
FNDA:54,_Z24newFunctionNamedInstanceP10ast_node_tS0_5loc_t
FN:1152,_Z20newTaskNamedInstanceP10ast_node_t5loc_t
FNDA:62,_Z20newTaskNamedInstanceP10ast_node_t5loc_t
FN:1173,_Z15newTaskInstancePcP10ast_node_tS1_5loc_t
FNDA:62,_Z15newTaskInstancePcP10ast_node_tS1_5loc_t
FN:1195,_Z20newHardBlockInstancePcP10ast_node_t5loc_t
FNDA:608,_Z20newHardBlockInstancePcP10ast_node_t5loc_t
FN:1225,_Z17newModuleInstancePcP10ast_node_t5loc_t
FNDA:38915,_Z17newModuleInstancePcP10ast_node_t5loc_t
FN:1275,_Z19newFunctionInstancePcP10ast_node_t5loc_t
FNDA:54,_Z19newFunctionInstancePcP10ast_node_t5loc_t
FN:1296,_Z15newGateInstancePcP10ast_node_tS1_S1_5loc_t
FNDA:46,_Z15newGateInstancePcP10ast_node_tS1_S1_5loc_t
FN:1328,_Z29newMultipleInputsGateInstancePcP10ast_node_tS1_S1_5loc_t
FNDA:158,_Z29newMultipleInputsGateInstancePcP10ast_node_tS1_S1_5loc_t
FN:1377,_Z7newGate14operation_listP10ast_node_t5loc_t
FNDA:204,_Z7newGate14operation_listP10ast_node_t5loc_t
FN:1391,_Z21newDefparamVarDeclarePcP10ast_node_tS1_S1_S1_S1_5loc_t
FNDA:96,_Z21newDefparamVarDeclarePcP10ast_node_tS1_S1_S1_S1_5loc_t
FN:1408,_Z13newVarDeclarePcP10ast_node_tS1_S1_S1_S1_5loc_t
FNDA:240569,_Z13newVarDeclarePcP10ast_node_tS1_S1_S1_S1_5loc_t
FN:1429,_Z24newIntegerTypeVarDeclarePcP10ast_node_tS1_S1_S1_S1_5loc_t
FNDA:112,_Z24newIntegerTypeVarDeclarePcP10ast_node_tS1_S1_S1_S1_5loc_t
FN:1455,_Z9newModulePcP10ast_node_tS1_S1_5loc_t
FNDA:8042,_Z9newModulePcP10ast_node_tS1_S1_5loc_t
FN:1554,_Z11newFunctionP10ast_node_tS0_S0_5loc_tb
FNDA:52,_Z11newFunctionP10ast_node_tS0_S0_5loc_tb
FN:1633,_Z7newTaskPcP10ast_node_tS1_5loc_tb
FNDA:52,_Z7newTaskPcP10ast_node_tS1_5loc_tb
FN:1723,_Z9next_taskv
FNDA:52,_Z9next_taskv
FN:1740,_Z13next_functionv
FNDA:52,_Z13next_functionv
FN:1757,_Z11next_modulev
FNDA:8028,_Z11next_modulev
FN:1780,_Z11newDefparam3idsP10ast_node_t5loc_t
FNDA:88,_Z11newDefparam3idsP10ast_node_t5loc_t
FN:1815,_Z17graphVizOutputAstNSt7__cxx1112basic_stringIcSt11char_traitsIcESaIcEEEP10ast_node_t
FNDA:42,_Z17graphVizOutputAstNSt7__cxx1112basic_stringIcSt11char_traitsIcESaIcEEEP10ast_node_t
FN:1839,_Z31graphVizOutputAst_traverse_nodeP8_IO_FILEP10ast_node_tS2_i
FNDA:2990,_Z31graphVizOutputAst_traverse_nodeP8_IO_FILEP10ast_node_tS2_i
FN:1911,_Z29graphVizOutputAst_Var_DeclareP8_IO_FILEP10ast_node_ti
FNDA:416,_Z29graphVizOutputAst_Var_DeclareP8_IO_FILEP10ast_node_ti
FN:1931,_Z15newVarDeclare2DPcP10ast_node_tS1_S1_S1_S1_S1_S1_5loc_t
FNDA:57,_Z15newVarDeclare2DPcP10ast_node_tS1_S1_S1_S1_S1_S1_5loc_t
FN:1949,_Z13newArrayRef2DPcP10ast_node_tS1_5loc_t
FNDA:150,_Z13newArrayRef2DPcP10ast_node_tS1_5loc_t
FN:1963,_Z13newRangeRef2DPcP10ast_node_tS1_S1_S1_5loc_t
FNDA:0,_Z13newRangeRef2DPcP10ast_node_tS1_S1_S1_5loc_t
FN:1979,_Z19is_valid_identifierPc
FNDA:0,_Z19is_valid_identifierPc
DA:94,3109
DA:95,3109
DA:98,3109
DA:99,3109
DA:101,6218
DA:102,3109
DA:103,3109
DA:106,3109
DA:109,3109
DA:112,3109
DA:115,3109
DA:116,3109
DA:121,3109
DA:122,3109
DA:125,3109
DA:126,3109
DA:127,3109
DA:128,3109
DA:129,3109
DA:130,3109
DA:131,3109
DA:132,3109
DA:134,3109
DA:135,3109
DA:136,3109
DA:137,3109
DA:138,3109
DA:139,3109
DA:140,3109
DA:141,3109
DA:142,3109
DA:143,3109
DA:144,3109
DA:145,3109
DA:146,3109
DA:149,3109
DA:150,3109
DA:152,3109
DA:158,3103
DA:159,3103
DA:160,3103
DA:161,3103
DA:162,3103
DA:163,3103
DA:164,3103
DA:165,3103
DA:166,3103
DA:167,3103
DA:172,3109
DA:173,3109
DA:175,3109
DA:176,3109
DA:178,68
DA:179,42
DA:180,84
DA:185,3109
DA:186,3109
DA:187,3109
DA:188,3109
DA:193,1080080
DA:194,498737
DA:200,210
DA:201,210
DA:202,210
DA:203,210
DA:209,674482
DA:210,674464
DA:211,674482
DA:212,674482
DA:218,375128
DA:220,375128
DA:222,749903
DA:224,375128
DA:227,54
DA:229,54
DA:231,54
DA:233,54
DA:235,54
DA:241,688315
DA:243,685991
DA:245,38
DA:251,661
DA:253,661
DA:256,661
DA:258,661
DA:264,26235
DA:265,26235
DA:266,26235
DA:267,78
DA:268,78
DA:270,26157
DA:273,26235
DA:276,280220
DA:277,280220
DA:279,280220
DA:280,108
DA:281,108
DA:283,108
DA:284,108
DA:285,108
DA:288,108
DA:289,108
DA:290,108
DA:293,0
DA:304,0
DA:305,0
DA:306,0
DA:310,280220
DA:313,8132
DA:314,8132
DA:315,8132
DA:316,63381
DA:317,55249
DA:318,3403
DA:320,3403
DA:321,1117
DA:323,2286
DA:327,3403
DA:328,3487
DA:330,84
DA:331,84
DA:332,84
DA:335,84
DA:336,84
DA:339,84
DA:342,84
DA:343,84
DA:344,84
DA:345,84
DA:346,84
DA:348,84
DA:349,0
DA:350,0
DA:351,0
DA:352,0
DA:358,84
DA:361,51846
DA:363,51846
DA:365,51614
DA:366,32288
DA:367,32288
DA:368,32288
DA:369,32288
DA:370,19326
DA:371,19326
DA:372,19326
DA:373,19326
DA:374,19326
DA:376,0
DA:378,232
DA:380,180
DA:381,128
DA:382,128
DA:383,128
DA:384,128
DA:385,52
DA:386,52
DA:387,52
DA:388,52
DA:389,52
DA:391,0
DA:393,52
DA:395,52
DA:396,38
DA:397,38
DA:398,38
DA:399,38
DA:400,14
DA:401,14
DA:402,14
DA:403,14
DA:404,14
DA:406,0
DA:410,55249
DA:414,8132
DA:417,55544
DA:418,55544
DA:421,55544
DA:423,55544
DA:424,55544
DA:425,55544
DA:426,55544
DA:428,55544
DA:430,232
DA:433,52
DA:436,55544
DA:438,55544
DA:439,0
DA:442,55544
DA:443,55312
DA:444,55312
DA:446,232
DA:447,180
DA:448,180
DA:449,52
DA:450,52
DA:451,52
DA:455,55544
DA:456,55544
DA:457,0
DA:462,55544
DA:463,55544
DA:464,0
DA:468,55544
DA:469,182
DA:470,182
DA:471,0
DA:474,182
DA:475,0
DA:478,182
DA:479,182
DA:480,182
DA:482,15
DA:483,15
DA:484,15
DA:485,0
DA:488,15
DA:489,15
DA:490,15
DA:492,55347
DA:493,55347
DA:494,55347
DA:495,0
DA:499,55347
DA:500,154
DA:502,55193
DA:503,82
DA:507,55111
DA:511,55347
DA:513,55347
DA:519,55544
DA:520,34420
DA:521,34420
DA:522,34420
DA:523,34420
DA:526,34420
DA:529,34420
DA:531,34420
DA:533,21040
DA:534,21040
DA:535,21040
DA:536,21040
DA:539,21040
DA:542,21040
DA:544,21040
DA:546,0
DA:547,0
DA:548,0
DA:549,0
DA:550,0
DA:551,0
DA:553,84
DA:554,84
DA:556,54
DA:557,54
DA:558,30
DA:560,30
DA:561,30
DA:562,0
DA:564,0
DA:565,0
DA:566,0
DA:569,0
DA:577,55544
DA:579,498
DA:582,55544
DA:584,55544
DA:586,55544
DA:589,1957
DA:590,1957
DA:591,1027
DA:592,1027
DA:593,930
DA:594,930
DA:595,930
DA:598,1957
DA:599,1957
DA:601,0
DA:605,1957
DA:606,1957
DA:608,1957
DA:610,1957
DA:613,1957
DA:614,0
DA:617,1957
DA:619,1957
DA:621,1957
DA:624,170631
DA:625,170631
DA:626,170631
DA:627,170631
DA:629,170631
DA:631,170631
DA:632,170631
DA:633,140110
DA:634,140110
DA:637,356320
DA:638,185689
DA:639,45537
DA:640,45537
DA:643,185689
DA:645,154
DA:648,185689
DA:650,185689
DA:651,1019
DA:652,1019
DA:653,0
DA:657,1949
DA:658,1949
DA:659,1949
DA:660,52057
DA:661,52057
DA:662,52057
DA:663,52057
DA:664,0
DA:667,52057
DA:668,52057
DA:669,82338
DA:674,82338
DA:675,0
DA:676,0
DA:677,0
DA:681,82338
DA:682,82338
DA:683,49283
DA:684,49283
DA:685,49283
DA:686,62
DA:691,62
DA:692,0
DA:695,62
DA:696,62
DA:697,62
DA:698,0
DA:699,0
DA:704,170631
DA:705,2956
DA:706,1949
DA:709,1007
DA:710,1007
DA:714,170631
DA:719,133920
DA:721,133920
DA:723,133920
DA:725,133920
DA:726,133920
DA:728,133920
DA:734,33182
DA:736,33182
DA:738,33182
DA:740,33182
DA:741,33182
DA:743,33182
DA:751,48
DA:752,48
DA:753,48
DA:755,48
DA:756,0
DA:758,48
DA:759,0
DA:764,48
DA:766,48
DA:767,48
DA:769,48
DA:771,48
DA:779,436
DA:780,436
DA:781,436
DA:783,436
DA:784,0
DA:786,436
DA:787,0
DA:792,436
DA:794,436
DA:795,436
DA:797,436
DA:799,436
DA:805,142733
DA:807,142733
DA:809,142733
DA:811,142733
DA:813,142733
DA:819,8926
DA:821,8926
DA:823,8926
DA:825,8926
DA:827,8926
DA:833,63
DA:835,63
DA:837,63
DA:839,63
DA:845,10953
DA:847,10953
DA:849,10953
DA:851,10953
DA:857,23227
DA:859,23227
DA:861,23227
DA:863,23227
DA:869,1107
DA:871,1107
DA:873,1107
DA:875,1107
DA:881,0
DA:883,0
DA:885,0
DA:887,0
DA:892,89298
DA:894,89298
DA:896,89298
DA:898,89298
DA:904,10
DA:906,10
DA:908,10
DA:910,10
DA:915,69103
DA:917,69103
DA:919,69103
DA:921,69103
DA:926,0
DA:927,0
DA:929,0
DA:931,0
DA:934,0
DA:937,0
DA:939,0
DA:945,140
DA:947,140
DA:949,140
DA:951,140
DA:957,0
DA:959,0
DA:961,0
DA:964,0
DA:965,0
DA:971,21658
DA:973,21658
DA:975,21658
DA:977,21658
DA:983,11766
DA:985,11766
DA:987,11766
DA:989,11766
DA:994,1744
DA:996,1744
DA:998,1744
DA:1000,1744
DA:1006,12541
DA:1008,12541
DA:1010,12541
DA:1012,12541
DA:1015,104
DA:1017,104
DA:1019,104
DA:1021,104
DA:1027,20
DA:1028,20
DA:1029,20
DA:1031,20
DA:1037,0
DA:1038,0
DA:1039,0
DA:1041,0
DA:1047,0
DA:1048,0
DA:1049,0
DA:1051,0
DA:1057,194223
DA:1058,194223
DA:1060,194223
DA:1061,194223
DA:1062,86402
DA:1063,0
DA:1065,86402
DA:1068,194223
DA:1069,18
DA:1070,36
DA:1074,194223
DA:1076,194223
DA:1078,194223
DA:1084,134
DA:1085,134
DA:1087,134
DA:1088,134
DA:1089,48
DA:1090,0
DA:1092,48
DA:1096,134
DA:1100,134
DA:1103,134
DA:1105,134
DA:1111,38915
DA:1112,38915
DA:1113,0
DA:1116,38915
DA:1119,38915
DA:1121,38915
DA:1123,38915
DA:1125,38915
DA:1131,54
DA:1132,54
DA:1133,54
DA:1135,54
DA:1137,54
DA:1140,54
DA:1142,54
DA:1144,54
DA:1146,108
DA:1152,62
DA:1153,62
DA:1154,62
DA:1156,62
DA:1158,62
DA:1161,62
DA:1163,62
DA:1165,62
DA:1167,62
DA:1173,62
DA:1174,62
DA:1177,62
DA:1179,62
DA:1181,62
DA:1182,62
DA:1185,62
DA:1186,62
DA:1187,62
DA:1189,62
DA:1195,608
DA:1196,608
DA:1197,0
DA:1200,608
DA:1203,608
DA:1206,608
DA:1207,608
DA:1210,608
DA:1212,608
DA:1213,608
DA:1215,4624
DA:1216,4016
DA:1219,608
DA:1225,38915
DA:1226,38915
DA:1227,0
DA:1230,38915
DA:1232,38915
DA:1233,77830
DA:1235,38915
DA:1236,38915
DA:1237,0
DA:1241,38915
DA:1243,38915
DA:1246,38915
DA:1248,38915
DA:1250,38915
DA:1251,38915
DA:1252,77830
DA:1254,0
DA:1257,38915
DA:1260,112625
DA:1261,73710
DA:1262,59981
DA:1267,38915
DA:1268,38915
DA:1269,38915
DA:1275,54
DA:1276,54
DA:1279,54
DA:1281,54
DA:1283,54
DA:1286,54
DA:1287,54
DA:1288,54
DA:1290,54
DA:1296,46
DA:1297,0
DA:1298,0
DA:1302,46
DA:1303,46
DA:1305,46
DA:1306,0
DA:1309,46
DA:1310,46
DA:1311,46
DA:1312,46
DA:1313,46
DA:1314,28
DA:1316,18
DA:1318,46
DA:1319,46
DA:1321,46
DA:1323,46
DA:1325,46
DA:1328,158
DA:1329,0
DA:1330,0
DA:1333,158
DA:1335,158
DA:1337,158
DA:1339,158
DA:1340,0
DA:1343,158
DA:1345,158
DA:1347,158
DA:1349,158
DA:1351,158
DA:1353,158
DA:1354,64
DA:1356,94
DA:1359,158
DA:1361,158
DA:1363,158
DA:1366,316
DA:1367,158
DA:1370,158
DA:1372,158
DA:1377,204
DA:1379,204
DA:1381,204
DA:1383,204
DA:1385,204
DA:1391,96
DA:1392,96
DA:1395,96
DA:1398,96
DA:1400,96
DA:1402,96
DA:1408,240569
DA:1409,240569
DA:1410,0
DA:1413,240569
DA:1416,240569
DA:1419,240569
DA:1421,240569
DA:1423,240569
DA:1429,112
DA:1430,112
DA:1431,0
DA:1434,112
DA:1436,112
DA:1438,112
DA:1441,112
DA:1444,112
DA:1446,112
DA:1448,112
DA:1455,8042
DA:1456,8042
DA:1457,8042
DA:1459,8042
DA:1460,0
DA:1463,8042
DA:1464,8042
DA:1465,8042
DA:1466,0
DA:1468,8042
DA:1469,8028
DA:1471,14
DA:1474,14
DA:1475,14
DA:1476,14
DA:1477,14
DA:1480,8028
DA:1481,8028
DA:1483,8028
DA:1486,8028
DA:1487,1079
DA:1491,8028
DA:1492,16
DA:1493,8
DA:1495,8
DA:1499,8028
DA:1500,8028
DA:1503,8028
DA:1504,8028
DA:1506,8028
DA:1508,8028
DA:1509,8028
DA:1510,8028
DA:1512,8028
DA:1513,8028
DA:1514,8028
DA:1517,8028
DA:1518,8232
DA:1520,788
DA:1521,584
DA:1522,1692
DA:1523,1108
DA:1524,204
DA:1528,204
DA:1529,0
DA:1531,204
DA:1535,8028
DA:1536,8028
DA:1537,8028
DA:1538,0
DA:1541,8028
DA:1544,8028
DA:1546,8042
DA:1554,52
DA:1555,52
DA:1556,52
DA:1557,52
DA:1558,52
DA:1559,52
DA:1561,52
DA:1562,6
DA:1565,52
DA:1566,52
DA:1569,52
DA:1571,52
DA:1573,52
DA:1575,52
DA:1577,52
DA:1578,0
DA:1581,52
DA:1583,272
DA:1584,220
DA:1585,354
DA:1586,186
DA:1587,128
DA:1588,128
DA:1589,314
DA:1595,52
DA:1598,52
DA:1601,52
DA:1602,52
DA:1603,0
DA:1607,52
DA:1609,52
DA:1612,52
DA:1613,52
DA:1614,52
DA:1615,52
DA:1618,52
DA:1619,52
DA:1620,52
DA:1621,52
DA:1622,0
DA:1625,52
DA:1628,52
DA:1630,52
DA:1633,52
DA:1634,52
DA:1635,52
DA:1636,52
DA:1637,52
DA:1639,52
DA:1640,6
DA:1644,52
DA:1646,144
DA:1647,92
DA:1648,92
DA:1649,52
DA:1650,38
DA:1651,38
DA:1652,38
DA:1653,38
DA:1654,24
DA:1656,14
DA:1658,14
DA:1659,14
DA:1660,14
DA:1661,14
DA:1662,14
DA:1663,14
DA:1665,0
DA:1667,0
DA:1668,0
DA:1669,0
DA:1670,0
DA:1671,0
DA:1672,52
DA:1674,0
DA:1681,52
DA:1683,52
DA:1684,38
DA:1688,52
DA:1690,52
DA:1692,52
DA:1694,52
DA:1695,52
DA:1696,52
DA:1698,52
DA:1699,52
DA:1700,52
DA:1703,52
DA:1704,52
DA:1706,52
DA:1707,52
DA:1708,0
DA:1712,52
DA:1715,52
DA:1717,52
DA:1723,52
DA:1724,52
DA:1727,52
DA:1728,52
DA:1731,52
DA:1732,52
DA:1734,52
DA:1735,52
DA:1736,52
DA:1740,52
DA:1741,52
DA:1744,52
DA:1745,52
DA:1748,52
DA:1749,52
DA:1751,52
DA:1752,52
DA:1753,52
DA:1757,8028
DA:1758,8028
DA:1759,8028
DA:1762,8028
DA:1763,8028
DA:1765,8028
DA:1766,8028
DA:1768,8028
DA:1769,8028
DA:1770,8028
DA:1772,8028
DA:1773,8028
DA:1774,8028
DA:1775,8028
DA:1780,88
DA:1781,88
DA:1783,88
DA:1784,184
DA:1785,96
DA:1787,96
DA:1788,96
DA:1789,96
DA:1790,96
DA:1793,96
DA:1794,96
DA:1795,96
DA:1800,88
DA:1815,42
DA:1816,42
DA:1817,42
DA:1818,42
DA:1821,42
DA:1822,42
DA:1823,42
DA:1826,42
DA:1827,42
DA:1829,42
DA:1832,42
DA:1833,42
DA:1834,42
DA:1839,2990
DA:1840,2990
DA:1844,2958
DA:1845,2958
DA:1847,2958
DA:1848,416
DA:1849,416
DA:1850,288
DA:1851,128
DA:1852,88
DA:1853,40
DA:1854,0
DA:1855,40
DA:1856,0
DA:1858,416
DA:1859,0
DA:1860,416
DA:1861,40
DA:1863,416
DA:1864,416
DA:1868,684
DA:1869,684
DA:1870,1368
DA:1871,684
DA:1872,684
DA:1874,66
DA:1875,66
DA:1876,66
DA:1879,376
DA:1880,376
DA:1881,376
DA:1884,1416
DA:1885,1416
DA:1886,1416
DA:1887,346
DA:1892,2958
DA:1895,2958
DA:1896,2916
DA:1899,2958
DA:1900,416
DA:1902,5242
DA:1903,2700
DA:1911,416
DA:1912,1248
DA:1914,832
DA:1916,124
DA:1917,124
DA:1922,124
DA:1923,124
DA:1926,416
DA:1931,57
DA:1932,57
DA:1933,0
DA:1935,57
DA:1938,57
DA:1941,57
DA:1943,57
DA:1944,57
DA:1949,150
DA:1951,150
DA:1953,150
DA:1955,150
DA:1957,150
DA:1958,150
DA:1963,0
DA:1965,0
DA:1967,0
DA:1969,0
DA:1971,0
DA:1973,0
DA:1979,413924
DA:1980,327474
DA:1981,413720
DA:1982,413720
DA:1983,3578870
DA:1984,3165150
DA:1987,3165150
end_of_record
SF:/usr/include/c++/9/ostream
DA:108,0
DA:113,0
DA:565,0
DA:568,0
DA:570,0
DA:571,0
end_of_record
SF:/usr/include/c++/9/bits/locale_facets.h
FN:872,_ZNKSt5ctypeIcE5widenEc
FNDA:0,_ZNKSt5ctypeIcE5widenEc
FN:1084,_ZNKSt5ctypeIcE8do_widenEc
FNDA:0,_ZNKSt5ctypeIcE8do_widenEc
DA:872,0
DA:874,0
DA:875,0
DA:876,0
DA:877,0
DA:1084,0
DA:1085,0
end_of_record
SF:/usr/include/c++/9/bits/alloc_traits.h
DA:469,24244000
DA:470,24244000
DA:482,34335300
DA:484,818305000
DA:495,34335300
DA:497,34335300
DA:505,1567940000
DA:506,1567940000
DA:514,42
DA:515,42
DA:545,0
DA:546,0
DA:553,0
DA:557,0
end_of_record
SF:/usr/include/c++/9/initializer_list
DA:71,1497450
DA:75,1497450
DA:79,1497450
end_of_record
SF:/usr/include/c++/9/bits/stl_iterator_base_funcs.h
DA:98,158
DA:104,158
DA:138,158
DA:141,158
end_of_record
SF:/usr/include/c++/9/bits/move.h
DA:47,65123700
DA:74,818305000
DA:99,34335400
DA:138,33615300
DA:139,33614700
end_of_record
SF:/usr/include/c++/9/bits/basic_string.h
FN:6109,_ZStplIcSt11char_traitsIcESaIcEENSt7__cxx1112basic_stringIT_T0_T1_EEPKS5_OS8_
FNDA:0,_ZStplIcSt11char_traitsIcESaIcEENSt7__cxx1112basic_stringIT_T0_T1_EEPKS5_OS8_
DA:150,33615200
DA:156,116
DA:157,116
DA:159,42
DA:160,42
DA:178,2
DA:179,2
DA:182,158
DA:183,158
DA:186,33621000
DA:190,158
DA:193,42
DA:200,33615200
DA:203,33615200
DA:210,2
DA:211,2
DA:214,158
DA:216,158
DA:217,158
DA:221,33615200
DA:222,33615200
DA:229,33615200
DA:231,33614500
DA:232,33615900
DA:236,736
DA:237,736
DA:243,158
DA:247,158
DA:263,158
DA:266,116
DA:286,736
DA:287,736
DA:290,42
DA:291,42
DA:346,158
DA:348,158
DA:349,156
DA:351,158
DA:392,158
DA:393,158
DA:396,0
DA:398,0
DA:448,42
DA:450,42
DA:451,42
DA:540,0
DA:541,0
DA:542,0
DA:552,0
DA:553,0
DA:555,0
DA:557,0
DA:562,0
DA:563,0
DA:569,0
DA:570,0
DA:571,0
DA:625,116
DA:627,116
DA:628,116
DA:657,33614500
DA:658,33615200
DA:930,116
DA:936,42
DA:1168,116
DA:1169,116
DA:1221,116
DA:1222,116
DA:2300,4635
DA:2301,3951
DA:2312,0
DA:2313,0
DA:6109,0
DA:6111,0
DA:6416,0
DA:6421,0
DA:6546,116
DA:6547,116
DA:6548,116
end_of_record
SF:/usr/include/c++/9/iostream
end_of_record
SF:/usr/include/c++/9/ext/type_traits.h
DA:152,158
end_of_record
SF:/usr/include/c++/9/bits/basic_string.tcc
FN:206,_ZNSt7__cxx1112basic_stringIcSt11char_traitsIcESaIcEE12_M_constructIPcEEvT_S7_St20forward_iterator_tag
FNDA:158,_ZNSt7__cxx1112basic_stringIcSt11char_traitsIcESaIcEE12_M_constructIPcEEvT_S7_St20forward_iterator_tag
FN:206,_ZNSt7__cxx1112basic_stringIcSt11char_traitsIcESaIcEE12_M_constructIPKcEEvT_S8_St20forward_iterator_tag
FNDA:0,_ZNSt7__cxx1112basic_stringIcSt11char_traitsIcESaIcEE12_M_constructIPKcEEvT_S8_St20forward_iterator_tag
DA:206,158
DA:211,158
DA:212,0
DA:215,158
DA:217,158
DA:219,2
DA:220,2
DA:225,158
DA:232,158
DA:233,158
DA:206,0
DA:211,0
DA:212,0
DA:215,0
DA:217,0
DA:219,0
DA:220,0
DA:225,0
DA:232,0
DA:233,0
end_of_record
SF:/usr/include/c++/9/bits/ptr_traits.h
DA:146,33614700
DA:147,33614700
end_of_record
SF:/usr/include/c++/9/ext/alloc_traits.h
DA:97,42
DA:98,42
end_of_record
SF:/usr/include/x86_64-linux-gnu/bits/stdio2.h
DA:98,12760
DA:100,12760
DA:101,4536
DA:105,3109
DA:107,3109
end_of_record
SF:/usr/include/c++/9/ext/string_conversions.h
FN:99,_ZN9__gnu_cxx12__to_xstringINSt7__cxx1112basic_stringIcSt11char_traitsIcESaIcEEEcEET_PFiPT0_mPKS8_P13__va_list_tagEmSB_z
FNDA:116,_ZN9__gnu_cxx12__to_xstringINSt7__cxx1112basic_stringIcSt11char_traitsIcESaIcEEEcEET_PFiPT0_mPKS8_P13__va_list_tagEmSB_z
DA:99,116
DA:105,116
DA:109,116
DA:111,116
DA:113,116
DA:115,116
end_of_record
SF:/usr/include/c++/9/new
DA:173,849093000
DA:174,849093000
end_of_record
SF:/usr/include/c++/9/bits/vector.tcc
FN:109,_ZNSt6vectorIN8BitSpace9BitFieldsItEESaIS2_EE12emplace_backIJS2_EEEvDpOT_
FNDA:0,_ZNSt6vectorIN8BitSpace9BitFieldsItEESaIS2_EE12emplace_backIJS2_EEEvDpOT_
FN:198,_ZNSt6vectorIN8BitSpace9BitFieldsItEESaIS2_EEaSERKS4_
FNDA:8175410,_ZNSt6vectorIN8BitSpace9BitFieldsItEESaIS2_EEaSERKS4_
FN:426,_ZNSt6vectorIN8BitSpace9BitFieldsItEESaIS2_EE17_M_realloc_insertIJS2_EEEvN9__gnu_cxx17__normal_iteratorIPS2_S4_EEDpOT_
FNDA:783969000,_ZNSt6vectorIN8BitSpace9BitFieldsItEESaIS2_EE17_M_realloc_insertIJS2_EEEvN9__gnu_cxx17__normal_iteratorIPS2_S4_EEDpOT_
DA:109,0
DA:112,0
DA:115,0
DA:117,0
DA:121,0
DA:125,0
DA:198,8175410
DA:201,8175410
DA:223,8175410
DA:224,8175410
DA:226,6880200
DA:228,6880200
DA:229,6880200
DA:230,13760400
DA:231,6880200
DA:232,6880200
DA:233,6880200
DA:234,6880200
DA:236,1295210
DA:238,2590420
DA:239,1295210
DA:243,0
DA:245,8175410
DA:246,0
DA:248,0
DA:250,8175410
DA:252,8175410
DA:426,783969000
DA:435,783969000
DA:437,783969000
DA:438,783969000
DA:439,783969000
DA:440,783969000
DA:441,783969000
DA:449,783969000
DA:450,783969000
DA:456,783969000
DA:461,783969000
DA:462,783969000
DA:464,783969000
DA:466,783969000
DA:467,783969000
DA:500,1567940000
DA:501,783969000
DA:502,783969000
DA:503,783969000
DA:504,783969000
DA:505,783969000
end_of_record
SF:/usr/include/c++/9/bits/allocator.h
DA:138,68724800
DA:141,1497610
DA:142,1497610
DA:153,1028820000
end_of_record
SF:/workspace/vtr-verilog-to-routing/libs/librtlnumber/src/include/internal_bits.hpp
FN:308,_ZN8BitSpaceL13bits_to_hex_cEsb
FNDA:5444,_ZN8BitSpaceL13bits_to_hex_cEsb
FN:454,_ZN8BitSpace11VerilogBitsC2Emh
FNDA:0,_ZN8BitSpace11VerilogBitsC2Emh
FN:510,_ZN8BitSpace11VerilogBits12to_printableB5cxx11Ev
FNDA:22,_ZN8BitSpace11VerilogBits12to_printableB5cxx11Ev
FN:520,_ZN8BitSpace11VerilogBits4getcEv
FNDA:0,_ZN8BitSpace11VerilogBits4getcEv
FN:722,_ZN7VNumberC2EPS_
FNDA:0,_ZN7VNumberC2EPS_
FN:777,_ZN7VNumber9to_stringB5cxx11Ebb
FNDA:33612800,_ZN7VNumber9to_stringB5cxx11Ebb
FN:792,_ZN7VNumber10to_UstringB5cxx11Eb
FNDA:0,_ZN7VNumber10to_UstringB5cxx11Eb
FN:807,_ZN7VNumber12to_log2radixB5cxx11Esbb
FNDA:684,_ZN7VNumber12to_log2radixB5cxx11Esbb
FN:832,_ZN7VNumber9to_base10B5cxx11Ebb
FNDA:0,_ZN7VNumber9to_base10B5cxx11Ebb
FN:864,_ZN7VNumber10to_vstringB5cxx11Ec
FNDA:33613500,_ZN7VNumber10to_vstringB5cxx11Ec
FN:1007,_ZN7VNumber16get_bit_from_msbEm
FNDA:0,_ZN7VNumber16get_bit_from_msbEm
FN:1012,_ZN7VNumber16get_bit_from_lsbEm
FNDA:926476000,_ZN7VNumber16get_bit_from_lsbEm
DA:286,926454000
DA:287,926454000
DA:290,26637600
DA:291,26637600
DA:292,0
DA:293,0
DA:294,0
DA:295,0
DA:299,0
DA:300,0
DA:303,0
DA:304,0
DA:308,5444
DA:309,5444
DA:312,216
DA:313,216
DA:314,56
DA:315,56
DA:316,44
DA:317,44
DA:318,24
DA:319,24
DA:320,24
DA:321,24
DA:322,24
DA:323,24
DA:324,48
DA:325,48
DA:326,0
DA:327,0
DA:328,0
DA:329,0
DA:330,0
DA:331,0
DA:332,0
DA:333,0
DA:334,0
DA:335,0
DA:336,0
DA:337,0
DA:338,0
DA:339,0
DA:340,0
DA:341,0
DA:342,0
DA:343,0
DA:346,0
DA:349,0
DA:376,1852990000
DA:377,1852990000
DA:378,1852990000
DA:379,1852990000
DA:384,0
DA:385,0
DA:390,1852990000
DA:391,1852990000
DA:392,926493000
DA:394,926476000
DA:398,0
DA:399,0
DA:401,0
DA:402,0
DA:404,0
DA:405,0
DA:406,0
DA:408,0
DA:409,0
DA:416,2116
DA:418,19044
DA:419,16928
DA:425,16928
DA:435,0
DA:440,1852970000
DA:441,1852970000
DA:454,0
DA:455,0
DA:456,0
DA:458,0
DA:460,0
DA:461,0
DA:463,0
DA:470,2846690000
DA:471,2846690000
DA:478,1852970000
DA:486,1852970000
DA:489,1852970000
DA:497,1852970000
DA:500,0
DA:507,0
DA:510,22
DA:511,22
DA:513,2138
DA:514,4232
DA:517,22
DA:520,0
DA:521,0
DA:522,0
DA:526,926493000
DA:527,926493000
DA:561,0
DA:562,0
DA:563,0
DA:674,0
DA:722,0
DA:723,0
DA:724,0
DA:725,0
DA:726,0
DA:777,33612800
DA:779,33612800
DA:780,926454000
DA:781,926454000
DA:782,926454000
DA:783,0
DA:785,926454000
DA:789,33612800
DA:792,0
DA:794,0
DA:795,0
DA:796,0
DA:797,0
DA:798,0
DA:800,0
DA:804,0
DA:807,684
DA:808,684
DA:811,21764
DA:812,21764
DA:813,21764
DA:816,21764
DA:818,5444
DA:819,5444
DA:820,0
DA:822,5444
DA:829,684
DA:832,0
DA:833,0
DA:834,0
DA:835,0
DA:837,0
DA:839,0
DA:840,0
DA:841,0
DA:842,0
DA:843,0
DA:845,0
DA:847,0
DA:848,0
DA:850,0
DA:853,0
DA:864,33613500
DA:865,67227100
DA:866,33613500
DA:867,33613500
DA:868,0
DA:873,33613500
DA:874,33612800
DA:875,33612800
DA:876,0
DA:877,0
DA:878,0
DA:879,0
DA:880,0
DA:881,0
DA:882,0
DA:883,0
DA:884,684
DA:885,684
DA:886,22
DA:887,22
DA:888,0
DA:890,33613500
DA:891,0
DA:892,0
DA:894,0
DA:896,0
DA:1000,0
DA:1001,0
DA:1007,0
DA:1008,0
DA:1009,0
DA:1012,926476000
DA:1013,926476000
DA:1014,926476000
DA:1016,926476000
DA:1019,0
DA:1020,0
DA:1030,1886580000
DA:1031,1886580000
DA:1034,0
DA:1035,0
DA:1038,0
DA:1039,0
DA:1050,33613500
DA:1051,960107000
DA:1066,0
DA:1067,0
end_of_record
TN:
SF:/usr/include/c++/9/iostream
end_of_record
SF:/usr/include/c++/9/ext/type_traits.h
DA:152,0
end_of_record
SF:/usr/include/c++/9/bits/basic_string.tcc
FN:206,_ZNSt7__cxx1112basic_stringIcSt11char_traitsIcESaIcEE12_M_constructIPcEEvT_S7_St20forward_iterator_tag
FNDA:0,_ZNSt7__cxx1112basic_stringIcSt11char_traitsIcESaIcEE12_M_constructIPcEEvT_S7_St20forward_iterator_tag
FN:206,_ZNSt7__cxx1112basic_stringIcSt11char_traitsIcESaIcEE12_M_constructIPKcEEvT_S8_St20forward_iterator_tag
FNDA:0,_ZNSt7__cxx1112basic_stringIcSt11char_traitsIcESaIcEE12_M_constructIPKcEEvT_S8_St20forward_iterator_tag
DA:206,0
DA:211,0
DA:212,0
DA:215,0
DA:217,0
DA:219,0
DA:220,0
DA:225,0
DA:232,0
DA:233,0
DA:206,0
DA:211,0
DA:212,0
DA:215,0
DA:217,0
DA:219,0
DA:220,0
DA:225,0
DA:232,0
DA:233,0
end_of_record
SF:/usr/include/c++/9/bits/ptr_traits.h
DA:146,3482830
DA:147,3482830
end_of_record
SF:/usr/include/c++/9/bits/move.h
DA:47,6965660
DA:99,1741420
DA:138,6965660
DA:139,3482830
end_of_record
SF:/usr/include/c++/9/bits/basic_string.h
FN:6057,_ZStplIcSt11char_traitsIcESaIcEENSt7__cxx1112basic_stringIT_T0_T1_EERKS8_PKS5_
FNDA:0,_ZStplIcSt11char_traitsIcESaIcEENSt7__cxx1112basic_stringIT_T0_T1_EERKS8_PKS5_
FN:6085,_ZStplIcSt11char_traitsIcESaIcEENSt7__cxx1112basic_stringIT_T0_T1_EEOS8_RKS8_
FNDA:0,_ZStplIcSt11char_traitsIcESaIcEENSt7__cxx1112basic_stringIT_T0_T1_EEOS8_RKS8_
FN:6121,_ZStplIcSt11char_traitsIcESaIcEENSt7__cxx1112basic_stringIT_T0_T1_EEOS8_PKS5_
FNDA:0,_ZStplIcSt11char_traitsIcESaIcEENSt7__cxx1112basic_stringIT_T0_T1_EEOS8_PKS5_
DA:150,5224250
DA:159,1741420
DA:160,1741420
DA:178,0
DA:179,0
DA:182,1741420
DA:183,1741420
DA:186,6968770
DA:190,1741420
DA:193,1741420
DA:200,5224250
DA:203,5224250
DA:210,0
DA:211,0
DA:214,1741420
DA:216,1741420
DA:217,1741420
DA:221,5224250
DA:222,5224250
DA:229,5224250
DA:231,1741420
DA:232,5224250
DA:236,0
DA:237,0
DA:243,0
DA:247,0
DA:263,0
DA:266,0
DA:286,0
DA:287,0
DA:290,0
DA:291,0
DA:346,0
DA:348,0
DA:349,0
DA:351,0
DA:392,0
DA:393,0
DA:396,0
DA:398,0
DA:431,1741420
DA:433,1741420
DA:434,1741420
DA:448,0
DA:450,0
DA:451,0
DA:552,0
DA:553,0
DA:555,0
DA:557,0
DA:562,0
DA:563,0
DA:569,0
DA:570,0
DA:571,0
DA:657,1741420
DA:658,1741420
DA:930,0
DA:936,0
DA:1221,0
DA:1222,0
DA:2300,3103
DA:2301,3103
DA:6057,0
DA:6060,0
DA:6061,0
DA:6062,0
DA:6085,0
DA:6087,0
DA:6121,0
DA:6123,0
end_of_record
SF:/workspace/vtr-verilog-to-routing/libs/EXTERNAL/libargparse/src/argparse_value.hpp
DA:53,0
DA:56,37589000
end_of_record
SF:/usr/include/c++/9/bits/allocator.h
DA:138,1741420
DA:141,1741420
DA:142,0
DA:153,3482830
end_of_record
SF:/usr/include/c++/9/ext/alloc_traits.h
DA:97,0
DA:98,0
end_of_record
SF:/usr/include/x86_64-linux-gnu/bits/stdio2.h
DA:98,499261000
DA:100,499150000
DA:101,436234000
end_of_record
SF:/usr/include/c++/9/bits/char_traits.h
DA:299,1741420
DA:300,1741420
DA:361,0
DA:363,0
DA:365,0
end_of_record
SF:/usr/include/c++/9/ext/new_allocator.h
DA:80,1741420
DA:83,1741420
DA:89,3482830
DA:119,0
DA:128,0
end_of_record
SF:/workspace/vtr-verilog-to-routing/ODIN_II/SRC/output_blif.cpp
FN:88,_ZL16print_net_driverP8_IO_FILEP7nnode_tP6nnet_tl
FNDA:37585900,_ZL16print_net_driverP8_IO_FILEP7nnode_tP6nnet_tl
FN:113,_ZL25print_input_single_driverP8_IO_FILEP7nnode_tl
FNDA:37490800,_ZL25print_input_single_driverP8_IO_FILEP7nnode_tl
FN:136,_ZL22print_dot_names_headerP8_IO_FILEP7nnode_t
FNDA:12253500,_ZL22print_dot_names_headerP8_IO_FILEP7nnode_t
FN:172,_Z11create_blifPKc
FNDA:3109,_Z11create_blifPKc
FN:194,_Z11output_blifP8_IO_FILEP9netlist_t
FNDA:3103,_Z11output_blifP8_IO_FILEP9netlist_t
FN:273,_Z31depth_first_traversal_to_outputsP8_IO_FILEP9netlist_t
FNDA:3103,_Z31depth_first_traversal_to_outputsP8_IO_FILEP9netlist_t
FN:295,_Z26depth_traverse_output_blifP7nnode_tmP8_IO_FILE
FNDA:60213000,_Z26depth_traverse_output_blifP7nnode_tmP8_IO_FILE
FN:334,_Z11output_nodeP7nnode_tsP8_IO_FILE
FNDA:15806800,_Z11output_nodeP7nnode_tsP8_IO_FILE
FN:433,_Z23define_logical_functionP7nnode_tP8_IO_FILE
FNDA:7018800,_Z23define_logical_functionP7nnode_tP8_IO_FILE
FN:522,_Z33define_set_input_logical_functionP7nnode_tPKcP8_IO_FILE
FNDA:1261260,_Z33define_set_input_logical_functionP7nnode_tPKcP8_IO_FILE
FN:537,_Z9define_ffP7nnode_tP8_IO_FILE
FNDA:1741420,_Z9define_ffP7nnode_tP8_IO_FILE
FN:569,_Z18define_decoded_muxP7nnode_tP8_IO_FILE
FNDA:3973440,_Z18define_decoded_muxP7nnode_tP8_IO_FILE
DA:88,37585900
DA:89,37585900
DA:90,37585900
DA:91,37585900
DA:93,0
DA:97,0
DA:98,37585900
DA:99,37585900
DA:100,0
DA:105,37585900
DA:106,1803870
DA:108,35782000
DA:111,37585900
DA:113,37490800
DA:114,37490800
DA:115,37490800
DA:116,37490800
DA:117,18
DA:119,37490800
DA:120,37490800
DA:122,37490800
DA:136,12253500
DA:137,12253500
DA:140,46261500
DA:141,34008000
DA:142,34008000
DA:143,24
DA:145,120
DA:146,96
DA:147,96
DA:148,96
DA:154,12253500
DA:155,46261500
DA:156,34008000
DA:158,24
DA:159,24
DA:162,34007900
DA:165,12253500
DA:167,12253500
DA:168,12253500
DA:169,12253500
DA:170,12253500
DA:172,3109
DA:173,3109
DA:176,3109
DA:177,0
DA:178,0
DA:179,0
DA:181,3109
DA:184,3109
DA:185,0
DA:187,3109
DA:194,3103
DA:195,3103
DA:199,3103
DA:200,88163
DA:201,85060
DA:202,85060
DA:204,3103
DA:206,3103
DA:207,98218
DA:208,95115
DA:209,95115
DA:210,158
DA:215,94957
DA:218,3103
DA:221,3103
DA:222,3103
DA:234,3103
DA:235,3103
DA:237,0
DA:241,98218
DA:242,95115
DA:245,95115
DA:246,95115
DA:247,95115
DA:248,190164
DA:249,95049
DA:250,95049
DA:251,95049
DA:252,95049
DA:254,95049
DA:260,3103
DA:261,3103
DA:264,3103
DA:265,3103
DA:267,3103
DA:268,3103
DA:273,3103
DA:274,3103
DA:276,3103
DA:277,3103
DA:278,3103
DA:280,3103
DA:281,3103
DA:282,3103
DA:285,88163
DA:286,85060
DA:287,85060
DA:290,3103
DA:295,60213000
DA:296,60213000
DA:297,60213000
DA:298,60213000
DA:300,60213000
DA:306,15806800
DA:309,15806800
DA:311,32302200
DA:312,16495400
DA:313,39835
DA:315,98133600
DA:316,98133600
DA:317,81678100
DA:318,5183360
DA:320,76494700
DA:321,76494700
DA:322,16376100
DA:325,60118600
DA:334,15806800
DA:335,15806800
DA:336,131350
DA:337,131350
DA:338,131350
DA:339,131350
DA:340,131350
DA:341,0
DA:342,0
DA:343,0
DA:344,0
DA:345,0
DA:346,321604
DA:347,321604
DA:348,321604
DA:349,302935
DA:350,302935
DA:351,302935
DA:352,0
DA:353,0
DA:354,0
DA:355,505372
DA:356,505372
DA:357,505372
DA:358,7018800
DA:359,7018800
DA:360,7018800
DA:361,7018800
DA:362,7018800
DA:363,7018800
DA:364,7018800
DA:365,7018800
DA:366,7018800
DA:367,7018800
DA:368,7018800
DA:370,3973440
DA:371,3973440
DA:372,3973440
DA:374,1741420
DA:375,1741420
DA:376,1741420
DA:378,8938
DA:379,8938
DA:380,8938
DA:381,8938
DA:383,289151
DA:384,289151
DA:385,289151
DA:386,289151
DA:388,215834
DA:389,215834
DA:390,215834
DA:391,215834
DA:393,1108640
DA:394,1108640
DA:395,1108640
DA:396,1108640
DA:406,0
DA:407,0
DA:408,0
DA:409,0
DA:410,0
DA:411,0
DA:412,0
DA:413,0
DA:414,0
DA:415,0
DA:416,0
DA:417,0
DA:418,0
DA:419,0
DA:420,0
DA:421,0
DA:422,0
DA:423,0
DA:425,0
DA:426,0
DA:428,15806800
DA:433,7018800
DA:434,7018800
DA:435,7018800
DA:437,7018800
DA:440,7018800
DA:443,4699770
DA:444,3287140
DA:446,1412630
DA:451,5071270
DA:452,12115400
DA:453,9373720
DA:454,2741700
DA:456,16005700
DA:458,2741700
DA:464,732
DA:465,1464
DA:466,976
DA:467,488
DA:469,1464
DA:471,488
DA:478,4886710
DA:479,2471300
DA:481,2415410
DA:484,175461
DA:485,175461
DA:486,175461
DA:488,877305
DA:489,701844
DA:490,350922
DA:491,350922
DA:492,350922
DA:493,1052770
DA:498,685494
DA:499,685494
DA:500,685494
DA:501,3427470
DA:502,2741980
DA:503,1370990
DA:504,1370990
DA:505,1370990
DA:506,4112960
DA:511,0
DA:512,0
DA:513,0
DA:516,7018800
DA:517,7018800
DA:522,1261260
DA:523,1261260
DA:525,1261260
DA:528,1261260
DA:529,1261260
DA:531,1261260
DA:532,1261260
DA:537,1741420
DA:538,1741420
DA:539,1741420
DA:542,1741420
DA:544,1741420
DA:545,1741420
DA:546,1741420
DA:548,1741420
DA:551,1741420
DA:554,1741420
DA:557,1741420
DA:560,1741420
DA:563,1741420
DA:564,1741420
DA:569,3973440
DA:570,3973440
DA:571,3973440
DA:574,14479600
DA:575,392968000
DA:576,382462000
DA:577,10506200
DA:578,371956000
DA:579,10506200
DA:580,361450000
DA:581,0
DA:583,743912000
DA:585,10506200
DA:588,3973440
DA:589,3973440
end_of_record
SF:/usr/include/c++/9/bits/alloc_traits.h
DA:469,0
DA:470,0
DA:514,0
DA:515,0
end_of_record
SF:/usr/include/c++/9/bits/stl_iterator_base_funcs.h
DA:98,0
DA:104,0
DA:138,0
DA:141,0
end_of_record
TN:
SF:/usr/include/c++/9/iostream
end_of_record
SF:/usr/include/c++/9/bits/basic_string.h
DA:186,0
DA:2300,0
DA:2301,0
DA:6175,2035210
DA:6177,2035210
end_of_record
SF:/workspace/vtr-verilog-to-routing/ODIN_II/SRC/node_creation_library.cpp
FN:40,_Z11get_pad_pinP9netlist_t
FNDA:810270,_Z11get_pad_pinP9netlist_t
FN:51,_Z12get_zero_pinP9netlist_t
FNDA:908990,_Z12get_zero_pinP9netlist_t
FN:62,_Z11get_one_pinP9netlist_t
FNDA:119,_Z11get_one_pinP9netlist_t
FN:73,_Z24make_not_gate_with_inputP6npin_tP7nnode_ts
FNDA:872953,_Z24make_not_gate_with_inputP6npin_tP7nnode_ts
FN:88,_Z13make_not_gateP7nnode_ts
FNDA:2527330,_Z13make_not_gateP7nnode_ts
FN:107,_Z15make_1port_gate14operation_listiiP7nnode_ts
FNDA:6201870,_Z15make_1port_gate14operation_listiiP7nnode_ts
FN:129,_Z21make_1port_logic_gate14operation_listiP7nnode_ts
FNDA:5693720,_Z21make_1port_logic_gate14operation_listiP7nnode_ts
FN:139,_Z33make_1port_logic_gate_with_inputs14operation_listiP13signal_list_tP7nnode_ts
FNDA:2814,_Z33make_1port_logic_gate_with_inputs14operation_listiP13signal_list_tP7nnode_ts
FN:157,_Z15make_3port_gate14operation_listiiiiP7nnode_ts
FNDA:1034760,_Z15make_3port_gate14operation_listiiiiP7nnode_ts
FN:182,_Z15make_2port_gate14operation_listiiiP7nnode_ts
FNDA:6376230,_Z15make_2port_gate14operation_listiiiP7nnode_ts
FN:205,_Z15make_nport_gate14operation_listiiiP7nnode_ts
FNDA:1012740,_Z15make_nport_gate14operation_listiiiP7nnode_ts
FN:227,_Z18edge_type_blif_strP7nnode_t
FNDA:1741420,_Z18edge_type_blif_strP7nnode_t
FN:250,_Z19edge_type_blif_enumNSt7__cxx1112basic_stringIcSt11char_traitsIcESaIcEEE5loc_t
FNDA:1017620,_Z19edge_type_blif_enumNSt7__cxx1112basic_stringIcSt11char_traitsIcESaIcEEE5loc_t
FN:273,_Z14hard_node_nameP7nnode_tPcS1_S1_
FNDA:721,_Z14hard_node_nameP7nnode_tPcS1_S1_
FN:288,_Z9node_nameP7nnode_tPc
FNDA:1959440,_Z9node_nameP7nnode_tPc
FN:296,_Z12op_node_name14operation_listPc
FNDA:19112400,_Z12op_node_name14operation_listPc
FN:311,_Z15make_mult_blockP7nnode_ts
FNDA:0,_Z15make_mult_blockP7nnode_ts
DA:40,810270
DA:41,810270
DA:42,810270
DA:43,810270
DA:44,810270
DA:51,908990
DA:52,908990
DA:53,908990
DA:54,908990
DA:55,908990
DA:62,119
DA:63,119
DA:64,119
DA:65,119
DA:66,119
DA:73,872953
DA:74,872953
DA:76,872953
DA:79,872953
DA:81,872953
DA:88,2527330
DA:89,2527330
DA:91,2527330
DA:92,2527330
DA:93,2527330
DA:94,5054660
DA:95,2527330
DA:97,2527330
DA:98,2527330
DA:100,2527330
DA:107,6201870
DA:108,6201870
DA:110,6201870
DA:111,6201870
DA:112,6201870
DA:113,12403700
DA:114,6201870
DA:117,6201870
DA:118,6201870
DA:120,6201870
DA:121,6201870
DA:123,6201870
DA:129,5693720
DA:130,5693720
DA:132,5693720
DA:139,2814
DA:140,2814
DA:141,2814
DA:143,2814
DA:146,45970
DA:147,43156
DA:150,2814
DA:157,1034760
DA:158,1034760
DA:159,1034760
DA:160,1034760
DA:161,2069510
DA:162,1034760
DA:165,1034760
DA:166,1034760
DA:167,1034760
DA:168,1034760
DA:169,1034760
DA:170,1034760
DA:172,1034760
DA:173,1034760
DA:175,1034760
DA:182,6376230
DA:183,6376230
DA:184,6376230
DA:185,6376230
DA:186,12752500
DA:187,6376230
DA:190,6376230
DA:191,6376230
DA:192,6376230
DA:193,6376230
DA:195,6376230
DA:196,6376230
DA:198,6376230
DA:205,1012740
DA:206,1012740
DA:207,1012740
DA:208,1012740
DA:209,1012740
DA:210,2025480
DA:211,1012740
DA:214,3038220
DA:215,2025480
DA:216,2025480
DA:221,1012740
DA:222,1012740
DA:224,1012740
DA:227,1741420
DA:228,1741420
DA:231,1741420
DA:234,1741380
DA:235,1741380
DA:236,0
DA:237,0
DA:238,0
DA:239,0
DA:240,0
DA:241,0
DA:242,0
DA:243,0
DA:246,0
DA:250,1017620
DA:251,1017620
DA:253,1017590
DA:255,0
DA:257,0
DA:259,0
DA:262,0
DA:265,0
DA:273,721
DA:274,721
DA:277,721
DA:279,721
DA:281,721
DA:288,19112400
DA:289,19112400
DA:296,19112400
DA:297,19112400
DA:300,19112400
DA:302,19112400
DA:304,19112400
DA:311,0
DA:312,0
DA:314,0
DA:315,0
DA:316,0
DA:317,0
DA:318,0
DA:319,0
DA:320,0
DA:321,0
DA:322,0
DA:324,0
DA:325,0
DA:327,0
end_of_record
TN:
SF:/usr/include/x86_64-linux-gnu/bits/stdio2.h
DA:77,77759500
DA:80,39989200
DA:98,0
DA:100,0
DA:105,9732740
DA:107,9556160
end_of_record
SF:/usr/include/c++/9/ext/alloc_traits.h
DA:97,3203
DA:98,3203
end_of_record
SF:/usr/include/c++/9/bits/allocator.h
DA:138,40009000
DA:141,39992400
DA:142,39992400
DA:153,172685000
end_of_record
SF:/usr/include/c++/9/ext/string_conversions.h
FN:99,_ZN9__gnu_cxx12__to_xstringINSt7__cxx1112basic_stringIcSt11char_traitsIcESaIcEEEcEET_PFiPT0_mPKS8_P13__va_list_tagEmSB_z
FNDA:0,_ZN9__gnu_cxx12__to_xstringINSt7__cxx1112basic_stringIcSt11char_traitsIcESaIcEEEcEET_PFiPT0_mPKS8_P13__va_list_tagEmSB_z
DA:99,0
DA:105,0
DA:109,0
DA:111,0
DA:113,0
DA:115,0
end_of_record
SF:/workspace/vtr-verilog-to-routing/libs/EXTERNAL/libargparse/src/argparse_value.hpp
DA:53,0
end_of_record
SF:/usr/include/c++/9/bits/stl_bvector.h
DA:77,18009
DA:86,18009
DA:87,18009
DA:148,6013
DA:152,17949
DA:154,17949
DA:156,0
DA:157,0
DA:186,23962
DA:187,23962
DA:197,23962
DA:198,23962
DA:228,6013
DA:229,6013
DA:236,18009
DA:237,18009
DA:240,17949
DA:242,17949
DA:811,6013
DA:812,6013
DA:819,6013
DA:820,6013
end_of_record
SF:/usr/include/c++/9/bits/basic_string.h
FN:6020,_ZStplIcSt11char_traitsIcESaIcEENSt7__cxx1112basic_stringIT_T0_T1_EERKS8_SA_
FNDA:0,_ZStplIcSt11char_traitsIcESaIcEENSt7__cxx1112basic_stringIT_T0_T1_EERKS8_SA_
FN:6097,_ZStplIcSt11char_traitsIcESaIcEENSt7__cxx1112basic_stringIT_T0_T1_EEOS8_S9_
FNDA:2218930,_ZStplIcSt11char_traitsIcESaIcEENSt7__cxx1112basic_stringIT_T0_T1_EEOS8_S9_
FN:6149,_ZSteqIcEN9__gnu_cxx11__enable_ifIXsrSt9__is_charIT_E7__valueEbE6__typeERKNSt7__cxx1112basic_stringIS3_St11char_traitsIS3_ESaIS3_EEESE_
FNDA:3271,_ZSteqIcEN9__gnu_cxx11__enable_ifIXsrSt9__is_charIT_E7__valueEbE6__typeERKNSt7__cxx1112basic_stringIS3_St11char_traitsIS3_ESaIS3_EEESE_
DA:150,145434000
DA:156,37770300
DA:157,37770300
DA:159,3203
DA:160,2222130
DA:178,7340610
DA:179,2904740
DA:182,16613600
DA:183,16613600
DA:186,398322000
DA:190,42211400
DA:193,2222130
DA:200,152089000
DA:203,152089000
DA:210,5121680
DA:211,2904740
DA:214,16613600
DA:216,16613600
DA:217,0
DA:221,152089000
DA:222,152089000
DA:229,145434000
DA:231,143215000
DA:232,252942000
DA:236,107508000
DA:237,107508000
DA:243,3203
DA:247,3203
DA:263,3203
DA:266,0
DA:286,109727000
DA:287,107508000
DA:290,3203
DA:291,3203
DA:346,14394600
DA:348,14394600
DA:349,2747360
DA:351,14394600
DA:392,9917250
DA:393,9917250
DA:396,4477390
DA:398,4477390
DA:431,0
DA:433,0
DA:434,0
DA:448,3203
DA:450,3203
DA:451,3203
DA:540,37770300
DA:541,37770300
DA:542,37770300
DA:552,2218930
DA:553,2218930
DA:555,2218930
DA:557,1984
DA:562,2216940
DA:563,2216940
DA:569,2218930
DA:570,0
DA:571,2218930
DA:572,0
DA:625,0
DA:627,0
DA:628,0
DA:657,143215000
DA:658,143215000
DA:704,0
DA:705,0
DA:826,66112
DA:827,66112
DA:842,66112
DA:843,66112
DA:930,4510440
DA:936,85843
DA:993,2216940
DA:995,4435870
DA:1063,37836400
DA:1070,66112
DA:1121,37770300
DA:1124,37770300
DA:1177,0
DA:1178,0
DA:1221,2158750
DA:1222,2158750
DA:1639,60180
DA:1641,60180
DA:2300,140979000
DA:2301,140979000
DA:2312,3203
DA:2313,3203
DA:2361,0
DA:2363,0
DA:2571,0
DA:2572,0
DA:2655,3203
DA:2656,3203
DA:6020,0
DA:6023,0
DA:6024,0
DA:6025,0
DA:6097,2218930
DA:6100,2218930
DA:6101,4437860
DA:6102,4435870
DA:6103,60180
DA:6104,2158750
DA:6149,3271
DA:6151,3271
DA:6152,3271
DA:6153,3271
DA:6416,0
DA:6421,0
DA:6557,0
DA:6558,0
DA:6559,0
end_of_record
SF:/workspace/vtr-verilog-to-routing/ODIN_II/SRC/odin_util.cpp
FN:50,_Z36shift_left_value_with_overflow_checkll5loc_t
FNDA:36941600,_Z36shift_left_value_with_overflow_checkll5loc_t
FN:59,_Z18get_file_extensionNSt7__cxx1112basic_stringIcSt11char_traitsIcESaIcEEE
FNDA:3203,_Z18get_file_extensionNSt7__cxx1112basic_stringIcSt11char_traitsIcESaIcEEE
FN:68,_Z16create_directoryNSt7__cxx1112basic_stringIcSt11char_traitsIcESaIcEEE
FNDA:8879,_Z16create_directoryNSt7__cxx1112basic_stringIcSt11char_traitsIcESaIcEEE
FN:82,_Z31assert_supported_file_extensionNSt7__cxx1112basic_stringIcSt11char_traitsIcESaIcEEE5loc_t
FNDA:3203,_Z31assert_supported_file_extensionNSt7__cxx1112basic_stringIcSt11char_traitsIcESaIcEEE5loc_t
FN:104,_Z9open_filePKcS0_
FNDA:0,_Z9open_filePKcS0_
FN:116,_Z16name_based_on_op14operation_list
FNDA:19112500,_Z16name_based_on_op14operation_list
FN:126,_Z17name_based_on_ids3ids
FNDA:0,_Z17name_based_on_ids3ids
FN:136,_Z21node_name_based_on_opP7nnode_t
FNDA:2141640,_Z21node_name_based_on_opP7nnode_t
FN:144,_Z26ast_node_name_based_on_idsP10ast_node_t
FNDA:0,_Z26ast_node_name_based_on_idsP10ast_node_t
FN:152,_Z16make_signal_namePci
FNDA:104444,_Z16make_signal_namePci
FN:168,_Z18make_full_ref_namePKcS0_S0_S0_l
FNDA:100876000,_Z18make_full_ref_namePKcS0_S0_S0_l
FN:193,_Z28make_full_name_w_o_array_refPKcS0_S0_
FNDA:0,_Z28make_full_name_w_o_array_refPKcS0_S0_
FN:216,_Z15twos_complementPc
FNDA:0,_Z15twos_complementPc
FN:242,_Z37convert_string_of_radix_to_bit_stringPcii
FNDA:0,_Z37convert_string_of_radix_to_bit_stringPcii
FN:261,_Z26convert_long_to_bit_stringli
FNDA:1721910,_Z26convert_long_to_bit_stringli
FN:283,_Z34convert_dec_string_of_size_to_longPci
FNDA:0,_Z34convert_dec_string_of_size_to_longPci
FN:295,_Z31convert_string_of_radix_to_longPci
FNDA:0,_Z31convert_string_of_radix_to_longPci
FN:306,_Z18is_string_of_radixPci
FNDA:0,_Z18is_string_of_radixPci
FN:323,_Z40convert_hex_string_of_size_to_bit_stringsPci
FNDA:0,_Z40convert_hex_string_of_size_to_bit_stringsPci
FN:418,_Z40convert_oct_string_of_size_to_bit_stringPci
FNDA:0,_Z40convert_oct_string_of_size_to_bit_stringPci
FN:467,_Z43convert_binary_string_of_size_to_bit_stringsPci
FNDA:0,_Z43convert_binary_string_of_size_to_bit_stringsPci
FN:500,_Z13is_hex_stringPc
FNDA:0,_Z13is_hex_stringPc
FN:512,_Z19is_dont_care_stringPc
FNDA:0,_Z19is_dont_care_stringPc
FN:524,_Z17is_decimal_stringPc
FNDA:0,_Z17is_decimal_stringPc
FN:536,_Z15is_octal_stringPc
FNDA:0,_Z15is_octal_stringPc
FN:548,_Z16is_binary_stringPc
FNDA:0,_Z16is_binary_stringPc
FN:563,_Z12get_pin_namePc
FNDA:452060,_Z12get_pin_namePc
FN:574,_Z13get_port_namePc
FNDA:293957,_Z13get_port_namePc
FN:590,_Z14get_pin_numberPc
FNDA:149302,_Z14get_pin_numberPc
FN:609,_Z8my_powerll
FNDA:10236500,_Z8my_powerll
FN:624,_Z23make_string_based_on_idP7nnode_t
FNDA:0,_Z23make_string_based_on_idP7nnode_t
FN:634,_Z16make_simple_nameB5cxx11PcPKcc
FNDA:16528,_Z16make_simple_nameB5cxx11PcPKcc
FN:650,_Z16my_malloc_structl
FNDA:184472000,_Z16my_malloc_structl
FN:671,_Z4pow2i
FNDA:0,_Z4pow2i
FN:685,_Z15string_to_upperPc
FNDA:0,_Z15string_to_upperPc
FN:697,_Z15string_to_lowerPc
FNDA:0,_Z15string_to_lowerPc
FN:713,_Z13append_stringPKcS0_z
FNDA:2218930,_Z13append_stringPKcS0_z
FN:730,_Z14reverse_stringPci
FNDA:2517520,_Z14reverse_stringPci
FN:743,_Z7get_bitc
FNDA:0,_Z7get_bitc
FN:753,_Z7get_bits
FNDA:0,_Z7get_bits
FN:760,_Z29passed_verify_i_o_availabiltyP7nnode_tiiPKci
FNDA:1068790000,_Z29passed_verify_i_o_availabiltyP7nnode_tiiPKci
FN:792,_Z14search_replacePcPKcS1_i
FNDA:0,_Z14search_replacePcPKcS1_i
FN:811,_Z14find_substringB5cxx11PcPKci
FNDA:0,_Z14find_substringB5cxx11PcPKci
FN:832,_Z10print_timed
FNDA:14854,_Z10print_timed
FN:839,_Z9wall_timev
FNDA:302446000,_Z9wall_timev
FN:854,_Z18print_progress_bardiid
FNDA:18759600,_Z18print_progress_bardiid
FN:892,_Z11trim_stringPcPKc
FNDA:2418790,_Z11trim_stringPcPKc
FN:917,_ZL21string_to_token_arrayPcPi
FNDA:5020,_ZL21string_to_token_arrayPcPi
FN:939,_Z27output_vector_headers_equalPcS_
FNDA:2510,_Z27output_vector_headers_equalPcS_
FN:966,_Z16only_one_is_trueSt6vectorIbSaIbEE
FNDA:6013,_Z16only_one_is_trueSt6vectorIbSaIbEE
FN:982,_Z12odin_sprintfPcPKcz
FNDA:37770300,_Z12odin_sprintfPcPKcz
FN:1009,_Z11str_collatePcS_
FNDA:0,_Z11str_collatePcS_
DA:50,36941600
DA:51,36941600
DA:52,0
DA:53,36941600
DA:54,192
DA:56,36941600
DA:59,3203
DA:60,3203
DA:61,3203
DA:62,3203
DA:64,0
DA:68,8879
DA:70,8879
DA:74,8879
DA:77,8879
DA:78,0
DA:80,8879
DA:82,3203
DA:83,3203
DA:84,3203
DA:85,6474
DA:86,3271
DA:89,3203
DA:90,0
DA:91,0
DA:92,0
DA:93,0
DA:96,0
DA:102,3203
DA:104,0
DA:105,0
DA:106,0
DA:107,0
DA:109,0
DA:116,21254100
DA:117,19112500
DA:119,21254100
DA:126,0
DA:127,0
DA:129,0
DA:136,2141640
DA:137,2141640
DA:144,0
DA:145,0
DA:152,104444
DA:153,104444
DA:154,104444
DA:155,104444
DA:156,104444
DA:157,108
DA:159,104444
DA:168,100876000
DA:169,100876000
DA:170,100876000
DA:171,72684900
DA:173,100876000
DA:174,3994770
DA:176,100876000
DA:177,67141000
DA:179,100876000
DA:180,95332500
DA:182,100876000
DA:183,51546600
DA:184,51546600
DA:186,176796000
DA:193,0
DA:194,0
DA:195,0
DA:196,0
DA:198,0
DA:199,0
DA:201,0
DA:203,0
DA:204,0
DA:206,0
DA:209,0
DA:216,0
DA:217,0
DA:218,0
DA:219,0
DA:221,0
DA:222,0
DA:223,0
DA:225,0
DA:226,0
DA:228,0
DA:242,0
DA:243,0
DA:244,0
DA:245,0
DA:246,0
DA:247,0
DA:248,0
DA:249,0
DA:250,0
DA:251,0
DA:261,1721910
DA:262,1721910
DA:263,1721910
DA:264,1721910
DA:266,5165730
DA:267,3443820
DA:268,1721910
DA:270,1721910
DA:272,3443820
DA:274,1721910
DA:276,1721910
DA:283,0
DA:284,0
DA:285,0
DA:287,0
DA:288,0
DA:289,0
DA:290,0
DA:292,0
DA:295,0
DA:296,0
DA:297,0
DA:299,0
DA:300,0
DA:301,0
DA:303,0
DA:306,0
DA:307,0
DA:308,0
DA:309,0
DA:310,0
DA:311,0
DA:312,0
DA:313,0
DA:314,0
DA:323,0
DA:324,0
DA:325,0
DA:326,0
DA:327,0
DA:329,0
DA:330,0
DA:331,0
DA:334,0
DA:338,0
DA:339,0
DA:341,0
DA:342,0
DA:343,0
DA:344,0
DA:345,0
DA:346,0
DA:347,0
DA:348,0
DA:351,0
DA:354,0
DA:355,0
DA:356,0
DA:357,0
DA:361,0
DA:363,0
DA:365,0
DA:366,0
DA:368,0
DA:369,0
DA:370,0
DA:371,0
DA:372,0
DA:373,0
DA:374,0
DA:379,0
DA:382,0
DA:383,0
DA:384,0
DA:388,0
DA:390,0
DA:391,0
DA:392,0
DA:393,0
DA:396,0
DA:398,0
DA:400,0
DA:401,0
DA:411,0
DA:418,0
DA:419,0
DA:420,0
DA:422,0
DA:423,0
DA:424,0
DA:427,0
DA:431,0
DA:432,0
DA:434,0
DA:435,0
DA:436,0
DA:437,0
DA:438,0
DA:439,0
DA:440,0
DA:441,0
DA:444,0
DA:447,0
DA:448,0
DA:449,0
DA:450,0
DA:454,0
DA:456,0
DA:458,0
DA:459,0
DA:460,0
DA:467,0
DA:468,0
DA:469,0
DA:471,0
DA:472,0
DA:475,0
DA:478,0
DA:481,0
DA:482,0
DA:483,0
DA:484,0
DA:488,0
DA:490,0
DA:492,0
DA:493,0
DA:494,0
DA:500,0
DA:501,0
DA:502,0
DA:503,0
DA:512,0
DA:513,0
DA:514,0
DA:515,0
DA:524,0
DA:525,0
DA:526,0
DA:527,0
DA:536,0
DA:537,0
DA:538,0
DA:539,0
DA:548,0
DA:549,0
DA:550,0
DA:551,0
DA:563,452060
DA:564,452060
DA:565,440620
DA:567,11440
DA:574,293957
DA:576,293957
DA:578,293957
DA:579,293957
DA:580,281002
DA:581,293957
DA:590,149302
DA:592,149302
DA:593,149302
DA:595,149302
DA:596,149302
DA:597,140501
DA:601,149302
DA:602,149302
DA:609,10236500
DA:610,10236500
DA:615,17084300
DA:616,8489840
DA:624,0
DA:626,0
DA:628,0
DA:634,16528
DA:635,16528
DA:636,16528
DA:638,16528
DA:639,16528
DA:641,82640
DA:642,132224
DA:644,16528
DA:650,184472000
DA:651,184472000
DA:652,184472000
DA:657,184472000
DA:658,0
DA:659,0
DA:663,184472000
DA:665,184472000
DA:671,0
DA:672,0
DA:673,0
DA:675,0
DA:676,0
DA:679,0
DA:685,0
DA:686,0
DA:688,0
DA:689,0
DA:692,0
DA:697,0
DA:698,0
DA:700,0
DA:701,0
DA:704,0
DA:713,2218930
DA:714,2218930
DA:716,2218930
DA:718,2218930
DA:719,2218930
DA:720,2218930
DA:722,4437860
DA:723,4435870
DA:730,2517520
DA:731,2517520
DA:732,2517520
DA:733,6847140
DA:734,4329620
DA:735,4329620
DA:736,4329620
DA:738,2517520
DA:743,0
DA:744,0
DA:745,0
DA:746,0
DA:747,0
DA:753,0
DA:754,0
DA:756,0
DA:757,0
DA:760,1068790000
DA:761,1068790000
DA:762,0
DA:764,2137590000
DA:765,1068790000
DA:767,1068790000
DA:768,598867000
DA:769,0
DA:770,0
DA:771,0
DA:776,1068790000
DA:777,1068790000
DA:778,0
DA:779,0
DA:780,0
DA:785,1068790000
DA:786,0
DA:787,1068790000
DA:792,0
DA:793,0
DA:794,0
DA:795,0
DA:796,0
DA:797,0
DA:798,0
DA:799,0
DA:800,0
DA:802,0
DA:803,0
DA:804,0
DA:811,0
DA:814,0
DA:815,0
DA:816,0
DA:817,0
DA:818,0
DA:819,0
DA:821,0
DA:822,0
DA:824,0
DA:825,0
DA:832,191438
DA:833,14854
DA:834,176584
DA:839,302446000
DA:840,302446000
DA:841,302446000
DA:843,302446000
DA:854,18759600
DA:855,18759600
DA:856,176584
DA:858,176584
DA:860,176584
DA:861,4625430
DA:862,4448840
DA:864,176584
DA:866,4556940
DA:867,4380360
DA:869,176584
DA:870,170814
DA:871,170814
DA:872,170814
DA:874,5770
DA:875,5770
DA:878,176584
DA:880,176584
DA:881,5770
DA:883,176584
DA:885,18759600
DA:892,2418790
DA:893,2418790
DA:894,6095120
DA:895,6095120
DA:896,18878200
DA:898,18878200
DA:899,16460400
DA:900,3676330
DA:901,3676330
DA:902,3676330
DA:906,3676330
DA:910,2418790
DA:917,5020
DA:918,5020
DA:920,5020
DA:921,5020
DA:923,15042
DA:924,10022
DA:925,10022
DA:926,10022
DA:927,10022
DA:929,5020
DA:930,5020
DA:939,2510
DA:940,2510
DA:941,2510
DA:942,2510
DA:943,2510
DA:945,2510
DA:946,2510
DA:948,2510
DA:949,2510
DA:951,2510
DA:952,5011
DA:953,2501
DA:956,2510
DA:957,2510
DA:958,2510
DA:959,2510
DA:960,2510
DA:966,6013
DA:967,6013
DA:968,53907
DA:969,18009
DA:971,11996
DA:972,60
DA:974,5953
DA:982,37770300
DA:983,37770300
DA:984,37770300
DA:985,37770300
DA:987,37770300
DA:989,37770300
DA:990,67138100
DA:991,37770300
DA:992,37770300
DA:993,37770300
DA:995,37770300
DA:997,37770300
DA:999,0
DA:1000,0
DA:1001,0
DA:1002,0
DA:1009,0
DA:1010,0
DA:1011,0
DA:1013,0
DA:1015,0
DA:1016,0
DA:1017,0
DA:1019,0
DA:1020,0
DA:1021,0
DA:1024,0
DA:1025,0
DA:1026,0
DA:1029,0
DA:1030,0
DA:1031,0
DA:1032,0
DA:1034,0
end_of_record
SF:/usr/include/c++/9/bits/ios_base.h
FN:1023,_ZSt3decRSt8ios_base
FNDA:51546700,_ZSt3decRSt8ios_base
DA:83,51546700
DA:84,51546700
DA:87,51546700
DA:88,51546700
DA:95,51546700
DA:96,51546700
DA:99,51546700
DA:100,51546700
DA:103,51546700
DA:104,51546700
DA:670,51546700
DA:672,51546700
DA:673,51546700
DA:674,51546700
DA:675,51546700
DA:1023,51546700
DA:1025,51546700
DA:1026,51546700
end_of_record
SF:/usr/include/c++/9/bits/move.h
DA:47,192081000
DA:99,2222130
DA:138,192081000
DA:139,149873000
end_of_record
SF:/usr/include/c++/9/bits/basic_string.tcc
FN:206,_ZNSt7__cxx1112basic_stringIcSt11char_traitsIcESaIcEE12_M_constructIPcEEvT_S7_St20forward_iterator_tag
FNDA:9917250,_ZNSt7__cxx1112basic_stringIcSt11char_traitsIcESaIcEE12_M_constructIPcEEvT_S7_St20forward_iterator_tag
FN:206,_ZNSt7__cxx1112basic_stringIcSt11char_traitsIcESaIcEE12_M_constructIPKcEEvT_S8_St20forward_iterator_tag
FNDA:4477390,_ZNSt7__cxx1112basic_stringIcSt11char_traitsIcESaIcEE12_M_constructIPKcEEvT_S8_St20forward_iterator_tag
DA:206,9917250
DA:211,9917250
DA:212,0
DA:215,9917250
DA:217,9917250
DA:219,671585
DA:220,671585
DA:225,9917250
DA:232,9917250
DA:233,9917250
DA:206,4477390
DA:211,4477390
DA:212,0
DA:215,4477390
DA:217,4477390
DA:219,2233150
DA:220,2233150
DA:225,4477390
DA:232,4477390
DA:233,4477390
end_of_record
SF:/usr/include/c++/9/bits/ptr_traits.h
DA:146,149873000
DA:147,149873000
end_of_record
SF:/usr/include/c++/9/ext/type_traits.h
DA:152,14394600
end_of_record
SF:/usr/include/c++/9/iostream
end_of_record
SF:/usr/include/c++/9/ostream
DA:127,51546700
DA:132,51546700
DA:166,51546600
DA:167,51546600
DA:565,55541500
DA:568,55541500
DA:570,55541500
DA:571,55541500
end_of_record
SF:/usr/include/x86_64-linux-gnu/bits/string_fortified.h
DA:103,37770300
DA:106,37770300
DA:126,0
DA:128,0
end_of_record
SF:/usr/include/c++/9/sstream
DA:831,100981000
DA:832,100981000
end_of_record
SF:/usr/include/c++/9/bits/stl_iterator_base_funcs.h
DA:98,14394600
DA:104,14394600
DA:138,14394600
DA:141,14394600
end_of_record
SF:/usr/include/c++/9/streambuf
end_of_record
SF:/usr/include/c++/9/bits/alloc_traits.h
DA:469,107508000
DA:470,107508000
DA:514,3203
DA:515,3203
end_of_record
SF:/usr/include/c++/9/ext/new_allocator.h
DA:80,40009000
DA:83,39992400
DA:89,172603000
DA:119,107508000
DA:128,107508000
end_of_record
SF:/usr/include/c++/9/bits/char_traits.h
DA:299,19360900
DA:300,2747360
DA:315,3203
DA:317,3203
DA:325,3203
DA:329,55541500
DA:335,55541500
DA:361,11649300
DA:363,11647300
DA:365,11588800
end_of_record
SF:/usr/include/string.h
DA:213,1335940
DA:215,895319
end_of_record
SF:/usr/include/c++/9/chrono
DA:149,302446000
DA:153,302446000
DA:191,302446000
DA:200,302446000
DA:331,302446000
DA:338,302446000
DA:339,302446000
DA:346,302446000
DA:649,302446000
end_of_record
SF:/usr/include/c++/9/bits/stl_iterator.h
DA:806,66112
DA:819,2155340
DA:827,2155340
DA:829,2155340
DA:830,2155340
DA:871,2221460
DA:907,2221460
DA:910,2221460
end_of_record
SF:/usr/include/c++/9/bits/stl_algo.h
DA:4395,66112
DA:4407,2221460
DA:4408,2155340
DA:4409,17196
end_of_record
TN:
SF:/usr/include/c++/9/bits/unordered_map.h
DA:102,3103
DA:141,6206
DA:304,3103
DA:305,3103
DA:324,47
DA:325,47
DA:346,5622050
DA:347,5622050
DA:585,5020
DA:586,5020
DA:842,6206
DA:843,6206
DA:920,5622000
DA:921,5622000
end_of_record
SF:/usr/include/c++/9/bits/hashtable_policy.h
FN:2079,_ZNSt8__detail16_Hashtable_allocISaINS_10_Hash_nodeISt4pairIKNSt7__cxx1112basic_stringIcSt11char_traitsIcESaIcEEEP15implicit_memoryELb1EEEEE16_M_allocate_nodeIJSC_EEEPSD_DpOT_
FNDA:5020,_ZNSt8__detail16_Hashtable_allocISaINS_10_Hash_nodeISt4pairIKNSt7__cxx1112basic_stringIcSt11char_traitsIcESaIcEEEP15implicit_memoryELb1EEEEE16_M_allocate_nodeIJSC_EEEPSD_DpOT_
DA:92,19731
DA:94,19731
DA:218,11226
DA:229,5020
DA:236,39396
DA:237,39396
DA:244,5199
DA:245,19844
DA:264,5020
DA:269,43373
DA:294,16871100
DA:295,5636530
DA:298,113
DA:299,113
DA:304,5622000
DA:311,160
DA:340,11249100
DA:341,11249100
DA:344,113
DA:345,113
DA:352,113
DA:354,113
DA:355,113
DA:391,5622000
DA:393,5622000
DA:400,14532
DA:401,14532
DA:431,5670570
DA:433,5670570
DA:449,6206
DA:450,6206
DA:476,5020
DA:477,5020
DA:480,6206
DA:481,6206
DA:484,0
DA:485,0
DA:805,5020
DA:1002,5020
DA:1004,5020
DA:1005,5020
DA:1093,18232
DA:1096,6206
DA:1104,11347000
DA:1108,21624
DA:1380,5627020
DA:1384,5627020
DA:1388,5627200
DA:1390,5627200
DA:1393,43373
DA:1396,43373
DA:1399,5020
DA:1400,5020
DA:1415,49372
DA:1418,5199
DA:1421,5627020
DA:1427,5670570
DA:1448,49372
DA:1450,14532
DA:1829,49372
DA:1834,49372
DA:1846,49372
DA:2017,18232
DA:2036,6206
DA:2046,16425
DA:2047,11226
DA:2079,5020
DA:2081,5020
DA:2082,5020
DA:2085,5020
DA:2086,5020
DA:2089,5020
DA:2091,0
DA:2093,0
DA:2094,0
DA:2118,30644
DA:2120,35664
DA:2122,5020
DA:2123,5020
DA:2124,5020
DA:2142,179
DA:2146,179
DA:2147,179
DA:2148,179
DA:2149,179
end_of_record
SF:/usr/include/x86_64-linux-gnu/bits/string_fortified.h
DA:59,500
DA:71,500
end_of_record
SF:/workspace/vtr-verilog-to-routing/ODIN_II/SRC/implicit_memory.cpp
FN:51,_Z26init_implicit_memory_indexv
FNDA:3103,_Z26init_implicit_memory_indexv
FN:59,_Z22lookup_implicit_memoryPcS_
FNDA:507542,_Z22lookup_implicit_memoryPcS_
FN:75,_Z36lookup_implicit_memory_reference_astPcP10ast_node_t
FNDA:804938,_Z36lookup_implicit_memory_reference_astPcP10ast_node_t
FN:89,_Z38is_valid_implicit_memory_reference_astPcP10ast_node_t
FNDA:220,_Z38is_valid_implicit_memory_reference_astPcP10ast_node_t
FN:100,_Z34is_signal_list_connected_to_memoryP15implicit_memoryP13signal_list_tPKc
FNDA:440,_Z34is_signal_list_connected_to_memoryP15implicit_memoryP13signal_list_tPKc
FN:144,_Z28create_implicit_memory_blockilPcS_5loc_t
FNDA:113,_Z28create_implicit_memory_blockilPcS_5loc_t
FN:192,_Z33add_input_port_to_implicit_memoryP15implicit_memoryP13signal_list_tPKc
FNDA:491,_Z33add_input_port_to_implicit_memoryP15implicit_memoryP13signal_list_tPKc
FN:201,_Z34add_output_port_to_implicit_memoryP15implicit_memoryP13signal_list_tPKc
FNDA:101,_Z34add_output_port_to_implicit_memoryP15implicit_memoryP13signal_list_tPKc
FN:210,_Z28lookup_implicit_memory_inputPc
FNDA:5114460,_Z28lookup_implicit_memory_inputPc
FN:223,_Z30register_implicit_memory_inputPcP15implicit_memory
FNDA:5361,_Z30register_implicit_memory_inputPcP15implicit_memory
FN:235,_Z48free_implicit_memory_index_and_finalize_memoriesv
FNDA:3103,_Z48free_implicit_memory_index_and_finalize_memoriesv
FN:252,_Z39add_dummy_input_port_to_implicit_memoryP15implicit_memoryiPKc
FNDA:42,_Z39add_dummy_input_port_to_implicit_memoryP15implicit_memoryiPKc
FN:267,_Z40add_dummy_output_port_to_implicit_memoryP15implicit_memoryiPKc
FNDA:39,_Z40add_dummy_output_port_to_implicit_memoryP15implicit_memoryiPKc
FN:288,_Z24finalize_implicit_memoryP15implicit_memory
FNDA:113,_Z24finalize_implicit_memoryP15implicit_memory
FN:385,_Z43collapse_implicit_memory_to_single_port_ramP15implicit_memory
FNDA:86,_Z43collapse_implicit_memory_to_single_port_ramP15implicit_memory
DA:51,3103
DA:52,3103
DA:53,3103
DA:54,3103
DA:59,507542
DA:60,507542
DA:62,1015080
DA:64,507542
DA:66,507542
DA:69,440
DA:75,804938
DA:76,804938
DA:77,23366
DA:78,781572
DA:79,0
DA:80,781572
DA:81,484176
DA:89,220
DA:90,220
DA:91,440
DA:93,0
DA:94,0
DA:97,0
DA:100,440
DA:101,440
DA:104,440
DA:107,634
DA:108,500
DA:109,500
DA:110,500
DA:112,1050
DA:113,681
DA:115,681
DA:116,550
DA:117,550
DA:118,454
DA:126,6212
DA:127,5712
DA:130,500
DA:131,500
DA:133,500
DA:144,113
DA:145,113
DA:147,113
DA:153,675
DA:154,562
DA:155,562
DA:159,113
DA:160,3
DA:164,113
DA:165,113
DA:166,113
DA:169,113
DA:170,113
DA:171,113
DA:173,113
DA:175,113
DA:176,113
DA:177,113
DA:178,113
DA:179,113
DA:180,113
DA:181,113
DA:182,113
DA:184,339
DA:186,113
DA:192,533
DA:193,533
DA:195,491
DA:196,491
DA:201,140
DA:202,140
DA:204,101
DA:205,101
DA:210,5114460
DA:211,10228900
DA:213,5114460
DA:216,14092
DA:223,5361
DA:224,5361
DA:225,14721
DA:228,5361
DA:235,3103
DA:236,3103
DA:238,3103
DA:239,160
DA:240,113
DA:241,113
DA:242,113
DA:245,3103
DA:246,3103
DA:252,42
DA:253,42
DA:254,42
DA:255,171
DA:256,129
DA:258,42
DA:260,42
DA:261,42
DA:267,39
DA:268,39
DA:269,39
DA:270,39
DA:271,555
DA:272,516
DA:274,516
DA:275,516
DA:278,39
DA:280,39
DA:281,39
DA:288,113
DA:289,113
DA:291,113
DA:292,113
DA:293,113
DA:294,113
DA:295,113
DA:296,113
DA:297,113
DA:298,113
DA:299,113
DA:302,113
DA:303,5133
DA:304,5020
DA:305,5020
DA:307,4458
DA:309,4380
DA:311,502
DA:313,232
DA:315,131
DA:317,113
DA:318,113
DA:322,3853
DA:323,3740
DA:324,3740
DA:326,222
DA:327,222
DA:330,113
DA:331,0
DA:332,0
DA:335,113
DA:336,113
DA:338,113
DA:339,113
DA:340,113
DA:341,113
DA:342,113
DA:345,113
DA:346,27
DA:347,27
DA:348,27
DA:349,27
DA:352,113
DA:353,86
DA:355,113
DA:356,0
DA:365,113
DA:366,113
DA:367,113
DA:368,113
DA:369,77
DA:370,77
DA:371,59
DA:373,18
DA:376,113
DA:385,86
DA:386,86
DA:390,86
DA:391,4398
DA:392,4312
DA:393,4312
DA:394,4226
DA:399,3742
DA:400,3656
DA:401,3656
DA:404,86
DA:405,86
DA:406,86
DA:407,86
end_of_record
SF:/usr/include/c++/9/bits/functional_hash.h
DA:195,5627020
DA:197,5627020
end_of_record
SF:/usr/include/c++/9/utility
DA:174,19731
DA:175,19731
DA:219,19731
DA:220,19731
end_of_record
SF:/usr/include/c++/9/bits/alloc_traits.h
DA:443,5020
DA:444,5020
DA:469,5423580
DA:470,5423580
DA:482,5020
DA:484,5020
DA:514,5133
DA:515,5133
DA:545,6206
DA:546,6206
DA:553,6206
DA:557,6206
end_of_record
SF:/usr/include/c++/9/bits/stl_iterator_base_funcs.h
DA:98,5632040
DA:104,5632040
DA:138,5632040
DA:141,5632040
end_of_record
SF:/usr/include/c++/9/bits/char_traits.h
DA:299,5637060
DA:300,5020
DA:315,14532
DA:317,14532
DA:325,14532
DA:361,5632040
DA:363,5632040
DA:365,5632040
end_of_record
SF:/usr/include/c++/9/ext/new_allocator.h
DA:80,5633410
DA:83,10153
DA:89,5632450
DA:102,5020
DA:104,5020
DA:114,5020
DA:119,5423580
DA:128,5423580
DA:132,5020
DA:144,5020
DA:147,5020
end_of_record
SF:/usr/include/c++/9/ext/alloc_traits.h
DA:97,5133
DA:98,5133
end_of_record
SF:/usr/include/c++/9/bits/stl_pair.h
DA:208,10266
DA:303,113
DA:304,5020
DA:341,10040
DA:342,10040
DA:524,5020
DA:529,5020
end_of_record
SF:/usr/include/c++/9/new
DA:173,5020
DA:174,5020
end_of_record
SF:/usr/include/c++/9/ext/aligned_buffer.h
DA:102,39396
DA:104,24864
DA:114,39396
DA:115,39396
end_of_record
SF:/usr/include/c++/9/bits/allocator.h
DA:138,5633230
DA:141,10153
DA:142,10153
DA:151,179
DA:153,5632450
end_of_record
SF:/usr/include/c++/9/bits/move.h
DA:47,5647510
DA:74,39811
DA:99,33791
DA:138,5647510
DA:139,5642490
end_of_record
SF:/usr/include/c++/9/bits/basic_string.h
FN:6149,_ZSteqIcEN9__gnu_cxx11__enable_ifIXsrSt9__is_charIT_E7__valueEbE6__typeERKNSt7__cxx1112basic_stringIS3_St11char_traitsIS3_ESaIS3_EEESE_
FNDA:14532,_ZSteqIcEN9__gnu_cxx11__enable_ifIXsrSt9__is_charIT_E7__valueEbE6__typeERKNSt7__cxx1112basic_stringIS3_St11char_traitsIS3_ESaIS3_EEESE_
DA:150,5632150
DA:159,5133
DA:160,10153
DA:178,5438350
DA:179,5428310
DA:182,5637060
DA:183,5637060
DA:186,27981400
DA:190,15173
DA:193,10153
DA:200,5637170
DA:203,5637170
DA:210,5433330
DA:211,5428310
DA:214,5637060
DA:216,5637060
DA:217,5637060
DA:221,5637170
DA:222,5637170
DA:229,5632150
DA:231,5632150
DA:232,11055600
DA:236,5423400
DA:237,5423400
DA:243,5133
DA:247,5133
DA:263,5133
DA:266,10266
DA:286,5428420
DA:287,5423400
DA:290,5133
DA:291,5133
DA:346,5632040
DA:348,5632040
DA:349,0
DA:351,5632040
DA:392,5020
DA:393,5020
DA:396,5627020
DA:398,5627020
DA:448,5133
DA:450,5133
DA:451,5133
DA:552,5020
DA:553,5020
DA:555,5020
DA:557,0
DA:562,5020
DA:563,5020
DA:569,5020
DA:570,5020
DA:571,5020
DA:657,5632150
DA:658,5627130
DA:930,29064
DA:936,10153
DA:2312,5641550
DA:2313,5641550
DA:6149,14532
DA:6151,14532
DA:6152,14532
DA:6153,14532
DA:6734,5627020
DA:6735,5627020
end_of_record
SF:/usr/include/c++/9/ext/type_traits.h
DA:152,5632040
end_of_record
SF:/usr/include/c++/9/iostream
end_of_record
SF:/usr/include/c++/9/bits/hashtable.h
FN:1176,_ZNSt10_HashtableINSt7__cxx1112basic_stringIcSt11char_traitsIcESaIcEEESt4pairIKS5_P15implicit_memoryESaISA_ENSt8__detail10_Select1stESt8equal_toIS5_ESt4hashIS5_ENSC_18_Mod_range_hashingENSC_20_Default_ranged_hashENSC_20_Prime_rehash_policyENSC_17_Hashtable_traitsILb1ELb0ELb1EEEE14_M_move_assignEOSN_St17integral_constantIbLb1EE
FNDA:6206,_ZNSt10_HashtableINSt7__cxx1112basic_stringIcSt11char_traitsIcESaIcEEESt4pairIKS5_P15implicit_memoryESaISA_ENSt8__detail10_Select1stESt8equal_toIS5_ESt4hashIS5_ENSC_18_Mod_range_hashingENSC_20_Default_ranged_hashENSC_20_Prime_rehash_policyENSC_17_Hashtable_traitsILb1ELb0ELb1EEEE14_M_move_assignEOSN_St17integral_constantIbLb1EE
FN:1348,_ZNSt10_HashtableINSt7__cxx1112basic_stringIcSt11char_traitsIcESaIcEEESt4pairIKS5_P15implicit_memoryESaISA_ENSt8__detail10_Select1stESt8equal_toIS5_ESt4hashIS5_ENSC_18_Mod_range_hashingENSC_20_Default_ranged_hashENSC_20_Prime_rehash_policyENSC_17_Hashtable_traitsILb1ELb0ELb1EEEED2Ev
FNDA:18232,_ZNSt10_HashtableINSt7__cxx1112basic_stringIcSt11char_traitsIcESaIcEEESt4pairIKS5_P15implicit_memoryESaISA_ENSt8__detail10_Select1stESt8equal_toIS5_ESt4hashIS5_ENSC_18_Mod_range_hashingENSC_20_Default_ranged_hashENSC_20_Prime_rehash_policyENSC_17_Hashtable_traitsILb1ELb0ELb1EEEED2Ev
FN:1412,_ZNSt10_HashtableINSt7__cxx1112basic_stringIcSt11char_traitsIcESaIcEEESt4pairIKS5_P15implicit_memoryESaISA_ENSt8__detail10_Select1stESt8equal_toIS5_ESt4hashIS5_ENSC_18_Mod_range_hashingENSC_20_Default_ranged_hashENSC_20_Prime_rehash_policyENSC_17_Hashtable_traitsILb1ELb0ELb1EEEE4findERS7_
FNDA:5622000,_ZNSt10_HashtableINSt7__cxx1112basic_stringIcSt11char_traitsIcESaIcEEESt4pairIKS5_P15implicit_memoryESaISA_ENSt8__detail10_Select1stESt8equal_toIS5_ESt4hashIS5_ENSC_18_Mod_range_hashingENSC_20_Default_ranged_hashENSC_20_Prime_rehash_policyENSC_17_Hashtable_traitsILb1ELb0ELb1EEEE4findERS7_
FN:1532,_ZNKSt10_HashtableINSt7__cxx1112basic_stringIcSt11char_traitsIcESaIcEEESt4pairIKS5_P15implicit_memoryESaISA_ENSt8__detail10_Select1stESt8equal_toIS5_ESt4hashIS5_ENSC_18_Mod_range_hashingENSC_20_Default_ranged_hashENSC_20_Prime_rehash_policyENSC_17_Hashtable_traitsILb1ELb0ELb1EEEE19_M_find_before_nodeEmRS7_m
FNDA:5627020,_ZNKSt10_HashtableINSt7__cxx1112basic_stringIcSt11char_traitsIcESaIcEEESt4pairIKS5_P15implicit_memoryESaISA_ENSt8__detail10_Select1stESt8equal_toIS5_ESt4hashIS5_ENSC_18_Mod_range_hashingENSC_20_Default_ranged_hashENSC_20_Prime_rehash_policyENSC_17_Hashtable_traitsILb1ELb0ELb1EEEE19_M_find_before_nodeEmRS7_m
FN:1560,_ZNSt10_HashtableINSt7__cxx1112basic_stringIcSt11char_traitsIcESaIcEEESt4pairIKS5_P15implicit_memoryESaISA_ENSt8__detail10_Select1stESt8equal_toIS5_ESt4hashIS5_ENSC_18_Mod_range_hashingENSC_20_Default_ranged_hashENSC_20_Prime_rehash_policyENSC_17_Hashtable_traitsILb1ELb0ELb1EEEE22_M_insert_bucket_beginEmPNSC_10_Hash_nodeISA_Lb1EEE
FNDA:5020,_ZNSt10_HashtableINSt7__cxx1112basic_stringIcSt11char_traitsIcESaIcEEESt4pairIKS5_P15implicit_memoryESaISA_ENSt8__detail10_Select1stESt8equal_toIS5_ESt4hashIS5_ENSC_18_Mod_range_hashingENSC_20_Default_ranged_hashENSC_20_Prime_rehash_policyENSC_17_Hashtable_traitsILb1ELb0ELb1EEEE22_M_insert_bucket_beginEmPNSC_10_Hash_nodeISA_Lb1EEE
FN:1632,_ZNSt10_HashtableINSt7__cxx1112basic_stringIcSt11char_traitsIcESaIcEEESt4pairIKS5_P15implicit_memoryESaISA_ENSt8__detail10_Select1stESt8equal_toIS5_ESt4hashIS5_ENSC_18_Mod_range_hashingENSC_20_Default_ranged_hashENSC_20_Prime_rehash_policyENSC_17_Hashtable_traitsILb1ELb0ELb1EEEE10_M_emplaceIJSA_EEES6_INSC_14_Node_iteratorISA_Lb0ELb1EEEbESt17integral_constantIbLb1EEDpOT_
FNDA:5020,_ZNSt10_HashtableINSt7__cxx1112basic_stringIcSt11char_traitsIcESaIcEEESt4pairIKS5_P15implicit_memoryESaISA_ENSt8__detail10_Select1stESt8equal_toIS5_ESt4hashIS5_ENSC_18_Mod_range_hashingENSC_20_Default_ranged_hashENSC_20_Prime_rehash_policyENSC_17_Hashtable_traitsILb1ELb0ELb1EEEE10_M_emplaceIJSA_EEES6_INSC_14_Node_iteratorISA_Lb0ELb1EEEbESt17integral_constantIbLb1EEDpOT_
FN:1698,_ZNSt10_HashtableINSt7__cxx1112basic_stringIcSt11char_traitsIcESaIcEEESt4pairIKS5_P15implicit_memoryESaISA_ENSt8__detail10_Select1stESt8equal_toIS5_ESt4hashIS5_ENSC_18_Mod_range_hashingENSC_20_Default_ranged_hashENSC_20_Prime_rehash_policyENSC_17_Hashtable_traitsILb1ELb0ELb1EEEE21_M_insert_unique_nodeEmmPNSC_10_Hash_nodeISA_Lb1EEEm
FNDA:5020,_ZNSt10_HashtableINSt7__cxx1112basic_stringIcSt11char_traitsIcESaIcEEESt4pairIKS5_P15implicit_memoryESaISA_ENSt8__detail10_Select1stESt8equal_toIS5_ESt4hashIS5_ENSC_18_Mod_range_hashingENSC_20_Default_ranged_hashENSC_20_Prime_rehash_policyENSC_17_Hashtable_traitsILb1ELb0ELb1EEEE21_M_insert_unique_nodeEmmPNSC_10_Hash_nodeISA_Lb1EEEm
FN:2024,_ZNSt10_HashtableINSt7__cxx1112basic_stringIcSt11char_traitsIcESaIcEEESt4pairIKS5_P15implicit_memoryESaISA_ENSt8__detail10_Select1stESt8equal_toIS5_ESt4hashIS5_ENSC_18_Mod_range_hashingENSC_20_Default_ranged_hashENSC_20_Prime_rehash_policyENSC_17_Hashtable_traitsILb1ELb0ELb1EEEE5clearEv
FNDA:24438,_ZNSt10_HashtableINSt7__cxx1112basic_stringIcSt11char_traitsIcESaIcEEESt4pairIKS5_P15implicit_memoryESaISA_ENSt8__detail10_Select1stESt8equal_toIS5_ESt4hashIS5_ENSC_18_Mod_range_hashingENSC_20_Default_ranged_hashENSC_20_Prime_rehash_policyENSC_17_Hashtable_traitsILb1ELb0ELb1EEEE5clearEv
FN:2061,_ZNSt10_HashtableINSt7__cxx1112basic_stringIcSt11char_traitsIcESaIcEEESt4pairIKS5_P15implicit_memoryESaISA_ENSt8__detail10_Select1stESt8equal_toIS5_ESt4hashIS5_ENSC_18_Mod_range_hashingENSC_20_Default_ranged_hashENSC_20_Prime_rehash_policyENSC_17_Hashtable_traitsILb1ELb0ELb1EEEE9_M_rehashEmRKm
FNDA:179,_ZNSt10_HashtableINSt7__cxx1112basic_stringIcSt11char_traitsIcESaIcEEESt4pairIKS5_P15implicit_memoryESaISA_ENSt8__detail10_Select1stESt8equal_toIS5_ESt4hashIS5_ENSC_18_Mod_range_hashingENSC_20_Default_ranged_hashENSC_20_Prime_rehash_policyENSC_17_Hashtable_traitsILb1ELb0ELb1EEEE9_M_rehashEmRKm
FN:2084,_ZNSt10_HashtableINSt7__cxx1112basic_stringIcSt11char_traitsIcESaIcEEESt4pairIKS5_P15implicit_memoryESaISA_ENSt8__detail10_Select1stESt8equal_toIS5_ESt4hashIS5_ENSC_18_Mod_range_hashingENSC_20_Default_ranged_hashENSC_20_Prime_rehash_policyENSC_17_Hashtable_traitsILb1ELb0ELb1EEEE13_M_rehash_auxEmSt17integral_constantIbLb1EE
FNDA:179,_ZNSt10_HashtableINSt7__cxx1112basic_stringIcSt11char_traitsIcESaIcEEESt4pairIKS5_P15implicit_memoryESaISA_ENSt8__detail10_Select1stESt8equal_toIS5_ESt4hashIS5_ENSC_18_Mod_range_hashingENSC_20_Default_ranged_hashENSC_20_Prime_rehash_policyENSC_17_Hashtable_traitsILb1ELb0ELb1EEEE13_M_rehash_auxEmSt17integral_constantIbLb1EE
DA:342,30823
DA:343,30823
DA:346,6206
DA:347,6206
DA:353,179
DA:355,179
DA:357,0
DA:358,0
DA:361,179
DA:365,24617
DA:367,24617
DA:370,179
DA:374,24617
DA:375,179
DA:383,37076
DA:414,6206
DA:473,6206
DA:478,6206
DA:481,6206
DA:504,47
DA:505,47
DA:512,5622000
DA:513,11229500
DA:528,3103
DA:532,3103
DA:533,3103
DA:639,36968
DA:640,36968
DA:643,5627200
DA:644,179
DA:652,5627020
DA:655,5627020
DA:656,5627020
DA:657,14532
DA:1159,6206
DA:1163,6206
DA:1164,6206
DA:1165,6206
DA:1166,6206
DA:1167,6206
DA:1168,6206
DA:1176,6206
DA:1180,12412
DA:1181,6206
DA:1182,6206
DA:1183,6206
DA:1184,6206
DA:1185,0
DA:1188,6206
DA:1189,6206
DA:1191,6206
DA:1192,6206
DA:1193,6206
DA:1194,6206
DA:1198,6206
DA:1199,0
DA:1200,6206
DA:1201,6206
DA:1348,18232
DA:1352,18232
DA:1353,18232
DA:1354,18232
DA:1412,5622000
DA:1417,5622000
DA:1418,5622000
DA:1419,5622000
DA:1420,5622000
DA:1532,5627020
DA:1538,5627020
DA:1539,5627020
DA:1542,38680
DA:1545,49372
DA:1546,14532
DA:1548,34840
DA:1560,5020
DA:1564,5020
DA:1568,2334
DA:1569,2334
DA:1576,2686
DA:1577,2686
DA:1578,2686
DA:1581,2592
DA:1582,2686
DA:1584,5020
DA:1632,5020
DA:1638,5020
DA:1639,5020
DA:1643,5020
DA:1651,5020
DA:1652,0
DA:1655,0
DA:1656,0
DA:1660,5020
DA:1698,5020
DA:1704,5020
DA:1705,5020
DA:1711,5020
DA:1713,179
DA:1714,179
DA:1717,5020
DA:1720,5020
DA:1721,5020
DA:1722,5020
DA:1724,0
DA:1726,0
DA:1727,0
DA:2024,24438
DA:2028,24438
DA:2029,24438
DA:2030,24438
DA:2031,24438
DA:2032,24438
DA:2061,179
DA:2067,179
DA:2069,0
DA:2073,0
DA:2074,0
DA:2076,179
DA:2084,179
DA:2088,179
DA:2089,179
DA:2090,179
DA:2091,179
DA:2092,6584
DA:2094,6405
DA:2095,6405
DA:2096,6405
DA:2098,5119
DA:2099,5119
DA:2100,5119
DA:2101,5119
DA:2102,5034
DA:2107,1286
DA:2108,1286
DA:2113,179
DA:2114,179
DA:2115,179
DA:2116,179
end_of_record
SF:/usr/include/c++/9/bits/ptr_traits.h
DA:146,5642490
DA:147,5642490
DA:156,5020
end_of_record
SF:/usr/include/c++/9/bits/basic_string.tcc
FN:206,_ZNSt7__cxx1112basic_stringIcSt11char_traitsIcESaIcEE12_M_constructIPcEEvT_S7_St20forward_iterator_tag
FNDA:5020,_ZNSt7__cxx1112basic_stringIcSt11char_traitsIcESaIcEE12_M_constructIPcEEvT_S7_St20forward_iterator_tag
FN:206,_ZNSt7__cxx1112basic_stringIcSt11char_traitsIcESaIcEE12_M_constructIPKcEEvT_S8_St20forward_iterator_tag
FNDA:5627020,_ZNSt7__cxx1112basic_stringIcSt11char_traitsIcESaIcEE12_M_constructIPKcEEvT_S8_St20forward_iterator_tag
DA:206,5020
DA:211,5020
DA:212,0
DA:215,5020
DA:217,5020
DA:219,5020
DA:220,5020
DA:225,5020
DA:232,5020
DA:233,5020
DA:206,5627020
DA:211,5627020
DA:212,0
DA:215,5627020
DA:217,5627020
DA:219,5423290
DA:220,5423290
DA:225,5627020
DA:232,5627020
DA:233,5627020
end_of_record
SF:/usr/include/c++/9/bits/stl_function.h
DA:355,14532
DA:356,14532
end_of_record
TN:
SF:/workspace/vtr-verilog-to-routing/ODIN_II/SRC/netlist_utils.cpp
FN:41,_Z14allocate_nnode5loc_t
FNDA:29729000,_Z14allocate_nnode5loc_t
FN:96,_Z10free_nnodeP7nnode_t
FNDA:12643400,_Z10free_nnodeP7nnode_t
FN:138,_Z24allocate_more_input_pinsP7nnode_ti
FNDA:63813800,_Z24allocate_more_input_pinsP7nnode_ti
FN:157,_Z25allocate_more_output_pinsP7nnode_ti
FNDA:32030600,_Z25allocate_more_output_pinsP7nnode_ti
FN:175,_Z27add_output_port_informationP7nnode_ti
FNDA:26245500,_Z27add_output_port_informationP7nnode_ti
FN:184,_Z26add_input_port_informationP7nnode_ti
FNDA:50656600,_Z26add_input_port_informationP7nnode_ti
FN:193,_Z13allocate_npinv
FNDA:125590000,_Z13allocate_npinv
FN:219,_Z9free_npinP6npin_t
FNDA:3459,_Z9free_npinP6npin_t
FN:237,_ZL9copy_npinP6npin_t
FNDA:35197300,_ZL9copy_npinP6npin_t
FN:251,_Z16copy_output_npinP6npin_t
FNDA:0,_Z16copy_output_npinP6npin_t
FN:263,_Z15copy_input_npinP6npin_t
FNDA:35197300,_Z15copy_input_npinP6npin_t
FN:276,_Z13allocate_nnetv
FNDA:29117900,_Z13allocate_nnetv
FN:297,_Z9free_nnetP6nnet_t
FNDA:3432500,_Z9free_nnetP6nnet_t
FN:315,_Z15move_output_pinP7nnode_tii
FNDA:0,_Z15move_output_pinP7nnode_tii
FN:334,_Z14move_input_pinP7nnode_tii
FNDA:417672,_Z14move_input_pinP7nnode_tii
FN:353,_Z21add_input_pin_to_nodeP7nnode_tP6npin_ti
FNDA:123746000,_Z21add_input_pin_to_nodeP7nnode_tP6npin_ti
FN:368,_Z21add_fanout_pin_to_netP6nnet_tP6npin_t
FNDA:113308000,_Z21add_fanout_pin_to_netP6nnet_tP6npin_t
FN:385,_Z22add_output_pin_to_nodeP7nnode_tP6npin_ti
FNDA:36788800,_Z22add_output_pin_to_nodeP7nnode_tP6npin_ti
FN:400,_Z21add_driver_pin_to_netP6nnet_tP6npin_t
FNDA:27008900,_Z21add_driver_pin_to_netP6nnet_tP6npin_t
FN:419,_Z12combine_netsP6nnet_tS0_P9netlist_t
FNDA:1723710,_Z12combine_netsP6nnet_tS0_P9netlist_t
FN:452,_Z27combine_nets_with_spot_copyP6nnet_tS0_lP9netlist_t
FNDA:1411840,_Z27combine_nets_with_spot_copyP6nnet_tS0_lP9netlist_t
FN:488,_Z9join_netsP6nnet_tS0_
FNDA:3422460,_Z9join_netsP6nnet_tS0_
FN:527,_Z14integrate_netsPcS_P6nnet_t
FNDA:1923780,_Z14integrate_netsPcS_P6nnet_t
FN:589,_Z20remap_pin_to_new_netP6npin_tP6nnet_t
FNDA:0,_Z20remap_pin_to_new_netP6npin_tP6nnet_t
FN:609,_Z21remap_pin_to_new_nodeP6npin_tP7nnode_ti
FNDA:51262800,_Z21remap_pin_to_new_nodeP6npin_tP7nnode_ti
FN:627,_Z13connect_nodesP7nnode_tiS0_i
FNDA:11266400,_Z13connect_nodesP7nnode_tiS0_i
FN:664,_Z16init_signal_listv
FNDA:48371700,_Z16init_signal_listv
FN:680,_Z22add_pin_to_signal_listP13signal_list_tP6npin_t
FNDA:314206000,_Z22add_pin_to_signal_listP13signal_list_tP6npin_t
FN:689,_Z13combine_listsPP13signal_list_ti
FNDA:142950,_Z13combine_listsPP13signal_list_ti
FN:716,_Z39combine_lists_without_freeing_originalsPP13signal_list_ti
FNDA:56960,_Z39combine_lists_without_freeing_originalsPP13signal_list_ti
FN:730,_Z18copy_input_signalsP13signal_list_t
FNDA:1575950,_Z18copy_input_signalsP13signal_list_t
FN:741,_Z19copy_output_signalsP13signal_list_t
FNDA:0,_Z19copy_output_signalsP13signal_list_t
FN:757,_ZL20compare_npin_t_namesPKvS0_
FNDA:68743400,_ZL20compare_npin_t_namesPKvS0_
FN:763,_Z31sort_signal_list_alphabeticallyP13signal_list_t
FNDA:231252,_Z31sort_signal_list_alphabeticallyP13signal_list_t
FN:773,_Z34make_output_pins_for_existing_nodeP7nnode_ti
FNDA:1144740,_Z34make_output_pins_for_existing_nodeP7nnode_ti
FN:804,_Z16free_signal_listP13signal_list_t
FNDA:51392000,_Z16free_signal_listP13signal_list_t
FN:816,_Z34hookup_input_pins_from_signal_listP7nnode_tiP13signal_list_tiiP9netlist_t
FNDA:575116,_Z34hookup_input_pins_from_signal_listP7nnode_tiP13signal_list_tiiP9netlist_t
FN:840,_Z37hookup_hb_input_pins_from_signal_listP7nnode_tiP13signal_list_tiiP9netlist_t
FNDA:2922,_Z37hookup_hb_input_pins_from_signal_listP7nnode_tiP13signal_list_tiiP9netlist_t
FN:861,_Z35hookup_output_pins_from_signal_listP7nnode_tiP13signal_list_tii
FNDA:204,_Z35hookup_output_pins_from_signal_listP7nnode_tiP13signal_list_tii
FN:885,_Z22count_nodes_in_netlistP9netlist_t
FNDA:0,_Z22count_nodes_in_netlistP9netlist_t
FN:907,_Z20depth_traverse_countP7nnode_tPim
FNDA:0,_Z20depth_traverse_countP7nnode_tPim
FN:943,_Z16allocate_netlistv
FNDA:6007,_Z16allocate_netlistv
FN:989,_Z12free_netlistP9netlist_t
FNDA:9116,_Z12free_netlistP9netlist_t
FN:1001,_Z19add_node_to_netlistP9netlist_tP7nnode_t14operation_list
FNDA:0,_Z19add_node_to_netlistP9netlist_tP7nnode_t14operation_list
FN:1043,_Z15mark_clock_nodeP9netlist_tPKc
FNDA:0,_Z15mark_clock_nodeP9netlist_tPKc
FN:1070,_Z33get_output_pin_index_from_mappingP7nnode_tPKc
FNDA:1159680,_Z33get_output_pin_index_from_mappingP7nnode_tPKc
FN:1085,_Z34get_output_port_index_from_mappingP7nnode_tPKc
FNDA:1161150,_Z34get_output_port_index_from_mappingP7nnode_tPKc
FN:1102,_Z32get_input_pin_index_from_mappingP7nnode_tPKc
FNDA:2319370,_Z32get_input_pin_index_from_mappingP7nnode_tPKc
FN:1117,_Z33get_input_port_index_from_mappingP7nnode_tPKc
FNDA:2845540,_Z33get_input_port_index_from_mappingP7nnode_tPKc
FN:1131,_Z19allocate_chain_infov
FNDA:29810,_Z19allocate_chain_infov
FN:1142,_Z27remove_fanout_pins_from_netP6nnet_tP6npin_ti
FNDA:148331,_Z27remove_fanout_pins_from_netP6nnet_tP6npin_ti
DA:41,29729000
DA:42,29729000
DA:44,29729000
DA:45,29729000
DA:46,29729000
DA:47,29729000
DA:48,29729000
DA:49,29729000
DA:51,29729000
DA:52,29729000
DA:53,29729000
DA:54,29729000
DA:56,29729000
DA:57,29729000
DA:58,29729000
DA:59,29729000
DA:61,29729000
DA:62,29729000
DA:64,29729000
DA:65,29729000
DA:66,29729000
DA:67,29729000
DA:69,29729000
DA:71,29729000
DA:73,29729000
DA:75,29729000
DA:76,29729000
DA:78,29729000
DA:80,29729000
DA:81,29729000
DA:83,29729000
DA:84,29729000
DA:86,29729000
DA:88,29729000
DA:90,29729000
DA:96,12643400
DA:97,12643400
DA:100,45033000
DA:101,39918900
DA:102,185101
DA:103,185101
DA:105,39918900
DA:108,5114130
DA:110,17115500
DA:111,12001400
DA:112,0
DA:113,0
DA:115,12001400
DA:118,5114130
DA:120,5114130
DA:121,5114130
DA:122,5114130
DA:124,5114130
DA:125,4848940
DA:126,4848940
DA:131,12643400
DA:138,63813800
DA:139,63813800
DA:141,63813800
DA:142,0
DA:143,0
DA:146,63813800
DA:147,186505000
DA:148,122691000
DA:150,63813800
DA:157,32030600
DA:158,32030600
DA:160,32030600
DA:161,0
DA:162,0
DA:165,32030600
DA:166,69299800
DA:167,37269200
DA:169,32030600
DA:175,26245500
DA:176,26245500
DA:177,26245500
DA:178,26245500
DA:179,26245500
DA:184,50656600
DA:185,50656600
DA:186,50656600
DA:187,50656600
DA:188,50656600
DA:193,125590000
DA:194,125590000
DA:196,125590000
DA:198,125590000
DA:199,125590000
DA:200,125590000
DA:201,125590000
DA:202,125590000
DA:203,125590000
DA:204,125590000
DA:206,125590000
DA:208,125590000
DA:210,125590000
DA:211,125590000
DA:213,125590000
DA:219,3459
DA:220,3459
DA:221,3459
DA:222,0
DA:224,3459
DA:228,3459
DA:237,35197300
DA:238,35197300
DA:239,35197300
DA:240,35197300
DA:241,35197300
DA:242,35197300
DA:244,35197300
DA:251,0
DA:252,0
DA:253,0
DA:254,0
DA:256,0
DA:263,35197300
DA:264,35197300
DA:265,35197300
DA:266,35197300
DA:267,35197300
DA:270,35197300
DA:276,29117900
DA:277,29117900
DA:279,29117900
DA:280,29117900
DA:281,29117900
DA:282,29117900
DA:283,29117900
DA:284,29117900
DA:286,29117900
DA:287,29117900
DA:289,29117900
DA:291,29117900
DA:297,3432500
DA:298,3432500
DA:299,3422460
DA:301,3422460
DA:302,3422460
DA:304,3422460
DA:305,1446030
DA:309,3432500
DA:315,0
DA:316,0
DA:318,0
DA:319,0
DA:320,0
DA:322,0
DA:323,0
DA:324,0
DA:326,0
DA:327,0
DA:328,0
DA:329,0
DA:334,417672
DA:335,417672
DA:337,417672
DA:338,417672
DA:339,417672
DA:341,417672
DA:342,417672
DA:343,417672
DA:345,417672
DA:346,417672
DA:347,417672
DA:348,417672
DA:353,123746000
DA:354,123746000
DA:355,123746000
DA:356,123746000
DA:358,123746000
DA:360,123746000
DA:361,123746000
DA:362,123746000
DA:363,123746000
DA:368,113308000
DA:369,113308000
DA:370,113308000
DA:371,113308000
DA:373,113308000
DA:374,113308000
DA:375,113308000
DA:377,113308000
DA:378,113308000
DA:379,113308000
DA:380,113308000
DA:385,36788800
DA:386,36788800
DA:387,36788800
DA:388,36788800
DA:390,36788800
DA:392,36788800
DA:393,36788800
DA:394,36788800
DA:395,36788800
DA:400,27008900
DA:401,27008900
DA:402,27008900
DA:403,27008900
DA:405,27008900
DA:406,27008900
DA:407,27008900
DA:409,27008900
DA:410,27008900
DA:411,27008900
DA:419,1723710
DA:421,3134960
DA:423,1411250
DA:426,1723710
DA:428,1723710
DA:431,1723710
DA:432,1723710
DA:435,1723710
DA:436,0
DA:437,1723710
DA:438,0
DA:442,1723710
DA:443,1723710
DA:452,1411840
DA:453,1411840
DA:454,1411840
DA:455,1411840
DA:458,204777000000
DA:459,204775000000
DA:460,584660
DA:461,584660
DA:462,584660
DA:466,1411840
DA:467,1411840
DA:469,1411840
DA:472,1996500
DA:473,584660
DA:474,584660
DA:476,584660
DA:477,583880
DA:480,1411840
DA:481,1411840
DA:488,3422460
DA:489,3422460
DA:490,0
DA:491,0
DA:492,0
DA:493,0
DA:495,0
DA:497,0
DA:498,0
DA:499,0
DA:500,0
DA:502,0
DA:505,0
DA:506,3422460
DA:507,0
DA:508,0
DA:510,0
DA:514,17113600
DA:515,13691100
DA:516,13425500
DA:519,3422460
DA:527,1923780
DA:528,1923780
DA:529,1923780
DA:530,1923780
DA:532,1923780
DA:533,1923780
DA:536,1923780
DA:537,999
DA:538,999
DA:539,999
DA:540,1922780
DA:541,21817
DA:542,21817
DA:543,21817
DA:546,1900970
DA:548,352131
DA:550,144860
DA:552,144860
DA:554,124868
DA:557,19992
DA:558,19992
DA:559,19992
DA:561,19992
DA:562,19992
DA:566,207271
DA:567,207271
DA:571,1548840
DA:572,1548840
DA:574,1548840
DA:576,137000
DA:577,137000
DA:579,137000
DA:580,1411840
DA:582,1411840
DA:585,1923780
DA:589,0
DA:590,0
DA:592,0
DA:594,0
DA:595,0
DA:597,0
DA:598,0
DA:599,0
DA:600,0
DA:602,0
DA:604,0
DA:609,51262800
DA:610,51262800
DA:612,40152500
DA:614,40152500
DA:615,11110300
DA:617,11110300
DA:619,11110300
DA:621,51262800
DA:627,11266400
DA:628,11266400
DA:630,11266400
DA:631,11266400
DA:633,11266400
DA:636,11266400
DA:638,11266400
DA:640,9792680
DA:641,9792680
DA:642,9792680
DA:643,9792680
DA:645,9792680
DA:647,9792680
DA:649,9792680
DA:651,9792680
DA:655,1473700
DA:657,11266400
DA:664,51149400
DA:665,51149400
DA:666,48371700
DA:668,51149400
DA:669,51149400
DA:670,51149400
DA:671,51149400
DA:673,51149400
DA:680,314206000
DA:681,314206000
DA:682,314206000
DA:683,314206000
DA:684,314206000
DA:689,142950
DA:690,142950
DA:691,293439
DA:692,150489
DA:694,3223670
DA:697,10604300000
DA:698,10601200000
DA:699,646
DA:702,3073470
DA:703,3072820
DA:706,150199
DA:710,142950
DA:716,56960
DA:717,56960
DA:719,56960
DA:720,243250
DA:721,186290
DA:722,186290
DA:723,6693350
DA:724,6507060
DA:727,56960
DA:730,1575950
DA:731,1575950
DA:732,1575950
DA:733,11565300
DA:734,9989370
DA:735,9989370
DA:736,9989370
DA:738,1575950
DA:741,0
DA:742,0
DA:743,0
DA:744,0
DA:745,0
DA:746,0
DA:748,0
DA:757,68743400
DA:758,68743400
DA:759,68743400
DA:760,68743400
DA:763,231252
DA:764,231252
DA:765,231252
DA:766,231252
DA:773,1144740
DA:774,1144740
DA:775,1144740
DA:777,1144740
DA:779,2289490
DA:780,1144740
DA:781,1144740
DA:782,1144740
DA:783,1144740
DA:784,1144740
DA:785,1144740
DA:786,1144740
DA:788,1144740
DA:790,1144740
DA:792,1144740
DA:795,1144740
DA:798,1144740
DA:804,51392000
DA:805,51392000
DA:806,51149400
DA:807,51149400
DA:809,51392000
DA:810,51392000
DA:816,575116
DA:817,575116
DA:819,4652280
DA:820,4077160
DA:821,3949110
DA:822,3949110
DA:823,3949110
DA:827,128049
DA:829,128049
DA:830,0
DA:833,575116
DA:840,2922
DA:841,2922
DA:843,120456
DA:844,117534
DA:845,117534
DA:846,117534
DA:849,0
DA:851,0
DA:852,0
DA:855,2922
DA:861,204
DA:862,204
DA:863,204
DA:865,408
DA:866,204
DA:869,204
DA:871,204
DA:873,0
DA:877,204
DA:879,204
DA:885,0
DA:886,0
DA:887,0
DA:890,0
DA:891,0
DA:892,0
DA:895,0
DA:896,0
DA:897,0
DA:901,0
DA:907,0
DA:908,0
DA:909,0
DA:910,0
DA:912,0
DA:916,0
DA:919,0
DA:921,0
DA:922,0
DA:923,0
DA:925,0
DA:926,0
DA:927,0
DA:928,0
DA:929,0
DA:930,0
DA:931,0
DA:934,0
DA:943,6007
DA:944,6007
DA:946,6007
DA:948,6007
DA:949,6007
DA:950,6007
DA:951,6007
DA:952,6007
DA:953,6007
DA:954,6007
DA:955,6007
DA:956,6007
DA:957,6007
DA:958,6007
DA:959,6007
DA:960,6007
DA:961,6007
DA:962,6007
DA:963,6007
DA:965,6007
DA:966,6007
DA:967,6007
DA:968,6007
DA:969,6007
DA:970,6007
DA:971,6007
DA:972,6007
DA:973,6007
DA:974,6007
DA:975,6007
DA:976,6007
DA:979,6007
DA:980,6007
DA:981,6007
DA:983,6007
DA:989,9116
DA:990,9116
DA:993,6007
DA:994,6007
DA:995,6007
DA:1001,0
DA:1002,0
DA:1005,0
DA:1007,0
DA:1008,0
DA:1009,0
DA:1011,0
DA:1014,0
DA:1017,0
DA:1018,0
DA:1019,0
DA:1020,0
DA:1022,0
DA:1023,0
DA:1024,0
DA:1025,0
DA:1026,0
DA:1027,0
DA:1028,0
DA:1029,0
DA:1030,0
DA:1031,0
DA:1032,0
DA:1034,0
DA:1035,0
DA:1036,0
DA:1038,0
DA:1043,0
DA:1046,0
DA:1047,0
DA:1048,0
DA:1051,0
DA:1052,0
DA:1054,0
DA:1055,0
DA:1056,0
DA:1058,0
DA:1059,0
DA:1060,0
DA:1063,0
DA:1064,0
DA:1070,1159680
DA:1071,1159680
DA:1072,1210640
DA:1073,1210640
DA:1074,1210640
DA:1075,1159680
DA:1085,1161150
DA:1086,1161150
DA:1087,1161150
DA:1088,1212840
DA:1090,1314760
DA:1091,1263070
DA:1092,1263070
DA:1093,1161150
DA:1102,2319370
DA:1103,2319370
DA:1104,20084900
DA:1105,20084900
DA:1106,20084900
DA:1107,2319370
DA:1117,2845540
DA:1118,2845540
DA:1119,2845540
DA:1120,5221820
DA:1122,30937100
DA:1123,28560800
DA:1124,28560800
DA:1125,2845540
DA:1131,29810
DA:1132,29810
DA:1134,29810
DA:1136,29810
DA:1137,29810
DA:1139,29810
DA:1142,148331
DA:1143,148331
DA:1144,27664300000
DA:1145,27664100000
DA:1146,27664100000
DA:1147,27664100000
DA:1149,148331
DA:1150,148331
DA:1151,148331
end_of_record
SF:/usr/include/string.h
DA:317,3846560
DA:319,1923780
end_of_record
SF:/usr/include/x86_64-linux-gnu/c++/9/bits/gthr-default.h
DA:248,0
DA:250,0
DA:252,0
end_of_record
SF:/usr/include/c++/9/bits/shared_ptr.h
DA:103,125590000
DA:127,125590000
DA:307,125590000
DA:333,125590000
DA:335,125590000
end_of_record
SF:/workspace/vtr-verilog-to-routing/libs/EXTERNAL/libargparse/src/argparse_value.hpp
DA:50,128049
end_of_record
SF:/usr/include/c++/9/ext/atomicity.h
DA:48,0
DA:49,0
DA:65,0
DA:67,0
DA:68,0
DA:69,0
DA:78,0
DA:81,0
DA:82,0
DA:84,0
end_of_record
SF:/usr/include/c++/9/bits/shared_ptr_base.h
FN:131,_ZNSt16_Sp_counted_baseILN9__gnu_cxx12_Lock_policyE2EE10_M_destroyEv
FNDA:0,_ZNSt16_Sp_counted_baseILN9__gnu_cxx12_Lock_policyE2EE10_M_destroyEv
FN:148,_ZNSt16_Sp_counted_baseILN9__gnu_cxx12_Lock_policyE2EE10_M_releaseEv
FNDA:0,_ZNSt16_Sp_counted_baseILN9__gnu_cxx12_Lock_policyE2EE10_M_releaseEv
FN:404,_ZNSt15_Sp_counted_ptrIDnLN9__gnu_cxx12_Lock_policyE2EE10_M_disposeEv
FNDA:0,_ZNSt15_Sp_counted_ptrIDnLN9__gnu_cxx12_Lock_policyE2EE10_M_disposeEv
DA:131,0
DA:132,0
DA:148,0
DA:152,0
DA:155,0
DA:167,0
DA:171,0
DA:174,0
DA:404,0
DA:616,125590000
DA:727,251179000
DA:729,125590000
DA:730,0
DA:756,125590000
DA:758,125590000
DA:759,125590000
DA:1118,125590000
DA:1119,125590000
DA:1169,251179000
DA:1176,125590000
DA:1177,125590000
DA:1179,125590000
DA:1263,125590000
DA:1265,251179000
DA:1324,125590000
DA:1326,125590000
DA:1327,125590000
end_of_record
SF:/usr/include/c++/9/iostream
end_of_record
SF:/usr/include/c++/9/bits/move.h
DA:99,125590000
DA:182,125590000
DA:193,125590000
DA:194,125590000
DA:195,125590000
end_of_record
TN:
SF:/usr/include/c++/9/ext/new_allocator.h
DA:80,35692
DA:83,71384
DA:89,71384
DA:119,35692
DA:128,35692
end_of_record
SF:/usr/include/c++/9/bits/char_traits.h
DA:299,107076
DA:300,0
DA:361,36971
DA:363,35692
DA:365,36971
end_of_record
SF:/usr/include/c++/9/bits/stl_algobase.h
DA:198,52373600
DA:203,52373600
DA:204,12632600
DA:222,96368000
DA:227,96368000
DA:228,18298500
end_of_record
SF:/workspace/vtr-verilog-to-routing/ODIN_II/SRC/netlist_statistic.cpp
FN:42,_Z9init_statP9netlist_t
FNDA:6191,_Z9init_statP9netlist_t
FN:72,_Z25mixing_optimization_statsP7nnode_tP9netlist_t
FNDA:184,_Z25mixing_optimization_statsP7nnode_tP9netlist_t
FN:111,_ZL9aggregateP8metric_tPS0_x
FNDA:42503900,_ZL9aggregateP8metric_tPS0_x
FN:162,_ZL15count_node_type14operation_listP7nnode_tP9netlist_t
FNDA:20965100,_ZL15count_node_type14operation_listP7nnode_tP9netlist_t
FN:226,_ZL15get_upward_statP6nnet_tP9netlist_tm
FNDA:74508600,_ZL15get_upward_statP6nnet_tP9netlist_tm
FN:246,_ZL15get_upward_statP7nnode_tP9netlist_tm
FNDA:21834200,_ZL15get_upward_statP7nnode_tP9netlist_tm
FN:271,_ZL17get_downward_statP6nnet_tP9netlist_tm
FNDA:11472,_ZL17get_downward_statP6nnet_tP9netlist_tm
FN:293,_ZL17get_downward_statP7nnode_tP9netlist_tm
FNDA:14520,_ZL17get_downward_statP7nnode_tP9netlist_tm
FN:318,_ZL17get_downward_statP8metric_tP13signal_list_tP9netlist_tm
FNDA:0,_ZL17get_downward_statP8metric_tP13signal_list_tP9netlist_tm
FN:341,_ZL15get_upward_statP8metric_tP13signal_list_tP9netlist_tm
FNDA:0,_ZL15get_upward_statP8metric_tP13signal_list_tP9netlist_tm
FN:365,_ZL15get_upward_statP8metric_tPP7nnode_txP9netlist_tm
FNDA:6007,_ZL15get_upward_statP8metric_tPP7nnode_txP9netlist_tm
FN:380,_ZL17get_downward_statP8metric_tPP7nnode_txP9netlist_tm
FNDA:0,_ZL17get_downward_statP8metric_tPP7nnode_txP9netlist_tm
FN:395,_ZL15get_upward_statP8metric_tPP6nnet_txP9netlist_tm
FNDA:0,_ZL15get_upward_statP8metric_tPP6nnet_txP9netlist_tm
FN:410,_ZL17get_downward_statP8metric_tPP6nnet_txP9netlist_tm
FNDA:0,_ZL17get_downward_statP8metric_tPP6nnet_txP9netlist_tm
FN:425,_Z9get_statsP7nnode_tP9netlist_tm
FNDA:184,_Z9get_statsP7nnode_tP9netlist_tm
FN:432,_Z9get_statsP6nnet_tP9netlist_tm
FNDA:0,_Z9get_statsP6nnet_tP9netlist_tm
FN:439,_Z9get_statsP13signal_list_tS0_P9netlist_tm
FNDA:0,_Z9get_statsP13signal_list_tS0_P9netlist_tm
FN:448,_Z9get_statsPP7nnode_txP9netlist_tm
FNDA:0,_Z9get_statsPP7nnode_txP9netlist_tm
FN:455,_Z9get_statsPP6nnet_txP9netlist_tm
FNDA:0,_Z9get_statsPP6nnet_txP9netlist_tm
FN:462,_Z11delete_statP6stat_t
FNDA:0,_Z11delete_statP6stat_t
FN:476,_Z18compute_statisticsP9netlist_tb
FNDA:9116,_Z18compute_statisticsP9netlist_tb
DA:35,85146900
DA:36,85146900
DA:37,85146900
DA:38,85146900
DA:39,85146900
DA:42,6191
DA:43,334314
DA:45,328123
DA:48,6191
DA:49,1748
DA:52,6191
DA:53,1748
DA:56,6191
DA:57,1189
DA:58,1189
DA:61,6191
DA:62,6191
DA:63,6191
DA:64,6191
DA:65,6191
DA:67,6191
DA:68,6191
DA:69,6191
DA:70,6191
DA:72,184
DA:74,184
DA:77,184
DA:78,184
DA:79,184
DA:80,184
DA:81,184
DA:82,184
DA:84,0
DA:85,0
DA:86,0
DA:88,184
DA:99,368
DA:100,368
DA:101,368
DA:102,184
DA:103,368
DA:104,368
DA:105,368
DA:106,368
DA:111,42503900
DA:112,42503900
DA:113,42503900
DA:116,138874000
DA:117,96370000
DA:118,96370000
DA:119,96368000
DA:120,96368000
DA:121,43994400
DA:123,65006200
DA:125,96368000
DA:126,96368000
DA:127,96368000
DA:131,42503900
DA:132,42503600
DA:133,42503600
DA:135,42503900
DA:137,20965100
DA:138,20965100
DA:139,20965100
DA:140,20965100
DA:141,20965100
DA:142,20965100
DA:144,21848400
DA:145,21848400
DA:146,21848400
DA:147,21848400
DA:150,74520000
DA:151,74520000
DA:152,74520000
DA:153,74520000
DA:156,20958100
DA:157,20958100
DA:158,519
DA:160,20958100
DA:161,302659
DA:162,20965100
DA:163,37238100
DA:164,16057100
DA:170,16057100
DA:174,875274
DA:175,622868
DA:176,622868
DA:177,622868
DA:178,622868
DA:181,15804700
DA:183,16057100
DA:184,16057100
DA:185,16057100
DA:198,302659
DA:199,302659
DA:201,302659
DA:204,4598270
DA:205,4598270
DA:206,4598270
DA:207,4598270
DA:208,4598270
DA:209,4598270
DA:211,4598270
DA:212,4598270
DA:213,4598270
DA:215,16057100
DA:217,16057100
DA:218,16057100
DA:220,20965100
DA:222,20965100
DA:223,20965100
DA:226,74508600
DA:227,74508600
DA:228,74508600
DA:229,74508600
DA:231,74508600
DA:232,21660000
DA:234,21660000
DA:235,21658300
DA:236,43316800
DA:237,21658500
DA:238,21658300
DA:239,21658300
DA:243,74508600
DA:246,21834200
DA:247,21834200
DA:248,21834200
DA:249,21834200
DA:251,21834200
DA:252,20955900
DA:254,20955900
DA:255,20955900
DA:256,20822800
DA:257,95331400
DA:258,74508600
DA:259,74508600
DA:262,20822800
DA:263,20822800
DA:265,20955900
DA:268,21834200
DA:271,11472
DA:272,11472
DA:273,11472
DA:274,11336
DA:276,11336
DA:277,11336
DA:278,11336
DA:279,11336
DA:280,27176
DA:281,15840
DA:282,14336
DA:285,11336
DA:286,11336
DA:290,11472
DA:293,14520
DA:294,14520
DA:296,14520
DA:297,14176
DA:298,14176
DA:299,9160
DA:301,9160
DA:302,9160
DA:303,5480
DA:304,16952
DA:305,11472
DA:306,11472
DA:309,5480
DA:310,5480
DA:312,9160
DA:315,14520
DA:318,0
DA:319,0
DA:320,0
DA:321,0
DA:322,0
DA:323,0
DA:325,0
DA:326,0
DA:330,0
DA:334,0
DA:335,0
DA:338,0
DA:341,0
DA:342,0
DA:343,0
DA:344,0
DA:345,0
DA:346,0
DA:348,0
DA:349,0
DA:353,0
DA:357,0
DA:359,0
DA:362,0
DA:365,6007
DA:366,6007
DA:367,5959
DA:368,5959
DA:369,181491
DA:370,175532
DA:372,5959
DA:374,5959
DA:377,6007
DA:380,0
DA:381,0
DA:382,0
DA:383,0
DA:384,0
DA:385,0
DA:387,0
DA:389,0
DA:392,0
DA:395,0
DA:396,0
DA:397,0
DA:398,0
DA:399,0
DA:400,0
DA:402,0
DA:404,0
DA:407,0
DA:410,0
DA:411,0
DA:412,0
DA:413,0
DA:414,0
DA:415,0
DA:417,0
DA:419,0
DA:422,0
DA:425,184
DA:426,184
DA:427,184
DA:428,184
DA:429,184
DA:432,0
DA:433,0
DA:434,0
DA:435,0
DA:436,0
DA:439,0
DA:440,0
DA:442,0
DA:444,0
DA:445,0
DA:448,0
DA:449,0
DA:450,0
DA:451,0
DA:452,0
DA:455,0
DA:456,0
DA:457,0
DA:458,0
DA:459,0
DA:462,0
DA:463,0
DA:464,0
DA:465,0
DA:467,0
DA:476,9116
DA:477,9116
DA:479,6007
DA:481,6007
DA:483,6007
DA:484,6007
DA:485,324378
DA:486,318371
DA:487,0
DA:488,71384
DA:489,71384
DA:491,35692
DA:494,6007
DA:495,6007
DA:496,6007
DA:497,6007
DA:498,6007
DA:501,9116
end_of_record
SF:/usr/include/c++/9/bits/stl_iterator_base_funcs.h
DA:98,35692
DA:104,35692
DA:138,35692
DA:141,35692
end_of_record
SF:/usr/include/c++/9/bits/alloc_traits.h
DA:469,35692
DA:470,35692
end_of_record
SF:/usr/include/c++/9/bits/basic_string.h
FN:6121,_ZStplIcSt11char_traitsIcESaIcEENSt7__cxx1112basic_stringIT_T0_T1_EEOS8_PKS5_
FNDA:71384,_ZStplIcSt11char_traitsIcESaIcEENSt7__cxx1112basic_stringIT_T0_T1_EEOS8_PKS5_
DA:150,107076
DA:159,71384
DA:160,71384
DA:178,141489
DA:179,0
DA:182,107076
DA:183,107076
DA:186,462717
DA:190,142768
DA:193,142768
DA:200,178460
DA:203,178460
DA:210,70105
DA:211,0
DA:214,107076
DA:216,107076
DA:217,107076
DA:221,178460
DA:222,178460
DA:229,107076
DA:231,71384
DA:232,142768
DA:236,35692
DA:237,35692
DA:286,107076
DA:287,35692
DA:346,35692
DA:348,35692
DA:349,0
DA:351,35692
DA:396,35692
DA:398,35692
DA:552,71384
DA:553,71384
DA:555,71384
DA:557,1279
DA:562,70105
DA:563,70105
DA:569,71384
DA:570,71384
DA:571,71384
DA:657,71384
DA:658,71384
DA:936,71384
DA:2300,35692
DA:2301,35692
DA:6121,71384
DA:6123,71384
end_of_record
SF:/usr/include/c++/9/bits/move.h
DA:47,249844
DA:99,71384
DA:138,249844
DA:139,142768
end_of_record
SF:/usr/include/c++/9/bits/basic_string.tcc
FN:206,_ZNSt7__cxx1112basic_stringIcSt11char_traitsIcESaIcEE12_M_constructIPKcEEvT_S8_St20forward_iterator_tag
FNDA:35692,_ZNSt7__cxx1112basic_stringIcSt11char_traitsIcESaIcEE12_M_constructIPKcEEvT_S8_St20forward_iterator_tag
DA:206,35692
DA:211,35692
DA:212,0
DA:215,35692
DA:217,35692
DA:219,0
DA:220,0
DA:225,35692
DA:232,35692
DA:233,35692
end_of_record
SF:/usr/include/c++/9/bits/ptr_traits.h
DA:146,142768
DA:147,142768
end_of_record
SF:/usr/include/c++/9/iostream
end_of_record
SF:/usr/include/c++/9/ext/type_traits.h
DA:152,35692
end_of_record
SF:/usr/include/x86_64-linux-gnu/bits/stdio2.h
DA:105,71734
DA:107,47706
end_of_record
SF:/usr/include/c++/9/bits/allocator.h
DA:138,35692
DA:141,71384
DA:142,71384
DA:153,71384
end_of_record
TN:
SF:/usr/include/c++/9/bits/move.h
DA:47,0
DA:74,440
DA:99,928
DA:138,162
DA:139,114
end_of_record
SF:/usr/include/c++/9/bits/basic_string.h
FN:6057,_ZStplIcSt11char_traitsIcESaIcEENSt7__cxx1112basic_stringIT_T0_T1_EERKS8_PKS5_
FNDA:24,_ZStplIcSt11char_traitsIcESaIcEENSt7__cxx1112basic_stringIT_T0_T1_EERKS8_PKS5_
FN:6085,_ZStplIcSt11char_traitsIcESaIcEENSt7__cxx1112basic_stringIT_T0_T1_EEOS8_RKS8_
FNDA:0,_ZStplIcSt11char_traitsIcESaIcEENSt7__cxx1112basic_stringIT_T0_T1_EEOS8_RKS8_
FN:6109,_ZStplIcSt11char_traitsIcESaIcEENSt7__cxx1112basic_stringIT_T0_T1_EEPKS5_OS8_
FNDA:0,_ZStplIcSt11char_traitsIcESaIcEENSt7__cxx1112basic_stringIT_T0_T1_EEPKS5_OS8_
FN:6121,_ZStplIcSt11char_traitsIcESaIcEENSt7__cxx1112basic_stringIT_T0_T1_EEOS8_PKS5_
FNDA:24,_ZStplIcSt11char_traitsIcESaIcEENSt7__cxx1112basic_stringIT_T0_T1_EEOS8_PKS5_
DA:150,90
DA:156,0
DA:157,0
DA:159,24
DA:160,48
DA:178,48
DA:179,0
DA:182,90
DA:183,90
DA:186,384
DA:190,72
DA:193,24
DA:200,114
DA:203,114
DA:210,24
DA:211,0
DA:214,90
DA:216,90
DA:217,90
DA:221,114
DA:222,114
DA:229,90
DA:231,66
DA:232,114
DA:236,24
DA:237,24
DA:243,24
DA:247,24
DA:263,24
DA:266,0
DA:286,48
DA:287,24
DA:290,24
DA:291,24
DA:346,66
DA:348,66
DA:349,0
DA:351,66
DA:392,24
DA:393,24
DA:396,42
DA:398,42
DA:448,24
DA:450,24
DA:451,48
DA:540,0
DA:541,0
DA:542,0
DA:552,24
DA:553,24
DA:555,24
DA:557,0
DA:562,24
DA:563,24
DA:569,24
DA:570,24
DA:571,24
DA:625,0
DA:627,0
DA:628,0
DA:657,66
DA:658,66
DA:930,0
DA:936,24
DA:1221,0
DA:1222,0
DA:2300,42
DA:2301,42
DA:2312,0
DA:2313,0
DA:6057,24
DA:6060,24
DA:6061,24
DA:6062,24
DA:6085,0
DA:6087,0
DA:6109,0
DA:6111,0
DA:6121,24
DA:6123,24
DA:6416,0
DA:6421,0
DA:6546,0
DA:6547,0
DA:6548,0
DA:6562,0
DA:6563,0
DA:6565,0
end_of_record
SF:/usr/include/c++/9/iostream
end_of_record
SF:/usr/include/c++/9/ext/type_traits.h
DA:152,66
end_of_record
SF:/usr/include/c++/9/bits/ptr_traits.h
DA:146,114
DA:147,114
end_of_record
SF:/usr/include/c++/9/bits/basic_string.tcc
FN:206,_ZNSt7__cxx1112basic_stringIcSt11char_traitsIcESaIcEE12_M_constructIPcEEvT_S7_St20forward_iterator_tag
FNDA:24,_ZNSt7__cxx1112basic_stringIcSt11char_traitsIcESaIcEE12_M_constructIPcEEvT_S7_St20forward_iterator_tag
FN:206,_ZNSt7__cxx1112basic_stringIcSt11char_traitsIcESaIcEE12_M_constructIPKcEEvT_S8_St20forward_iterator_tag
FNDA:42,_ZNSt7__cxx1112basic_stringIcSt11char_traitsIcESaIcEE12_M_constructIPKcEEvT_S8_St20forward_iterator_tag
DA:206,24
DA:211,24
DA:212,0
DA:215,24
DA:217,24
DA:219,0
DA:220,0
DA:225,24
DA:232,24
DA:233,24
DA:206,42
DA:211,42
DA:212,0
DA:215,42
DA:217,42
DA:219,0
DA:220,0
DA:225,42
DA:232,42
DA:233,42
end_of_record
SF:/usr/include/c++/9/ext/alloc_traits.h
DA:97,24
DA:98,24
end_of_record
SF:/usr/include/x86_64-linux-gnu/bits/stdio2.h
DA:105,0
DA:107,0
end_of_record
SF:/usr/include/c++/9/new
DA:173,0
DA:174,0
end_of_record
SF:/workspace/vtr-verilog-to-routing/libs/EXTERNAL/libargparse/src/argparse_value.hpp
DA:50,473147
end_of_record
SF:/usr/include/c++/9/ext/string_conversions.h
FN:99,_ZN9__gnu_cxx12__to_xstringINSt7__cxx1112basic_stringIcSt11char_traitsIcESaIcEEEcEET_PFiPT0_mPKS8_P13__va_list_tagEmSB_z
FNDA:0,_ZN9__gnu_cxx12__to_xstringINSt7__cxx1112basic_stringIcSt11char_traitsIcESaIcEEEcEET_PFiPT0_mPKS8_P13__va_list_tagEmSB_z
DA:99,0
DA:105,0
DA:109,0
DA:111,0
DA:113,0
DA:115,0
end_of_record
SF:/usr/include/c++/9/bits/allocator.h
DA:138,482
DA:141,488
DA:142,488
DA:153,572
end_of_record
SF:/workspace/vtr-verilog-to-routing/libs/librtlnumber/src/include/internal_bits.hpp
FN:308,_ZN8BitSpaceL13bits_to_hex_cEsb
FNDA:0,_ZN8BitSpaceL13bits_to_hex_cEsb
FN:454,_ZN8BitSpace11VerilogBitsC2Emh
FNDA:440,_ZN8BitSpace11VerilogBitsC2Emh
FN:510,_ZN8BitSpace11VerilogBits12to_printableB5cxx11Ev
FNDA:0,_ZN8BitSpace11VerilogBits12to_printableB5cxx11Ev
FN:520,_ZN8BitSpace11VerilogBits4getcEv
FNDA:0,_ZN8BitSpace11VerilogBits4getcEv
FN:722,_ZN7VNumberC2EPS_
FNDA:440,_ZN7VNumberC2EPS_
FN:751,_ZN7VNumber9get_valueEv
FNDA:0,_ZN7VNumber9get_valueEv
FN:777,_ZN7VNumber9to_stringB5cxx11Ebb
FNDA:0,_ZN7VNumber9to_stringB5cxx11Ebb
FN:792,_ZN7VNumber10to_UstringB5cxx11Eb
FNDA:0,_ZN7VNumber10to_UstringB5cxx11Eb
FN:807,_ZN7VNumber12to_log2radixB5cxx11Esbb
FNDA:0,_ZN7VNumber12to_log2radixB5cxx11Esbb
FN:832,_ZN7VNumber9to_base10B5cxx11Ebb
FNDA:0,_ZN7VNumber9to_base10B5cxx11Ebb
FN:857,_ZN7VNumber20to_verilog_bitstringB5cxx11Ev
FNDA:0,_ZN7VNumber20to_verilog_bitstringB5cxx11Ev
FN:864,_ZN7VNumber10to_vstringB5cxx11Ec
FNDA:0,_ZN7VNumber10to_vstringB5cxx11Ec
FN:1007,_ZN7VNumber16get_bit_from_msbEm
FNDA:0,_ZN7VNumber16get_bit_from_msbEm
FN:1012,_ZN7VNumber16get_bit_from_lsbEm
FNDA:5312,_ZN7VNumber16get_bit_from_lsbEm
DA:286,0
DA:287,0
DA:290,0
DA:291,0
DA:292,0
DA:293,0
DA:294,0
DA:295,0
DA:299,0
DA:300,0
DA:303,0
DA:304,0
DA:308,0
DA:309,0
DA:312,0
DA:313,0
DA:314,0
DA:315,0
DA:316,0
DA:317,0
DA:318,0
DA:319,0
DA:320,0
DA:321,0
DA:322,0
DA:323,0
DA:324,0
DA:325,0
DA:326,0
DA:327,0
DA:328,0
DA:329,0
DA:330,0
DA:331,0
DA:332,0
DA:333,0
DA:334,0
DA:335,0
DA:336,0
DA:337,0
DA:338,0
DA:339,0
DA:340,0
DA:341,0
DA:342,0
DA:343,0
DA:346,0
DA:349,0
DA:376,5312
DA:377,5312
DA:378,5312
DA:379,5312
DA:384,440
DA:385,440
DA:390,5312
DA:391,5312
DA:392,0
DA:394,5312
DA:398,0
DA:399,0
DA:401,0
DA:402,0
DA:404,0
DA:405,0
DA:406,0
DA:408,0
DA:409,0
DA:416,0
DA:418,0
DA:419,0
DA:425,0
DA:435,880
DA:440,5312
DA:441,5312
DA:454,440
DA:455,440
DA:456,440
DA:458,440
DA:460,880
DA:461,880
DA:463,440
DA:470,5312
DA:471,5312
DA:478,5312
DA:486,5312
DA:489,5312
DA:497,5312
DA:500,0
DA:507,0
DA:510,0
DA:511,0
DA:513,0
DA:514,0
DA:517,0
DA:520,0
DA:521,0
DA:522,0
DA:526,0
DA:527,0
DA:561,0
DA:562,0
DA:563,0
DA:674,0
DA:722,440
DA:723,440
DA:724,440
DA:725,440
DA:726,440
DA:751,0
DA:752,0
DA:754,0
DA:757,0
DA:758,0
DA:759,0
DA:760,0
DA:763,0
DA:764,0
DA:766,0
DA:767,0
DA:768,0
DA:769,0
DA:771,0
DA:774,0
DA:777,0
DA:779,0
DA:780,0
DA:781,0
DA:782,0
DA:783,0
DA:785,0
DA:789,0
DA:792,0
DA:794,0
DA:795,0
DA:796,0
DA:797,0
DA:798,0
DA:800,0
DA:804,0
DA:807,0
DA:808,0
DA:811,0
DA:812,0
DA:813,0
DA:816,0
DA:818,0
DA:819,0
DA:820,0
DA:822,0
DA:829,0
DA:832,0
DA:833,0
DA:834,0
DA:835,0
DA:837,0
DA:839,0
DA:840,0
DA:841,0
DA:842,0
DA:843,0
DA:845,0
DA:847,0
DA:848,0
DA:850,0
DA:853,0
DA:857,0
DA:858,0
DA:859,0
DA:861,0
DA:864,0
DA:865,0
DA:866,0
DA:867,0
DA:868,0
DA:873,0
DA:874,0
DA:875,0
DA:876,0
DA:877,0
DA:878,0
DA:879,0
DA:880,0
DA:881,0
DA:882,0
DA:883,0
DA:884,0
DA:885,0
DA:886,0
DA:887,0
DA:888,0
DA:890,0
DA:891,0
DA:892,0
DA:894,0
DA:896,0
DA:1000,0
DA:1001,0
DA:1007,0
DA:1008,0
DA:1009,0
DA:1012,5312
DA:1013,5312
DA:1014,5312
DA:1016,5312
DA:1019,0
DA:1020,0
DA:1030,5312
DA:1031,5312
DA:1034,0
DA:1035,0
DA:1038,0
DA:1039,0
DA:1050,0
DA:1051,0
DA:1066,0
DA:1067,0
end_of_record
SF:/usr/include/c++/9/bits/vector.tcc
FN:109,_ZNSt6vectorIN8BitSpace9BitFieldsItEESaIS2_EE12emplace_backIJS2_EEEvDpOT_
FNDA:440,_ZNSt6vectorIN8BitSpace9BitFieldsItEESaIS2_EE12emplace_backIJS2_EEEvDpOT_
FN:198,_ZNSt6vectorIN8BitSpace9BitFieldsItEESaIS2_EEaSERKS4_
FNDA:0,_ZNSt6vectorIN8BitSpace9BitFieldsItEESaIS2_EEaSERKS4_
FN:426,_ZNSt6vectorIN8BitSpace9BitFieldsItEESaIS2_EE17_M_realloc_insertIJS2_EEEvN9__gnu_cxx17__normal_iteratorIPS2_S4_EEDpOT_
FNDA:0,_ZNSt6vectorIN8BitSpace9BitFieldsItEESaIS2_EE17_M_realloc_insertIJS2_EEEvN9__gnu_cxx17__normal_iteratorIPS2_S4_EEDpOT_
DA:109,440
DA:112,440
DA:115,0
DA:117,0
DA:121,440
DA:125,440
DA:198,0
DA:201,0
DA:223,0
DA:224,0
DA:226,0
DA:228,0
DA:229,0
DA:230,0
DA:231,0
DA:232,0
DA:233,0
DA:234,0
DA:236,0
DA:238,0
DA:239,0
DA:243,0
DA:245,0
DA:246,0
DA:248,0
DA:250,0
DA:252,0
DA:426,0
DA:435,0
DA:437,0
DA:438,0
DA:439,0
DA:440,0
DA:441,0
DA:449,0
DA:450,0
DA:456,0
DA:461,0
DA:462,0
DA:464,0
DA:466,0
DA:467,0
DA:500,0
DA:501,0
DA:502,0
DA:503,0
DA:504,0
DA:505,0
end_of_record
SF:/usr/include/c++/9/bits/cpp_type_traits.h
DA:428,0
end_of_record
SF:/usr/include/c++/9/bits/char_traits.h
DA:299,90
DA:300,0
DA:329,0
DA:335,0
DA:361,66
DA:363,66
DA:365,0
end_of_record
SF:/usr/include/c++/9/ext/new_allocator.h
DA:80,482
DA:83,488
DA:89,572
DA:119,24
DA:128,24
DA:132,0
DA:144,0
DA:147,0
DA:151,0
end_of_record
SF:/workspace/vtr-verilog-to-routing/ODIN_II/SRC/netlist_create_from_ast.cpp
FN:138,_Z14create_netlistP5ast_t
FNDA:3109,_Z14create_netlistP5ast_t
FN:210,_Z15look_for_clocksP9netlist_t
FNDA:3103,_Z15look_for_clocksP9netlist_t
FN:234,_Z44convert_ast_to_netlist_recursing_via_modulesPP10ast_node_tPcP12sc_hierarchyi
FNDA:55083,_Z44convert_ast_to_netlist_recursing_via_modulesPP10ast_node_tPcP12sc_hierarchyi
FN:343,_Z28netlist_expand_ast_of_modulePP10ast_node_tPcP12sc_hierarchyl
FNDA:2785600,_Z28netlist_expand_ast_of_modulePP10ast_node_tPcP12sc_hierarchyl
FN:718,_Z24concatenate_signal_listsPP13signal_list_ti
FNDA:82950,_Z24concatenate_signal_listsPP13signal_list_ti
FN:744,_Z36create_all_driver_nets_in_this_scopePcP12sc_hierarchy
FNDA:55083,_Z36create_all_driver_nets_in_this_scopePcP12sc_hierarchy
FN:777,_Z22create_top_driver_netsP10ast_node_tPcP12sc_hierarchy
FNDA:3103,_Z22create_top_driver_netsP10ast_node_tPcP12sc_hierarchy
FN:873,_Z23create_top_output_nodesP10ast_node_tPcP12sc_hierarchy
FNDA:3103,_Z23create_top_output_nodesP10ast_node_tPcP12sc_hierarchy
FN:991,_Z23define_nets_with_driverP10ast_node_tPc
FNDA:294477,_Z23define_nets_with_driverP10ast_node_tPc
FN:1126,_Z33define_nodes_and_nets_with_driverP10ast_node_tPc
FNDA:10656,_Z33define_nodes_and_nets_with_driverP10ast_node_tPc
FN:1239,_Z29create_symbol_table_for_scopeP10ast_node_tP12sc_hierarchy
FNDA:9520,_Z29create_symbol_table_for_scopeP10ast_node_tP12sc_hierarchy
FN:1403,_Z14get_init_valueP10ast_node_t
FNDA:186711,_Z14get_init_valueP10ast_node_t
FN:1422,_Z24connect_memory_and_aliasP10ast_node_tPcP12sc_hierarchy
FNDA:354,_Z24connect_memory_and_aliasP10ast_node_tPcP12sc_hierarchy
FN:1560,_Z28connect_hard_block_and_aliasP10ast_node_tPciP12sc_hierarchy
FNDA:254,_Z28connect_hard_block_and_aliasP10ast_node_tPciP12sc_hierarchy
FN:1706,_Z38connect_module_instantiation_and_aliassP10ast_node_tPcP12sc_hierarchy
FNDA:103728,_Z38connect_module_instantiation_and_aliassP10ast_node_tPcP12sc_hierarchy
FN:2002,_Z40connect_function_instantiation_and_aliassP10ast_node_tPcP12sc_hierarchy
FNDA:108,_Z40connect_function_instantiation_and_aliassP10ast_node_tPcP12sc_hierarchy
FN:2342,_Z36connect_task_instantiation_and_aliassP10ast_node_tPcP12sc_hierarchy
FNDA:124,_Z36connect_task_instantiation_and_aliassP10ast_node_tPcP12sc_hierarchy
FN:2658,_Z11create_pinsP10ast_node_tPcS1_P12sc_hierarchy
FNDA:3038330,_Z11create_pinsP10ast_node_tPcS1_P12sc_hierarchy
FN:2752,_Z17create_output_pinP10ast_node_tPcP12sc_hierarchy
FNDA:204,_Z17create_output_pinP10ast_node_tPcP12sc_hierarchy
FN:2774,_Z16assignment_aliasP10ast_node_tPcP12sc_hierarchyl
FNDA:402359,_Z16assignment_aliasP10ast_node_tPcP12sc_hierarchyl
FN:3142,_Z52define_latchs_initial_value_inside_initial_statementP10ast_node_tP12sc_hierarchy
FNDA:10,_Z52define_latchs_initial_value_inside_initial_statementP10ast_node_tP12sc_hierarchy
FN:3170,_Z31terminate_registered_assignmentP10ast_node_tP13signal_list_tS2_P12sc_hierarchy
FNDA:51289,_Z31terminate_registered_assignmentP10ast_node_tP13signal_list_tS2_P12sc_hierarchy
FN:3358,_Z31terminate_continuous_assignmentP10ast_node_tP13signal_list_tPc
FNDA:83601,_Z31terminate_continuous_assignmentP10ast_node_tP13signal_list_tPc
FN:3430,_Z34alias_output_assign_pins_to_inputsP11char_list_tP13signal_list_tP10ast_node_t
FNDA:402240,_Z34alias_output_assign_pins_to_inputsP11char_list_tP13signal_list_tP10ast_node_t
FN:3459,_Z11create_gateP10ast_node_tPcP12sc_hierarchyl
FNDA:204,_Z11create_gateP10ast_node_tPcP12sc_hierarchyl
FN:3560,_Z21create_operation_nodeP10ast_node_tPP13signal_list_tiPcl
FNDA:342194,_Z21create_operation_nodeP10ast_node_tPP13signal_list_tiPcl
FN:3856,_Z25evaluate_sensitivity_listP10ast_node_tPcP12sc_hierarchy
FNDA:56030,_Z25evaluate_sensitivity_listP10ast_node_tPcP12sc_hierarchy
FN:3926,_Z22create_if_for_questionP10ast_node_tPcP12sc_hierarchyl
FNDA:38218,_Z22create_if_for_questionP10ast_node_tPcP12sc_hierarchyl
FN:3949,_Z34create_if_question_mux_expressionsP10ast_node_tP7nnode_tPcP12sc_hierarchyl
FNDA:38218,_Z34create_if_question_mux_expressionsP10ast_node_tP7nnode_tPcP12sc_hierarchyl
FN:3978,_Z9create_ifP10ast_node_tPcP12sc_hierarchyl
FNDA:52769,_Z9create_ifP10ast_node_tPcP12sc_hierarchyl
FN:4001,_Z25create_if_control_signalsPP10ast_node_tP7nnode_tPcP12sc_hierarchyl
FNDA:90987,_Z25create_if_control_signalsPP10ast_node_tP7nnode_tPcP12sc_hierarchyl
FN:4058,_Z24create_if_mux_statementsP10ast_node_tP7nnode_tPcP12sc_hierarchyl
FNDA:52769,_Z24create_if_mux_statementsP10ast_node_tP7nnode_tPcP12sc_hierarchyl
FN:4097,_Z11create_caseP10ast_node_tPcP12sc_hierarchyl
FNDA:4191,_Z11create_caseP10ast_node_tPcP12sc_hierarchyl
FN:4124,_Z27create_case_control_signalsP10ast_node_tPS0_P7nnode_tPcP12sc_hierarchyl
FNDA:4191,_Z27create_case_control_signalsP10ast_node_tPS0_P7nnode_tPcP12sc_hierarchyl
FN:4189,_Z26create_case_mux_statementsP10ast_node_tP7nnode_tPcP12sc_hierarchyl
FNDA:4191,_Z26create_case_mux_statementsP10ast_node_tP7nnode_tPcP12sc_hierarchyl
FN:4238,_Z21create_mux_statementsPP13signal_list_tP7nnode_tiPcP12sc_hierarchy
FNDA:56960,_Z21create_mux_statementsPP13signal_list_tP7nnode_tiPcP12sc_hierarchy
FN:4348,_Z22create_mux_expressionsPP13signal_list_tP7nnode_tiPc
FNDA:38218,_Z22create_mux_expressionsPP13signal_list_tP7nnode_tiPc
FN:4415,_Z27find_smallest_non_numericalP10ast_node_tPP13signal_list_ti
FNDA:37239,_Z27find_smallest_non_numericalP10ast_node_tPP13signal_list_ti
FN:4465,_Z14pad_with_zerosP10ast_node_tP13signal_list_tiPc
FNDA:74478,_Z14pad_with_zerosP10ast_node_tP13signal_list_tiPc
FN:4487,_Z26create_dual_port_ram_blockP10ast_node_tPcP7t_modelP12sc_hierarchy
FNDA:256,_Z26create_dual_port_ram_blockP10ast_node_tPcP7t_modelP12sc_hierarchy
FN:4653,_Z28create_single_port_ram_blockP10ast_node_tPcP7t_modelP12sc_hierarchy
FNDA:89,_Z28create_single_port_ram_blockP10ast_node_tPcP7t_modelP12sc_hierarchy
FN:4829,_Z33create_soft_single_port_ram_blockP10ast_node_tPcP12sc_hierarchy
FNDA:9,_Z33create_soft_single_port_ram_blockP10ast_node_tPcP12sc_hierarchy
FN:4966,_Z31create_soft_dual_port_ram_blockP10ast_node_tPcP12sc_hierarchy
FNDA:0,_Z31create_soft_dual_port_ram_blockP10ast_node_tPcP12sc_hierarchy
FN:5115,_Z17create_hard_blockP10ast_node_tPcP12sc_hierarchy
FNDA:608,_Z17create_hard_blockP10ast_node_tPcP12sc_hierarchy
FN:5432,_Z29reorder_connections_from_nameP10ast_node_tS0_3ids
FNDA:37676,_Z29reorder_connections_from_nameP10ast_node_tS0_3ids
FN:5489,_Z29resolve_top_module_parametersP10ast_node_tP12sc_hierarchy
FNDA:977766,_Z29resolve_top_module_parametersP10ast_node_tP12sc_hierarchy
FN:5510,_Z44resolve_top_parameters_defined_by_parametersP10ast_node_tP12sc_hierarchyi
FNDA:92,_Z44resolve_top_parameters_defined_by_parametersP10ast_node_tP12sc_hierarchyi
DA:138,3109
DA:145,11241
DA:146,8132
DA:147,8132
DA:148,8132
DA:150,8132
DA:152,8132
DA:153,8028
DA:154,8028
DA:159,3109
DA:160,3109
DA:161,3103
DA:170,3103
DA:171,3103
DA:173,3103
DA:175,3103
DA:176,3103
DA:177,3103
DA:178,3103
DA:179,3103
DA:181,3103
DA:182,3103
DA:185,3103
DA:186,3103
DA:187,3103
DA:188,3103
DA:189,3103
DA:192,3103
DA:195,3103
DA:197,3109
DA:210,3103
DA:211,3103
DA:213,2144750
DA:215,2141640
DA:217,2141640
DA:220,2141640
DA:221,0
DA:223,2141640
DA:224,1416
DA:227,3103
DA:234,55083
DA:235,55083
DA:238,55083
DA:239,47270
DA:244,59677
DA:250,103728
DA:251,51864
DA:252,51864
DA:255,51864
DA:257,51864
DA:258,0
DA:262,51864
DA:264,51864
DA:265,51864
DA:266,51864
DA:269,51864
DA:272,51864
DA:275,7867
DA:280,108
DA:281,54
DA:282,54
DA:285,54
DA:287,54
DA:288,0
DA:292,54
DA:293,54
DA:296,54
DA:299,54
DA:302,7875
DA:308,124
DA:309,62
DA:310,62
DA:313,62
DA:315,62
DA:316,0
DA:320,62
DA:321,62
DA:324,62
DA:327,62
DA:331,7813
DA:334,55083
DA:335,55083
DA:343,2785600
DA:345,2785600
DA:346,2785600
DA:347,2785600
DA:348,2785600
DA:349,2785600
DA:351,2785600
DA:353,2785600
DA:358,2785600
DA:359,1551590
DA:360,1551590
DA:365,2785600
DA:366,0
DA:367,0
DA:368,0
DA:369,55083
DA:370,55083
DA:371,55083
DA:373,55083
DA:374,55083
DA:375,55083
DA:379,54967
DA:382,54967
DA:385,242341
DA:386,187374
DA:387,10
DA:392,54967
DA:395,54967
DA:396,54967
DA:397,242341
DA:398,187374
DA:399,0
DA:400,187374
DA:401,80
DA:402,187294
DA:407,102992
DA:409,51496
DA:413,51496
DA:414,135798
DA:415,52
DA:416,135746
DA:417,52
DA:422,142950
DA:423,142950
DA:424,142950
DA:425,436389
DA:426,293439
DA:430,736
DA:432,368
DA:436,368
DA:441,54
DA:444,54
DA:447,54
DA:450,54
DA:451,54
DA:452,108
DA:453,54
DA:455,0
DA:460,62
DA:463,62
DA:466,62
DA:469,62
DA:470,62
DA:471,124
DA:472,62
DA:474,0
DA:475,62
DA:476,0
DA:477,62
DA:478,0
DA:484,10
DA:487,10
DA:488,10
DA:489,54
DA:490,54
DA:491,54
DA:492,54
DA:493,62
DA:494,62
DA:495,62
DA:496,62
DA:497,204
DA:499,204
DA:501,204
DA:502,204
DA:505,1551940
DA:506,1551940
DA:509,1551940
DA:510,1551940
DA:511,1551940
DA:512,1551940
DA:513,1551940
DA:516,78744
DA:518,78744
DA:519,78744
DA:520,78744
DA:521,402359
DA:522,402359
DA:523,402359
DA:524,402359
DA:525,402359
DA:526,402359
DA:528,56030
DA:529,56030
DA:530,56030
DA:531,56030
DA:533,56030
DA:536,4191
DA:537,4191
DA:538,4191
DA:539,4191
DA:540,20
DA:541,20
DA:542,20
DA:543,20
DA:544,0
DA:545,0
DA:546,0
DA:547,0
DA:548,52769
DA:549,52769
DA:550,52769
DA:551,52769
DA:552,38218
DA:553,38218
DA:554,38218
DA:555,38218
DA:556,608
DA:558,608
DA:559,608
DA:560,608
DA:562,608
DA:563,608
DA:569,2785600
DA:571,4269170
DA:572,1981450
DA:573,1817680
DA:574,1817680
DA:575,1817680
DA:576,1388
DA:580,1817680
DA:587,2785600
DA:588,0
DA:589,0
DA:591,0
DA:592,82950
DA:593,82950
DA:594,82950
DA:595,54967
DA:596,54967
DA:597,242341
DA:598,187374
DA:600,102992
DA:602,51496
DA:609,54
DA:610,54
DA:611,54
DA:612,54
DA:614,62
DA:615,62
DA:616,62
DA:617,62
DA:622,157488
DA:623,78744
DA:626,116
DA:627,116
DA:628,116
DA:629,56030
DA:631,56030
DA:632,51289
DA:633,51289
DA:634,51289
DA:635,51289
DA:637,4741
DA:639,4741
DA:640,4741
DA:642,0
DA:643,0
DA:644,0
DA:648,56030
DA:649,51289
DA:652,233050
DA:653,233050
DA:654,233050
DA:655,233050
DA:656,31160
DA:657,31160
DA:658,31160
DA:659,31160
DA:660,142950
DA:661,142950
DA:662,436389
DA:663,293439
DA:665,736
DA:667,368
DA:672,142950
DA:673,142950
DA:674,354
DA:675,354
DA:676,354
DA:677,254
DA:678,254
DA:679,254
DA:688,2785600
DA:689,1551590
DA:691,2785600
DA:692,4619470
DA:694,3067880
DA:695,1626200
DA:696,1160100
DA:697,1128940
DA:698,837272
DA:699,837272
DA:700,758528
DA:701,702498
DA:702,702382
DA:703,424043
DA:706,1551590
DA:709,2785600
DA:710,2785600
DA:718,82950
DA:719,82950
DA:721,82950
DA:722,361289
DA:724,278339
DA:725,117
DA:728,1718240
DA:729,1439900
DA:730,1439900
DA:732,278339
DA:735,82950
DA:744,55083
DA:746,55083
DA:748,55083
DA:749,55083
DA:752,524478
DA:753,469395
DA:754,469395
DA:756,469395
DA:758,337366
DA:759,139748
DA:761,210816
DA:763,35898
DA:765,294477
DA:768,55083
DA:777,3103
DA:779,3103
DA:780,3103
DA:781,3103
DA:782,3103
DA:783,3103
DA:784,3103
DA:786,3103
DA:789,3103
DA:790,76348
DA:791,73245
DA:792,10656
DA:796,0
DA:800,3103
DA:801,3103
DA:802,3103
DA:803,3103
DA:804,3103
DA:805,3103
DA:806,3103
DA:807,3103
DA:809,3103
DA:810,3103
DA:811,3103
DA:812,3103
DA:813,3103
DA:814,3103
DA:815,3103
DA:816,3103
DA:818,3103
DA:819,3103
DA:820,3103
DA:821,3103
DA:822,3103
DA:823,3103
DA:824,3103
DA:825,3103
DA:828,3103
DA:829,3103
DA:830,3103
DA:832,3103
DA:833,3103
DA:834,0
DA:837,3103
DA:838,3103
DA:841,3103
DA:842,3103
DA:843,3103
DA:845,3103
DA:846,3103
DA:847,0
DA:850,3103
DA:851,3103
DA:854,3103
DA:855,3103
DA:856,3103
DA:858,3103
DA:859,3103
DA:860,0
DA:863,3103
DA:864,3103
DA:865,3103
DA:873,3103
DA:875,3103
DA:876,3103
DA:877,3103
DA:878,3103
DA:879,3103
DA:880,3103
DA:881,3103
DA:883,3103
DA:886,3103
DA:887,76348
DA:888,73245
DA:889,6798
DA:890,6798
DA:891,6798
DA:894,6798
DA:897,2143
DA:900,2143
DA:901,0
DA:905,2143
DA:907,2143
DA:910,2143
DA:911,2143
DA:912,2143
DA:913,2143
DA:915,2143
DA:916,2143
DA:919,2143
DA:922,2143
DA:923,2143
DA:924,2143
DA:925,4655
DA:926,4655
DA:927,4655
DA:929,4655
DA:930,4655
DA:931,4655
DA:933,4655
DA:934,0
DA:938,4655
DA:939,0
DA:944,97627
DA:946,92972
DA:949,92972
DA:950,0
DA:953,92972
DA:955,92972
DA:958,92972
DA:959,92972
DA:960,92972
DA:961,92972
DA:963,92972
DA:964,92972
DA:967,92972
DA:970,92972
DA:971,92972
DA:972,92972
DA:976,0
DA:983,0
DA:985,3103
DA:991,294477
DA:992,294477
DA:993,294477
DA:994,294477
DA:995,294477
DA:997,294477
DA:1001,54787
DA:1004,54787
DA:1007,54787
DA:1008,54787
DA:1009,0
DA:1013,54787
DA:1014,54787
DA:1016,54787
DA:1017,146
DA:1020,239690
DA:1021,239535
DA:1022,239535
DA:1025,239535
DA:1026,239535
DA:1027,239535
DA:1029,239535
DA:1030,0
DA:1034,239535
DA:1035,0
DA:1041,5569060
DA:1043,5329520
DA:1046,5329520
DA:1048,5329520
DA:1049,5329520
DA:1050,0
DA:1054,5329520
DA:1055,5329520
DA:1057,5329520
DA:1058,5166
DA:1063,155
DA:1064,113
DA:1065,113
DA:1067,113
DA:1068,113
DA:1069,113
DA:1071,113
DA:1072,0
DA:1076,113
DA:1077,0
DA:1081,113
DA:1082,113
DA:1084,113
DA:1085,113
DA:1086,113
DA:1088,113
DA:1089,0
DA:1093,113
DA:1094,0
DA:1098,113
DA:1100,113
DA:1101,0
DA:1104,113
DA:1106,113
DA:1107,0
DA:1110,113
DA:1112,113
DA:1113,113
DA:1115,113
DA:1118,294477
DA:1126,10656
DA:1127,10656
DA:1128,10656
DA:1129,10656
DA:1130,10656
DA:1131,10656
DA:1132,10656
DA:1134,10656
DA:1138,4921
DA:1140,4921
DA:1142,4921
DA:1143,4921
DA:1144,0
DA:1148,4921
DA:1149,4921
DA:1152,4921
DA:1153,4921
DA:1154,4921
DA:1156,4921
DA:1157,4921
DA:1159,4921
DA:1160,4921
DA:1163,4921
DA:1164,4921
DA:1167,4921
DA:1168,4921
DA:1169,4921
DA:1170,5735
DA:1172,5735
DA:1173,5735
DA:1175,5735
DA:1176,5735
DA:1177,5735
DA:1179,5735
DA:1180,0
DA:1184,5735
DA:1185,0
DA:1190,85874
DA:1192,80139
DA:1195,80139
DA:1197,80139
DA:1198,80139
DA:1199,0
DA:1203,80139
DA:1204,80139
DA:1207,80139
DA:1208,80139
DA:1210,80139
DA:1211,80139
DA:1212,80139
DA:1214,80139
DA:1215,80139
DA:1218,80139
DA:1219,80139
DA:1222,80139
DA:1223,80139
DA:1224,80139
DA:1226,0
DA:1228,0
DA:1231,10656
DA:1239,9520
DA:1241,9520
DA:1242,9520
DA:1243,9520
DA:1244,9520
DA:1246,9520
DA:1247,9520
DA:1248,9520
DA:1250,9520
DA:1251,9520
DA:1254,9520
DA:1255,263999
DA:1256,254479
DA:1258,357204
DA:1259,186777
DA:1262,186857
DA:1264,186777
DA:1266,80
DA:1268,186697
DA:1269,186697
DA:1271,186697
DA:1272,34420
DA:1273,0
DA:1278,186697
DA:1280,186697
DA:1282,186697
DA:1288,13301
DA:1289,0
DA:1290,0
DA:1294,13301
DA:1296,0
DA:1297,13301
DA:1298,13301
DA:1300,13301
DA:1301,13301
DA:1303,0
DA:1307,173396
DA:1310,173396
DA:1311,173396
DA:1312,173396
DA:1314,173396
DA:1318,186697
DA:1319,186697
DA:1321,186697
DA:1323,186697
DA:1324,186697
DA:1327,170427
DA:1328,170347
DA:1329,170347
DA:1331,84052
DA:1333,31660
DA:1334,31660
DA:1335,0
DA:1337,0
DA:1338,0
DA:1339,0
DA:1340,0
DA:1341,0
DA:1343,0
DA:1350,9520
DA:1351,0
DA:1352,0
DA:1354,0
DA:1355,0
DA:1356,0
DA:1358,0
DA:1359,0
DA:1362,0
DA:1363,0
DA:1365,0
DA:1367,0
DA:1370,0
DA:1373,0
DA:1374,0
DA:1375,0
DA:1384,9520
DA:1385,0
DA:1388,9520
DA:1389,9520
DA:1391,0
DA:1393,9520
DA:1403,186711
DA:1405,186711
DA:1407,186711
DA:1408,440
DA:1410,186711
DA:1422,354
DA:1423,354
DA:1424,354
DA:1425,354
DA:1426,354
DA:1427,354
DA:1430,354
DA:1431,3148
DA:1432,2794
DA:1434,2794
DA:1435,2794
DA:1436,2794
DA:1439,2696
DA:1440,2794
DA:1442,2794
DA:1443,610
DA:1444,610
DA:1445,610
DA:1448,610
DA:1449,0
DA:1451,610
DA:1452,610
DA:1453,610
DA:1456,1220
DA:1457,610
DA:1458,610
DA:1459,610
DA:1462,610
DA:1463,610
DA:1464,610
DA:1465,610
DA:1467,96136
DA:1473,95526
DA:1474,95526
DA:1475,95526
DA:1476,95526
DA:1478,95526
DA:1479,95526
DA:1480,95526
DA:1481,95526
DA:1483,0
DA:1485,0
DA:1486,0
DA:1488,0
DA:1489,0
DA:1490,0
DA:1493,0
DA:1494,0
DA:1495,0
DA:1496,0
DA:1500,95526
DA:1503,95526
DA:1506,0
DA:1509,0
DA:1511,0
DA:1514,0
DA:1515,0
DA:1520,95526
DA:1521,95526
DA:1525,95526
DA:1526,95526
DA:1527,95526
DA:1531,95526
DA:1532,95526
DA:1536,95526
DA:1538,95526
DA:1541,95526
DA:1542,95526
DA:1547,354
DA:1560,254
DA:1561,254
DA:1562,254
DA:1563,254
DA:1564,254
DA:1565,254
DA:1566,254
DA:1569,254
DA:1570,254
DA:1571,254
DA:1572,0
DA:1576,254
DA:1577,1476
DA:1578,1222
DA:1579,1222
DA:1580,1222
DA:1581,1222
DA:1582,1222
DA:1585,1222
DA:1586,1222
DA:1587,484
DA:1588,484
DA:1589,484
DA:1591,484
DA:1592,12
DA:1594,6
DA:1595,6
DA:1598,18518
DA:1603,18034
DA:1604,18034
DA:1605,18034
DA:1608,18034
DA:1609,18028
DA:1610,18028
DA:1611,18028
DA:1613,18028
DA:1614,18028
DA:1615,18028
DA:1616,18028
DA:1618,6
DA:1620,6
DA:1621,0
DA:1623,6
DA:1624,6
DA:1625,6
DA:1628,6
DA:1629,6
DA:1630,6
DA:1631,6
DA:1635,18034
DA:1636,18034
DA:1637,8960
DA:1638,8960
DA:1642,18034
DA:1645,8960
DA:1648,8960
DA:1650,8960
DA:1653,0
DA:1654,0
DA:1659,9074
DA:1660,9074
DA:1664,9074
DA:1665,9074
DA:1666,9074
DA:1667,9074
DA:1671,9074
DA:1672,9074
DA:1676,9074
DA:1678,9074
DA:1682,18034
DA:1683,18034
DA:1688,254
DA:1706,103728
DA:1707,103728
DA:1708,103728
DA:1709,103728
DA:1710,103728
DA:1711,103728
DA:1712,103728
DA:1713,103728
DA:1714,103728
DA:1715,103728
DA:1717,207456
DA:1718,103728
DA:1719,103728
DA:1723,103728
DA:1724,0
DA:1728,103728
DA:1730,103728
DA:1731,103728
DA:1733,103728
DA:1734,0
DA:1740,103728
DA:1741,37556
DA:1744,610706
DA:1745,506978
DA:1746,506978
DA:1748,506978
DA:1750,506978
DA:1752,506978
DA:1754,253489
DA:1756,417395
DA:1757,253489
DA:1758,253489
DA:1761,253489
DA:1763,158260
DA:1764,158260
DA:1765,158260
DA:1767,158260
DA:1769,158260
DA:1770,158260
DA:1771,0
DA:1772,0
DA:1773,0
DA:1774,0
DA:1775,0
DA:1777,0
DA:1779,0
DA:1780,0
DA:1781,0
DA:1782,0
DA:1783,0
DA:1786,0
DA:1788,0
DA:1792,253489
DA:1793,12219
DA:1795,12219
DA:1796,12219
DA:1799,3670960
DA:1800,3417470
DA:1806,1923260
DA:1807,1923260
DA:1808,1923260
DA:1809,1923260
DA:1811,1923260
DA:1813,300850
DA:1814,300850
DA:1815,300850
DA:1818,300850
DA:1823,12
DA:1825,12
DA:1826,12
DA:1829,300838
DA:1832,300850
DA:1835,1622410
DA:1837,1546830
DA:1838,1546830
DA:1839,1546830
DA:1842,1546830
DA:1843,3093660
DA:1844,1546830
DA:1845,1546830
DA:1848,1546830
DA:1850,75582
DA:1853,75582
DA:1854,75582
DA:1855,75582
DA:1857,75582
DA:1858,151164
DA:1859,75582
DA:1860,75582
DA:1863,75582
DA:1868,1923260
DA:1870,246
DA:1871,246
DA:1872,246
DA:1874,0
DA:1876,246
DA:1878,246
DA:1883,18
DA:1884,18
DA:1885,18
DA:1886,18
DA:1892,228
DA:1893,228
DA:1894,228
DA:1904,1923030
DA:1907,1923030
DA:1908,775687
DA:1909,775687
DA:1911,0
DA:1918,1923030
DA:1919,1923030
DA:1920,1494210
DA:1923,1494210
DA:1924,1494210
DA:1925,1494210
DA:1929,1494210
DA:1931,1474550
DA:1932,1474550
DA:1933,1474550
DA:1935,1474550
DA:1936,2949100
DA:1937,1474550
DA:1938,1474550
DA:1939,1474550
DA:1941,19665
DA:1943,19665
DA:1944,19665
DA:1945,19665
DA:1947,19665
DA:1948,39330
DA:1949,19665
DA:1950,19665
DA:1951,19665
DA:1955,1494210
DA:1956,0
DA:1961,1494210
DA:1967,1494210
DA:1968,1494210
DA:1969,2988410
DA:1970,1494200
DA:1971,1484210
DA:1976,1494210
DA:1977,1494160
DA:1980,1494210
DA:1983,1494210
DA:1984,640522
DA:1985,0
DA:1992,1494210
DA:1993,1494210
DA:1997,253489
DA:2000,103728
DA:2002,108
DA:2003,108
DA:2005,108
DA:2006,108
DA:2008,108
DA:2009,108
DA:2010,108
DA:2011,108
DA:2012,108
DA:2013,108
DA:2014,108
DA:2016,108
DA:2019,108
DA:2020,0
DA:2024,108
DA:2025,0
DA:2027,108
DA:2028,108
DA:2030,108
DA:2031,0
DA:2037,108
DA:2038,60
DA:2041,476
DA:2042,368
DA:2043,368
DA:2045,368
DA:2046,368
DA:2048,368
DA:2050,368
DA:2052,184
DA:2054,238
DA:2055,184
DA:2060,184
DA:2061,72
DA:2063,0
DA:2070,184
DA:2071,184
DA:2074,184
DA:2076,140
DA:2077,280
DA:2079,140
DA:2081,140
DA:2084,140
DA:2085,140
DA:2087,140
DA:2088,140
DA:2090,140
DA:2091,140
DA:2092,0
DA:2093,0
DA:2095,0
DA:2097,0
DA:2100,0
DA:2101,0
DA:2102,0
DA:2103,0
DA:2105,0
DA:2106,0
DA:2108,0
DA:2109,0
DA:2110,0
DA:2114,0
DA:2116,0
DA:2120,184
DA:2121,48
DA:2123,48
DA:2124,48
DA:2127,736
DA:2128,552
DA:2134,338
DA:2135,338
DA:2136,338
DA:2137,338
DA:2139,338
DA:2141,174
DA:2142,174
DA:2143,174
DA:2146,174
DA:2151,6
DA:2153,6
DA:2154,6
DA:2157,168
DA:2160,174
DA:2163,164
DA:2165,128
DA:2166,128
DA:2167,128
DA:2170,128
DA:2171,256
DA:2172,128
DA:2173,128
DA:2176,128
DA:2178,36
DA:2181,36
DA:2182,36
DA:2183,36
DA:2185,36
DA:2186,72
DA:2187,36
DA:2188,36
DA:2191,36
DA:2196,338
DA:2198,0
DA:2199,0
DA:2200,0
DA:2202,0
DA:2204,0
DA:2206,0
DA:2211,0
DA:2212,0
DA:2213,0
DA:2214,0
DA:2220,0
DA:2221,0
DA:2222,0
DA:2232,338
DA:2235,338
DA:2236,228
DA:2237,228
DA:2239,0
DA:2246,338
DA:2247,338
DA:2248,214
DA:2251,214
DA:2252,214
DA:2253,214
DA:2257,214
DA:2262,206
DA:2266,206
DA:2268,412
DA:2269,206
DA:2270,206
DA:2272,206
DA:2280,8
DA:2284,8
DA:2286,16
DA:2287,8
DA:2288,8
DA:2290,8
DA:2294,214
DA:2295,0
DA:2300,214
DA:2307,214
DA:2308,214
DA:2309,214
DA:2310,214
DA:2311,214
DA:2312,214
DA:2314,428
DA:2315,214
DA:2316,162
DA:2321,214
DA:2322,52
DA:2325,214
DA:2328,214
DA:2329,214
DA:2332,184
DA:2335,108
DA:2342,124
DA:2343,124
DA:2345,124
DA:2346,124
DA:2348,124
DA:2349,124
DA:2350,124
DA:2351,124
DA:2352,124
DA:2353,124
DA:2355,124
DA:2358,124
DA:2359,0
DA:2363,124
DA:2364,0
DA:2366,124
DA:2367,124
DA:2369,124
DA:2370,0
DA:2376,124
DA:2377,60
DA:2380,552
DA:2381,428
DA:2382,428
DA:2384,428
DA:2385,428
DA:2387,428
DA:2389,214
DA:2391,276
DA:2392,214
DA:2397,214
DA:2398,72
DA:2400,0
DA:2407,214
DA:2408,214
DA:2411,214
DA:2413,178
DA:2414,356
DA:2416,178
DA:2418,178
DA:2421,178
DA:2422,178
DA:2424,178
DA:2425,178
DA:2427,178
DA:2428,178
DA:2429,0
DA:2430,0
DA:2432,0
DA:2434,0
DA:2437,0
DA:2438,0
DA:2439,0
DA:2440,0
DA:2442,0
DA:2443,0
DA:2445,0
DA:2446,0
DA:2447,0
DA:2451,0
DA:2453,0
DA:2457,214
DA:2458,48
DA:2460,48
DA:2461,48
DA:2464,214
DA:2465,564
DA:2471,412
DA:2472,412
DA:2473,412
DA:2474,412
DA:2476,412
DA:2478,174
DA:2479,174
DA:2480,174
DA:2483,174
DA:2488,6
DA:2490,6
DA:2491,6
DA:2494,168
DA:2497,174
DA:2500,238
DA:2502,208
DA:2503,208
DA:2504,208
DA:2507,208
DA:2508,416
DA:2509,208
DA:2510,208
DA:2513,208
DA:2515,30
DA:2518,30
DA:2519,30
DA:2520,30
DA:2522,30
DA:2523,60
DA:2524,30
DA:2525,30
DA:2528,30
DA:2533,412
DA:2535,0
DA:2536,0
DA:2537,0
DA:2539,0
DA:2541,0
DA:2543,0
DA:2548,0
DA:2549,0
DA:2550,0
DA:2551,0
DA:2557,0
DA:2558,0
DA:2559,0
DA:2569,412
DA:2572,412
DA:2573,228
DA:2574,228
DA:2576,0
DA:2583,412
DA:2584,412
DA:2586,62
DA:2587,336
DA:2590,274
DA:2591,274
DA:2592,274
DA:2596,274
DA:2598,274
DA:2599,274
DA:2600,274
DA:2602,274
DA:2603,548
DA:2604,274
DA:2605,274
DA:2606,274
DA:2608,0
DA:2610,0
DA:2611,0
DA:2612,0
DA:2613,0
DA:2615,0
DA:2616,0
DA:2617,0
DA:2618,0
DA:2619,0
DA:2623,274
DA:2624,0
DA:2632,274
DA:2633,274
DA:2635,274
DA:2636,274
DA:2637,274
DA:2638,274
DA:2639,274
DA:2641,274
DA:2642,274
DA:2643,274
DA:2646,214
DA:2648,124
DA:2658,3038330
DA:2659,3038330
DA:2660,3038330
DA:2661,3038330
DA:2662,3038330
DA:2663,3038330
DA:2664,3038330
DA:2665,3038330
DA:2667,3038330
DA:2669,3038330
DA:2671,1606420
DA:2672,1431910
DA:2674,1431910
DA:2675,1431910
DA:2676,1431910
DA:2677,1431910
DA:2680,31193400
DA:2681,28155100
DA:2682,28155100
DA:2685,28155100
DA:2686,1695300
DA:2687,1695300
DA:2688,1695300
DA:2689,26459800
DA:2690,16596500
DA:2691,16596500
DA:2692,16596500
DA:2696,9863270
DA:2697,9863270
DA:2698,9863270
DA:2700,4056490
DA:2702,4056490
DA:2704,4056490
DA:2706,0
DA:2707,0
DA:2709,0
DA:2710,4056490
DA:2713,0
DA:2714,0
DA:2716,0
DA:2718,5806780
DA:2719,2917970
DA:2720,2917970
DA:2721,2917970
DA:2723,2888810
DA:2724,1799650
DA:2725,1799650
DA:2726,1799650
DA:2727,1799650
DA:2731,2888810
DA:2736,28155100
DA:2739,3038330
DA:2740,3038330
DA:2741,3038330
DA:2743,3038330
DA:2752,204
DA:2753,204
DA:2754,204
DA:2755,204
DA:2756,204
DA:2759,204
DA:2760,204
DA:2761,204
DA:2763,204
DA:2764,204
DA:2766,204
DA:2768,204
DA:2774,402359
DA:2775,402359
DA:2776,402359
DA:2778,402359
DA:2779,402359
DA:2781,402359
DA:2783,402359
DA:2784,402359
DA:2787,402359
DA:2788,101
DA:2789,0
DA:2792,101
DA:2795,101
DA:2796,0
DA:2799,101
DA:2800,27
DA:2801,30
DA:2802,132
DA:2803,117
DA:2804,12
DA:2806,15
DA:2809,12
DA:2813,45
DA:2814,18
DA:2816,27
DA:2819,101
DA:2820,101
DA:2821,101
DA:2822,101
DA:2824,101
DA:2826,101
DA:2827,101
DA:2828,101
DA:2830,101
DA:2831,21
DA:2832,9
DA:2834,9
DA:2836,9
DA:2839,9
DA:2840,9
DA:2843,9
DA:2845,9
DA:2846,9
DA:2849,9
DA:2850,9
DA:2854,12
DA:2855,12
DA:2858,21
DA:2860,80
DA:2861,6
DA:2862,6
DA:2864,6
DA:2865,6
DA:2867,74
DA:2868,74
DA:2869,74
DA:2873,101
DA:2874,101
DA:2876,101
DA:2877,615
DA:2878,514
DA:2879,514
DA:2880,508
DA:2881,514
DA:2882,514
DA:2884,101
DA:2888,101
DA:2889,101
DA:2890,3841
DA:2891,3740
DA:2892,3740
DA:2893,3740
DA:2894,3740
DA:2895,3740
DA:2896,3740
DA:2897,3740
DA:2898,3740
DA:2900,3740
DA:2902,101
DA:2903,101
DA:2905,101
DA:2906,101
DA:2910,402258
DA:2911,402258
DA:2912,402258
DA:2915,402359
DA:2917,402359
DA:2918,119
DA:2919,0
DA:2923,119
DA:2924,0
DA:2925,0
DA:2929,119
DA:2932,119
DA:2933,0
DA:2936,119
DA:2937,39
DA:2938,54
DA:2939,540
DA:2940,513
DA:2941,12
DA:2943,27
DA:2946,12
DA:2950,57
DA:2951,18
DA:2953,39
DA:2956,119
DA:2957,119
DA:2960,119
DA:2962,119
DA:2963,119
DA:2964,119
DA:2965,119
DA:2967,119
DA:2969,119
DA:2970,119
DA:2971,119
DA:2973,119
DA:2974,119
DA:2975,18
DA:2977,18
DA:2979,18
DA:2982,18
DA:2983,18
DA:2986,18
DA:2988,18
DA:2991,18
DA:2992,18
DA:2993,18
DA:2997,101
DA:2998,101
DA:2999,101
DA:3002,119
DA:3004,0
DA:3005,0
DA:3008,0
DA:3009,0
DA:3010,0
DA:3012,0
DA:3013,0
DA:3014,0
DA:3015,0
DA:3019,119
DA:3020,143
DA:3021,24
DA:3023,119
DA:3025,119
DA:3027,119
DA:3028,119
DA:3029,119
DA:3031,119
DA:3032,119
DA:3034,119
DA:3035,699
DA:3036,580
DA:3037,580
DA:3038,526
DA:3039,580
DA:3040,580
DA:3042,119
DA:3044,4267
DA:3045,4148
DA:3046,4148
DA:3047,4148
DA:3048,4148
DA:3049,4148
DA:3051,119
DA:3053,238
DA:3054,119
DA:3055,119
DA:3056,119
DA:3057,119
DA:3058,119
DA:3060,119
DA:3062,119
DA:3065,119
DA:3066,119
DA:3067,119
DA:3071,402240
DA:3074,402359
DA:3075,402359
DA:3077,402359
DA:3078,402139
DA:3080,402139
DA:3083,392853
DA:3084,364782
DA:3086,28071
DA:3088,374068
DA:3089,374068
DA:3102,402139
DA:3103,402139
DA:3105,220
DA:3107,101
DA:3108,101
DA:3109,615
DA:3110,514
DA:3111,514
DA:3113,101
DA:3116,101
DA:3117,101
DA:3118,3817
DA:3119,3716
DA:3121,101
DA:3122,101
DA:3123,101
DA:3127,220
DA:3129,119
DA:3130,119
DA:3131,4966
DA:3132,4847
DA:3133,4847
DA:3135,119
DA:3139,402359
DA:3142,10
DA:3143,10
DA:3144,10
DA:3145,10
DA:3146,10
DA:3148,32
DA:3151,22
DA:3152,18
DA:3154,14
DA:3156,14
DA:3157,14
DA:3158,0
DA:3160,14
DA:3165,10
DA:3170,51289
DA:3171,51289
DA:3173,51289
DA:3174,51289
DA:3176,51289
DA:3178,76345
DA:3179,38302
DA:3181,38302
DA:3182,38302
DA:3183,37028
DA:3184,37028
DA:3185,0
DA:3188,37028
DA:3190,1274
DA:3193,38302
DA:3194,37302
DA:3195,0
DA:3200,38302
DA:3202,0
DA:3203,0
DA:3204,38302
DA:3206,37302
DA:3207,37302
DA:3212,51289
DA:3214,51289
DA:3215,51289
DA:3216,51289
DA:3217,2197810
DA:3218,2146520
DA:3219,2146520
DA:3220,2146520
DA:3221,4877
DA:3224,2141640
DA:3225,2141640
DA:3226,0
DA:3229,2141640
DA:3231,2141640
DA:3232,2141640
DA:3233,0
DA:3236,2141640
DA:3237,0
DA:3241,2141640
DA:3242,2141640
DA:3244,2141640
DA:3245,2141640
DA:3249,2141640
DA:3250,2141640
DA:3251,2141640
DA:3254,2141640
DA:3255,2141640
DA:3256,2141640
DA:3258,2141640
DA:3259,2141640
DA:3260,2141640
DA:3261,2141640
DA:3263,2141640
DA:3264,2141640
DA:3265,2141640
DA:3268,2141640
DA:3271,2141640
DA:3272,2141640
DA:3273,2141640
DA:3274,2141640
DA:3278,2141640
DA:3279,2141640
DA:3280,2141640
DA:3283,2141640
DA:3286,2141640
DA:3287,2141640
DA:3289,2141640
DA:3291,2141640
DA:3292,2141640
DA:3293,2141640
DA:3297,2197810
DA:3298,2146520
DA:3299,2146520
DA:3301,2146520
DA:3302,1762360
DA:3304,3788860000
DA:3305,3787100000
DA:3306,0
DA:3307,0
DA:3309,0
DA:3310,0
DA:3314,1762360
DA:3315,0
DA:3319,51289
DA:3320,51289
DA:3321,56166
DA:3322,4877
DA:3323,4877
DA:3324,4877
DA:3326,4877
DA:3327,4877
DA:3329,200718
DA:3330,200718
DA:3331,200718
DA:3332,4877
DA:3333,4877
DA:3334,4877
DA:3338,4877
DA:3339,113
DA:3340,113
DA:3341,113
DA:3342,113
DA:3343,113
DA:3344,113
DA:3345,113
DA:3350,51289
DA:3352,51289
DA:3353,51289
DA:3358,83601
DA:3359,83601
DA:3360,83601
DA:3361,1605540
DA:3362,1521940
DA:3363,1521940
DA:3364,1521940
DA:3365,30
DA:3368,1521910
DA:3369,1521910
DA:3370,42
DA:3373,1521860
DA:3375,1521860
DA:3376,0
DA:3378,1521860
DA:3379,1521860
DA:3381,1521860
DA:3383,1521860
DA:3385,1521860
DA:3386,1521860
DA:3387,1521860
DA:3388,1521860
DA:3390,1521860
DA:3391,1521860
DA:3394,1521860
DA:3395,1521860
DA:3397,1521860
DA:3402,83631
DA:3403,30
DA:3404,30
DA:3405,30
DA:3406,30
DA:3407,30
DA:3409,30
DA:3410,330
DA:3411,330
DA:3412,330
DA:3413,30
DA:3414,30
DA:3415,30
DA:3421,83601
DA:3423,83601
DA:3424,83601
DA:3430,402240
DA:3431,7931480
DA:3432,7529240
DA:3433,15927
DA:3434,0
DA:3437,15927
DA:3440,7529240
DA:3441,6170980
DA:3443,7529240
DA:3444,7529240
DA:3447,402240
DA:3448,0
DA:3451,402240
DA:3459,204
DA:3460,204
DA:3462,408
DA:3464,204
DA:3465,0
DA:3466,0
DA:3469,204
DA:3471,204
DA:3475,46
DA:3477,46
DA:3479,46
DA:3480,46
DA:3483,46
DA:3485,46
DA:3486,46
DA:3487,46
DA:3488,46
DA:3490,46
DA:3491,46
DA:3492,46
DA:3493,46
DA:3496,46
DA:3498,46
DA:3500,46
DA:3506,158
DA:3507,474
DA:3508,316
DA:3512,158
DA:3514,474
DA:3515,316
DA:3518,158
DA:3521,158
DA:3523,158
DA:3524,158
DA:3526,158
DA:3528,158
DA:3531,158
DA:3532,474
DA:3533,316
DA:3536,158
DA:3537,158
DA:3540,474
DA:3541,316
DA:3545,158
DA:3547,474
DA:3548,316
DA:3550,158
DA:3554,204
DA:3560,342194
DA:3561,342194
DA:3562,342194
DA:3563,342194
DA:3564,342194
DA:3565,342194
DA:3566,342194
DA:3567,342194
DA:3570,342194
DA:3572,342194
DA:3573,342194
DA:3574,342194
DA:3576,342194
DA:3579,995422
DA:3580,653228
DA:3585,342194
DA:3595,23957
DA:3597,23957
DA:3598,23957
DA:3599,23957
DA:3601,23957
DA:3602,23957
DA:3603,16209
DA:3605,16209
DA:3606,16209
DA:3607,16209
DA:3609,16209
DA:3610,10050
DA:3612,10050
DA:3613,10050
DA:3616,10050
DA:3617,10050
DA:3618,96910
DA:3619,96910
DA:3620,96910
DA:3621,96910
DA:3622,96910
DA:3623,96910
DA:3625,96910
DA:3629,10532
DA:3631,10532
DA:3632,10532
DA:3635,23529
DA:3636,23529
DA:3637,23529
DA:3638,23529
DA:3639,23529
DA:3640,16284
DA:3641,16284
DA:3643,16284
DA:3644,16284
DA:3646,16284
DA:3654,16284
DA:3655,24
DA:3657,16690
DA:3658,16690
DA:3659,16690
DA:3661,16690
DA:3662,16690
DA:3663,16690
DA:3664,127224
DA:3665,127224
DA:3666,127224
DA:3667,127224
DA:3668,127224
DA:3669,127224
DA:3670,127224
DA:3671,127224
DA:3672,37239
DA:3683,37239
DA:3685,37239
DA:3688,37239
DA:3689,37239
DA:3696,0
DA:3697,0
DA:3698,0
DA:3699,0
DA:3700,0
DA:3701,0
DA:3702,0
DA:3703,0
DA:3704,0
DA:3707,342194
DA:3708,342194
DA:3711,342194
DA:3712,342194
DA:3714,342194
DA:3715,39813
DA:3716,1728
DA:3718,1152
DA:3720,1152
DA:3722,1152
DA:3723,1152
DA:3728,39237
DA:3729,39237
DA:3730,39237
DA:3732,39237
DA:3736,261555
DA:3737,245559
DA:3739,245557
DA:3740,245557
DA:3742,245557
DA:3743,245557
DA:3748,265337
DA:3749,249341
DA:3751,247661
DA:3752,247661
DA:3754,1680
DA:3756,1680
DA:3757,1680
DA:3762,23241
DA:3763,23241
DA:3764,859994
DA:3766,836753
DA:3767,836753
DA:3768,836753
DA:3773,351861
DA:3774,328620
DA:3775,328620
DA:3776,996
DA:3778,327624
DA:3781,328620
DA:3782,328620
DA:3786,0
DA:3787,0
DA:3788,0
DA:3792,117711
DA:3793,78474
DA:3795,39237
DA:3797,39237
DA:3801,875983
DA:3802,573602
DA:3805,553502
DA:3807,553502
DA:3810,553502
DA:3811,553502
DA:3815,20100
DA:3817,20100
DA:3820,20100
DA:3822,20100
DA:3827,1825990
DA:3828,1523030
DA:3829,1523030
DA:3830,1523030
DA:3831,1523030
DA:3832,1523030
DA:3833,1523030
DA:3834,1523030
DA:3836,1523030
DA:3838,1523030
DA:3840,1523030
DA:3843,1523030
DA:3846,877711
DA:3847,574754
DA:3856,56030
DA:3857,56030
DA:3858,56030
DA:3859,56030
DA:3861,56030
DA:3863,156
DA:3865,55874
DA:3867,126546
DA:3869,70672
DA:3870,70672
DA:3874,51377
DA:3875,51377
DA:3876,51377
DA:3877,19118
DA:3878,19118
DA:3879,19118
DA:3882,70672
DA:3883,55874
DA:3885,70672
DA:3886,153
DA:3887,0
DA:3892,70672
DA:3893,51554
DA:3894,51554
DA:3895,51554
DA:3896,51554
DA:3897,51554
DA:3898,51554
DA:3899,51554
DA:3900,51554
DA:3909,56030
DA:3911,0
DA:3912,56030
DA:3914,4741
DA:3915,4741
DA:3918,56030
DA:3920,56030
DA:3926,38218
DA:3927,38218
DA:3928,38218
DA:3931,38218
DA:3933,38218
DA:3934,38218
DA:3935,38218
DA:3938,38218
DA:3941,38218
DA:3943,38218
DA:3949,38218
DA:3950,38218
DA:3951,38218
DA:3952,38218
DA:3955,38218
DA:3958,114654
DA:3959,76436
DA:3962,76436
DA:3964,0
DA:3969,38218
DA:3970,38218
DA:3972,38218
DA:3978,52769
DA:3979,52769
DA:3980,52769
DA:3983,52769
DA:3985,52769
DA:3986,52769
DA:3987,52769
DA:3990,52769
DA:3993,52769
DA:3995,52769
DA:4001,90987
DA:4002,90987
DA:4003,90987
DA:4004,90987
DA:4005,90987
DA:4006,90987
DA:4009,90987
DA:4011,90987
DA:4014,90987
DA:4015,90987
DA:4017,90987
DA:4018,46
DA:4019,46
DA:4021,46
DA:4022,46
DA:4025,46
DA:4027,46
DA:4028,46
DA:4031,90941
DA:4032,90941
DA:4036,90987
DA:4039,90987
DA:4042,90987
DA:4043,90987
DA:4046,90987
DA:4049,90987
DA:4051,90987
DA:4052,90987
DA:4053,90987
DA:4058,52769
DA:4059,52769
DA:4060,52769
DA:4061,52769
DA:4064,52769
DA:4067,158307
DA:4068,105538
DA:4071,93540
DA:4072,93540
DA:4075,4130770
DA:4076,4037230
DA:4077,4037230
DA:4078,0
DA:4083,11998
DA:4088,52769
DA:4089,52769
DA:4091,52769
DA:4097,4191
DA:4098,4191
DA:4099,4191
DA:4100,4191
DA:4103,4191
DA:4105,4191
DA:4106,4191
DA:4107,4191
DA:4110,4191
DA:4113,4191
DA:4116,4191
DA:4118,4191
DA:4124,4191
DA:4125,4191
DA:4126,4191
DA:4129,4191
DA:4131,4191
DA:4134,84943
DA:4135,80752
DA:4137,77984
DA:4138,77984
DA:4139,77984
DA:4140,77984
DA:4143,77984
DA:4144,77984
DA:4147,77984
DA:4148,77984
DA:4151,77984
DA:4154,77984
DA:4157,77984
DA:4159,77984
DA:4160,2768
DA:4162,2768
DA:4163,2768
DA:4165,2768
DA:4168,2768
DA:4169,2768
DA:4172,2768
DA:4175,2768
DA:4177,2768
DA:4179,0
DA:4183,4191
DA:4184,4191
DA:4189,4191
DA:4190,4191
DA:4191,4191
DA:4192,4191
DA:4195,4191
DA:4198,84943
DA:4199,80752
DA:4201,77984
DA:4202,77984
DA:4205,2481270
DA:4206,2403290
DA:4207,2403290
DA:4208,0
DA:4211,2768
DA:4212,2768
DA:4213,2768
DA:4214,2768
DA:4217,69318
DA:4218,66550
DA:4219,66550
DA:4220,0
DA:4224,0
DA:4229,4191
DA:4230,4191
DA:4232,4191
DA:4238,56960
DA:4239,56960
DA:4240,56960
DA:4241,56960
DA:4242,56960
DA:4243,56960
DA:4244,56960
DA:4247,56960
DA:4250,56960
DA:4251,56960
DA:4253,2698250
DA:4254,2641290
DA:4255,2641290
DA:4256,2641290
DA:4257,2641290
DA:4258,2641290
DA:4259,2641290
DA:4260,2641290
DA:4263,2641290
DA:4265,2641290
DA:4268,2641290
DA:4269,2641290
DA:4271,2641290
DA:4273,2641290
DA:4275,2641290
DA:4276,2641290
DA:4278,2641290
DA:4281,10694600
DA:4282,8053340
DA:4285,8053340
DA:4286,8053340
DA:4287,7035360
DA:4289,6507060
DA:4291,6507060
DA:4292,6507060
DA:4295,1546280
DA:4297,1546280
DA:4298,1435730
DA:4299,1435730
DA:4301,1435730
DA:4303,3824
DA:4306,1431910
DA:4307,1431910
DA:4309,1431910
DA:4311,1431910
DA:4315,110542
DA:4317,110542
DA:4319,110542
DA:4320,110542
DA:4322,0
DA:4323,0
DA:4324,0
DA:4330,2641290
DA:4331,2641290
DA:4332,2641290
DA:4336,243250
DA:4337,186290
DA:4339,56960
DA:4340,56960
DA:4342,56960
DA:4348,38218
DA:4349,38218
DA:4350,38218
DA:4351,38218
DA:4354,114654
DA:4355,76436
DA:4356,38611
DA:4360,776960
DA:4361,738742
DA:4362,738742
DA:4363,738742
DA:4364,738742
DA:4365,738742
DA:4366,738742
DA:4367,738742
DA:4370,738742
DA:4372,738742
DA:4375,738742
DA:4376,738742
DA:4378,738742
DA:4380,738742
DA:4382,738742
DA:4384,738742
DA:4387,2216230
DA:4388,1477480
DA:4391,1477480
DA:4393,1441170
DA:4399,36317
DA:4405,114654
DA:4406,76436
DA:4409,38218
DA:4415,37239
DA:4416,37239
DA:4417,37239
DA:4418,37239
DA:4419,37239
DA:4420,37239
DA:4422,76581
DA:4427,118026
DA:4428,78684
DA:4430,2103
DA:4432,76581
DA:4433,42336
DA:4434,42336
DA:4438,39342
DA:4439,0
DA:4442,39342
DA:4445,57758
DA:4446,54415
DA:4447,55655
DA:4448,54415
DA:4449,51272
DA:4451,18416
DA:4457,37239
DA:4459,37239
DA:4465,74478
DA:4466,74478
DA:4468,74478
DA:4469,21947
DA:4470,19844
DA:4471,0
DA:4473,19844
DA:4475,72375
DA:4476,35136
DA:4477,0
DA:4480,74478
DA:4487,256
DA:4488,256
DA:4489,0
DA:4491,256
DA:4493,256
DA:4494,256
DA:4495,256
DA:4498,256
DA:4500,256
DA:4501,256
DA:4502,256
DA:4505,256
DA:4508,256
DA:4509,256
DA:4510,2560
DA:4511,2304
DA:4512,2304
DA:4513,2304
DA:4515,11264
DA:4516,8960
DA:4518,2304
DA:4519,512
DA:4520,768
DA:4521,256
DA:4524,2304
DA:4525,0
DA:4528,2304
DA:4531,256
DA:4532,256
DA:4533,256
DA:4534,256
DA:4535,2560
DA:4536,2304
DA:4537,2304
DA:4539,2304
DA:4540,2304
DA:4541,2304
DA:4542,2304
DA:4543,2304
DA:4545,2304
DA:4547,1792
DA:4548,1792
DA:4549,1792
DA:4550,256
DA:4551,1792
DA:4552,256
DA:4554,1792
DA:4555,101616
DA:4556,99824
DA:4559,1792
DA:4561,1792
DA:4564,1792
DA:4567,1792
DA:4569,1792
DA:4573,256
DA:4574,256
DA:4576,256
DA:4577,256
DA:4578,2560
DA:4579,2304
DA:4580,2304
DA:4581,2304
DA:4583,2304
DA:4584,2304
DA:4587,2048
DA:4589,2304
DA:4590,512
DA:4591,512
DA:4593,1024
DA:4595,512
DA:4596,512
DA:4599,512
DA:4600,512
DA:4601,512
DA:4602,512
DA:4605,512
DA:4606,94364
DA:4607,93852
DA:4609,93852
DA:4610,93852
DA:4614,93852
DA:4615,93852
DA:4616,93852
DA:4617,93852
DA:4618,93852
DA:4619,93852
DA:4621,93852
DA:4623,93852
DA:4625,93852
DA:4628,93852
DA:4631,93852
DA:4632,93852
DA:4634,512
DA:4638,2560
DA:4639,2304
DA:4640,256
DA:4642,256
DA:4643,256
DA:4645,256
DA:4653,89
DA:4654,89
DA:4655,0
DA:4658,89
DA:4659,89
DA:4660,89
DA:4663,89
DA:4665,89
DA:4666,89
DA:4667,89
DA:4668,89
DA:4669,178
DA:4671,89
DA:4672,89
DA:4675,89
DA:4678,89
DA:4679,89
DA:4680,89
DA:4681,89
DA:4682,534
DA:4683,445
DA:4684,445
DA:4685,445
DA:4687,1335
DA:4688,890
DA:4690,445
DA:4691,89
DA:4692,89
DA:4693,0
DA:4696,445
DA:4697,0
DA:4700,445
DA:4704,89
DA:4705,89
DA:4706,445
DA:4707,356
DA:4708,356
DA:4711,89
DA:4712,178
DA:4713,89
DA:4714,89
DA:4717,89
DA:4718,0
DA:4720,89
DA:4721,89
DA:4722,534
DA:4723,445
DA:4724,445
DA:4726,445
DA:4727,445
DA:4728,445
DA:4729,445
DA:4730,445
DA:4732,445
DA:4734,356
DA:4735,356
DA:4736,356
DA:4737,89
DA:4739,356
DA:4740,3158
DA:4741,2802
DA:4744,356
DA:4746,356
DA:4749,356
DA:4752,356
DA:4754,356
DA:4759,534
DA:4760,445
DA:4761,445
DA:4762,445
DA:4764,445
DA:4765,89
DA:4766,89
DA:4768,178
DA:4770,89
DA:4771,89
DA:4773,89
DA:4774,89
DA:4775,89
DA:4776,89
DA:4779,89
DA:4780,1607
DA:4781,1518
DA:4782,1518
DA:4783,1518
DA:4787,1518
DA:4788,1518
DA:4789,1518
DA:4790,1518
DA:4792,1518
DA:4793,1518
DA:4795,1518
DA:4797,1518
DA:4799,1518
DA:4802,1518
DA:4805,1518
DA:4806,1518
DA:4808,89
DA:4812,534
DA:4813,445
DA:4816,89
DA:4818,89
DA:4819,89
DA:4820,89
DA:4822,89
DA:4829,9
DA:4830,9
DA:4832,9
DA:4833,0
DA:4835,9
DA:4838,9
DA:4840,9
DA:4841,9
DA:4842,9
DA:4843,9
DA:4844,18
DA:4847,9
DA:4849,9
DA:4850,9
DA:4851,9
DA:4852,9
DA:4853,54
DA:4854,45
DA:4855,45
DA:4856,45
DA:4858,45
DA:4860,45
DA:4862,36
DA:4863,36
DA:4864,36
DA:4865,9
DA:4867,36
DA:4868,258
DA:4869,222
DA:4872,36
DA:4875,36
DA:4878,36
DA:4881,36
DA:4883,36
DA:4887,9
DA:4888,9
DA:4889,54
DA:4890,45
DA:4891,45
DA:4893,45
DA:4894,9
DA:4895,9
DA:4897,18
DA:4900,9
DA:4901,9
DA:4902,9
DA:4903,9
DA:4904,9
DA:4905,9
DA:4908,9
DA:4909,165
DA:4910,156
DA:4911,156
DA:4912,156
DA:4914,156
DA:4915,156
DA:4917,0
DA:4920,0
DA:4921,0
DA:4924,156
DA:4925,156
DA:4926,156
DA:4928,156
DA:4930,156
DA:4931,156
DA:4934,156
DA:4936,156
DA:4938,156
DA:4941,156
DA:4944,156
DA:4945,156
DA:4947,9
DA:4951,54
DA:4952,45
DA:4954,9
DA:4956,9
DA:4957,9
DA:4959,9
DA:4966,0
DA:4967,0
DA:4968,0
DA:4970,0
DA:4971,0
DA:4973,0
DA:4976,0
DA:4978,0
DA:4979,0
DA:4980,0
DA:4981,0
DA:4982,0
DA:4985,0
DA:4987,0
DA:4988,0
DA:4989,0
DA:4990,0
DA:4991,0
DA:4992,0
DA:4993,0
DA:4994,0
DA:4995,0
DA:4997,0
DA:4999,0
DA:5001,0
DA:5003,0
DA:5004,0
DA:5006,0
DA:5008,0
DA:5009,0
DA:5011,0
DA:5012,0
DA:5013,0
DA:5016,0
DA:5019,0
DA:5022,0
DA:5025,0
DA:5028,0
DA:5032,0
DA:5034,0
DA:5035,0
DA:5036,0
DA:5037,0
DA:5038,0
DA:5040,0
DA:5041,0
DA:5042,0
DA:5044,0
DA:5045,0
DA:5051,0
DA:5053,0
DA:5054,0
DA:5056,0
DA:5057,0
DA:5058,0
DA:5059,0
DA:5062,0
DA:5063,0
DA:5064,0
DA:5071,0
DA:5072,0
DA:5073,0
DA:5075,0
DA:5077,0
DA:5078,0
DA:5081,0
DA:5083,0
DA:5085,0
DA:5088,0
DA:5091,0
DA:5092,0
DA:5094,0
DA:5098,0
DA:5099,0
DA:5101,0
DA:5103,0
DA:5104,0
DA:5106,0
DA:5115,608
DA:5116,608
DA:5117,608
DA:5118,608
DA:5119,608
DA:5120,608
DA:5121,608
DA:5122,608
DA:5123,608
DA:5124,608
DA:5125,608
DA:5126,608
DA:5127,608
DA:5128,608
DA:5130,608
DA:5133,608
DA:5136,608
DA:5137,98
DA:5138,89
DA:5140,9
DA:5144,510
DA:5145,256
DA:5146,256
DA:5148,0
DA:5153,254
DA:5154,0
DA:5159,254
DA:5161,230
DA:5162,6
DA:5165,254
DA:5166,254
DA:5167,254
DA:5170,254
DA:5172,254
DA:5173,254
DA:5174,508
DA:5177,254
DA:5178,254
DA:5181,254
DA:5184,1476
DA:5185,1222
DA:5186,1222
DA:5187,1222
DA:5188,3364
DA:5189,2142
DA:5190,1222
DA:5191,484
DA:5192,714
DA:5193,230
DA:5196,1222
DA:5197,0
DA:5201,1222
DA:5204,254
DA:5205,1476
DA:5206,1222
DA:5207,1222
DA:5209,1222
DA:5210,1222
DA:5211,1222
DA:5212,1222
DA:5213,1222
DA:5215,1222
DA:5216,738
DA:5219,738
DA:5222,738
DA:5223,738
DA:5224,48
DA:5229,738
DA:5230,48
DA:5231,48
DA:5232,48
DA:5236,738
DA:5237,18
DA:5238,18
DA:5239,18
DA:5244,15424
DA:5245,14686
DA:5248,738
DA:5250,738
DA:5253,738
DA:5256,738
DA:5257,0
DA:5258,738
DA:5262,484
DA:5263,448
DA:5264,448
DA:5267,9408
DA:5268,8960
DA:5269,8960
DA:5270,8960
DA:5271,8960
DA:5272,8960
DA:5274,8960
DA:5275,8960
DA:5277,0
DA:5279,8960
DA:5280,8960
DA:5282,8960
DA:5283,8960
DA:5284,8960
DA:5285,8960
DA:5287,8960
DA:5289,8960
DA:5291,8960
DA:5294,8960
DA:5297,8960
DA:5298,8960
DA:5300,448
DA:5305,254
DA:5309,254
DA:5310,24
DA:5311,24
DA:5314,120
DA:5315,96
DA:5316,96
DA:5317,96
DA:5318,96
DA:5319,96
DA:5321,96
DA:5322,96
DA:5324,0
DA:5326,96
DA:5327,96
DA:5328,96
DA:5330,0
DA:5332,96
DA:5333,96
DA:5334,96
DA:5336,96
DA:5338,96
DA:5340,96
DA:5343,96
DA:5346,96
DA:5347,96
DA:5349,96
DA:5351,254
DA:5354,230
DA:5356,6
DA:5357,6
DA:5359,24
DA:5360,18
DA:5361,18
DA:5362,18
DA:5363,18
DA:5364,18
DA:5366,18
DA:5367,18
DA:5368,18
DA:5370,18
DA:5371,12
DA:5372,12
DA:5373,12
DA:5375,0
DA:5376,0
DA:5378,12
DA:5382,6
DA:5383,6
DA:5384,6
DA:5388,18
DA:5390,18
DA:5392,18
DA:5395,18
DA:5398,18
DA:5399,18
DA:5401,18
DA:5403,254
DA:5406,1476
DA:5407,1222
DA:5409,254
DA:5412,254
DA:5413,24
DA:5415,254
DA:5416,6
DA:5432,37676
DA:5433,37676
DA:5434,37676
DA:5435,37676
DA:5436,37676
DA:5437,37676
DA:5440,270066
DA:5441,232390
DA:5442,232390
DA:5443,12898000
DA:5444,12665600
DA:5445,12665600
DA:5447,232390
DA:5448,92
DA:5454,232390
DA:5455,0
DA:5462,37676
DA:5463,270066
DA:5464,232390
DA:5465,92
DA:5470,270066
DA:5471,232390
DA:5472,232298
DA:5473,232390
DA:5477,37676
DA:5478,37676
DA:5479,37676
DA:5480,37676
DA:5489,977766
DA:5490,977766
DA:5491,214
DA:5492,214
DA:5493,64
DA:5495,214
DA:5500,2052560
DA:5501,1075000
DA:5502,1075000
DA:5503,974663
DA:5505,1075000
DA:5510,92
DA:5511,92
DA:5512,92
DA:5514,92
DA:5516,92
DA:5517,0
DA:5520,92
DA:5521,58
DA:5522,58
DA:5523,58
DA:5525,58
DA:5526,0
DA:5527,58
DA:5530,42
DA:5531,42
DA:5532,6
DA:5534,42
DA:5535,42
DA:5538,76
DA:5539,102
DA:5540,68
DA:5541,68
DA:5542,22
end_of_record
SF:/usr/include/c++/9/bits/stl_algobase.h
DA:198,0
DA:222,0
DA:227,0
DA:228,0
DA:280,0
DA:289,0
DA:290,0
DA:295,0
DA:375,0
DA:384,0
DA:385,0
DA:386,0
DA:387,0
DA:393,0
DA:398,0
DA:404,0
DA:438,0
DA:440,0
DA:465,0
DA:474,0
end_of_record
SF:/usr/include/c++/9/bits/stl_vector.h
FN:622,_ZNSt6vectorIP10ast_node_tSaIS1_EEC2ESt16initializer_listIS1_ERKS2_
FNDA:0,_ZNSt6vectorIP10ast_node_tSaIS1_EEC2ESt16initializer_listIS1_ERKS2_
FN:1753,_ZNKSt6vectorIN8BitSpace9BitFieldsItEESaIS2_EE12_M_check_lenEmPKc
FNDA:0,_ZNKSt6vectorIN8BitSpace9BitFieldsItEESaIS2_EE12_M_check_lenEmPKc
DA:94,440
DA:95,440
DA:106,440
DA:108,440
DA:109,440
DA:110,440
DA:114,440
DA:118,440
DA:119,440
DA:120,440
DA:121,440
DA:125,440
DA:128,440
DA:130,440
DA:133,440
DA:134,440
DA:273,0
DA:274,0
DA:277,440
DA:278,440
DA:281,440
DA:282,440
DA:285,440
DA:290,440
DA:291,440
DA:330,440
DA:332,440
DA:333,440
DA:334,440
DA:347,440
DA:350,0
DA:351,0
DA:453,0
DA:462,0
DA:466,0
DA:484,440
DA:494,440
DA:495,440
DA:622,0
DA:624,0
DA:626,0
DA:628,0
DA:675,440
DA:677,440
DA:678,440
DA:680,440
DA:706,440
DA:708,440
DA:711,440
DA:808,0
DA:809,0
DA:817,0
DA:818,0
DA:826,440
DA:827,440
DA:835,0
DA:836,0
DA:915,0
DA:916,0
DA:920,0
DA:921,0
DA:995,0
DA:997,0
DA:1040,5312
DA:1043,5312
DA:1200,440
DA:1201,440
DA:1505,0
DA:1508,0
DA:1511,0
DA:1512,0
DA:1753,0
DA:1755,0
DA:1756,0
DA:1758,0
DA:1759,0
DA:1773,0
DA:1780,0
DA:1781,0
DA:1812,440
DA:1814,440
DA:1815,440
DA:1816,440
DA:1817,440
end_of_record
SF:/workspace/vtr-verilog-to-routing/libs/librtlnumber/src/include/rtl_utils.hpp
FN:47,_Z12_assert_WerrbPKciNSt7__cxx1112basic_stringIcSt11char_traitsIcESaIcEEE
FNDA:0,_Z12_assert_WerrbPKciNSt7__cxx1112basic_stringIcSt11char_traitsIcESaIcEEE
DA:47,0
DA:48,0
DA:49,0
DA:50,0
DA:51,0
DA:52,0
DA:54,0
end_of_record
SF:/usr/include/c++/9/bits/stl_construct.h
DA:74,0
DA:75,0
DA:117,440
DA:127,440
DA:137,440
DA:203,0
DA:206,440
end_of_record
SF:/usr/include/string.h
DA:317,54720500
DA:319,28209500
end_of_record
SF:/usr/include/c++/9/bits/stl_iterator.h
DA:806,440
DA:819,0
DA:827,0
DA:829,0
DA:859,0
DA:860,0
DA:871,0
DA:907,0
DA:910,0
DA:989,0
DA:992,0
DA:1010,0
DA:1012,0
end_of_record
SF:/usr/include/c++/9/ostream
DA:108,0
DA:113,0
DA:565,0
DA:568,0
DA:570,0
DA:571,0
end_of_record
SF:/usr/include/c++/9/bits/stl_uninitialized.h
DA:76,0
DA:79,0
DA:82,0
DA:83,0
DA:115,0
DA:134,0
DA:140,0
DA:305,0
DA:307,0
DA:905,0
DA:912,0
DA:913,0
DA:949,0
DA:950,0
DA:964,0
end_of_record
SF:/usr/include/x86_64-linux-gnu/bits/string_fortified.h
DA:59,37676
DA:71,37676
DA:88,2141640
DA:90,2141640
DA:126,2141640
DA:128,2141640
end_of_record
SF:/usr/include/c++/9/bits/locale_facets.h
FN:872,_ZNKSt5ctypeIcE5widenEc
FNDA:0,_ZNKSt5ctypeIcE5widenEc
FN:1084,_ZNKSt5ctypeIcE8do_widenEc
FNDA:0,_ZNKSt5ctypeIcE8do_widenEc
DA:872,0
DA:874,0
DA:875,0
DA:876,0
DA:877,0
DA:1084,0
DA:1085,0
end_of_record
SF:/usr/include/c++/9/bits/alloc_traits.h
DA:469,24
DA:470,24
DA:482,0
DA:484,0
DA:495,0
DA:497,0
DA:505,0
DA:506,0
DA:514,24
DA:515,24
DA:545,440
DA:546,440
DA:553,440
DA:557,440
end_of_record
SF:/usr/include/c++/9/bits/stl_iterator_base_funcs.h
DA:98,66
DA:104,66
DA:138,66
DA:141,66
end_of_record
SF:/usr/include/c++/9/initializer_list
DA:71,0
DA:75,0
DA:79,0
end_of_record
TN:
SF:/workspace/vtr-verilog-to-routing/ODIN_II/SRC/netlist_cleanup.cpp
FN:62,_Z16insert_node_listP11node_list_tP7nnode_t
FNDA:0,_Z16insert_node_listP11node_list_tP7nnode_t
FN:69,_Z17traverse_backwardP7nnode_t
FNDA:60225200,_Z17traverse_backwardP7nnode_t
FN:87,_Z16traverse_forwardP7nnode_tii
FNDA:17867700,_Z16traverse_forwardP7nnode_tii
FN:140,_Z24mark_output_dependenciesP9netlist_t
FNDA:0,_Z24mark_output_dependenciesP9netlist_t
FN:149,_Z21identify_unused_nodesP9netlist_t
FNDA:3103,_Z21identify_unused_nodesP9netlist_t
FN:167,_Z19remove_unused_nodesP11node_list_t
FNDA:3103,_Z19remove_unused_nodesP11node_list_t
FN:194,_Z27calculate_addsub_statisticsP11node_list_t
FNDA:3103,_Z27calculate_addsub_statisticsP11node_list_t
FN:235,_Z19remove_unused_logicP9netlist_t
FNDA:3103,_Z19remove_unused_logicP9netlist_t
DA:62,2090740
DA:63,2090740
DA:64,0
DA:65,2090740
DA:69,60225200
DA:70,60225200
DA:71,15789900
DA:72,15789900
DA:73,75921500
DA:74,120262000
DA:75,60130100
DA:87,17867700
DA:88,17867700
DA:89,17867700
DA:93,17867700
DA:96,17867700
DA:98,17867700
DA:100,2060940
DA:103,17867700
DA:105,674137
DA:106,674137
DA:107,0
DA:110,0
DA:112,674137
DA:114,674137
DA:115,29804
DA:121,36604700
DA:122,18736900
DA:123,103639000
DA:124,84991000
DA:125,83737700
DA:126,83737700
DA:128,67211000
DA:129,17773400
DA:140,3103
DA:141,3103
DA:142,98218
DA:143,95115
DA:145,0
DA:149,3103
DA:150,3103
DA:151,3103
DA:153,3103
DA:154,3103
DA:156,3103
DA:157,3103
DA:158,3103
DA:159,3103
DA:160,88163
DA:161,85060
DA:163,3103
DA:167,3103
DA:168,2064040
DA:170,9153670
DA:171,7092730
DA:172,7092730
DA:174,2060940
DA:175,2060940
DA:177,3103
DA:194,3103
DA:195,32907
DA:199,534765
DA:200,506514
DA:201,29804
DA:204,504961
DA:207,504961
DA:208,504961
DA:211,476710
DA:213,29804
DA:214,28251
DA:215,15194
DA:216,15194
DA:217,15194
DA:218,13057
DA:219,13057
DA:220,13057
DA:221,13057
DA:224,28251
DA:225,28251
DA:228,29804
DA:231,3103
DA:232,3103
DA:235,3103
DA:236,3103
DA:237,3103
DA:238,3103
DA:239,3103
DA:240,3103
end_of_record
SF:/usr/include/c++/9/iostream
end_of_record
SF:/usr/include/c++/9/cmath
DA:350,28251
DA:351,28251
end_of_record
TN:
SF:/usr/include/c++/9/ext/alloc_traits.h
DA:97,26
DA:98,26
end_of_record
SF:/workspace/vtr-verilog-to-routing/ODIN_II/SRC/netlist_check.cpp
FN:53,_Z13check_netlistP9netlist_t
FNDA:6007,_Z13check_netlistP9netlist_t
FN:65,_Z54levelize_and_check_for_combinational_loop_and_livenessP9netlist_t
FNDA:0,_Z54levelize_and_check_for_combinational_loop_and_livenessP9netlist_t
FN:87,_Z24sequential_levelized_dfssP9netlist_t
FNDA:0,_Z24sequential_levelized_dfssP9netlist_t
FN:155,_Z44depth_first_traverse_until_next_ff_or_outputP7nnode_tS0_miP9netlist_t
FNDA:0,_Z44depth_first_traverse_until_next_ff_or_outputP7nnode_tS0_miP9netlist_t
FN:221,_Z46depth_first_traversal_check_if_forward_leveledsP9netlist_t
FNDA:0,_Z46depth_first_traversal_check_if_forward_leveledsP9netlist_t
FN:240,_Z45depth_first_traverse_check_if_forward_leveledP7nnode_tm
FNDA:0,_Z45depth_first_traverse_check_if_forward_leveledP7nnode_tm
FN:282,_Z17levelize_forwardsP9netlist_t
FNDA:0,_Z17levelize_forwardsP9netlist_t
FN:416,_Z60levelize_forwards_clean_checking_for_combo_loop_and_livenessP9netlist_t
FNDA:0,_Z60levelize_forwards_clean_checking_for_combo_loop_and_livenessP9netlist_t
FN:496,_Z18levelize_backwardsP9netlist_t
FNDA:0,_Z18levelize_backwardsP9netlist_t
FN:611,_Z46levelize_backwards_clean_checking_for_livenessP9netlist_t
FNDA:0,_Z46levelize_backwards_clean_checking_for_livenessP9netlist_t
FN:679,_Z30find_node_at_top_of_combo_loopP7nnode_t
FNDA:0,_Z30find_node_at_top_of_combo_loopP7nnode_t
DA:53,6007
DA:55,6007
DA:57,52
DA:59,6007
DA:65,0
DA:67,0
DA:70,0
DA:73,0
DA:76,0
DA:78,0
DA:81,0
DA:82,0
DA:87,0
DA:88,0
DA:90,0
DA:91,0
DA:92,0
DA:93,0
DA:94,0
DA:95,0
DA:98,0
DA:101,0
DA:102,0
DA:103,0
DA:104,0
DA:106,0
DA:111,0
DA:112,0
DA:113,0
DA:115,0
DA:117,0
DA:118,0
DA:119,0
DA:121,0
DA:124,0
DA:129,0
DA:130,0
DA:131,0
DA:132,0
DA:133,0
DA:136,0
DA:137,0
DA:138,0
DA:139,0
DA:140,0
DA:143,0
DA:144,0
DA:148,0
DA:150,0
DA:155,0
DA:156,0
DA:157,0
DA:158,0
DA:161,0
DA:163,0
DA:165,0
DA:166,0
DA:167,0
DA:169,0
DA:173,0
DA:176,0
DA:179,0
DA:182,0
DA:183,0
DA:186,0
DA:187,0
DA:188,0
DA:190,0
DA:195,0
DA:196,0
DA:198,0
DA:199,0
DA:200,0
DA:202,0
DA:203,0
DA:204,0
DA:205,0
DA:207,0
DA:208,0
DA:209,0
DA:212,0
DA:221,0
DA:222,0
DA:225,0
DA:226,0
DA:227,0
DA:231,0
DA:232,0
DA:233,0
DA:234,0
DA:235,0
DA:240,0
DA:241,0
DA:242,0
DA:243,0
DA:245,0
DA:251,0
DA:253,0
DA:254,0
DA:255,0
DA:257,0
DA:258,0
DA:259,0
DA:260,0
DA:262,0
DA:263,0
DA:264,0
DA:266,0
DA:267,0
DA:268,0
DA:272,0
DA:282,0
DA:283,0
DA:284,0
DA:285,0
DA:286,0
DA:289,0
DA:290,0
DA:291,0
DA:292,0
DA:293,0
DA:294,0
DA:295,0
DA:296,0
DA:298,0
DA:299,0
DA:300,0
DA:301,0
DA:302,0
DA:304,0
DA:305,0
DA:306,0
DA:307,0
DA:308,0
DA:310,0
DA:311,0
DA:312,0
DA:313,0
DA:314,0
DA:315,0
DA:316,0
DA:317,0
DA:318,0
DA:319,0
DA:320,0
DA:323,0
DA:324,0
DA:325,0
DA:326,0
DA:327,0
DA:328,0
DA:332,0
DA:334,0
DA:335,0
DA:336,0
DA:337,0
DA:338,0
DA:341,0
DA:342,0
DA:343,0
DA:344,0
DA:347,0
DA:348,0
DA:349,0
DA:350,0
DA:352,0
DA:353,0
DA:355,0
DA:356,0
DA:358,0
DA:360,0
DA:361,0
DA:363,0
DA:365,0
DA:367,0
DA:368,0
DA:371,0
DA:372,0
DA:375,0
DA:376,0
DA:380,0
DA:383,0
DA:384,0
DA:385,0
DA:391,0
DA:393,0
DA:394,0
DA:395,0
DA:397,0
DA:404,0
DA:406,0
DA:412,0
DA:416,0
DA:417,0
DA:418,0
DA:419,0
DA:420,0
DA:422,0
DA:424,0
DA:426,0
DA:427,0
DA:428,0
DA:429,0
DA:432,0
DA:433,0
DA:434,0
DA:435,0
DA:437,0
DA:438,0
DA:439,0
DA:442,0
DA:444,0
DA:445,0
DA:447,0
DA:448,0
DA:450,0
DA:452,0
DA:453,0
DA:454,0
DA:457,0
DA:458,0
DA:459,0
DA:465,0
DA:467,0
DA:470,0
DA:471,0
DA:474,0
DA:475,0
DA:482,0
DA:484,0
DA:490,0
DA:496,0
DA:497,0
DA:498,0
DA:499,0
DA:500,0
DA:503,0
DA:504,0
DA:505,0
DA:506,0
DA:507,0
DA:508,0
DA:509,0
DA:510,0
DA:511,0
DA:512,0
DA:513,0
DA:514,0
DA:517,0
DA:518,0
DA:519,0
DA:520,0
DA:521,0
DA:522,0
DA:526,0
DA:528,0
DA:529,0
DA:530,0
DA:531,0
DA:532,0
DA:535,0
DA:536,0
DA:537,0
DA:539,0
DA:540,0
DA:541,0
DA:543,0
DA:544,0
DA:545,0
DA:546,0
DA:548,0
DA:550,0
DA:551,0
DA:554,0
DA:555,0
DA:558,0
DA:559,0
DA:563,0
DA:564,0
DA:568,0
DA:569,0
DA:570,0
DA:571,0
DA:572,0
DA:573,0
DA:576,0
DA:577,0
DA:578,0
DA:579,0
DA:581,0
DA:583,0
DA:584,0
DA:585,0
DA:588,0
DA:598,0
DA:600,0
DA:606,0
DA:611,0
DA:612,0
DA:613,0
DA:614,0
DA:615,0
DA:617,0
DA:619,0
DA:621,0
DA:622,0
DA:623,0
DA:624,0
DA:627,0
DA:628,0
DA:629,0
DA:630,0
DA:633,0
DA:635,0
DA:637,0
DA:640,0
DA:641,0
DA:642,0
DA:645,0
DA:646,0
DA:647,0
DA:653,0
DA:655,0
DA:659,0
DA:660,0
DA:666,0
DA:668,0
DA:674,0
DA:679,0
DA:680,0
DA:681,0
DA:682,0
DA:684,0
DA:685,0
DA:686,0
DA:687,0
DA:688,0
DA:691,0
DA:692,0
DA:693,0
DA:694,0
DA:701,0
DA:702,0
DA:703,0
DA:706,0
DA:707,0
DA:710,0
DA:711,0
DA:712,0
DA:715,0
DA:716,0
end_of_record
SF:/usr/include/c++/9/bits/allocator.h
DA:141,26
DA:142,26
DA:153,52
end_of_record
SF:/usr/include/c++/9/bits/move.h
DA:47,52
DA:99,26
DA:138,52
DA:139,52
end_of_record
SF:/usr/include/c++/9/bits/basic_string.h
DA:150,26
DA:159,26
DA:160,26
DA:178,2
DA:179,2
DA:182,26
DA:183,26
DA:186,106
DA:190,26
DA:193,26
DA:200,26
DA:203,26
DA:210,2
DA:211,2
DA:214,26
DA:216,26
DA:217,26
DA:221,26
DA:222,26
DA:229,26
DA:231,26
DA:232,28
DA:236,2
DA:237,2
DA:243,26
DA:247,26
DA:263,26
DA:266,52
DA:286,2
DA:287,2
DA:290,26
DA:291,26
DA:346,26
DA:348,26
DA:349,24
DA:351,26
DA:392,26
DA:393,26
DA:448,26
DA:450,26
DA:451,26
DA:657,26
DA:658,26
DA:936,26
end_of_record
SF:/usr/include/c++/9/iostream
end_of_record
SF:/usr/include/c++/9/ext/type_traits.h
DA:152,26
end_of_record
SF:/usr/include/c++/9/bits/ptr_traits.h
DA:146,52
DA:147,52
end_of_record
SF:/usr/include/c++/9/bits/basic_string.tcc
FN:206,_ZNSt7__cxx1112basic_stringIcSt11char_traitsIcESaIcEE12_M_constructIPcEEvT_S7_St20forward_iterator_tag
FNDA:26,_ZNSt7__cxx1112basic_stringIcSt11char_traitsIcESaIcEE12_M_constructIPcEEvT_S7_St20forward_iterator_tag
DA:206,26
DA:211,26
DA:212,0
DA:215,26
DA:217,26
DA:219,2
DA:220,2
DA:225,26
DA:232,26
DA:233,26
end_of_record
SF:/usr/include/c++/9/bits/alloc_traits.h
DA:469,2
DA:470,2
DA:514,26
DA:515,26
end_of_record
SF:/usr/include/c++/9/bits/stl_iterator_base_funcs.h
DA:98,26
DA:104,26
DA:138,26
DA:141,26
end_of_record
SF:/usr/include/c++/9/bits/char_traits.h
DA:299,50
DA:300,24
DA:361,2
DA:363,2
DA:365,2
end_of_record
SF:/usr/include/c++/9/ext/new_allocator.h
DA:83,26
DA:89,52
DA:119,2
DA:128,2
end_of_record
TN:
SF:/usr/include/c++/9/iostream
end_of_record
SF:/usr/include/c++/9/ext/type_traits.h
DA:152,238882
end_of_record
SF:/usr/include/c++/9/bits/ptr_traits.h
DA:146,1618230
DA:147,1618230
end_of_record
SF:/usr/include/c++/9/bits/basic_string.tcc
FN:206,_ZNSt7__cxx1112basic_stringIcSt11char_traitsIcESaIcEE12_M_constructIPcEEvT_S7_St20forward_iterator_tag
FNDA:229891,_ZNSt7__cxx1112basic_stringIcSt11char_traitsIcESaIcEE12_M_constructIPcEEvT_S7_St20forward_iterator_tag
FN:206,_ZNSt7__cxx1112basic_stringIcSt11char_traitsIcESaIcEE12_M_constructIPKcEEvT_S8_St20forward_iterator_tag
FNDA:8991,_ZNSt7__cxx1112basic_stringIcSt11char_traitsIcESaIcEE12_M_constructIPKcEEvT_S8_St20forward_iterator_tag
DA:206,229891
DA:211,229891
DA:212,0
DA:215,229891
DA:217,229891
DA:219,0
DA:220,0
DA:225,229891
DA:232,229891
DA:233,229891
DA:206,8991
DA:211,8991
DA:212,0
DA:215,8991
DA:217,8991
DA:219,0
DA:220,0
DA:225,8991
DA:232,8991
DA:233,8991
end_of_record
SF:/usr/include/c++/9/bits/basic_string.h
FN:6057,_ZStplIcSt11char_traitsIcESaIcEENSt7__cxx1112basic_stringIT_T0_T1_EERKS8_PKS5_
FNDA:229891,_ZStplIcSt11char_traitsIcESaIcEENSt7__cxx1112basic_stringIT_T0_T1_EERKS8_PKS5_
FN:6097,_ZStplIcSt11char_traitsIcESaIcEENSt7__cxx1112basic_stringIT_T0_T1_EEOS8_S9_
FNDA:229891,_ZStplIcSt11char_traitsIcESaIcEENSt7__cxx1112basic_stringIT_T0_T1_EEOS8_S9_
FN:6121,_ZStplIcSt11char_traitsIcESaIcEENSt7__cxx1112basic_stringIT_T0_T1_EEOS8_PKS5_
FNDA:229891,_ZStplIcSt11char_traitsIcESaIcEENSt7__cxx1112basic_stringIT_T0_T1_EEOS8_PKS5_
DA:150,928555
DA:156,229891
DA:157,229891
DA:159,229891
DA:160,689673
DA:178,918116
DA:179,0
DA:182,698664
DA:183,698664
DA:186,3941920
DA:190,1379350
DA:193,459782
DA:200,1618230
DA:203,1618230
DA:210,458334
DA:211,0
DA:214,698664
DA:216,698664
DA:217,698664
DA:221,1618230
DA:222,1618230
DA:229,928555
DA:231,468773
DA:232,1166700
DA:236,238142
DA:237,238142
DA:243,459782
DA:247,459782
DA:263,459782
DA:266,229891
DA:286,697924
DA:287,238142
DA:290,229891
DA:291,229891
DA:346,238882
DA:348,238882
DA:349,89700
DA:351,238882
DA:392,229891
DA:393,229891
DA:396,8991
DA:398,8991
DA:448,229891
DA:450,229891
DA:451,459782
DA:552,459782
DA:553,459782
DA:555,459782
DA:557,1448
DA:562,458334
DA:563,458334
DA:569,459782
DA:570,459782
DA:571,459782
DA:625,229891
DA:627,229891
DA:628,229891
DA:657,468773
DA:658,468773
DA:704,8991
DA:705,8991
DA:930,459782
DA:936,229891
DA:993,0
DA:995,229891
DA:1221,229891
DA:1222,229891
DA:1639,0
DA:1641,0
DA:2300,229891
DA:2301,229891
DA:6057,229891
DA:6060,229891
DA:6061,229891
DA:6062,229891
DA:6097,229891
DA:6100,229891
DA:6101,459782
DA:6102,229891
DA:6103,0
DA:6104,229891
DA:6121,229891
DA:6123,229891
DA:6546,229891
DA:6547,229891
DA:6548,229891
end_of_record
SF:/usr/include/c++/9/bits/move.h
DA:47,0
DA:74,0
DA:99,689673
DA:138,2537790
DA:139,1618230
end_of_record
SF:/usr/include/c++/9/ext/string_conversions.h
FN:99,_ZN9__gnu_cxx12__to_xstringINSt7__cxx1112basic_stringIcSt11char_traitsIcESaIcEEEcEET_PFiPT0_mPKS8_P13__va_list_tagEmSB_z
FNDA:229891,_ZN9__gnu_cxx12__to_xstringINSt7__cxx1112basic_stringIcSt11char_traitsIcESaIcEEEcEET_PFiPT0_mPKS8_P13__va_list_tagEmSB_z
DA:99,229891
DA:105,229891
DA:109,229891
DA:111,229891
DA:113,229891
DA:115,229891
end_of_record
SF:/usr/include/c++/9/new
DA:173,0
DA:174,0
end_of_record
SF:/usr/include/c++/9/bits/vector.tcc
FN:198,_ZNSt6vectorISt4pairIP7nnode_tiESaIS3_EEaSERKS5_
FNDA:0,_ZNSt6vectorISt4pairIP7nnode_tiESaIS3_EEaSERKS5_
FN:611,_ZNSt6vectorISt4pairIP7nnode_tiESaIS3_EE17_M_default_appendEm
FNDA:0,_ZNSt6vectorISt4pairIP7nnode_tiESaIS3_EE17_M_default_appendEm
FN:611,_ZNSt6vectorImSaImEE17_M_default_appendEm
FNDA:0,_ZNSt6vectorImSaImEE17_M_default_appendEm
FN:611,_ZNSt6vectorIP7nnode_tSaIS1_EE17_M_default_appendEm
FNDA:0,_ZNSt6vectorIP7nnode_tSaIS1_EE17_M_default_appendEm
FN:611,_ZNSt6vectorI12AdderTreeRowSaIS0_EE17_M_default_appendEm
FNDA:0,_ZNSt6vectorI12AdderTreeRowSaIS0_EE17_M_default_appendEm
DA:198,0
DA:201,0
DA:223,0
DA:224,0
DA:226,0
DA:228,0
DA:229,0
DA:230,0
DA:231,0
DA:232,0
DA:233,0
DA:234,0
DA:236,0
DA:238,0
DA:239,0
DA:243,0
DA:245,0
DA:248,0
DA:250,0
DA:252,0
DA:611,0
DA:614,0
DA:616,0
DA:617,0
DA:618,0
DA:620,0
DA:621,0
DA:623,0
DA:626,0
DA:627,0
DA:628,0
DA:633,0
DA:635,0
DA:640,0
DA:641,0
DA:648,0
DA:649,0
DA:675,0
DA:676,0
DA:677,0
DA:678,0
DA:679,0
DA:680,0
DA:683,0
DA:611,0
DA:614,0
DA:616,0
DA:617,0
DA:618,0
DA:620,0
DA:621,0
DA:623,0
DA:626,0
DA:627,0
DA:628,0
DA:633,0
DA:635,0
DA:640,0
DA:641,0
DA:648,0
DA:649,0
DA:675,0
DA:676,0
DA:677,0
DA:678,0
DA:679,0
DA:680,0
DA:683,0
DA:611,0
DA:614,0
DA:616,0
DA:617,0
DA:618,0
DA:620,0
DA:621,0
DA:623,0
DA:626,0
DA:627,0
DA:628,0
DA:633,0
DA:635,0
DA:640,0
DA:641,0
DA:648,0
DA:649,0
DA:675,0
DA:676,0
DA:677,0
DA:678,0
DA:679,0
DA:680,0
DA:683,0
DA:611,0
DA:614,0
DA:616,0
DA:617,0
DA:618,0
DA:620,0
DA:621,0
DA:623,0
DA:626,0
DA:627,0
DA:628,0
DA:633,0
DA:635,0
DA:640,0
DA:641,0
DA:648,0
DA:649,0
DA:675,0
DA:676,0
DA:677,0
DA:678,0
DA:679,0
DA:680,0
DA:683,0
end_of_record
SF:/usr/include/c++/9/bits/allocator.h
DA:138,238882
DA:141,919564
DA:142,919564
DA:153,707655
end_of_record
SF:/usr/include/c++/9/ext/alloc_traits.h
DA:97,229891
DA:98,229891
end_of_record
SF:/usr/include/x86_64-linux-gnu/bits/stdio2.h
DA:98,874006
DA:100,504922
DA:105,6693
DA:107,3565
end_of_record
SF:/workspace/vtr-verilog-to-routing/ODIN_II/SRC/multipliers.cpp
FN:91,_Z34instantiate_simple_soft_multiplierP7nnode_tsP9netlist_t
FNDA:866,_Z34instantiate_simple_soft_multiplierP7nnode_tsP9netlist_t
FN:240,_Z22init_mult_distributionv
FNDA:1567,_Z22init_mult_distributionv
FN:249,_Z24record_mult_distributionP7nnode_t
FNDA:9114,_Z24record_mult_distributionP7nnode_t
FN:265,_Z24report_mult_distributionv
FNDA:3103,_Z24report_mult_distributionv
FN:289,_Z21find_hard_multipliersv
FNDA:3109,_Z21find_hard_multipliersv
FN:307,_Z23declare_hard_multiplierP7nnode_t
FNDA:8991,_Z23declare_hard_multiplierP7nnode_t
FN:345,_Z27instantiate_hard_multiplierP7nnode_tsP9netlist_t
FNDA:8991,_Z27instantiate_hard_multiplierP7nnode_tsP9netlist_t
FN:389,_Z26add_the_blackbox_for_multsP8_IO_FILE
FNDA:3103,_Z26add_the_blackbox_for_multsP8_IO_FILE
FN:463,_Z20define_mult_functionP7nnode_tP8_IO_FILE
FNDA:8938,_Z20define_mult_functionP7nnode_tP8_IO_FILE
FN:545,_Z21init_split_multiplierP7nnode_tS0_iiiiS0_S0_
FNDA:88,_Z21init_split_multiplierP7nnode_tS0_iiiiS0_S0_
FN:595,_Z21init_multiplier_adderP7nnode_tS0_ii
FNDA:44,_Z21init_multiplier_adderP7nnode_tS0_ii
FN:657,_Z16split_multiplierP7nnode_tiiiiP9netlist_t
FNDA:0,_Z16split_multiplierP7nnode_tiiiiP9netlist_t
FN:773,_Z18split_multiplier_aP7nnode_tiii
FNDA:16,_Z18split_multiplier_aP7nnode_tiii
FN:846,_Z18split_multiplier_bP7nnode_tiii
FNDA:28,_Z18split_multiplier_bP7nnode_tiii
FN:912,_Z14pad_multiplierP7nnode_tP9netlist_t
FNDA:0,_Z14pad_multiplierP7nnode_tP9netlist_t
FN:1014,_Z19iterate_multipliersP9netlist_t
FNDA:1564,_Z19iterate_multipliersP9netlist_t
FN:1116,_Z21split_soft_multiplierP7nnode_tP9netlist_t
FNDA:0,_Z21split_soft_multiplierP7nnode_tP9netlist_t
FN:1304,_Z17is_ast_multiplierP10ast_node_t
FNDA:0,_Z17is_ast_multiplierP10ast_node_t
FN:1332,_Z17clean_multipliersv
FNDA:1564,_Z17clean_multipliersv
FN:1338,_Z16free_multipliersv
FNDA:223,_Z16free_multipliersv
DA:63,0
DA:91,866
DA:92,866
DA:93,866
DA:94,866
DA:95,866
DA:96,866
DA:97,866
DA:98,866
DA:99,866
DA:100,866
DA:101,866
DA:102,866
DA:107,866
DA:108,866
DA:109,866
DA:110,866
DA:111,866
DA:112,866
DA:113,866
DA:114,866
DA:115,866
DA:117,866
DA:118,866
DA:120,866
DA:123,866
DA:126,13258
DA:128,12392
DA:130,12392
DA:131,11526
DA:134,260956
DA:136,248564
DA:141,13258
DA:142,260956
DA:144,248564
DA:146,12392
DA:149,236172
DA:153,248564
DA:155,11428
DA:158,237136
DA:164,12392
DA:166,260188
DA:169,248662
DA:171,12294
DA:173,10562
DA:176,1732
DA:178,236368
DA:180,225708
DA:182,10660
DA:185,248662
DA:187,237136
DA:189,11526
DA:196,24686
DA:197,23820
DA:199,0
DA:200,23820
DA:202,866
DA:203,22954
DA:205,10660
DA:208,12294
DA:209,12294
DA:214,12392
DA:215,11526
DA:219,866
DA:220,12392
DA:221,11526
DA:223,866
DA:226,13258
DA:228,12392
DA:229,12392
DA:232,866
DA:233,866
DA:235,866
DA:240,1567
DA:241,1567
DA:242,1567
DA:243,1567
DA:244,1567
DA:249,9114
DA:250,9114
DA:252,9114
DA:253,9114
DA:255,9114
DA:256,9114
DA:258,9114
DA:259,9114
DA:265,3103
DA:266,3103
DA:268,3103
DA:271,1564
DA:272,1564
DA:273,59378
DA:274,2137610
DA:275,2079790
DA:276,437
DA:277,2079790
DA:281,1564
DA:282,1564
DA:283,1564
DA:289,3109
DA:290,3109
DA:291,3109
DA:292,7283
DA:293,5741
DA:294,1567
DA:295,1567
DA:297,4174
DA:307,8991
DA:308,8991
DA:309,8991
DA:312,8991
DA:313,0
DA:315,8991
DA:316,8991
DA:317,8991
DA:318,8991
DA:319,8991
DA:321,2201
DA:322,2201
DA:323,2201
DA:325,28859
DA:326,28479
DA:329,19868
DA:333,380
DA:334,380
DA:335,380
DA:336,380
DA:337,380
DA:338,380
DA:339,380
DA:345,8991
DA:346,8991
DA:349,8991
DA:351,8991
DA:352,8991
DA:353,8991
DA:354,8991
DA:355,8991
DA:358,8991
DA:360,0
DA:361,0
DA:362,0
DA:363,0
DA:364,0
DA:366,0
DA:367,0
DA:368,0
DA:371,238882
DA:372,229891
DA:373,0
DA:376,229891
DA:377,689673
DA:378,229891
DA:380,8991
DA:382,8991
DA:383,17922
DA:389,3103
DA:390,3103
DA:391,3103
DA:392,3103
DA:393,3103
DA:394,3103
DA:395,3103
DA:396,3103
DA:399,3103
DA:400,2880
DA:403,1564
DA:404,1564
DA:405,1564
DA:406,1564
DA:407,1564
DA:410,1564
DA:411,1564
DA:415,603
DA:417,380
DA:418,0
DA:420,380
DA:423,380
DA:424,380
DA:425,11045
DA:426,10665
DA:427,5887
DA:429,4778
DA:432,10665
DA:433,797
DA:435,10665
DA:437,380
DA:440,380
DA:441,11045
DA:442,10665
DA:443,10665
DA:444,1057
DA:445,1057
DA:447,10665
DA:449,380
DA:450,380
DA:451,380
DA:452,380
DA:454,380
DA:457,223
DA:463,8938
DA:464,8938
DA:465,8938
DA:466,8938
DA:468,8938
DA:469,8938
DA:470,8938
DA:471,8938
DA:472,8938
DA:474,8938
DA:476,8938
DA:477,0
DA:479,8938
DA:480,2716
DA:481,1358
DA:483,1358
DA:485,15160
DA:486,7580
DA:488,7580
DA:492,236757
DA:493,248077
DA:494,130789
DA:495,130789
DA:496,130789
DA:497,130789
DA:499,130789
DA:500,129381
DA:502,1408
DA:504,97030
DA:505,97030
DA:506,97030
DA:507,97030
DA:509,194060
DA:510,97030
DA:511,8208
DA:513,97030
DA:514,96070
DA:516,960
DA:519,227819
DA:520,151728
DA:523,227819
DA:526,236757
DA:527,227819
DA:528,227819
DA:529,215456
DA:532,227819
DA:535,8938
DA:536,8938
DA:545,88
DA:546,88
DA:549,88
DA:550,88
DA:551,88
DA:552,88
DA:555,88
DA:556,88
DA:557,88
DA:558,88
DA:559,88
DA:560,88
DA:561,88
DA:564,88
DA:565,88
DA:566,2520
DA:567,2432
DA:568,704
DA:570,1728
DA:573,2688
DA:574,2600
DA:575,512
DA:577,2088
DA:581,88
DA:582,88
DA:583,5120
DA:584,5032
DA:586,88
DA:595,44
DA:596,44
DA:598,44
DA:599,44
DA:600,44
DA:601,44
DA:604,44
DA:605,44
DA:608,44
DA:609,44
DA:610,44
DA:611,44
DA:612,44
DA:613,44
DA:614,44
DA:617,44
DA:618,44
DA:619,4940
DA:620,4896
DA:623,44
DA:624,44
DA:625,2716
DA:626,2672
DA:628,44
DA:629,44
DA:657,0
DA:658,0
DA:659,0
DA:662,0
DA:663,0
DA:666,0
DA:667,0
DA:668,0
DA:669,0
DA:670,0
DA:671,0
DA:674,0
DA:675,0
DA:676,0
DA:677,0
DA:678,0
DA:679,0
DA:682,0
DA:683,0
DA:684,0
DA:685,0
DA:686,0
DA:687,0
DA:690,0
DA:691,0
DA:692,0
DA:693,0
DA:694,0
DA:695,0
DA:698,0
DA:699,0
DA:700,0
DA:701,0
DA:703,0
DA:706,0
DA:707,0
DA:708,0
DA:709,0
DA:710,0
DA:713,0
DA:714,0
DA:715,0
DA:717,0
DA:718,0
DA:719,0
DA:722,0
DA:723,0
DA:724,0
DA:727,0
DA:728,0
DA:729,0
DA:730,0
DA:731,0
DA:734,0
DA:735,0
DA:739,0
DA:740,0
DA:744,0
DA:745,0
DA:746,0
DA:749,0
DA:750,0
DA:751,0
DA:753,0
DA:773,16
DA:774,16
DA:775,16
DA:778,16
DA:779,16
DA:782,16
DA:783,16
DA:784,16
DA:785,16
DA:786,16
DA:787,16
DA:790,16
DA:791,16
DA:792,16
DA:793,16
DA:794,16
DA:795,16
DA:798,16
DA:799,16
DA:800,16
DA:801,16
DA:802,16
DA:805,528
DA:806,512
DA:807,976
DA:808,960
DA:811,592
DA:812,576
DA:814,976
DA:815,960
DA:818,16
DA:819,16
DA:820,16
DA:823,16
DA:824,16
DA:825,16
DA:826,16
DA:846,28
DA:847,28
DA:848,28
DA:851,28
DA:852,28
DA:855,28
DA:856,28
DA:857,28
DA:858,28
DA:859,28
DA:860,28
DA:863,28
DA:864,28
DA:865,28
DA:866,28
DA:867,28
DA:868,28
DA:871,28
DA:872,28
DA:873,28
DA:874,28
DA:875,28
DA:878,732
DA:879,704
DA:880,1036
DA:881,1008
DA:882,1740
DA:883,1712
DA:886,596
DA:887,568
DA:889,1740
DA:890,1712
DA:893,28
DA:894,28
DA:895,28
DA:898,28
DA:899,28
DA:900,28
DA:901,28
DA:912,0
DA:913,0
DA:914,0
DA:915,0
DA:917,0
DA:919,0
DA:921,0
DA:922,0
DA:924,0
DA:925,0
DA:926,0
DA:927,0
DA:930,0
DA:931,0
DA:932,0
DA:933,0
DA:934,0
DA:936,0
DA:937,0
DA:938,0
DA:940,0
DA:941,0
DA:942,0
DA:943,0
DA:944,0
DA:945,0
DA:946,0
DA:947,0
DA:948,0
DA:949,0
DA:950,0
DA:956,0
DA:957,0
DA:960,0
DA:961,0
DA:962,0
DA:966,0
DA:967,0
DA:968,0
DA:970,0
DA:973,0
DA:976,0
DA:978,0
DA:979,0
DA:980,0
DA:982,0
DA:985,0
DA:990,0
DA:991,0
DA:992,0
DA:994,0
DA:996,0
DA:997,0
DA:999,0
DA:1002,0
DA:1014,1564
DA:1015,1564
DA:1016,1564
DA:1017,1564
DA:1018,1564
DA:1021,1564
DA:1024,1564
DA:1025,1564
DA:1026,1564
DA:1027,0
DA:1028,0
DA:1029,0
DA:1032,10722
DA:1033,9158
DA:1034,9158
DA:1036,9158
DA:1038,9158
DA:1039,24
DA:1041,9158
DA:1043,9158
DA:1044,9158
DA:1045,9158
DA:1046,9158
DA:1047,2241
DA:1048,2241
DA:1049,2241
DA:1053,9158
DA:1054,0
DA:1055,0
DA:1056,0
DA:1057,0
DA:1058,0
DA:1059,9158
DA:1061,16
DA:1062,16
DA:1063,16
DA:1064,9142
DA:1066,28
DA:1067,28
DA:1068,28
DA:1074,9114
DA:1076,9114
DA:1077,0
DA:1083,9114
DA:1085,0
DA:1086,0
DA:1087,0
DA:1116,0
DA:1117,0
DA:1118,0
DA:1119,0
DA:1120,0
DA:1122,0
DA:1123,0
DA:1129,0
DA:1132,0
DA:1136,0
DA:1138,0
DA:1140,0
DA:1143,0
DA:1145,0
DA:1147,0
DA:1148,0
DA:1150,0
DA:1151,0
DA:1153,0
DA:1154,0
DA:1157,0
DA:1161,0
DA:1162,0
DA:1164,0
DA:1166,0
DA:1169,0
DA:1172,0
DA:1174,0
DA:1177,0
DA:1183,0
DA:1185,0
DA:1187,0
DA:1188,0
DA:1191,0
DA:1192,0
DA:1193,0
DA:1194,0
DA:1195,0
DA:1198,0
DA:1200,0
DA:1203,0
DA:1206,0
DA:1207,0
DA:1208,0
DA:1211,0
DA:1212,0
DA:1214,0
DA:1215,0
DA:1218,0
DA:1219,0
DA:1223,0
DA:1225,0
DA:1226,0
DA:1227,0
DA:1230,0
DA:1233,0
DA:1234,0
DA:1237,0
DA:1243,0
DA:1244,0
DA:1249,0
DA:1252,0
DA:1253,0
DA:1254,0
DA:1262,0
DA:1263,0
DA:1265,0
DA:1266,0
DA:1270,0
DA:1271,0
DA:1272,0
DA:1273,0
DA:1275,0
DA:1276,0
DA:1282,0
DA:1283,0
DA:1284,0
DA:1285,0
DA:1287,0
DA:1288,0
DA:1294,0
DA:1295,0
DA:1296,0
DA:1299,0
DA:1300,0
DA:1301,0
DA:1302,0
DA:1304,0
DA:1305,0
DA:1306,0
DA:1307,0
DA:1308,0
DA:1310,0
DA:1311,0
DA:1313,0
DA:1314,0
DA:1316,0
DA:1323,0
DA:1332,1564
DA:1333,1564
DA:1334,0
DA:1335,1564
DA:1338,223
DA:1339,223
DA:1342,603
DA:1343,380
DA:1344,380
DA:1345,380
DA:1348,223
DA:1350,223
end_of_record
SF:/usr/include/c++/9/bits/stl_pair.h
DA:229,0
DA:230,0
DA:341,0
DA:342,0
DA:378,0
DA:383,0
DA:384,0
DA:389,0
DA:396,0
DA:397,0
end_of_record
SF:/usr/include/c++/9/bits/stl_algobase.h
DA:198,0
DA:222,9158
DA:227,9158
DA:228,2241
DA:280,0
DA:290,0
DA:295,0
DA:337,0
DA:340,0
DA:342,0
DA:343,0
DA:344,0
DA:393,0
DA:398,0
DA:404,0
DA:438,0
DA:440,0
DA:465,0
DA:474,0
DA:769,0
DA:770,0
DA:771,0
DA:772,0
DA:808,0
end_of_record
SF:/usr/include/c++/9/bits/stl_vector.h
FN:507,_ZNSt6vectorIS_I12AdderTreeRowSaIS0_EESaIS2_EEC2EmRKS3_
FNDA:0,_ZNSt6vectorIS_I12AdderTreeRowSaIS0_EESaIS2_EEC2EmRKS3_
FN:507,_ZNSt6vectorIS_IP7nnode_tSaIS1_EESaIS3_EEC2EmRKS4_
FNDA:0,_ZNSt6vectorIS_IP7nnode_tSaIS1_EESaIS3_EEC2EmRKS4_
FN:507,_ZNSt6vectorIS_ImSaImEESaIS1_EEC2EmRKS2_
FNDA:0,_ZNSt6vectorIS_ImSaImEESaIS1_EEC2EmRKS2_
FN:507,_ZNSt6vectorISt4pairIP7nnode_tiESaIS3_EEC2EmRKS4_
FNDA:0,_ZNSt6vectorISt4pairIP7nnode_tiESaIS3_EEC2EmRKS4_
FN:550,_ZNSt6vectorISt4pairIP7nnode_tiESaIS3_EEC2ERKS5_
FNDA:0,_ZNSt6vectorISt4pairIP7nnode_tiESaIS3_EEC2ERKS5_
FN:675,_ZNSt6vectorIS_I12AdderTreeRowSaIS0_EESaIS2_EED2Ev
FNDA:0,_ZNSt6vectorIS_I12AdderTreeRowSaIS0_EESaIS2_EED2Ev
FN:675,_ZNSt6vectorIS_IP7nnode_tSaIS1_EESaIS3_EED2Ev
FNDA:0,_ZNSt6vectorIS_IP7nnode_tSaIS1_EESaIS3_EED2Ev
FN:675,_ZNSt6vectorIS_ImSaImEESaIS1_EED2Ev
FNDA:0,_ZNSt6vectorIS_ImSaImEESaIS1_EED2Ev
FN:675,_ZNSt6vectorI12AdderTreeRowSaIS0_EED2Ev
FNDA:0,_ZNSt6vectorI12AdderTreeRowSaIS0_EED2Ev
FN:934,_ZNSt6vectorIP7nnode_tSaIS1_EE6resizeEm
FNDA:0,_ZNSt6vectorIP7nnode_tSaIS1_EE6resizeEm
FN:934,_ZNSt6vectorI12AdderTreeRowSaIS0_EE6resizeEm
FNDA:0,_ZNSt6vectorI12AdderTreeRowSaIS0_EE6resizeEm
FN:934,_ZNSt6vectorImSaImEE6resizeEm
FNDA:0,_ZNSt6vectorImSaImEE6resizeEm
FN:934,_ZNSt6vectorISt4pairIP7nnode_tiESaIS3_EE6resizeEm
FNDA:0,_ZNSt6vectorISt4pairIP7nnode_tiESaIS3_EE6resizeEm
FN:1753,_ZNKSt6vectorI12AdderTreeRowSaIS0_EE12_M_check_lenEmPKc
FNDA:0,_ZNKSt6vectorI12AdderTreeRowSaIS0_EE12_M_check_lenEmPKc
FN:1753,_ZNKSt6vectorIP7nnode_tSaIS1_EE12_M_check_lenEmPKc
FNDA:0,_ZNKSt6vectorIP7nnode_tSaIS1_EE12_M_check_lenEmPKc
FN:1753,_ZNKSt6vectorImSaImEE12_M_check_lenEmPKc
FNDA:0,_ZNKSt6vectorImSaImEE12_M_check_lenEmPKc
FN:1753,_ZNKSt6vectorISt4pairIP7nnode_tiESaIS3_EE12_M_check_lenEmPKc
FNDA:0,_ZNKSt6vectorISt4pairIP7nnode_tiESaIS3_EE12_M_check_lenEmPKc
DA:94,0
DA:95,0
DA:99,0
DA:100,0
DA:101,0
DA:106,0
DA:108,0
DA:109,0
DA:110,0
DA:114,0
DA:118,0
DA:119,0
DA:120,0
DA:121,0
DA:125,0
DA:128,0
DA:130,0
DA:133,0
DA:134,0
DA:140,0
DA:141,0
DA:273,0
DA:274,0
DA:277,0
DA:278,0
DA:281,0
DA:282,0
DA:285,0
DA:290,0
DA:291,0
DA:300,0
DA:301,0
DA:302,0
DA:305,0
DA:330,0
DA:332,0
DA:333,0
DA:334,0
DA:347,0
DA:350,0
DA:351,0
DA:356,0
DA:358,0
DA:359,0
DA:360,0
DA:450,0
DA:453,0
DA:462,0
DA:466,0
DA:484,0
DA:494,0
DA:495,0
DA:507,0
DA:508,0
DA:509,0
DA:507,0
DA:508,0
DA:509,0
DA:507,0
DA:508,0
DA:509,0
DA:507,0
DA:508,0
DA:509,0
DA:550,0
DA:552,0
DA:554,0
DA:555,0
DA:557,0
DA:558,0
DA:569,0
DA:675,0
DA:677,0
DA:678,0
DA:680,0
DA:675,0
DA:677,0
DA:678,0
DA:680,0
DA:675,0
DA:677,0
DA:678,0
DA:680,0
DA:675,0
DA:677,0
DA:678,0
DA:680,0
DA:675,0
DA:677,0
DA:678,0
DA:680,0
DA:706,0
DA:708,0
DA:711,0
DA:809,0
DA:817,0
DA:818,0
DA:826,0
DA:827,0
DA:835,0
DA:836,0
DA:915,0
DA:916,0
DA:920,0
DA:921,0
DA:934,0
DA:936,0
DA:937,0
DA:938,0
DA:939,0
DA:940,0
DA:934,0
DA:936,0
DA:937,0
DA:938,0
DA:939,0
DA:940,0
DA:934,0
DA:936,0
DA:937,0
DA:938,0
DA:939,0
DA:940,0
DA:934,0
DA:936,0
DA:937,0
DA:938,0
DA:939,0
DA:940,0
DA:995,0
DA:997,0
DA:1040,0
DA:1043,0
DA:1140,0
DA:1143,0
DA:1505,0
DA:1508,0
DA:1511,0
DA:1512,0
DA:1600,0
DA:1602,0
DA:1603,0
DA:1604,0
DA:1753,0
DA:1755,0
DA:1756,0
DA:1758,0
DA:1759,0
DA:1753,0
DA:1755,0
DA:1756,0
DA:1758,0
DA:1759,0
DA:1753,0
DA:1755,0
DA:1756,0
DA:1758,0
DA:1759,0
DA:1753,0
DA:1755,0
DA:1756,0
DA:1758,0
DA:1759,0
DA:1764,0
DA:1766,0
DA:1767,0
DA:1773,0
DA:1780,0
DA:1781,0
DA:1789,0
DA:1791,0
DA:1793,0
DA:1794,0
DA:1795,0
DA:1812,0
DA:1814,0
DA:1815,0
DA:1816,0
DA:1817,0
end_of_record
SF:/usr/include/c++/9/bits/stl_iterator.h
DA:806,0
DA:807,0
DA:819,0
DA:827,0
DA:829,0
DA:860,0
DA:867,0
DA:868,0
DA:871,0
DA:907,0
DA:910,0
DA:1012,0
end_of_record
SF:/usr/include/c++/9/bits/stl_construct.h
DA:74,0
DA:75,0
DA:97,0
DA:98,0
DA:107,0
DA:108,0
DA:117,0
DA:127,0
DA:137,0
DA:203,0
DA:206,0
end_of_record
SF:/usr/include/c++/9/ext/new_allocator.h
DA:80,238882
DA:83,919564
DA:89,707655
DA:119,238142
DA:128,238142
DA:132,0
DA:144,0
DA:147,0
DA:151,0
DA:153,0
end_of_record
SF:/usr/include/c++/9/bits/char_traits.h
DA:299,788364
DA:300,89700
DA:361,150630
DA:363,149182
DA:365,141639
end_of_record
SF:/usr/include/c++/9/bits/cpp_type_traits.h
DA:428,0
end_of_record
SF:/usr/include/c++/9/bits/alloc_traits.h
DA:469,238142
DA:470,238142
DA:482,0
DA:484,0
DA:495,0
DA:497,0
DA:505,0
DA:506,0
DA:514,0
DA:515,229891
DA:545,0
DA:546,0
DA:553,0
DA:557,0
end_of_record
SF:/usr/include/c++/9/bits/stl_iterator_base_funcs.h
DA:98,238882
DA:104,238882
DA:138,238882
DA:141,238882
end_of_record
SF:/usr/include/x86_64-linux-gnu/bits/string_fortified.h
DA:88,132
DA:90,132
DA:126,132
DA:128,132
end_of_record
SF:/usr/include/c++/9/bits/stl_uninitialized.h
DA:76,0
DA:79,0
DA:82,0
DA:83,0
DA:115,0
DA:134,0
DA:140,0
DA:305,0
DA:307,0
DA:544,0
DA:545,0
DA:566,0
DA:597,0
DA:601,0
DA:661,0
DA:663,0
DA:905,0
DA:912,0
DA:913,0
DA:924,0
DA:927,0
DA:928,0
DA:929,0
DA:949,0
DA:950,0
DA:958,0
DA:964,0
end_of_record
TN:
SF:/usr/include/x86_64-linux-gnu/bits/stdio2.h
DA:105,1318
DA:107,678
end_of_record
SF:/usr/include/c++/9/iostream
end_of_record
SF:/workspace/vtr-verilog-to-routing/ODIN_II/SRC/memories.cpp
FN:63,_Z16get_sp_ram_depthP7nnode_t
FNDA:3173590,_Z16get_sp_ram_depthP7nnode_t
FN:70,_Z16get_dp_ram_depthP7nnode_t
FNDA:102740,_Z16get_dp_ram_depthP7nnode_t
FN:78,_Z16get_sp_ram_widthP7nnode_t
FNDA:1057770,_Z16get_sp_ram_widthP7nnode_t
FN:85,_Z16get_dp_ram_widthP7nnode_t
FNDA:102740,_Z16get_dp_ram_widthP7nnode_t
FN:93,_Z20get_memory_port_sizePKc
FNDA:610,_Z20get_memory_port_sizePKc
FN:105,_Z25copy_input_port_to_memoryP7nnode_tP13signal_list_tPKc
FNDA:1575950,_Z25copy_input_port_to_memoryP7nnode_tP13signal_list_tPKc
FN:111,_Z26copy_output_port_to_memoryP7nnode_tP13signal_list_tPKc
FNDA:0,_Z26copy_output_port_to_memoryP7nnode_tP13signal_list_tPKc
FN:120,_Z26remap_input_port_to_memoryP7nnode_tP13signal_list_tPKc
FNDA:1575950,_Z26remap_input_port_to_memoryP7nnode_tP13signal_list_tPKc
FN:152,_Z24add_input_port_to_memoryP7nnode_tP13signal_list_tPKc
FNDA:2627430,_Z24add_input_port_to_memoryP7nnode_tP13signal_list_tPKc
FN:188,_Z27remap_output_port_to_memoryP7nnode_tP13signal_list_tPc
FNDA:0,_Z27remap_output_port_to_memoryP7nnode_tP13signal_list_tPc
FN:220,_Z25add_output_port_to_memoryP7nnode_tP13signal_list_tPKc
FNDA:140,_Z25add_output_port_to_memoryP7nnode_tP13signal_list_tPKc
FN:255,_Z38check_memories_and_report_distributionv
FNDA:1564,_Z38check_memories_and_report_distributionv
FN:334,_Z21split_sp_memory_depthP7nnode_ti
FNDA:524701,_Z21split_sp_memory_depthP7nnode_ti
FN:459,_Z21split_dp_memory_depthP7nnode_ti
FNDA:733,_Z21split_dp_memory_depthP7nnode_ti
FN:645,_Z21split_sp_memory_widthP7nnode_ti
FNDA:524701,_Z21split_sp_memory_widthP7nnode_ti
FN:737,_Z21split_dp_memory_widthP7nnode_ti
FNDA:733,_Z21split_dp_memory_widthP7nnode_ti
FN:891,_Z22get_sp_ram_split_depthv
FNDA:3131,_Z22get_sp_ram_split_depthv
FN:912,_Z22get_dp_ram_split_depthv
FNDA:3131,_Z22get_dp_ram_split_depthv
FN:933,_Z22get_sp_ram_split_widthv
FNDA:1564,_Z22get_sp_ram_split_widthv
FN:948,_Z22get_dp_ram_split_widthv
FNDA:1564,_Z22get_dp_ram_split_widthv
FN:963,_Z36filter_memories_by_soft_logic_cutoffv
FNDA:4692,_Z36filter_memories_by_soft_logic_cutoffv
FN:1007,_Z16iterate_memoriesP9netlist_t
FNDA:1564,_Z16iterate_memoriesP9netlist_t
FN:1104,_Z17free_memory_listsv
FNDA:1564,_Z17free_memory_listsv
FN:1114,_Z19pad_dp_memory_widthP7nnode_tP9netlist_t
FNDA:50959,_Z19pad_dp_memory_widthP7nnode_tP9netlist_t
FN:1130,_Z19pad_sp_memory_widthP7nnode_tP9netlist_t
FNDA:1057770,_Z19pad_sp_memory_widthP7nnode_tP9netlist_t
FN:1144,_Z22pad_memory_output_portP7nnode_tP9netlist_tP7t_modelPKc
FNDA:1159680,_Z22pad_memory_output_portP7nnode_tP9netlist_tP7t_modelPKc
FN:1182,_Z21pad_memory_input_portP7nnode_tP9netlist_tP7t_modelPKc
FNDA:2319370,_Z21pad_memory_input_portP7nnode_tP9netlist_tP7t_modelPKc
FN:1222,_Z9is_sp_ramP7nnode_t
FNDA:15006000,_Z9is_sp_ramP7nnode_t
FN:1228,_Z9is_dp_ramP7nnode_t
FNDA:5372540,_Z9is_dp_ramP7nnode_t
FN:1234,_Z13is_ast_sp_ramP10ast_node_t
FNDA:715,_Z13is_ast_sp_ramP10ast_node_t
FN:1256,_Z13is_ast_dp_ramP10ast_node_t
FNDA:766,_Z13is_ast_dp_ramP10ast_node_t
FN:1278,_Z18get_sp_ram_signalsP7nnode_t
FNDA:8801020,_Z18get_sp_ram_signalsP7nnode_t
FN:1329,_Z19free_sp_ram_signalsP14sp_ram_signals
FNDA:8801020,_Z19free_sp_ram_signalsP14sp_ram_signals
FN:1337,_Z18get_dp_ram_signalsP7nnode_t
FNDA:2789600,_Z18get_dp_ram_signalsP7nnode_t
FN:1405,_Z19free_dp_ram_signalsP14dp_ram_signals
FNDA:2789600,_Z19free_dp_ram_signalsP14dp_ram_signals
FN:1419,_Z32instantiate_soft_single_port_ramP7nnode_tsP9netlist_t
FNDA:36,_Z32instantiate_soft_single_port_ramP7nnode_tsP9netlist_t
FN:1523,_Z30instantiate_soft_dual_port_ramP7nnode_tsP9netlist_t
FNDA:9,_Z30instantiate_soft_dual_port_ramP7nnode_tsP9netlist_t
FN:1692,_Z14create_decoderP7nnode_tsP13signal_list_t
FNDA:54,_Z14create_decoderP7nnode_tsP13signal_list_t
DA:63,3173590
DA:64,3173590
DA:65,3173590
DA:66,3173590
DA:67,3173590
DA:70,102740
DA:71,102740
DA:72,102740
DA:73,102740
DA:74,102740
DA:75,102740
DA:78,3173590
DA:79,1057770
DA:80,3173590
DA:81,3173590
DA:82,3173590
DA:85,102740
DA:86,102740
DA:87,102740
DA:88,102740
DA:89,102740
DA:90,102740
DA:93,610
DA:94,610
DA:96,610
DA:97,866
DA:98,866
DA:99,610
DA:100,256
DA:105,1575950
DA:106,1575950
DA:107,1575950
DA:108,1575950
DA:109,1575950
DA:111,0
DA:112,0
DA:113,0
DA:114,0
DA:115,0
DA:120,1575950
DA:121,1575950
DA:122,1575950
DA:125,19990200
DA:126,18414200
DA:127,18414200
DA:128,0
DA:134,1575950
DA:135,1575950
DA:138,11565300
DA:139,9989370
DA:140,9989370
DA:141,0
DA:143,9989370
DA:145,1575950
DA:152,2627430
DA:153,2627430
DA:154,2627430
DA:157,40021200
DA:158,37393800
DA:159,37393800
DA:160,0
DA:166,2627430
DA:167,2627430
DA:170,13672900
DA:171,11045500
DA:174,11045500
DA:175,9989370
DA:177,11045500
DA:181,11045500
DA:183,2627430
DA:188,0
DA:189,0
DA:190,0
DA:193,0
DA:194,0
DA:195,0
DA:196,0
DA:202,0
DA:203,0
DA:206,0
DA:207,0
DA:208,0
DA:209,0
DA:211,0
DA:213,0
DA:220,140
DA:221,140
DA:222,140
DA:226,440
DA:227,300
DA:228,300
DA:236,140
DA:237,140
DA:240,4396
DA:241,4256
DA:242,4256
DA:243,0
DA:245,4256
DA:246,4256
DA:255,1564
DA:256,1564
DA:259,128
DA:260,128
DA:262,128
DA:263,128
DA:264,128
DA:265,128
DA:267,128
DA:268,276
DA:269,148
DA:271,148
DA:272,148
DA:274,148
DA:275,0
DA:277,148
DA:279,148
DA:281,148
DA:283,148
DA:286,148
DA:290,148
DA:293,128
DA:294,402
DA:295,274
DA:297,274
DA:298,274
DA:299,274
DA:300,0
DA:302,274
DA:303,274
DA:305,274
DA:306,274
DA:309,274
DA:313,274
DA:316,128
DA:317,128
DA:318,128
DA:319,128
DA:320,128
DA:334,524701
DA:335,1049250
DA:337,1049250
DA:340,1049250
DA:341,524701
DA:342,524701
DA:343,524701
DA:346,524553
DA:347,524553
DA:348,8916540
DA:349,8391990
DA:352,524553
DA:353,524553
DA:356,524553
DA:357,524553
DA:360,524553
DA:361,524553
DA:362,524553
DA:363,524553
DA:364,524553
DA:365,524553
DA:368,524553
DA:369,524553
DA:370,524553
DA:371,524553
DA:374,524553
DA:375,524553
DA:378,524553
DA:379,524553
DA:380,524553
DA:381,524553
DA:382,524553
DA:384,524553
DA:385,524553
DA:386,524553
DA:388,524553
DA:389,524553
DA:390,524553
DA:392,524553
DA:394,524553
DA:395,524553
DA:396,524553
DA:400,524553
DA:401,524553
DA:402,524553
DA:405,524553
DA:406,524553
DA:408,524553
DA:409,524553
DA:412,1577780
DA:413,1053230
DA:414,1053230
DA:415,1053230
DA:416,1053230
DA:417,1053230
DA:419,1053230
DA:420,1053230
DA:421,532
DA:422,1053230
DA:424,1053230
DA:425,1053230
DA:426,1053230
DA:428,1053230
DA:430,1053230
DA:431,1053230
DA:432,0
DA:434,1053230
DA:436,1053230
DA:437,1053230
DA:438,0
DA:440,1053230
DA:443,524553
DA:444,524553
DA:446,524553
DA:448,524553
DA:449,524553
DA:459,733
DA:460,1192
DA:462,1192
DA:465,1192
DA:466,733
DA:467,733
DA:468,733
DA:471,459
DA:473,459
DA:474,6168
DA:475,5709
DA:477,459
DA:478,6168
DA:479,5709
DA:482,459
DA:483,459
DA:486,459
DA:487,459
DA:490,459
DA:491,459
DA:492,459
DA:493,459
DA:494,459
DA:495,459
DA:498,459
DA:499,459
DA:500,459
DA:501,459
DA:502,459
DA:503,459
DA:506,459
DA:507,459
DA:508,459
DA:509,459
DA:512,459
DA:513,459
DA:514,459
DA:515,459
DA:516,459
DA:518,459
DA:519,459
DA:520,459
DA:522,459
DA:523,459
DA:524,459
DA:526,459
DA:527,459
DA:528,459
DA:530,459
DA:531,459
DA:532,459
DA:533,459
DA:535,459
DA:536,459
DA:537,459
DA:539,459
DA:540,459
DA:541,459
DA:543,459
DA:545,459
DA:546,459
DA:547,459
DA:551,459
DA:552,459
DA:553,459
DA:556,459
DA:557,459
DA:558,459
DA:560,459
DA:561,459
DA:562,459
DA:565,4321
DA:566,3862
DA:567,3862
DA:568,3862
DA:569,3862
DA:570,3862
DA:572,3862
DA:573,3862
DA:574,982
DA:576,3862
DA:577,3862
DA:578,3862
DA:580,3862
DA:582,3862
DA:584,3862
DA:585,3862
DA:586,0
DA:588,3862
DA:590,3862
DA:591,3862
DA:592,0
DA:594,3862
DA:598,4321
DA:599,3862
DA:600,3862
DA:601,3862
DA:602,3862
DA:603,3862
DA:605,3862
DA:607,3862
DA:608,3862
DA:609,982
DA:611,3862
DA:612,3862
DA:613,3862
DA:615,3862
DA:617,3862
DA:619,3862
DA:620,3862
DA:621,0
DA:623,3862
DA:625,3862
DA:626,3862
DA:627,0
DA:629,3862
DA:632,459
DA:633,459
DA:634,459
DA:635,459
DA:637,459
DA:638,459
DA:645,524701
DA:646,524701
DA:647,524701
DA:649,524701
DA:651,524701
DA:653,524701
DA:655,524701
DA:657,0
DA:662,1582470
DA:663,1057770
DA:664,1057770
DA:665,1057770
DA:668,1057770
DA:669,1057770
DA:670,1057770
DA:671,1057770
DA:673,1057770
DA:674,5288830
DA:675,4231060
DA:677,1057770
DA:681,5288830
DA:683,4231060
DA:685,1057770
DA:686,1057770
DA:687,2115530
DA:688,1057770
DA:689,1057770
DA:690,1057770
DA:691,1057770
DA:692,1057770
DA:693,1057770
DA:695,1057770
DA:697,1057770
DA:700,21119000
DA:701,17945700
DA:702,17945700
DA:704,17945700
DA:705,9027400
DA:707,8918320
DA:708,17945700
DA:709,17945700
DA:719,2115530
DA:720,1057770
DA:721,1057770
DA:722,1057770
DA:723,1057770
DA:724,1057770
DA:725,1057770
DA:729,524701
DA:731,524701
DA:737,733
DA:738,733
DA:739,733
DA:740,733
DA:741,733
DA:743,733
DA:744,733
DA:746,733
DA:747,733
DA:749,733
DA:750,733
DA:751,733
DA:752,733
DA:754,733
DA:755,733
DA:757,733
DA:758,733
DA:760,733
DA:761,733
DA:762,733
DA:764,733
DA:766,733
DA:768,0
DA:775,51692
DA:776,50959
DA:777,50959
DA:778,50959
DA:781,50959
DA:782,50959
DA:783,50959
DA:784,50959
DA:786,50959
DA:787,407672
DA:788,356713
DA:792,407672
DA:794,356713
DA:796,50959
DA:797,50959
DA:798,101918
DA:799,50959
DA:800,50959
DA:801,50959
DA:802,50959
DA:803,50959
DA:804,50959
DA:806,50959
DA:808,50959
DA:809,305754
DA:811,50959
DA:812,50959
DA:813,101918
DA:814,50959
DA:815,50959
DA:816,50959
DA:817,50959
DA:818,50959
DA:819,50959
DA:821,50959
DA:823,50959
DA:826,1131760
DA:827,876963
DA:828,876963
DA:830,876963
DA:831,858952
DA:833,18011
DA:834,876963
DA:835,876963
DA:840,152877
DA:841,101918
DA:845,152877
DA:847,101918
DA:849,50959
DA:850,50959
DA:851,101918
DA:852,50959
DA:853,50959
DA:854,50959
DA:855,50959
DA:856,50959
DA:857,50959
DA:859,50959
DA:861,50959
DA:862,50959
DA:864,50959
DA:865,50959
DA:866,101918
DA:867,50959
DA:868,50959
DA:869,50959
DA:870,50959
DA:871,50959
DA:872,50959
DA:874,50959
DA:876,50959
DA:878,0
DA:883,733
DA:885,733
DA:891,3131
DA:892,3131
DA:893,3131
DA:894,3131
DA:895,0
DA:896,3131
DA:897,0
DA:898,3131
DA:899,48
DA:901,3083
DA:903,3131
DA:905,3131
DA:912,3131
DA:913,3131
DA:914,3131
DA:915,3131
DA:916,0
DA:917,3131
DA:918,0
DA:919,3131
DA:920,48
DA:922,3083
DA:924,3131
DA:926,3131
DA:933,1564
DA:934,1564
DA:937,1540
DA:938,1540
DA:939,1540
DA:940,1540
DA:948,1564
DA:949,1564
DA:952,1540
DA:953,1540
DA:954,1540
DA:955,1540
DA:963,4692
DA:964,4692
DA:965,4692
DA:966,4692
DA:967,2120370
DA:968,2115680
DA:969,2115680
DA:970,2115680
DA:971,2115680
DA:973,2115680
DA:974,2115680
DA:975,2115680
DA:976,2115680
DA:980,4692
DA:981,4692
DA:982,4692
DA:983,56199
DA:984,51507
DA:985,51507
DA:986,51507
DA:987,51507
DA:989,51507
DA:990,51507
DA:991,51507
DA:992,51507
DA:995,4692
DA:1007,1564
DA:1009,1564
DA:1012,1564
DA:1014,1564
DA:1016,1564
DA:1017,1564
DA:1018,1564
DA:1019,1712
DA:1020,148
DA:1021,148
DA:1022,148
DA:1023,148
DA:1024,148
DA:1028,1564
DA:1029,1564
DA:1030,1564
DA:1031,526265
DA:1032,524701
DA:1033,524701
DA:1034,524701
DA:1035,524701
DA:1036,524701
DA:1040,1564
DA:1043,1564
DA:1044,1564
DA:1045,1059330
DA:1046,1057770
DA:1047,1057770
DA:1048,1057770
DA:1049,1057770
DA:1050,1057770
DA:1051,1057770
DA:1055,1564
DA:1057,1564
DA:1058,1564
DA:1059,1564
DA:1060,1838
DA:1061,274
DA:1062,274
DA:1063,274
DA:1064,274
DA:1065,274
DA:1069,1564
DA:1070,1564
DA:1071,1564
DA:1072,2297
DA:1073,733
DA:1074,733
DA:1075,733
DA:1076,733
DA:1077,733
DA:1081,1564
DA:1084,1564
DA:1085,1564
DA:1086,52523
DA:1087,50959
DA:1088,50959
DA:1089,50959
DA:1090,50959
DA:1091,50959
DA:1092,50959
DA:1093,50959
DA:1096,1564
DA:1104,1564
DA:1105,1059330
DA:1106,1057770
DA:1107,52523
DA:1108,50959
DA:1109,1564
DA:1114,50959
DA:1115,50959
DA:1116,50959
DA:1118,50959
DA:1119,50959
DA:1121,50959
DA:1122,50959
DA:1124,50959
DA:1125,50959
DA:1130,1057770
DA:1131,1057770
DA:1132,1057770
DA:1134,1057770
DA:1136,1057770
DA:1138,1057770
DA:1139,1057770
DA:1144,1159680
DA:1145,1159680
DA:1147,1159680
DA:1148,1159680
DA:1150,1159680
DA:1152,1159680
DA:1154,1159680
DA:1156,1159680
DA:1157,1159680
DA:1159,1159680
DA:1160,0
DA:1163,0
DA:1164,0
DA:1165,0
DA:1167,0
DA:1169,0
DA:1171,0
DA:1172,0
DA:1173,0
DA:1175,0
DA:1177,1159680
DA:1182,2319370
DA:1183,2319370
DA:1184,2319370
DA:1186,2319370
DA:1187,2319370
DA:1189,2319370
DA:1190,2319370
DA:1192,2319370
DA:1194,2319370
DA:1196,2319370
DA:1198,2319370
DA:1199,2319370
DA:1202,2319370
DA:1203,96236
DA:1206,96236
DA:1207,513908
DA:1208,417672
DA:1210,906506
DA:1211,810270
DA:1212,810270
DA:1213,0
DA:1215,810270
DA:1218,96236
DA:1220,2319370
DA:1222,15006000
DA:1223,15006000
DA:1224,15006000
DA:1225,15006000
DA:1228,5372540
DA:1229,5372540
DA:1230,5372540
DA:1231,5372540
DA:1234,715
DA:1235,715
DA:1236,715
DA:1237,1430
DA:1238,715
DA:1240,715
DA:1241,715
DA:1243,1230
DA:1244,1025
DA:1246,1025
DA:1253,715
DA:1256,766
DA:1257,766
DA:1258,766
DA:1259,1532
DA:1260,766
DA:1262,766
DA:1263,766
DA:1265,5120
DA:1266,4608
DA:1268,4608
DA:1275,766
DA:1278,8801020
DA:1279,8801020
DA:1281,8801020
DA:1282,8801020
DA:1285,8801020
DA:1286,8801020
DA:1287,8801020
DA:1288,8801020
DA:1289,8801020
DA:1291,8801020
DA:1292,169246000
DA:1293,160444000
DA:1294,160444000
DA:1295,132961000
DA:1296,27483100
DA:1297,9881070
DA:1298,17602000
DA:1299,8801020
DA:1300,8801020
DA:1301,8801020
DA:1303,0
DA:1308,8801020
DA:1309,8801020
DA:1310,8801020
DA:1311,8801020
DA:1312,8801020
DA:1314,18682100
DA:1315,9881070
DA:1316,9881070
DA:1317,9881070
DA:1319,0
DA:1324,8801020
DA:1326,8801020
DA:1329,8801020
DA:1330,8801020
DA:1331,8801020
DA:1332,8801020
DA:1334,8801020
DA:1335,8801020
DA:1337,2789600
DA:1338,2789600
DA:1340,2789600
DA:1341,2789600
DA:1344,2789600
DA:1345,2789600
DA:1346,2789600
DA:1347,2789600
DA:1348,2789600
DA:1349,2789600
DA:1350,2789600
DA:1351,2789600
DA:1352,2789600
DA:1354,2789600
DA:1355,99411300
DA:1356,96621700
DA:1357,96621700
DA:1358,41002100
DA:1359,55619500
DA:1360,41002100
DA:1361,14617400
DA:1362,3124290
DA:1363,11493100
DA:1364,3124290
DA:1365,8368810
DA:1366,2789600
DA:1367,5579210
DA:1368,2789600
DA:1369,2789600
DA:1370,2789600
DA:1372,0
DA:1378,2789600
DA:1379,2789600
DA:1380,2789600
DA:1381,2789600
DA:1382,2789600
DA:1383,2789600
DA:1384,2789600
DA:1387,9038180
DA:1388,6248580
DA:1389,6248580
DA:1390,3124290
DA:1391,3124290
DA:1392,3124290
DA:1394,0
DA:1399,2789600
DA:1400,2789600
DA:1402,2789600
DA:1405,2789600
DA:1406,2789600
DA:1407,2789600
DA:1408,2789600
DA:1409,2789600
DA:1410,2789600
DA:1411,2789600
DA:1413,2789600
DA:1414,2789600
DA:1419,36
DA:1420,36
DA:1422,36
DA:1425,36
DA:1428,36
DA:1430,36
DA:1432,1452
DA:1433,1416
DA:1435,1416
DA:1442,1416
DA:1443,1416
DA:1445,1416
DA:1446,36
DA:1448,1380
DA:1450,1416
DA:1453,828
DA:1454,792
DA:1457,792
DA:1459,792
DA:1460,28824
DA:1461,28032
DA:1463,28032
DA:1470,28032
DA:1471,28032
DA:1472,28032
DA:1473,28032
DA:1474,28032
DA:1475,28032
DA:1476,792
DA:1478,27240
DA:1481,28032
DA:1482,28032
DA:1483,28032
DA:1484,36
DA:1486,27996
DA:1489,28032
DA:1492,28032
DA:1495,28032
DA:1496,28032
DA:1499,792
DA:1502,792
DA:1503,792
DA:1504,792
DA:1506,792
DA:1507,792
DA:1510,36
DA:1513,36
DA:1514,36
DA:1517,36
DA:1518,36
DA:1523,9
DA:1524,9
DA:1526,9
DA:1529,9
DA:1530,9
DA:1532,9
DA:1535,9
DA:1536,9
DA:1539,9
DA:1540,9
DA:1541,9
DA:1543,9
DA:1544,69
DA:1545,60
DA:1546,60
DA:1548,60
DA:1553,60
DA:1560,60
DA:1561,60
DA:1563,60
DA:1564,9
DA:1566,51
DA:1569,60
DA:1570,60
DA:1572,60
DA:1573,9
DA:1575,51
DA:1577,60
DA:1578,60
DA:1581,60
DA:1582,60
DA:1583,60
DA:1585,60
DA:1588,138
DA:1589,129
DA:1590,129
DA:1593,129
DA:1594,129
DA:1596,129
DA:1597,1065
DA:1598,936
DA:1599,936
DA:1601,936
DA:1606,936
DA:1613,936
DA:1615,936
DA:1616,936
DA:1617,936
DA:1618,129
DA:1620,807
DA:1621,936
DA:1622,129
DA:1624,807
DA:1626,936
DA:1627,936
DA:1630,936
DA:1631,936
DA:1632,936
DA:1633,936
DA:1636,936
DA:1637,936
DA:1638,936
DA:1639,9
DA:1641,927
DA:1644,936
DA:1647,936
DA:1648,936
DA:1651,936
DA:1652,936
DA:1653,936
DA:1656,129
DA:1657,129
DA:1660,129
DA:1661,129
DA:1662,129
DA:1664,129
DA:1665,129
DA:1666,129
DA:1668,129
DA:1669,129
DA:1672,129
DA:1673,129
DA:1676,9
DA:1677,9
DA:1678,9
DA:1681,9
DA:1682,9
DA:1683,9
DA:1686,9
DA:1687,9
DA:1692,54
DA:1693,54
DA:1694,54
DA:1695,0
DA:1698,54
DA:1701,54
DA:1702,264
DA:1703,210
DA:1704,0
DA:1705,0
DA:1706,0
DA:1707,0
DA:1708,0
DA:1711,210
DA:1712,210
DA:1713,210
DA:1714,210
DA:1715,210
DA:1716,210
DA:1717,210
DA:1718,210
DA:1719,210
DA:1720,210
DA:1722,210
DA:1723,210
DA:1725,210
DA:1727,210
DA:1731,54
DA:1732,1590
DA:1734,1536
DA:1736,10872
DA:1738,9336
DA:1739,9336
DA:1740,9336
DA:1742,9336
DA:1745,9336
DA:1746,8916
DA:1749,9336
DA:1753,1536
DA:1754,1536
DA:1755,1536
DA:1756,1536
DA:1757,1536
DA:1758,1536
DA:1759,1536
DA:1762,1536
DA:1765,54
DA:1766,54
end_of_record
TN:
SF:/usr/include/c++/9/ext/new_allocator.h
DA:80,5918950
DA:83,5920410
DA:89,23678700
DA:119,811112
DA:128,811112
end_of_record
SF:/usr/include/c++/9/bits/char_traits.h
DA:299,0
DA:300,0
DA:361,0
DA:363,0
DA:365,0
end_of_record
SF:/usr/include/c++/9/bits/alloc_traits.h
DA:469,811112
DA:470,811112
DA:514,5920410
DA:515,5920410
end_of_record
SF:/usr/include/c++/9/bits/stl_iterator_base_funcs.h
DA:98,0
DA:104,0
DA:138,0
DA:141,0
end_of_record
SF:/usr/include/c++/9/bits/basic_string.h
DA:150,11839400
DA:159,5920410
DA:160,5920410
DA:178,0
DA:179,0
DA:182,0
DA:183,0
DA:186,24492800
DA:190,5920410
DA:193,5920410
DA:200,11839400
DA:203,11839400
DA:210,0
DA:211,0
DA:214,0
DA:216,0
DA:217,0
DA:221,11839400
DA:222,11839400
DA:229,11839400
DA:231,11839400
DA:232,12650500
DA:236,811112
DA:237,811112
DA:243,5920410
DA:247,5920410
DA:263,5920410
DA:266,11840800
DA:286,811112
DA:287,811112
DA:290,5920410
DA:291,5920410
DA:346,0
DA:348,0
DA:349,0
DA:351,0
DA:392,0
DA:393,0
DA:396,0
DA:398,0
DA:448,5920410
DA:450,5920410
DA:451,5920410
DA:657,11839400
DA:658,11839400
DA:665,0
DA:696,0
DA:930,5920410
DA:936,5920410
DA:1031,5920410
DA:1032,5920410
DA:1364,0
DA:1366,0
DA:2300,5921880
DA:2301,5921880
DA:2571,5918950
DA:2572,5918950
DA:6163,0
DA:6165,0
end_of_record
SF:/usr/include/c++/9/bits/move.h
DA:47,17759800
DA:99,5920410
DA:138,17759800
DA:139,17759800
end_of_record
SF:/usr/include/c++/9/ext/type_traits.h
DA:152,0
end_of_record
SF:/usr/include/c++/9/iostream
end_of_record
SF:/usr/include/c++/9/bits/basic_string.tcc
FN:206,_ZNSt7__cxx1112basic_stringIcSt11char_traitsIcESaIcEE12_M_constructIPcEEvT_S7_St20forward_iterator_tag
FNDA:0,_ZNSt7__cxx1112basic_stringIcSt11char_traitsIcESaIcEE12_M_constructIPcEEvT_S7_St20forward_iterator_tag
FN:206,_ZNSt7__cxx1112basic_stringIcSt11char_traitsIcESaIcEE12_M_constructIPKcEEvT_S8_St20forward_iterator_tag
FNDA:0,_ZNSt7__cxx1112basic_stringIcSt11char_traitsIcESaIcEE12_M_constructIPKcEEvT_S8_St20forward_iterator_tag
DA:206,0
DA:211,0
DA:212,0
DA:215,0
DA:217,0
DA:219,0
DA:220,0
DA:225,0
DA:232,0
DA:233,0
DA:206,0
DA:211,0
DA:212,0
DA:215,0
DA:217,0
DA:219,0
DA:220,0
DA:225,0
DA:232,0
DA:233,0
end_of_record
SF:/usr/include/c++/9/bits/ptr_traits.h
DA:146,17759800
DA:147,17759800
end_of_record
SF:/usr/include/c++/9/ext/alloc_traits.h
DA:97,5920410
DA:98,5920410
end_of_record
SF:/workspace/vtr-verilog-to-routing/ODIN_II/SRC/hierarchy_util.cpp
FN:10,_Z17init_sc_hierarchyv
FNDA:9520,_Z17init_sc_hierarchyv
FN:44,_Z17copy_sc_hierarchyP12sc_hierarchy
FNDA:51980,_Z17copy_sc_hierarchyP12sc_hierarchy
FN:72,_Z19copy_param_table_scP12STRING_CACHE
FNDA:51864,_Z19copy_param_table_scP12STRING_CACHE
FN:88,_Z17free_sc_hierarchyP12sc_hierarchy
FNDA:55463,_Z17free_sc_hierarchyP12sc_hierarchy
FN:141,_Z35resolve_hierarchical_name_referenceP12sc_hierarchyPc
FNDA:5918950,_Z35resolve_hierarchical_name_referenceP12sc_hierarchyPc
FN:211,_Z50resolve_hierarchical_name_reference_by_path_searchP12sc_hierarchyNSt7__cxx1112basic_stringIcSt11char_traitsIcESaIcEEE
FNDA:0,_Z50resolve_hierarchical_name_reference_by_path_searchP12sc_hierarchyNSt7__cxx1112basic_stringIcSt11char_traitsIcESaIcEEE
FN:278,_Z52resolve_hierarchical_name_reference_by_upward_searchP12sc_hierarchyNSt7__cxx1112basic_stringIcSt11char_traitsIcESaIcEEE
FNDA:5920410,_Z52resolve_hierarchical_name_reference_by_upward_searchP12sc_hierarchyNSt7__cxx1112basic_stringIcSt11char_traitsIcESaIcEEE
DA:10,9520
DA:11,9520
DA:12,9520
DA:14,9520
DA:15,9520
DA:16,9520
DA:17,9520
DA:19,9520
DA:20,9520
DA:21,9520
DA:22,9520
DA:24,9520
DA:26,9520
DA:27,9520
DA:29,9520
DA:31,9520
DA:32,9520
DA:33,9520
DA:35,9520
DA:36,9520
DA:38,9520
DA:44,51980
DA:45,51980
DA:46,51980
DA:47,51980
DA:48,51980
DA:50,51980
DA:51,51980
DA:52,51980
DA:54,448130
DA:55,396150
DA:57,396150
DA:58,396150
DA:59,396150
DA:62,51980
DA:63,51864
DA:66,51980
DA:72,51864
DA:73,51864
DA:75,51864
DA:77,57299
DA:78,5435
DA:79,5435
DA:82,51864
DA:88,55463
DA:89,55463
DA:91,106959
DA:92,51496
DA:94,55463
DA:96,55517
DA:97,54
DA:99,55463
DA:101,55525
DA:102,62
DA:104,55463
DA:106,56211
DA:107,748
DA:109,55463
DA:111,55463
DA:112,60365
DA:113,5766
DA:115,54599
DA:118,524282
DA:119,468819
DA:121,55463
DA:122,55463
DA:123,55463
DA:125,55463
DA:126,55463
DA:128,55463
DA:130,55463
DA:131,55463
DA:132,55463
DA:133,55463
DA:135,55463
DA:136,55463
DA:141,5918950
DA:145,5918950
DA:146,5918950
DA:147,11837900
DA:149,5918950
DA:150,5918950
DA:151,12243400
DA:154,0
DA:155,0
DA:160,0
DA:161,0
DA:165,0
DA:166,0
DA:167,0
DA:168,0
DA:171,0
DA:172,0
DA:173,0
DA:174,0
DA:177,0
DA:178,0
DA:179,0
DA:180,0
DA:183,0
DA:184,0
DA:185,0
DA:186,0
DA:192,0
DA:193,0
DA:197,0
DA:198,0
DA:202,5918950
DA:211,0
DA:212,0
DA:213,0
DA:215,0
DA:216,0
DA:218,0
DA:219,0
DA:221,0
DA:223,0
DA:224,0
DA:225,0
DA:228,0
DA:229,0
DA:230,0
DA:231,0
DA:232,0
DA:236,0
DA:241,0
DA:242,0
DA:244,0
DA:245,0
DA:246,0
DA:250,0
DA:251,0
DA:252,0
DA:256,0
DA:257,0
DA:258,0
DA:262,0
DA:263,0
DA:264,0
DA:269,0
DA:278,5920410
DA:279,5920410
DA:280,5920410
DA:282,5920410
DA:283,5920410
DA:285,5920410
DA:287,5920410
DA:288,5918950
DA:289,5918950
DA:292,5920410
DA:293,1466
DA:294,1466
DA:295,0
DA:296,0
DA:300,5920410
DA:302,1466
DA:305,5920410
end_of_record
SF:/usr/include/c++/9/bits/allocator.h
DA:138,5918950
DA:141,5920410
DA:142,5920410
DA:153,23678700
end_of_record
TN:
SF:/usr/include/c++/9/iostream
end_of_record
SF:/workspace/vtr-verilog-to-routing/ODIN_II/SRC/hard_blocks.cpp
FN:40,_Z21register_hb_port_sizeP13t_model_portsi
FNDA:0,_Z21register_hb_port_sizeP13t_model_portsi
FN:49,_Z14get_model_portP13t_model_portsPKc
FNDA:3488390,_Z14get_model_portP13t_model_portsPKc
FN:56,_Z22cache_hard_block_namesv
FNDA:3109,_Z22cache_hard_block_namesv
FN:67,_Z20register_hard_blocksv
FNDA:3109,_Z20register_hard_blocksv
FN:107,_Z22deregister_hard_blocksv
FNDA:3103,_Z22deregister_hard_blocksv
FN:112,_Z15find_hard_blockPKc
FNDA:1116570,_Z15find_hard_blockPKc
FN:125,_Z17define_hard_blockP7nnode_tP8_IO_FILE
FNDA:1108640,_Z17define_hard_blockP7nnode_tP8_IO_FILE
FN:207,_Z18output_hard_blocksP8_IO_FILE
FNDA:3103,_Z18output_hard_blocksP8_IO_FILE
FN:268,_Z22instantiate_hard_blockP7nnode_tsP9netlist_t
FNDA:1108950,_Z22instantiate_hard_blockP7nnode_tsP9netlist_t
FN:288,_Z20hard_block_port_sizeP7t_modelPc
FNDA:484,_Z20hard_block_port_sizeP7t_modelPc
FN:320,_Z25hard_block_port_directionP7t_modelPc
FNDA:1222,_Z25hard_block_port_directionP7t_modelPc
DA:40,4845
DA:41,0
DA:42,4845
DA:47,0
DA:49,3488390
DA:50,7264720
DA:51,3771480
DA:53,3493240
DA:56,3109
DA:57,3109
DA:59,3109
DA:60,3109
DA:61,8850
DA:62,5741
DA:63,5741
DA:65,3109
DA:67,3109
DA:68,3109
DA:69,3109
DA:70,3109
DA:72,3109
DA:73,1567
DA:74,48
DA:77,48
DA:81,3134
DA:82,1567
DA:85,3109
DA:86,1567
DA:87,48
DA:89,48
DA:92,48
DA:94,48
DA:98,1567
DA:100,3134
DA:102,3134
DA:105,3109
DA:107,3103
DA:108,3103
DA:109,3103
DA:112,1116570
DA:113,1116570
DA:115,1116570
DA:116,3287290
DA:117,3284100
DA:118,1113390
DA:120,2170720
DA:125,1108640
DA:126,1108640
DA:127,1108640
DA:128,1108640
DA:129,1108640
DA:132,1108640
DA:133,1108640
DA:136,1108640
DA:139,1108640
DA:140,1108640
DA:141,1108640
DA:144,1108640
DA:145,21910000
DA:147,20801400
DA:148,0
DA:149,0
DA:150,0
DA:151,0
DA:152,0
DA:153,20801400
DA:154,0
DA:157,20801400
DA:158,3427360
DA:159,256
DA:161,3427100
DA:163,17374000
DA:164,8768
DA:166,17365200
DA:169,20801400
DA:170,8378580
DA:173,20801400
DA:175,20801400
DA:176,20801400
DA:177,4587160
DA:178,4587160
DA:184,2276960
DA:185,1168320
DA:186,8960
DA:188,1159360
DA:190,1168320
DA:191,1142730
DA:194,1168320
DA:196,1168320
DA:197,1168320
DA:198,1159810
DA:199,1159810
DA:203,1108640
DA:207,3103
DA:208,3103
DA:209,3103
DA:210,3103
DA:211,3103
DA:212,3103
DA:214,3103
DA:215,3103
DA:216,8804
DA:217,5717
DA:220,228
DA:221,3103
DA:225,212
DA:226,212
DA:227,212
DA:228,1310
DA:229,7944
DA:230,6846
DA:231,760
DA:233,6086
DA:235,6846
DA:236,760
DA:238,6846
DA:240,1098
DA:243,212
DA:244,212
DA:245,550
DA:246,1892
DA:247,1554
DA:248,274
DA:250,1280
DA:252,1554
DA:253,160
DA:255,1554
DA:257,338
DA:260,212
DA:262,5701
DA:265,3103
DA:268,1108950
DA:269,1108950
DA:271,1108950
DA:273,2277590
DA:274,1168640
DA:275,1063450
DA:277,1168640
DA:278,1168640
DA:284,1108950
DA:285,1108950
DA:288,484
DA:289,484
DA:291,484
DA:298,484
DA:302,484
DA:303,1912
DA:304,1428
DA:305,0
DA:307,1428
DA:309,484
DA:310,714
DA:311,714
DA:312,484
DA:314,230
DA:320,1222
DA:321,1222
DA:323,1222
DA:326,1222
DA:327,3364
DA:328,2880
DA:329,738
DA:331,2142
DA:333,484
DA:334,714
DA:335,714
DA:336,484
DA:338,230
end_of_record
SF:/usr/include/x86_64-linux-gnu/bits/stdio2.h
DA:98,34826200
DA:100,24196000
end_of_record
TN:
SF:/usr/include/c++/9/iostream
end_of_record
SF:/workspace/vtr-verilog-to-routing/ODIN_II/SRC/enum_str.cpp
end_of_record
TN:
SF:/usr/include/c++/9/bits/char_traits.h
DA:299,134235000
DA:300,35061
DA:329,1814990
DA:335,1814990
DA:361,80403300
DA:363,53471600
DA:365,80403300
end_of_record
SF:/usr/include/c++/9/ext/new_allocator.h
DA:80,94815800
DA:83,169429000
DA:89,196534000
DA:119,103429000
DA:128,103429000
DA:132,0
DA:144,1755580
DA:147,1755580
DA:151,0
end_of_record
SF:/usr/include/c++/9/bits/cpp_type_traits.h
DA:428,0
end_of_record
SF:/usr/include/c++/9/bits/stl_algobase.h
DA:198,0
DA:222,0
DA:227,0
DA:228,0
DA:280,0
DA:289,0
DA:290,0
DA:295,0
DA:375,0
DA:384,0
DA:385,0
DA:386,0
DA:387,0
DA:393,0
DA:398,0
DA:404,0
DA:438,0
DA:440,0
DA:465,0
DA:474,0
end_of_record
SF:/usr/include/c++/9/bits/stl_vector.h
FN:622,_ZNSt6vectorIP10ast_node_tSaIS1_EEC2ESt16initializer_listIS1_ERKS2_
FNDA:12,_ZNSt6vectorIP10ast_node_tSaIS1_EEC2ESt16initializer_listIS1_ERKS2_
FN:1753,_ZNKSt6vectorIN8BitSpace9BitFieldsItEESaIS2_EE12_M_check_lenEmPKc
FNDA:0,_ZNKSt6vectorIN8BitSpace9BitFieldsItEESaIS2_EE12_M_check_lenEmPKc
DA:94,58206400
DA:95,58206400
DA:106,58206400
DA:108,58206400
DA:109,58206400
DA:110,58206400
DA:114,58206400
DA:118,58206400
DA:119,58206400
DA:120,58206400
DA:121,58206400
DA:125,81184400
DA:128,40634400
DA:130,40634400
DA:133,58206400
DA:134,58206400
DA:273,0
DA:274,0
DA:277,58206400
DA:278,58206400
DA:281,58206400
DA:282,58206400
DA:285,40634400
DA:290,58206400
DA:291,58206400
DA:330,81184400
DA:332,101940000
DA:333,81184400
DA:334,81184400
DA:347,81184400
DA:350,17979000
DA:351,43325000
DA:453,0
DA:462,0
DA:466,0
DA:484,40634400
DA:494,58206400
DA:495,58206400
DA:622,12
DA:624,12
DA:626,12
DA:628,12
DA:675,81184400
DA:677,81184400
DA:678,79369200
DA:680,83959500
DA:706,58206400
DA:708,58206400
DA:711,75778400
DA:808,0
DA:809,0
DA:817,0
DA:818,0
DA:826,45898400
DA:827,45898400
DA:835,0
DA:836,0
DA:915,0
DA:916,1497460
DA:920,0
DA:921,0
DA:995,0
DA:997,0
DA:1040,1828720000
DA:1043,1828720000
DA:1200,47654000
DA:1201,47654000
DA:1505,0
DA:1508,0
DA:1511,0
DA:1512,0
DA:1753,0
DA:1755,0
DA:1756,0
DA:1758,0
DA:1759,0
DA:1773,0
DA:1780,0
DA:1781,0
DA:1812,58206400
DA:1814,75369600
DA:1815,58206400
DA:1816,58206400
DA:1817,58206400
end_of_record
SF:/usr/include/c++/9/bits/stl_algo.h
FN:112,_ZSt9__find_ifIN9__gnu_cxx17__normal_iteratorIPcNSt7__cxx1112basic_stringIcSt11char_traitsIcESaIcEEEEENS0_5__ops16_Iter_equals_valIKcEEET_SE_SE_T0_St26random_access_iterator_tag
FNDA:1814970,_ZSt9__find_ifIN9__gnu_cxx17__normal_iteratorIPcNSt7__cxx1112basic_stringIcSt11char_traitsIcESaIcEEEEENS0_5__ops16_Iter_equals_valIKcEEET_SE_SE_T0_St26random_access_iterator_tag
FN:860,_ZSt11__remove_ifIN9__gnu_cxx17__normal_iteratorIPcNSt7__cxx1112basic_stringIcSt11char_traitsIcESaIcEEEEENS0_5__ops16_Iter_equals_valIKcEEET_SE_SE_T0_
FNDA:1814970,_ZSt11__remove_ifIN9__gnu_cxx17__normal_iteratorIPcNSt7__cxx1112basic_stringIcSt11char_traitsIcESaIcEEEEENS0_5__ops16_Iter_equals_valIKcEEET_SE_SE_T0_
DA:112,1814970
DA:116,1814970
DA:118,1987130
DA:120,172165
DA:121,0
DA:122,172165
DA:124,172165
DA:125,0
DA:126,172165
DA:128,172165
DA:129,0
DA:130,172165
DA:132,172165
DA:133,0
DA:134,172165
DA:137,1814970
DA:139,33814
DA:140,33814
DA:141,0
DA:142,264421
DA:143,264421
DA:144,264421
DA:145,0
DA:146,1787760
DA:147,1787760
DA:148,1787760
DA:149,0
DA:150,1814970
DA:151,1814970
DA:153,1814970
DA:159,1814970
DA:161,1814970
DA:860,1814970
DA:863,1814970
DA:864,1814970
DA:865,1814970
DA:866,0
DA:867,0
DA:868,0
DA:869,0
DA:871,0
DA:872,0
DA:874,0
DA:896,1814970
DA:906,1814970
end_of_record
SF:/usr/include/c++/9/bits/stl_iterator.h
DA:806,47713600
DA:811,3629940
DA:815,3629940
DA:819,7810920
DA:827,6539660
DA:829,1987130
DA:830,5851000
DA:859,0
DA:860,0
DA:871,1814970
DA:893,1814970
DA:896,1814970
DA:907,7367940
DA:910,7367940
DA:989,3629940
DA:992,3629940
DA:1010,0
DA:1012,0
end_of_record
SF:/workspace/vtr-verilog-to-routing/libs/librtlnumber/src/include/rtl_utils.hpp
FN:47,_Z12_assert_WerrbPKciNSt7__cxx1112basic_stringIcSt11char_traitsIcESaIcEEE
FNDA:53505300,_Z12_assert_WerrbPKciNSt7__cxx1112basic_stringIcSt11char_traitsIcESaIcEEE
DA:47,53505300
DA:48,53505300
DA:49,0
DA:50,0
DA:51,0
DA:52,0
DA:54,53505300
end_of_record
SF:/usr/include/c++/9/bits/stl_construct.h
DA:74,0
DA:75,0
DA:117,81184400
DA:127,81184400
DA:137,81184400
DA:203,0
DA:206,79369200
end_of_record
SF:/usr/include/c++/9/bits/stl_uninitialized.h
DA:76,0
DA:79,0
DA:82,0
DA:83,0
DA:115,0
DA:134,0
DA:140,0
DA:305,0
DA:307,0
DA:905,0
DA:912,0
DA:913,0
DA:949,0
DA:950,0
DA:964,0
end_of_record
SF:/usr/include/x86_64-linux-gnu/bits/string_fortified.h
DA:31,9086900
DA:34,9086900
end_of_record
SF:/usr/include/c++/9/ostream
DA:108,0
DA:113,0
DA:565,0
DA:568,0
DA:570,0
DA:571,0
end_of_record
SF:/usr/include/c++/9/bits/locale_facets.h
FN:872,_ZNKSt5ctypeIcE5widenEc
FNDA:0,_ZNKSt5ctypeIcE5widenEc
FN:1084,_ZNKSt5ctypeIcE8do_widenEc
FNDA:0,_ZNKSt5ctypeIcE8do_widenEc
DA:872,0
DA:874,0
DA:875,0
DA:876,0
DA:877,0
DA:1084,0
DA:1085,0
end_of_record
SF:/usr/include/c++/9/bits/alloc_traits.h
DA:469,103429000
DA:470,103429000
DA:482,0
DA:484,1755580
DA:495,0
DA:497,0
DA:505,0
DA:506,0
DA:514,3630360
DA:515,3630360
DA:545,58206400
DA:546,58206400
DA:553,58206400
DA:557,58206400
end_of_record
SF:/usr/include/c++/9/initializer_list
DA:71,12
DA:75,12
DA:79,12
end_of_record
SF:/usr/include/c++/9/bits/stl_iterator_base_funcs.h
DA:98,53506600
DA:104,53506600
DA:138,53506600
DA:141,53506600
end_of_record
SF:/usr/include/c++/9/bits/move.h
DA:47,0
DA:74,47654000
DA:99,190184000
DA:138,361062000
DA:139,224775000
end_of_record
SF:/usr/include/c++/9/bits/basic_string.h
FN:6085,_ZStplIcSt11char_traitsIcESaIcEENSt7__cxx1112basic_stringIT_T0_T1_EEOS8_RKS8_
FNDA:26897800,_ZStplIcSt11char_traitsIcESaIcEENSt7__cxx1112basic_stringIT_T0_T1_EEOS8_RKS8_
FN:6109,_ZStplIcSt11char_traitsIcESaIcEENSt7__cxx1112basic_stringIT_T0_T1_EEPKS5_OS8_
FNDA:26897800,_ZStplIcSt11char_traitsIcESaIcEENSt7__cxx1112basic_stringIT_T0_T1_EEPKS5_OS8_
FN:6121,_ZStplIcSt11char_traitsIcESaIcEENSt7__cxx1112basic_stringIT_T0_T1_EEOS8_PKS5_
FNDA:26897800,_ZStplIcSt11char_traitsIcESaIcEENSt7__cxx1112basic_stringIT_T0_T1_EEOS8_PKS5_
DA:150,169145000
DA:156,26899200
DA:157,26899200
DA:159,3630360
DA:160,84323900
DA:178,161063000
DA:179,26607500
DA:182,134200000
DA:183,134200000
DA:186,613289000
DA:190,191917000
DA:193,3630360
DA:200,249839000
DA:203,249839000
DA:210,80369200
DA:211,26607500
DA:214,134200000
DA:216,134200000
DA:217,0
DA:221,249839000
DA:222,249839000
DA:229,169145000
DA:231,113552000
DA:232,249596000
DA:236,80450700
DA:237,80450700
DA:243,30529500
DA:247,30529500
DA:263,30529500
DA:266,26899200
DA:286,161144000
DA:287,80450700
DA:290,3630360
DA:291,3630360
DA:346,53506600
DA:348,53506600
DA:349,35061
DA:351,53506600
DA:392,26899200
DA:393,26899200
DA:396,26607500
DA:398,26607500
DA:431,0
DA:433,0
DA:434,0
DA:448,3630360
DA:450,3630360
DA:451,3630360
DA:540,0
DA:541,0
DA:542,0
DA:552,80693500
DA:553,80693500
DA:555,80693500
DA:557,26931700
DA:562,53761800
DA:563,53761800
DA:569,80693500
DA:570,80693500
DA:571,80693500
DA:625,26899200
DA:627,26899200
DA:628,26899200
DA:657,113552000
DA:658,113517000
DA:704,18
DA:705,18
DA:826,3630150
DA:827,3630150
DA:842,3630150
DA:843,1815180
DA:930,5445770
DA:936,3630360
DA:1031,40
DA:1032,40
DA:1063,7260530
DA:1070,6712510
DA:1143,210
DA:1146,210
DA:1221,26897800
DA:1222,0
DA:1864,210
DA:1867,210
DA:2300,111743
DA:2301,111743
DA:2312,0
DA:2313,0
DA:2393,1814970
DA:2396,1814970
DA:2551,20
DA:2555,20
DA:2571,38
DA:2572,38
DA:6085,26897800
DA:6087,26897800
DA:6109,26897800
DA:6111,26897800
DA:6121,26897800
DA:6123,26897800
DA:6175,2
DA:6177,2
DA:6416,0
DA:6421,0
DA:6546,0
DA:6547,0
DA:6548,0
DA:6557,1318
DA:6558,1318
DA:6559,1318
DA:6562,26897800
DA:6563,26897800
DA:6565,26897800
end_of_record
SF:/usr/include/c++/9/bits/predefined_ops.h
DA:234,1814970
DA:240,2774660
DA:241,2258160
DA:246,1814970
DA:247,1814970
end_of_record
SF:/workspace/vtr-verilog-to-routing/ODIN_II/SRC/ast_util.cpp
FN:53,_Z15update_tree_tagP10ast_node_tii
FNDA:0,_Z15update_tree_tagP10ast_node_tii
FN:73,_Z12add_tag_dataP5ast_t
FNDA:0,_Z12add_tag_dataP5ast_t
FN:97,_Z12allocate_astv
FNDA:3109,_Z12allocate_astv
FN:112,_Z8free_astP5ast_t
FNDA:0,_Z8free_astP5ast_t
FN:121,_Z21add_top_module_to_astP5ast_tP10ast_node_t
FNDA:60008,_Z21add_top_module_to_astP5ast_tP10ast_node_t
FN:135,_Z18create_node_w_type3ids5loc_t
FNDA:13253200,_Z18create_node_w_type3ids5loc_t
FN:186,_Z34free_assignement_of_node_keep_treeP10ast_node_t
FNDA:4838900,_Z34free_assignement_of_node_keep_treeP10ast_node_t
FN:219,_Z16free_single_nodeP10ast_node_t
FNDA:11138100,_Z16free_single_nodeP10ast_node_t
FN:231,_Z17free_all_childrenP10ast_node_t
FNDA:5892410,_Z17free_all_childrenP10ast_node_t
FN:246,_Z22free_resolved_childrenP10ast_node_t
FNDA:1224590,_Z22free_resolved_childrenP10ast_node_t
FN:264,_Z15free_whole_treeP10ast_node_t
FNDA:1654820,_Z15free_whole_treeP10ast_node_t
FN:272,_Z18free_resolved_treeP10ast_node_t
FNDA:0,_Z18free_resolved_treeP10ast_node_t
FN:284,_Z19create_tree_node_idPc5loc_t
FNDA:1288770,_Z19create_tree_node_idPc5loc_t
FN:294,_Z23create_tree_node_stringPc5loc_t
FNDA:210,_Z23create_tree_node_stringPc5loc_t
FN:304,_Z23create_tree_node_numberPc5loc_t
FNDA:674482,_Z23create_tree_node_numberPc5loc_t
FN:314,_Z23create_tree_node_numberR7VNumber5loc_t
FNDA:408741,_Z23create_tree_node_numberR7VNumber5loc_t
FN:324,_Z23create_tree_node_numberl5loc_t
FNDA:708,_Z23create_tree_node_numberl5loc_t
FN:334,_Z25allocate_children_to_nodeP10ast_node_tSt6vectorIS0_SaIS0_EE
FNDA:1497460,_Z25allocate_children_to_nodeP10ast_node_tSt6vectorIS0_SaIS0_EE
FN:347,_Z17add_child_to_nodeP10ast_node_tS0_
FNDA:821168,_Z17add_child_to_nodeP10ast_node_tS0_
FN:361,_Z26add_child_to_node_at_indexP10ast_node_tS0_i
FNDA:3179,_Z26add_child_to_node_at_indexP10ast_node_tS0_i
FN:377,_Z31remove_child_from_node_at_indexP10ast_node_ti
FNDA:357682,_Z31remove_child_from_node_at_indexP10ast_node_ti
FN:397,_Z19expand_node_list_atPP10ast_node_tlll
FNDA:0,_Z19expand_node_list_atPP10ast_node_tlll
FN:415,_Z32make_concat_into_list_of_stringsP10ast_node_tPcP12sc_hierarchy
FNDA:357,_Z32make_concat_into_list_of_stringsP10ast_node_tPcP12sc_hierarchy
FN:504,_Z21change_to_number_nodeP10ast_node_tl
FNDA:556,_Z21change_to_number_nodeP10ast_node_tl
FN:513,_Z21change_to_number_nodeP10ast_node_t7VNumber
FNDA:409297,_Z21change_to_number_nodeP10ast_node_t7VNumber
FN:530,_Z30get_name_of_var_declare_at_bitP10ast_node_ti
FNDA:3117510,_Z30get_name_of_var_declare_at_bitP10ast_node_ti
FN:552,_Z14get_identifierP10ast_node_t
FNDA:204,_Z14get_identifierP10ast_node_t
FN:565,_Z22get_name_of_pin_at_bitP10ast_node_tiPcP12sc_hierarchy
FNDA:3239040,_Z22get_name_of_pin_at_bitP10ast_node_tiPcP12sc_hierarchy
FN:640,_Z23get_name_of_pins_numberP10ast_node_tii
FNDA:768225,_Z23get_name_of_pins_numberP10ast_node_tii
FN:652,_Z22get_name_of_pin_numberP10ast_node_ti
FNDA:18295500,_Z22get_name_of_pin_numberP10ast_node_ti
FN:686,_Z16get_name_of_pinsP10ast_node_tPcP12sc_hierarchy
FNDA:2008660,_Z16get_name_of_pinsP10ast_node_tPcP12sc_hierarchy
FN:787,_Z28get_name_of_pins_with_prefixP10ast_node_tPcP12sc_hierarchy
FNDA:2008660,_Z28get_name_of_pins_with_prefixP10ast_node_tPcP12sc_hierarchy
FN:808,_Z20get_size_of_variableP10ast_node_tP12sc_hierarchy
FNDA:1406980,_Z20get_size_of_variableP10ast_node_tP12sc_hierarchy
FN:879,_Z13move_ast_nodeP10ast_node_tS0_S0_
FNDA:0,_Z13move_ast_nodeP10ast_node_tS0_S0_
FN:899,_Z18ast_node_deep_copyP10ast_node_t
FNDA:19695200,_Z18ast_node_deep_copyP10ast_node_t
FN:920,_Z13ast_node_copyP10ast_node_t
FNDA:19712300,_Z13ast_node_copyP10ast_node_t
FN:949,_ZL12expand_powerPP10ast_node_t
FNDA:12,_ZL12expand_powerPP10ast_node_t
FN:1013,_ZL22check_binary_operationPP10ast_node_t
FNDA:276325,_ZL22check_binary_operationPP10ast_node_t
FN:1045,_Z10fold_unaryPP10ast_node_t
FNDA:35512,_Z10fold_unaryPP10ast_node_t
FN:1145,_Z11fold_binaryPP10ast_node_t
FNDA:683434,_Z11fold_binaryPP10ast_node_t
FN:1308,_Z16node_is_constantP10ast_node_t
FNDA:3765270,_Z16node_is_constantP10ast_node_t
FN:1315,_Z32assert_constant_positionnal_argsP10ast_node_tl
FNDA:20,_Z32assert_constant_positionnal_argsP10ast_node_tl
FN:1336,_Z14c_simple_printNSt7__cxx1112basic_stringIcSt11char_traitsIcESaIcEEE
FNDA:20,_Z14c_simple_printNSt7__cxx1112basic_stringIcSt11char_traitsIcESaIcEEE
FN:1389,_Z9c_displayP10ast_node_t
FNDA:20,_Z9c_displayP10ast_node_t
FN:1470,_Z8c_finishP10ast_node_t
FNDA:0,_Z8c_finishP10ast_node_t
FN:1479,_Z5clog2li
FNDA:54,_Z5clog2li
FN:1501,_Z20resolve_concat_sizesP10ast_node_tP12sc_hierarchy
FNDA:466573,_Z20resolve_concat_sizesP10ast_node_tP12sc_hierarchy
DA:53,0
DA:54,0
DA:55,0
DA:56,0
DA:57,0
DA:58,0
DA:60,0
DA:61,0
DA:62,0
DA:65,0
DA:66,0
DA:68,0
DA:73,0
DA:74,0
DA:75,0
DA:77,0
DA:78,0
DA:80,0
DA:82,0
DA:87,0
DA:88,0
DA:90,0
DA:97,3109
DA:98,3109
DA:100,3109
DA:101,3109
DA:103,3109
DA:104,3109
DA:106,3109
DA:112,0
DA:113,0
DA:114,0
DA:115,0
DA:121,60008
DA:122,60008
DA:123,60008
DA:124,60008
DA:125,60008
DA:126,60008
DA:128,60008
DA:130,60008
DA:135,13253200
DA:136,13253200
DA:138,13253200
DA:140,13253200
DA:142,13253200
DA:143,13253200
DA:145,13253200
DA:146,13253200
DA:147,13253200
DA:148,13253200
DA:149,13253200
DA:150,13253200
DA:151,13253200
DA:152,13253200
DA:153,13253200
DA:154,13253200
DA:155,13253200
DA:156,13253200
DA:157,13253200
DA:158,13253200
DA:160,13253200
DA:162,13253200
DA:163,13253200
DA:164,13253200
DA:165,13253200
DA:166,13253200
DA:167,13253200
DA:168,13253200
DA:169,13253200
DA:170,13253200
DA:171,13253200
DA:172,13253200
DA:173,13253200
DA:174,13253200
DA:176,13253200
DA:177,13253200
DA:179,13253200
DA:186,4838900
DA:187,4838900
DA:189,4838900
DA:192,4838900
DA:193,4838900
DA:196,4838900
DA:197,1224
DA:198,4838900
DA:201,4838900
DA:202,4730260
DA:203,4838900
DA:206,4838900
DA:207,0
DA:208,0
DA:210,4838900
DA:211,4838900
DA:212,4838900
DA:214,4838900
DA:219,11138100
DA:220,11138100
DA:221,4429600
DA:222,4429600
DA:223,4429600
DA:225,11138100
DA:231,5892410
DA:232,5892410
DA:234,5892410
DA:235,7068180
DA:236,3643990
DA:237,3424190
DA:238,3424190
DA:239,3424190
DA:241,5892410
DA:246,1224590
DA:247,1224590
DA:249,1224590
DA:250,2040440
DA:251,1631700
DA:252,815850
DA:255,1224590
DA:256,1224590
DA:257,1224590
DA:259,1224590
DA:264,5483120
DA:265,5298820
DA:266,5483120
DA:272,815850
DA:273,815850
DA:274,815850
DA:275,815850
DA:278,815850
DA:284,1288770
DA:285,1288770
DA:286,1288770
DA:288,1288770
DA:294,210
DA:295,210
DA:296,210
DA:297,210
DA:298,210
DA:304,674482
DA:305,674482
DA:306,674482
DA:308,674482
DA:314,408741
DA:315,408741
DA:316,408741
DA:318,408741
DA:324,708
DA:325,708
DA:326,708
DA:328,708
DA:334,1497460
DA:336,1497460
DA:337,1497460
DA:339,4446320
DA:340,2948860
DA:342,1497460
DA:347,821168
DA:349,821168
DA:353,821168
DA:354,821168
DA:355,821168
DA:361,3179
DA:362,3179
DA:365,3179
DA:366,7265
DA:367,4086
DA:370,3179
DA:371,3179
DA:377,357682
DA:378,357682
DA:381,357682
DA:382,184286
DA:383,184286
DA:386,98789700
DA:387,98432000
DA:388,98432000
DA:391,357682
DA:397,0
DA:398,0
DA:399,0
DA:400,0
DA:402,0
DA:403,0
DA:404,0
DA:415,357
DA:416,357
DA:417,357
DA:418,357
DA:420,357
DA:421,357
DA:424,1079
DA:425,722
DA:426,0
DA:430,1079
DA:431,722
DA:432,716
DA:433,716
DA:434,716
DA:435,0
DA:437,716
DA:438,327
DA:439,327
DA:440,327
DA:441,389
DA:443,389
DA:444,389
DA:445,389
DA:447,7153
DA:448,6764
DA:449,6764
DA:450,6764
DA:452,0
DA:453,0
DA:456,716
DA:457,6
DA:458,6
DA:459,6
DA:460,6
DA:461,0
DA:462,0
DA:463,0
DA:464,0
DA:465,0
DA:466,0
DA:470,0
DA:471,0
DA:472,0
DA:473,0
DA:475,0
DA:476,0
DA:478,0
DA:479,0
DA:480,0
DA:481,0
DA:484,0
DA:486,0
DA:488,0
DA:489,0
DA:490,0
DA:491,0
DA:494,0
DA:497,357
DA:504,556
DA:505,1112
DA:513,409297
DA:514,409297
DA:515,409297
DA:516,0
DA:518,409297
DA:519,409297
DA:521,409297
DA:522,409297
DA:523,409297
DA:524,409297
DA:530,3117510
DA:531,3117510
DA:534,3117510
DA:535,95291
DA:536,95291
DA:537,3022220
DA:538,3022220
DA:539,3022220
DA:540,0
DA:542,0
DA:545,3117510
DA:552,204
DA:553,204
DA:554,68
DA:556,136
DA:557,136
DA:565,3239040
DA:566,3239040
DA:568,3239040
DA:569,3239040
DA:573,3239040
DA:574,10130
DA:575,10130
DA:576,10130
DA:577,3228910
DA:578,166687
DA:580,166687
DA:581,166687
DA:583,166687
DA:584,166687
DA:585,166687
DA:586,166687
DA:588,166687
DA:589,3062230
DA:590,86155
DA:591,2976070
DA:592,2972460
DA:593,2972460
DA:595,2972460
DA:596,0
DA:599,2972460
DA:601,2972050
DA:602,2972050
DA:603,2972050
DA:605,0
DA:607,2972460
DA:608,3617
DA:609,3617
DA:610,0
DA:611,0
DA:612,0
DA:613,0
DA:615,0
DA:616,0
DA:618,0
DA:621,0
DA:622,0
DA:628,0
DA:629,0
DA:630,0
DA:632,0
DA:634,0
DA:637,3239040
DA:640,768225
DA:641,768225
DA:642,768225
DA:644,768225
DA:645,768225
DA:646,19060100
DA:647,18291900
DA:649,768225
DA:652,18295500
DA:653,18295500
DA:654,18295500
DA:656,18295500
DA:657,181
DA:659,18295500
DA:660,18295500
DA:661,1696300
DA:662,1696300
DA:663,1696300
DA:664,16597400
DA:665,16597400
DA:666,16597400
DA:667,1728
DA:668,1728
DA:669,1728
DA:670,114
DA:671,114
DA:672,114
DA:673,0
DA:674,0
DA:675,0
DA:678,18295500
DA:686,2008660
DA:687,2008660
DA:688,2008660
DA:689,2008660
DA:690,2008660
DA:691,2008660
DA:693,2008660
DA:694,230059
DA:695,230059
DA:697,230059
DA:698,230059
DA:699,230059
DA:701,230059
DA:702,1778600
DA:703,127511
DA:704,127511
DA:705,127511
DA:707,127511
DA:708,127511
DA:709,127511
DA:710,127511
DA:711,2101380
DA:712,1973870
DA:714,0
DA:715,0
DA:717,1651090
DA:720,882508
DA:721,882508
DA:723,882508
DA:724,0
DA:727,882508
DA:729,882508
DA:730,882508
DA:731,280264
DA:732,280264
DA:733,280264
DA:734,602244
DA:735,602244
DA:737,602244
DA:738,602244
DA:739,602244
DA:741,602244
DA:742,602244
DA:744,14071500
DA:745,13469200
DA:746,13469200
DA:747,13469200
DA:751,0
DA:752,0
DA:755,768582
DA:756,768225
DA:757,768225
DA:758,357
DA:759,357
DA:760,0
DA:762,357
DA:763,357
DA:766,357
DA:767,357
DA:768,7454
DA:770,7097
DA:771,7097
DA:775,0
DA:778,2008660
DA:779,2008660
DA:781,2008660
DA:787,2008660
DA:788,2008660
DA:789,2008660
DA:790,2008660
DA:793,2008660
DA:795,36261100
DA:796,34252400
DA:797,34252400
DA:798,34252400
DA:799,34252400
DA:802,2008660
DA:808,1406980
DA:809,1406980
DA:810,1406980
DA:811,1406980
DA:813,1406980
DA:815,1406980
DA:816,1218090
DA:817,1218090
DA:818,1218090
DA:819,0
DA:821,0
DA:822,0
DA:824,0
DA:827,0
DA:828,0
DA:831,1218090
DA:832,1218090
DA:837,0
DA:838,0
DA:840,112800
DA:841,112800
DA:842,112800
DA:848,714
DA:849,714
DA:850,714
DA:853,0
DA:854,0
DA:855,0
DA:858,1406260
DA:860,1145940
DA:861,1033140
DA:862,1033140
DA:864,1033140
DA:865,1033140
DA:866,1033140
DA:868,1033140
DA:871,1406260
DA:872,1406260
DA:879,0
DA:880,0
DA:881,0
DA:882,0
DA:883,0
DA:884,0
DA:885,0
DA:886,0
DA:887,0
DA:888,0
DA:892,0
DA:893,0
DA:899,19695200
DA:900,19695200
DA:902,19695200
DA:904,9069850
DA:907,17966000
DA:908,8896170
DA:909,8896170
DA:913,19695200
DA:920,19712300
DA:921,19712300
DA:923,19712300
DA:928,9086900
DA:929,9086900
DA:932,9086900
DA:933,2528890
DA:934,9086900
DA:935,714
DA:937,9086900
DA:938,9086900
DA:939,9086900
DA:940,9086900
DA:942,9086900
DA:949,12
DA:951,12
DA:953,12
DA:954,12
DA:957,12
DA:958,12
DA:959,0
DA:960,0
DA:961,0
DA:963,12
DA:964,0
DA:966,12
DA:967,24
DA:968,12
DA:969,12
DA:971,12
DA:972,12
DA:976,12
DA:977,12
DA:978,12
DA:1013,276325
DA:1014,276325
DA:1015,276325
DA:1016,10312
DA:1017,10312
DA:1018,2013
DA:1019,10312
DA:1020,22
DA:1022,36
DA:1023,72
DA:1024,0
DA:1025,36
DA:1026,36
DA:1028,12
DA:1029,24
DA:1030,0
DA:1031,12
DA:1032,12
DA:1037,276325
DA:1045,35512
DA:1046,35512
DA:1049,35512
DA:1050,35512
DA:1052,71024
DA:1053,1632
DA:1054,0
DA:1055,1632
DA:1057,1632
DA:1058,0
DA:1059,0
DA:1060,0
DA:1061,0
DA:1063,270
DA:1064,270
DA:1065,270
DA:1066,270
DA:1068,0
DA:1069,0
DA:1070,0
DA:1071,0
DA:1073,1308
DA:1074,1308
DA:1075,1308
DA:1076,1308
DA:1078,0
DA:1079,0
DA:1080,0
DA:1081,0
DA:1083,0
DA:1084,0
DA:1085,0
DA:1086,0
DA:1088,0
DA:1089,0
DA:1090,0
DA:1091,0
DA:1093,0
DA:1094,0
DA:1095,0
DA:1096,0
DA:1098,0
DA:1099,0
DA:1100,0
DA:1101,0
DA:1103,0
DA:1104,0
DA:1105,0
DA:1106,0
DA:1108,54
DA:1109,54
DA:1110,0
DA:1112,54
DA:1113,54
DA:1114,54
DA:1116,0
DA:1117,0
DA:1118,0
DA:1119,0
DA:1121,0
DA:1122,0
DA:1123,0
DA:1124,0
DA:1130,1632
DA:1131,1632
DA:1132,3264
DA:1134,33880
DA:1136,0
DA:1145,683434
DA:1146,683434
DA:1149,683434
DA:1150,683434
DA:1151,683434
DA:1153,1774930
DA:1154,407109
DA:1155,0
DA:1156,407109
DA:1157,407109
DA:1159,407109
DA:1160,11710
DA:1161,11710
DA:1162,11710
DA:1163,11710
DA:1165,322369
DA:1166,322369
DA:1167,322369
DA:1168,322369
DA:1170,72189
DA:1171,72189
DA:1172,72189
DA:1173,72189
DA:1175,75
DA:1176,75
DA:1177,75
DA:1178,75
DA:1180,8
DA:1181,8
DA:1182,8
DA:1183,8
DA:1185,0
DA:1186,0
DA:1187,0
DA:1188,0
DA:1190,0
DA:1191,0
DA:1192,0
DA:1193,0
DA:1195,0
DA:1196,0
DA:1197,0
DA:1198,0
DA:1200,0
DA:1201,0
DA:1202,0
DA:1203,0
DA:1205,0
DA:1206,0
DA:1207,0
DA:1208,0
DA:1210,0
DA:1211,0
DA:1212,0
DA:1213,0
DA:1215,0
DA:1216,0
DA:1217,0
DA:1218,0
DA:1220,238
DA:1221,238
DA:1222,238
DA:1223,238
DA:1225,236
DA:1226,236
DA:1227,236
DA:1228,236
DA:1230,24
DA:1231,24
DA:1232,24
DA:1233,24
DA:1235,0
DA:1236,0
DA:1237,0
DA:1238,0
DA:1240,0
DA:1241,0
DA:1242,0
DA:1243,0
DA:1245,0
DA:1246,0
DA:1247,0
DA:1248,0
DA:1250,0
DA:1251,0
DA:1252,0
DA:1253,0
DA:1255,0
DA:1256,0
DA:1257,0
DA:1258,0
DA:1260,260
DA:1261,260
DA:1262,260
DA:1263,260
DA:1265,0
DA:1266,0
DA:1267,0
DA:1268,0
DA:1270,0
DA:1271,0
DA:1272,0
DA:1273,0
DA:1275,0
DA:1276,0
DA:1277,0
DA:1278,0
DA:1280,0
DA:1281,0
DA:1282,0
DA:1283,0
DA:1285,0
DA:1286,0
DA:1287,0
DA:1288,0
DA:1294,407109
DA:1295,407109
DA:1296,814218
DA:1299,276325
DA:1300,276325
DA:1308,4892340
DA:1309,4892340
DA:1310,3581800
DA:1315,20
DA:1316,20
DA:1317,0
DA:1319,20
DA:1320,0
DA:1323,40
DA:1324,40
DA:1325,0
DA:1330,20
DA:1336,20
DA:1337,20
DA:1338,20
DA:1339,58
DA:1340,38
DA:1341,38
DA:1342,38
DA:1343,56
DA:1346,38
DA:1347,18
DA:1348,18
DA:1349,18
DA:1350,18
DA:1352,0
DA:1353,0
DA:1355,0
DA:1357,0
DA:1359,0
DA:1360,0
DA:1361,0
DA:1362,0
DA:1363,0
DA:1364,0
DA:1365,0
DA:1366,0
DA:1367,0
DA:1369,0
DA:1372,0
DA:1373,0
DA:1374,0
DA:1379,0
DA:1380,58
DA:1387,20
DA:1389,20
DA:1390,20
DA:1396,20
DA:1397,20
DA:1398,20
DA:1399,40
DA:1400,20
DA:1401,20
DA:1402,20
DA:1403,58
DA:1406,4
DA:1407,2
DA:1409,2
DA:1410,2
DA:1411,2
DA:1412,0
DA:1415,2
DA:1416,2
DA:1418,2
DA:1419,2
DA:1420,2
DA:1421,2
DA:1422,2
DA:1423,2
DA:1424,2
DA:1425,0
DA:1429,2
DA:1430,2
DA:1432,0
DA:1433,0
DA:1435,0
DA:1439,0
DA:1444,0
DA:1445,0
DA:1449,0
DA:1450,0
DA:1451,0
DA:1456,0
DA:1459,0
DA:1460,0
DA:1464,2
DA:1468,20
DA:1470,0
DA:1471,0
DA:1473,0
DA:1479,54
DA:1480,54
DA:1482,54
DA:1485,54
DA:1487,54
DA:1488,0
DA:1489,0
DA:1491,54
DA:1492,54
DA:1501,466573
DA:1502,466573
DA:1504,466573
DA:1505,466573
DA:1507,218788
DA:1508,164949
DA:1512,136765
DA:1513,136765
DA:1514,136765
DA:1515,136765
DA:1516,136765
DA:1521,5488
DA:1522,3402
DA:1523,3402
DA:1528,76
DA:1530,76
DA:1531,76
DA:1532,76
DA:1535,273807
DA:1537,273807
DA:1538,0
DA:1540,273807
DA:1541,273807
DA:1543,0
DA:1544,0
DA:1549,466573
end_of_record
SF:/usr/include/c++/9/cmath
DA:415,0
DA:418,0
end_of_record
SF:/usr/include/c++/9/ext/type_traits.h
DA:152,53506600
end_of_record
SF:/usr/include/c++/9/iostream
end_of_record
SF:/usr/include/c++/9/bits/std_abs.h
DA:56,127511
end_of_record
SF:/usr/include/c++/9/bits/ptr_traits.h
DA:146,224775000
DA:147,224775000
end_of_record
SF:/usr/include/c++/9/bits/basic_string.tcc
FN:206,_ZNSt7__cxx1112basic_stringIcSt11char_traitsIcESaIcEE12_M_constructIPcEEvT_S7_St20forward_iterator_tag
FNDA:26899200,_ZNSt7__cxx1112basic_stringIcSt11char_traitsIcESaIcEE12_M_constructIPcEEvT_S7_St20forward_iterator_tag
FN:206,_ZNSt7__cxx1112basic_stringIcSt11char_traitsIcESaIcEE12_M_constructIPKcEEvT_S8_St20forward_iterator_tag
FNDA:26607500,_ZNSt7__cxx1112basic_stringIcSt11char_traitsIcESaIcEE12_M_constructIPKcEEvT_S8_St20forward_iterator_tag
FN:1158,_ZStplIcSt11char_traitsIcESaIcEENSt7__cxx1112basic_stringIT_T0_T1_EEPKS5_RKS8_
FNDA:0,_ZStplIcSt11char_traitsIcESaIcEENSt7__cxx1112basic_stringIT_T0_T1_EEPKS5_RKS8_
DA:206,26899200
DA:211,26899200
DA:212,0
DA:215,26899200
DA:217,26899200
DA:219,0
DA:220,0
DA:225,26899200
DA:232,26899200
DA:233,26899200
DA:206,26607500
DA:211,26607500
DA:212,0
DA:215,26607500
DA:217,26607500
DA:219,26607500
DA:220,26607500
DA:225,26607500
DA:232,26607500
DA:233,26607500
DA:1158,0
DA:1164,0
DA:1165,0
DA:1166,0
DA:1167,0
DA:1168,0
DA:1169,0
end_of_record
SF:/usr/include/c++/9/ext/alloc_traits.h
DA:97,3630360
DA:98,3630360
end_of_record
SF:/usr/include/x86_64-linux-gnu/bits/stdio2.h
DA:105,250
DA:107,250
end_of_record
SF:/workspace/vtr-verilog-to-routing/libs/EXTERNAL/libargparse/src/argparse_value.hpp
DA:53,0
end_of_record
SF:/usr/include/c++/9/ext/string_conversions.h
FN:99,_ZN9__gnu_cxx12__to_xstringINSt7__cxx1112basic_stringIcSt11char_traitsIcESaIcEEEcEET_PFiPT0_mPKS8_P13__va_list_tagEmSB_z
FNDA:26899200,_ZN9__gnu_cxx12__to_xstringINSt7__cxx1112basic_stringIcSt11char_traitsIcESaIcEEEcEET_PFiPT0_mPKS8_P13__va_list_tagEmSB_z
DA:99,26899200
DA:105,26899200
DA:109,26899200
DA:111,26899200
DA:113,26899200
DA:115,26899200
end_of_record
SF:/usr/include/c++/9/new
DA:173,1755580
DA:174,1755580
end_of_record
SF:/usr/include/c++/9/bits/vector.tcc
FN:109,_ZNSt6vectorIN8BitSpace9BitFieldsItEESaIS2_EE12emplace_backIJS2_EEEvDpOT_
FNDA:47654000,_ZNSt6vectorIN8BitSpace9BitFieldsItEESaIS2_EE12emplace_backIJS2_EEEvDpOT_
FN:198,_ZNSt6vectorIN8BitSpace9BitFieldsItEESaIS2_EEaSERKS4_
FNDA:0,_ZNSt6vectorIN8BitSpace9BitFieldsItEESaIS2_EEaSERKS4_
FN:426,_ZNSt6vectorIN8BitSpace9BitFieldsItEESaIS2_EE17_M_realloc_insertIJS2_EEEvN9__gnu_cxx17__normal_iteratorIPS2_S4_EEDpOT_
FNDA:0,_ZNSt6vectorIN8BitSpace9BitFieldsItEESaIS2_EE17_M_realloc_insertIJS2_EEEvN9__gnu_cxx17__normal_iteratorIPS2_S4_EEDpOT_
DA:109,47654000
DA:112,47654000
DA:115,1755580
DA:117,1755580
DA:121,45898400
DA:125,47654000
DA:198,0
DA:201,0
DA:223,0
DA:224,0
DA:226,0
DA:228,0
DA:229,0
DA:230,0
DA:231,0
DA:232,0
DA:233,0
DA:234,0
DA:236,0
DA:238,0
DA:239,0
DA:243,0
DA:245,0
DA:246,0
DA:248,0
DA:250,0
DA:252,0
DA:426,0
DA:435,0
DA:437,0
DA:438,0
DA:439,0
DA:440,0
DA:441,0
DA:449,0
DA:450,0
DA:456,0
DA:461,0
DA:462,0
DA:464,0
DA:466,0
DA:467,0
DA:500,0
DA:501,0
DA:502,0
DA:503,0
DA:504,0
DA:505,0
end_of_record
SF:/usr/include/c++/9/bits/allocator.h
DA:138,94815800
DA:141,169429000
DA:142,169429000
DA:153,196534000
end_of_record
SF:/workspace/vtr-verilog-to-routing/libs/librtlnumber/src/include/internal_bits.hpp
FN:308,_ZN8BitSpaceL13bits_to_hex_cEsb
FNDA:0,_ZN8BitSpaceL13bits_to_hex_cEsb
FN:352,_ZN8BitSpaceL8c_to_bitEc
FNDA:7367940,_ZN8BitSpaceL8c_to_bitEc
FN:454,_ZN8BitSpace11VerilogBitsC2Emh
FNDA:40634400,_ZN8BitSpace11VerilogBitsC2Emh
FN:510,_ZN8BitSpace11VerilogBits12to_printableB5cxx11Ev
FNDA:0,_ZN8BitSpace11VerilogBits12to_printableB5cxx11Ev
FN:520,_ZN8BitSpace11VerilogBits4getcEv
FNDA:0,_ZN8BitSpace11VerilogBits4getcEv
FN:615,_ZN8BitSpace11VerilogBits6resizeEhm
FNDA:1815180,_ZN8BitSpace11VerilogBits6resizeEhm
FN:674,_ZN7VNumberaSEOS_
FNDA:408789,_ZN7VNumberaSEOS_
FN:706,_ZN7VNumberC2Ev
FNDA:15348000,_ZN7VNumberC2Ev
FN:716,_ZN7VNumberC2ERKS_
FNDA:5632070,_ZN7VNumberC2ERKS_
FN:722,_ZN7VNumberC2EPS_
FNDA:0,_ZN7VNumberC2EPS_
FN:734,_ZN7VNumberC2ERKNSt7__cxx1112basic_stringIcSt11char_traitsIcESaIcEEE
FNDA:674692,_ZN7VNumberC2ERKNSt7__cxx1112basic_stringIcSt11char_traitsIcESaIcEEE
FN:738,_ZN7VNumberC2El
FNDA:1318,_ZN7VNumberC2El
FN:751,_ZN7VNumber9get_valueEv
FNDA:26897800,_ZN7VNumber9get_valueEv
FN:777,_ZN7VNumber9to_stringB5cxx11Ebb
FNDA:0,_ZN7VNumber9to_stringB5cxx11Ebb
FN:792,_ZN7VNumber10to_UstringB5cxx11Eb
FNDA:0,_ZN7VNumber10to_UstringB5cxx11Eb
FN:807,_ZN7VNumber12to_log2radixB5cxx11Esbb
FNDA:0,_ZN7VNumber12to_log2radixB5cxx11Esbb
FN:832,_ZN7VNumber9to_base10B5cxx11Ebb
FNDA:0,_ZN7VNumber9to_base10B5cxx11Ebb
FN:857,_ZN7VNumber20to_verilog_bitstringB5cxx11Ev
FNDA:26897800,_ZN7VNumber20to_verilog_bitstringB5cxx11Ev
FN:864,_ZN7VNumber10to_vstringB5cxx11Ec
FNDA:0,_ZN7VNumber10to_vstringB5cxx11Ec
FN:902,_ZN7VNumber9set_valueERKNSt7__cxx1112basic_stringIcSt11char_traitsIcESaIcEEE
FNDA:1815180,_ZN7VNumber9set_valueERKNSt7__cxx1112basic_stringIcSt11char_traitsIcESaIcEEE
FN:996,_ZN7VNumber9set_valueEl
FNDA:1318,_ZN7VNumber9set_valueEl
FN:1007,_ZN7VNumber16get_bit_from_msbEm
FNDA:26607500,_ZN7VNumber16get_bit_from_msbEm
FN:1012,_ZN7VNumber16get_bit_from_lsbEm
FNDA:18295500,_ZN7VNumber16get_bit_from_lsbEm
DA:286,0
DA:287,0
DA:290,0
DA:291,0
DA:292,0
DA:293,0
DA:294,0
DA:295,0
DA:299,0
DA:300,0
DA:303,0
DA:304,0
DA:308,0
DA:309,0
DA:312,0
DA:313,0
DA:314,0
DA:315,0
DA:316,0
DA:317,0
DA:318,0
DA:319,0
DA:320,0
DA:321,0
DA:322,0
DA:323,0
DA:324,0
DA:325,0
DA:326,0
DA:327,0
DA:328,0
DA:329,0
DA:330,0
DA:331,0
DA:332,0
DA:333,0
DA:334,0
DA:335,0
DA:336,0
DA:337,0
DA:338,0
DA:339,0
DA:340,0
DA:341,0
DA:342,0
DA:343,0
DA:346,0
DA:349,0
DA:352,7367940
DA:353,7367940
DA:356,1182070
DA:357,1182070
DA:358,114
DA:359,114
DA:360,438015
DA:361,438015
DA:362,0
DA:363,0
DA:365,0
DA:367,0
DA:376,1825770000
DA:377,1825770000
DA:378,1825770000
DA:379,1825770000
DA:384,47654000
DA:385,37004100
DA:390,1770100000
DA:391,1770100000
DA:392,1719750000
DA:394,44903000
DA:398,61124600
DA:399,61124600
DA:401,61124600
DA:402,61124600
DA:404,61124600
DA:405,61124600
DA:406,61124600
DA:408,61124600
DA:409,61124600
DA:416,0
DA:418,0
DA:419,0
DA:425,0
DA:435,0
DA:440,1825770000
DA:441,1825770000
DA:454,40634400
DA:455,40634400
DA:456,40634400
DA:458,40634400
DA:460,88288400
DA:461,84658100
DA:463,40634400
DA:470,1880250000
DA:471,1880250000
DA:478,1825770000
DA:486,1825770000
DA:489,1770100000
DA:497,1770100000
DA:500,61124600
DA:507,61124600
DA:510,0
DA:511,0
DA:513,0
DA:514,0
DA:517,0
DA:520,0
DA:521,0
DA:522,0
DA:526,859888000
DA:527,859888000
DA:561,0
DA:562,0
DA:563,0
DA:615,1815180
DA:619,1815180
DA:620,0
DA:621,0
DA:623,0
DA:624,0
DA:625,0
DA:627,0
DA:628,0
DA:629,0
DA:635,0
DA:638,1815180
DA:640,1815180
DA:642,7262110
DA:643,5446930
DA:644,5446930
DA:647,51940000
DA:648,50124900
DA:649,50124900
DA:652,1815180
DA:674,7183450
DA:706,15348000
DA:707,15348000
DA:708,30696000
DA:709,15348000
DA:710,15348000
DA:716,5632070
DA:717,5632070
DA:718,5632070
DA:719,5632070
DA:720,5632070
DA:722,0
DA:723,0
DA:724,0
DA:725,0
DA:726,0
DA:734,674692
DA:735,674692
DA:736,674692
DA:738,1318
DA:739,1318
DA:740,1318
DA:751,26897800
DA:752,26897800
DA:754,940581000
DA:757,26897800
DA:758,26897800
DA:759,192
DA:760,192
DA:763,26897800
DA:764,53795700
DA:766,886757000
DA:767,859859000
DA:768,859859000
DA:769,859859000
DA:771,859859000
DA:774,26897800
DA:777,0
DA:779,0
DA:780,0
DA:781,0
DA:782,0
DA:783,0
DA:785,0
DA:789,0
DA:792,0
DA:794,0
DA:795,0
DA:796,0
DA:797,0
DA:798,0
DA:800,0
DA:804,0
DA:807,0
DA:808,0
DA:811,0
DA:812,0
DA:813,0
DA:816,0
DA:818,0
DA:819,0
DA:820,0
DA:822,0
DA:829,0
DA:832,0
DA:833,0
DA:834,0
DA:835,0
DA:837,0
DA:839,0
DA:840,0
DA:841,0
DA:842,0
DA:843,0
DA:845,0
DA:847,0
DA:848,0
DA:850,0
DA:853,0
DA:857,26897800
DA:858,26897800
DA:859,26897800
DA:861,80659600
DA:864,0
DA:865,0
DA:866,0
DA:867,0
DA:868,0
DA:873,0
DA:874,0
DA:875,0
DA:876,0
DA:877,0
DA:878,0
DA:879,0
DA:880,0
DA:881,0
DA:882,0
DA:883,0
DA:884,0
DA:885,0
DA:886,0
DA:887,0
DA:888,0
DA:890,0
DA:891,0
DA:892,0
DA:894,0
DA:896,0
DA:902,1815180
DA:903,1815180
DA:904,0
DA:907,3630360
DA:912,1815180
DA:913,1815180
DA:914,1815180
DA:915,1815180
DA:918,1815180
DA:919,210
DA:922,210
DA:925,210
DA:926,210
DA:928,210
DA:929,210
DA:932,210
DA:933,210
DA:934,210
DA:936,1814970
DA:937,1814970
DA:938,1266960
DA:942,548008
DA:943,223406
DA:944,111703
DA:945,111703
DA:948,1814970
DA:949,1267160
DA:952,1814970
DA:953,1814970
DA:957,3
DA:958,3
DA:959,3
DA:960,1269560
DA:961,1269560
DA:962,1269560
DA:963,3024
DA:964,3024
DA:965,3024
DA:966,0
DA:967,0
DA:969,0
DA:973,1814970
DA:974,1814970
DA:979,5445540
DA:981,1815180
DA:982,1815180
DA:983,0
DA:987,3630360
DA:988,1815180
DA:989,7367940
DA:990,5552760
DA:993,3630360
DA:996,1318
DA:997,1318
DA:998,1318
DA:1000,53214900
DA:1001,53214900
DA:1007,26607500
DA:1008,26607500
DA:1009,26607500
DA:1012,18295500
DA:1013,18295500
DA:1014,18295500
DA:1016,18295500
DA:1019,0
DA:1020,0
DA:1030,906094000
DA:1031,906094000
DA:1034,26897800
DA:1035,26607500
DA:1038,53795700
DA:1039,53795700
DA:1042,273807
DA:1043,273807
DA:1050,0
DA:1051,0
DA:1066,0
DA:1067,0
end_of_record
TN:
SF:/usr/include/c++/9/ostream
DA:108,0
DA:113,0
DA:565,0
DA:568,0
DA:570,0
DA:571,0
end_of_record
SF:/usr/include/c++/9/bits/stl_uninitialized.h
DA:76,0
DA:79,0
DA:82,0
DA:83,0
DA:115,0
DA:134,0
DA:140,0
DA:305,0
DA:307,0
DA:905,0
DA:912,0
DA:913,0
DA:949,0
DA:950,0
DA:964,0
end_of_record
SF:/usr/include/c++/9/bits/locale_facets.h
FN:872,_ZNKSt5ctypeIcE5widenEc
FNDA:0,_ZNKSt5ctypeIcE5widenEc
FN:1084,_ZNKSt5ctypeIcE8do_widenEc
FNDA:0,_ZNKSt5ctypeIcE8do_widenEc
DA:872,0
DA:874,0
DA:875,0
DA:876,0
DA:877,0
DA:1084,0
DA:1085,0
end_of_record
SF:/usr/include/c++/9/bits/alloc_traits.h
DA:469,11874200
DA:470,11874200
DA:482,0
DA:484,0
DA:495,0
DA:497,0
DA:505,0
DA:506,0
DA:545,0
DA:546,0
DA:553,0
DA:557,0
end_of_record
SF:/usr/include/c++/9/bits/stl_iterator_base_funcs.h
DA:98,11330200
DA:104,11330200
DA:138,11330200
DA:141,11330200
end_of_record
SF:/usr/include/c++/9/bits/cpp_type_traits.h
DA:428,0
end_of_record
SF:/usr/include/c++/9/ext/new_allocator.h
DA:80,11330200
DA:83,26857200
DA:89,18588500
DA:119,11874200
DA:128,11874200
DA:132,0
DA:144,0
DA:147,0
DA:151,0
end_of_record
SF:/usr/include/c++/9/bits/char_traits.h
DA:299,37643300
DA:300,6170130
DA:329,0
DA:335,0
DA:361,18044600
DA:363,5160060
DA:365,18044600
end_of_record
SF:/usr/include/c++/9/bits/stl_vector.h
FN:1753,_ZNKSt6vectorIN8BitSpace9BitFieldsItEESaIS2_EE12_M_check_lenEmPKc
FNDA:0,_ZNKSt6vectorIN8BitSpace9BitFieldsItEESaIS2_EE12_M_check_lenEmPKc
DA:94,0
DA:95,0
DA:106,0
DA:108,0
DA:109,0
DA:110,0
DA:114,0
DA:118,0
DA:119,0
DA:120,0
DA:121,0
DA:125,0
DA:128,0
DA:130,0
DA:133,0
DA:134,0
DA:273,0
DA:274,0
DA:277,0
DA:278,0
DA:281,0
DA:282,0
DA:285,0
DA:290,0
DA:291,0
DA:330,0
DA:332,0
DA:333,0
DA:334,0
DA:347,0
DA:350,0
DA:351,0
DA:453,0
DA:462,0
DA:466,0
DA:484,0
DA:494,0
DA:495,0
DA:675,0
DA:677,0
DA:678,0
DA:680,0
DA:706,0
DA:708,0
DA:711,0
DA:808,0
DA:809,0
DA:817,0
DA:818,0
DA:826,0
DA:827,0
DA:835,0
DA:836,0
DA:915,0
DA:916,0
DA:920,0
DA:921,0
DA:995,0
DA:997,0
DA:1040,137706000
DA:1043,137706000
DA:1200,0
DA:1201,0
DA:1505,0
DA:1508,0
DA:1511,0
DA:1512,0
DA:1753,0
DA:1755,0
DA:1756,0
DA:1758,0
DA:1759,0
DA:1773,0
DA:1780,0
DA:1781,0
DA:1812,0
DA:1814,0
DA:1815,0
DA:1816,0
DA:1817,0
end_of_record
SF:/usr/include/c++/9/bits/stl_algobase.h
DA:198,0
DA:222,0
DA:227,0
DA:228,0
DA:280,0
DA:289,0
DA:290,0
DA:295,0
DA:375,0
DA:384,0
DA:385,0
DA:386,0
DA:387,0
DA:393,0
DA:398,0
DA:404,0
DA:438,0
DA:440,0
DA:465,0
DA:474,0
end_of_record
SF:/usr/include/c++/9/bits/stl_construct.h
DA:74,0
DA:75,0
DA:117,0
DA:127,0
DA:137,0
DA:203,0
DA:206,0
end_of_record
SF:/workspace/vtr-verilog-to-routing/libs/librtlnumber/src/include/rtl_utils.hpp
FN:47,_Z12_assert_WerrbPKciNSt7__cxx1112basic_stringIcSt11char_traitsIcESaIcEEE
FNDA:11330200,_Z12_assert_WerrbPKciNSt7__cxx1112basic_stringIcSt11char_traitsIcESaIcEEE
DA:47,11330200
DA:48,11330200
DA:49,0
DA:50,0
DA:51,0
DA:52,0
DA:54,11330200
end_of_record
SF:/usr/include/c++/9/bits/stl_iterator.h
DA:806,0
DA:819,0
DA:827,0
DA:829,0
DA:859,0
DA:860,0
DA:871,0
DA:907,0
DA:910,0
DA:989,0
DA:992,0
DA:1010,0
DA:1012,0
end_of_record
SF:/usr/include/x86_64-linux-gnu/bits/stdio2.h
DA:64,6714310
DA:67,6714310
DA:98,6010330
DA:100,4042670
DA:105,11055
DA:107,1005
end_of_record
SF:/usr/include/c++/9/new
DA:173,0
DA:174,0
end_of_record
SF:/usr/include/c++/9/ext/string_conversions.h
FN:99,_ZN9__gnu_cxx12__to_xstringINSt7__cxx1112basic_stringIcSt11char_traitsIcESaIcEEEcEET_PFiPT0_mPKS8_P13__va_list_tagEmSB_z
FNDA:6714310,_ZN9__gnu_cxx12__to_xstringINSt7__cxx1112basic_stringIcSt11char_traitsIcESaIcEEEcEET_PFiPT0_mPKS8_P13__va_list_tagEmSB_z
DA:99,6714310
DA:105,6714310
DA:109,6714310
DA:111,6714310
DA:113,6714310
DA:115,6714310
end_of_record
SF:/workspace/vtr-verilog-to-routing/libs/librtlnumber/src/include/internal_bits.hpp
FN:308,_ZN8BitSpaceL13bits_to_hex_cEsb
FNDA:0,_ZN8BitSpaceL13bits_to_hex_cEsb
FN:454,_ZN8BitSpace11VerilogBitsC2Emh
FNDA:0,_ZN8BitSpace11VerilogBitsC2Emh
FN:510,_ZN8BitSpace11VerilogBits12to_printableB5cxx11Ev
FNDA:0,_ZN8BitSpace11VerilogBits12to_printableB5cxx11Ev
FN:520,_ZN8BitSpace11VerilogBits4getcEv
FNDA:0,_ZN8BitSpace11VerilogBits4getcEv
FN:722,_ZN7VNumberC2EPS_
FNDA:0,_ZN7VNumberC2EPS_
FN:751,_ZN7VNumber9get_valueEv
FNDA:6714310,_ZN7VNumber9get_valueEv
FN:777,_ZN7VNumber9to_stringB5cxx11Ebb
FNDA:0,_ZN7VNumber9to_stringB5cxx11Ebb
FN:792,_ZN7VNumber10to_UstringB5cxx11Eb
FNDA:0,_ZN7VNumber10to_UstringB5cxx11Eb
FN:807,_ZN7VNumber12to_log2radixB5cxx11Esbb
FNDA:0,_ZN7VNumber12to_log2radixB5cxx11Esbb
FN:832,_ZN7VNumber9to_base10B5cxx11Ebb
FNDA:0,_ZN7VNumber9to_base10B5cxx11Ebb
FN:857,_ZN7VNumber20to_verilog_bitstringB5cxx11Ev
FNDA:6714310,_ZN7VNumber20to_verilog_bitstringB5cxx11Ev
FN:864,_ZN7VNumber10to_vstringB5cxx11Ec
FNDA:0,_ZN7VNumber10to_vstringB5cxx11Ec
FN:1007,_ZN7VNumber16get_bit_from_msbEm
FNDA:4615890,_ZN7VNumber16get_bit_from_msbEm
FN:1012,_ZN7VNumber16get_bit_from_lsbEm
FNDA:0,_ZN7VNumber16get_bit_from_lsbEm
DA:286,0
DA:287,0
DA:290,0
DA:291,0
DA:292,0
DA:293,0
DA:294,0
DA:295,0
DA:299,0
DA:300,0
DA:303,0
DA:304,0
DA:308,0
DA:309,0
DA:312,0
DA:313,0
DA:314,0
DA:315,0
DA:316,0
DA:317,0
DA:318,0
DA:319,0
DA:320,0
DA:321,0
DA:322,0
DA:323,0
DA:324,0
DA:325,0
DA:326,0
DA:327,0
DA:328,0
DA:329,0
DA:330,0
DA:331,0
DA:332,0
DA:333,0
DA:334,0
DA:335,0
DA:336,0
DA:337,0
DA:338,0
DA:339,0
DA:340,0
DA:341,0
DA:342,0
DA:343,0
DA:346,0
DA:349,0
DA:376,137706000
DA:377,137706000
DA:378,137706000
DA:379,137706000
DA:384,0
DA:385,0
DA:390,137706000
DA:391,137706000
DA:392,133090000
DA:394,4615890
DA:398,0
DA:399,0
DA:401,0
DA:402,0
DA:404,0
DA:405,0
DA:406,0
DA:408,0
DA:409,0
DA:416,0
DA:418,0
DA:419,0
DA:425,0
DA:435,0
DA:440,137706000
DA:441,137706000
DA:454,0
DA:455,0
DA:456,0
DA:458,0
DA:460,0
DA:461,0
DA:463,0
DA:470,162464000
DA:471,162464000
DA:478,137706000
DA:486,137706000
DA:489,137706000
DA:497,137706000
DA:500,0
DA:507,0
DA:510,0
DA:511,0
DA:513,0
DA:514,0
DA:517,0
DA:520,0
DA:521,0
DA:522,0
DA:526,66544900
DA:527,66544900
DA:561,0
DA:562,0
DA:563,0
DA:674,0
DA:722,0
DA:723,0
DA:724,0
DA:725,0
DA:726,0
DA:751,6714310
DA:752,6714310
DA:754,86687800
DA:757,6714310
DA:758,6714310
DA:759,0
DA:760,0
DA:763,6714310
DA:764,13428600
DA:766,73259200
DA:767,66544900
DA:768,66544900
DA:769,66544900
