TN:
SF:/usr/include/c++/9/bits/move.h
FN:47,_ZSt11__addressofINSt7__cxx1112basic_stringIcSt11char_traitsIcESaIcEEEEPT_RS6_
FNDA:0,_ZSt11__addressofINSt7__cxx1112basic_stringIcSt11char_traitsIcESaIcEEEEPT_RS6_
FN:74,_ZSt7forwardINSt7__cxx1112basic_stringIcSt11char_traitsIcESaIcEEEEOT_RNSt16remove_referenceIS6_E4typeE
FNDA:0,_ZSt7forwardINSt7__cxx1112basic_stringIcSt11char_traitsIcESaIcEEEEOT_RNSt16remove_referenceIS6_E4typeE
FN:99,_ZSt4moveIRSaIlEEONSt16remove_referenceIT_E4typeEOS3_
FNDA:0,_ZSt4moveIRSaIlEEONSt16remove_referenceIT_E4typeEOS3_
FN:99,_ZSt4moveIRSt6vectorIlSaIlEEEONSt16remove_referenceIT_E4typeEOS5_
FNDA:0,_ZSt4moveIRSt6vectorIlSaIlEEEONSt16remove_referenceIT_E4typeEOS5_
FN:99,_ZSt4moveIRNSt7__cxx1112basic_stringIcSt11char_traitsIcESaIcEEEEONSt16remove_referenceIT_E4typeEOS8_
FNDA:0,_ZSt4moveIRNSt7__cxx1112basic_stringIcSt11char_traitsIcESaIcEEEEONSt16remove_referenceIT_E4typeEOS8_
FN:99,_ZSt4moveIRSaIcEEONSt16remove_referenceIT_E4typeEOS3_
FNDA:0,_ZSt4moveIRSaIcEEONSt16remove_referenceIT_E4typeEOS3_
DA:47,0
DA:48,0
DA:74,0
DA:75,0
DA:99,0
DA:100,0
DA:99,0
DA:100,0
DA:99,0
DA:100,0
DA:99,0
DA:100,0
end_of_record
SF:/usr/include/c++/9/bits/alloc_traits.h
FN:443,_ZNSt16allocator_traitsISaINSt7__cxx1112basic_stringIcSt11char_traitsIcESaIcEEEEE8allocateERS6_m
FNDA:0,_ZNSt16allocator_traitsISaINSt7__cxx1112basic_stringIcSt11char_traitsIcESaIcEEEEE8allocateERS6_m
FN:469,_ZNSt16allocator_traitsISaINSt7__cxx1112basic_stringIcSt11char_traitsIcESaIcEEEEE10deallocateERS6_PS5_m
FNDA:0,_ZNSt16allocator_traitsISaINSt7__cxx1112basic_stringIcSt11char_traitsIcESaIcEEEEE10deallocateERS6_PS5_m
FN:469,_ZNSt16allocator_traitsISaIlEE10deallocateERS0_Plm
FNDA:0,_ZNSt16allocator_traitsISaIlEE10deallocateERS0_Plm
FN:482,_ZNSt16allocator_traitsISaINSt7__cxx1112basic_stringIcSt11char_traitsIcESaIcEEEEE9constructIS5_JS5_EEEvRS6_PT_DpOT0_
FNDA:0,_ZNSt16allocator_traitsISaINSt7__cxx1112basic_stringIcSt11char_traitsIcESaIcEEEEE9constructIS5_JS5_EEEvRS6_PT_DpOT0_
FN:495,_ZNSt16allocator_traitsISaINSt7__cxx1112basic_stringIcSt11char_traitsIcESaIcEEEEE7destroyIS5_EEvRS6_PT_
FNDA:0,_ZNSt16allocator_traitsISaINSt7__cxx1112basic_stringIcSt11char_traitsIcESaIcEEEEE7destroyIS5_EEvRS6_PT_
FN:505,_ZNSt16allocator_traitsISaINSt7__cxx1112basic_stringIcSt11char_traitsIcESaIcEEEEE8max_sizeERKS6_
FNDA:0,_ZNSt16allocator_traitsISaINSt7__cxx1112basic_stringIcSt11char_traitsIcESaIcEEEEE8max_sizeERKS6_
FN:545,_ZSt18__do_alloc_on_moveISaIlEEvRT_S2_St17integral_constantIbLb1EE
FNDA:0,_ZSt18__do_alloc_on_moveISaIlEEvRT_S2_St17integral_constantIbLb1EE
FN:553,_ZSt15__alloc_on_moveISaIlEEvRT_S2_
FNDA:0,_ZSt15__alloc_on_moveISaIlEEvRT_S2_
DA:443,0
DA:444,0
DA:469,0
DA:470,0
DA:469,0
DA:470,0
DA:482,0
DA:484,0
DA:495,0
DA:497,0
DA:505,0
DA:506,0
DA:545,0
DA:546,0
DA:553,0
DA:557,0
DA:558,0
end_of_record
SF:/usr/include/c++/9/new
FN:173,_ZnwmPv
FNDA:0,_ZnwmPv
DA:173,0
DA:174,0
end_of_record
SF:/usr/include/c++/9/iostream
end_of_record
SF:/usr/include/c++/9/bits/stl_iterator_base_funcs.h
FN:98,_ZSt10__distanceIPKcENSt15iterator_traitsIT_E15difference_typeES3_S3_St26random_access_iterator_tag
FNDA:0,_ZSt10__distanceIPKcENSt15iterator_traitsIT_E15difference_typeES3_S3_St26random_access_iterator_tag
FN:138,_ZSt8distanceIPKcENSt15iterator_traitsIT_E15difference_typeES3_S3_
FNDA:0,_ZSt8distanceIPKcENSt15iterator_traitsIT_E15difference_typeES3_S3_
DA:98,0
DA:104,0
DA:138,0
DA:141,0
DA:142,0
end_of_record
SF:/usr/include/c++/9/bits/char_traits.h
FN:329,_ZNSt11char_traitsIcE6lengthEPKc
FNDA:0,_ZNSt11char_traitsIcE6lengthEPKc
FN:361,_ZNSt11char_traitsIcE4copyEPcPKcm
FNDA:0,_ZNSt11char_traitsIcE4copyEPcPKcm
DA:329,0
DA:335,0
DA:361,0
DA:363,0
DA:364,0
DA:365,0
end_of_record
SF:/workspace/vtr-verilog-to-routing/libs/EXTERNAL/libargparse/src/argparse_value.hpp
FN:50,_ZNK8argparse8ArgValueIPcEcvS1_Ev
FNDA:0,_ZNK8argparse8ArgValueIPcEcvS1_Ev
FN:74,_ZN8argparse8ArgValueIPcE3setES1_NS_10ProvenanceE
FNDA:0,_ZN8argparse8ArgValueIPcE3setES1_NS_10ProvenanceE
DA:50,0
DA:74,0
DA:75,0
DA:76,0
DA:77,0
end_of_record
SF:/workspace/vtr-verilog-to-routing/ODIN_II/SRC/include/config_t.h
end_of_record
SF:/workspace/vtr-verilog-to-routing/ODIN_II/SRC/include/odin_error.h
FN:31,_ZL15_verbose_assertbPKcS0_lS0_
FNDA:0,_ZL15_verbose_assertbPKcS0_lS0_
DA:31,0
DA:33,0
DA:35,0
DA:36,0
DA:37,0
DA:39,0
end_of_record
SF:/usr/include/c++/9/bits/stl_iterator_base_types.h
FN:205,_ZSt19__iterator_categoryIPKcENSt15iterator_traitsIT_E17iterator_categoryERKS3_
FNDA:0,_ZSt19__iterator_categoryIPKcENSt15iterator_traitsIT_E17iterator_categoryERKS3_
DA:205,0
DA:206,0
end_of_record
SF:/usr/include/c++/9/bits/stl_construct.h
FN:74,_ZSt10_ConstructINSt7__cxx1112basic_stringIcSt11char_traitsIcESaIcEEEJS5_EEvPT_DpOT0_
FNDA:0,_ZSt10_ConstructINSt7__cxx1112basic_stringIcSt11char_traitsIcESaIcEEEJS5_EEvPT_DpOT0_
FN:97,_ZSt8_DestroyINSt7__cxx1112basic_stringIcSt11char_traitsIcESaIcEEEEvPT_
FNDA:0,_ZSt8_DestroyINSt7__cxx1112basic_stringIcSt11char_traitsIcESaIcEEEEvPT_
FN:105,_ZNSt12_Destroy_auxILb0EE9__destroyIPNSt7__cxx1112basic_stringIcSt11char_traitsIcESaIcEEEEEvT_S9_
FNDA:0,_ZNSt12_Destroy_auxILb0EE9__destroyIPNSt7__cxx1112basic_stringIcSt11char_traitsIcESaIcEEEEEvT_S9_
FN:117,_ZNSt12_Destroy_auxILb1EE9__destroyIPlEEvT_S3_
FNDA:0,_ZNSt12_Destroy_auxILb1EE9__destroyIPlEEvT_S3_
FN:127,_ZSt8_DestroyIPNSt7__cxx1112basic_stringIcSt11char_traitsIcESaIcEEEEvT_S7_
FNDA:0,_ZSt8_DestroyIPNSt7__cxx1112basic_stringIcSt11char_traitsIcESaIcEEEEvT_S7_
FN:127,_ZSt8_DestroyIPlEvT_S1_
FNDA:0,_ZSt8_DestroyIPlEvT_S1_
FN:203,_ZSt8_DestroyIPNSt7__cxx1112basic_stringIcSt11char_traitsIcESaIcEEES5_EvT_S7_RSaIT0_E
FNDA:0,_ZSt8_DestroyIPNSt7__cxx1112basic_stringIcSt11char_traitsIcESaIcEEES5_EvT_S7_RSaIT0_E
FN:203,_ZSt8_DestroyIPllEvT_S1_RSaIT0_E
FNDA:0,_ZSt8_DestroyIPllEvT_S1_RSaIT0_E
DA:74,0
DA:75,0
DA:97,0
DA:98,0
DA:105,0
DA:107,0
DA:108,0
DA:109,0
DA:117,0
DA:127,0
DA:137,0
DA:138,0
DA:127,0
DA:137,0
DA:138,0
DA:203,0
DA:206,0
DA:207,0
DA:203,0
DA:206,0
DA:207,0
end_of_record
SF:/usr/include/c++/9/bits/stl_uninitialized.h
FN:76,_ZNSt20__uninitialized_copyILb0EE13__uninit_copyISt13move_iteratorIPNSt7__cxx1112basic_stringIcSt11char_traitsIcESaIcEEEES9_EET0_T_SC_SB_
FNDA:0,_ZNSt20__uninitialized_copyILb0EE13__uninit_copyISt13move_iteratorIPNSt7__cxx1112basic_stringIcSt11char_traitsIcESaIcEEEES9_EET0_T_SC_SB_
FN:115,_ZSt18uninitialized_copyISt13move_iteratorIPNSt7__cxx1112basic_stringIcSt11char_traitsIcESaIcEEEES7_ET0_T_SA_S9_
FNDA:0,_ZSt18uninitialized_copyISt13move_iteratorIPNSt7__cxx1112basic_stringIcSt11char_traitsIcESaIcEEEES7_ET0_T_SA_S9_
FN:305,_ZSt22__uninitialized_copy_aISt13move_iteratorIPNSt7__cxx1112basic_stringIcSt11char_traitsIcESaIcEEEES7_S6_ET0_T_SA_S9_RSaIT1_E
FNDA:0,_ZSt22__uninitialized_copy_aISt13move_iteratorIPNSt7__cxx1112basic_stringIcSt11char_traitsIcESaIcEEEES7_S6_ET0_T_SA_S9_RSaIT1_E
FN:323,_ZSt34__uninitialized_move_if_noexcept_aIPNSt7__cxx1112basic_stringIcSt11char_traitsIcESaIcEEES6_SaIS5_EET0_T_S9_S8_RT1_
FNDA:0,_ZSt34__uninitialized_move_if_noexcept_aIPNSt7__cxx1112basic_stringIcSt11char_traitsIcESaIcEEES6_SaIS5_EET0_T_S9_S8_RT1_
FN:905,_ZSt19__relocate_object_aINSt7__cxx1112basic_stringIcSt11char_traitsIcESaIcEEES5_SaIS5_EEvPT_PT0_RT1_
FNDA:0,_ZSt19__relocate_object_aINSt7__cxx1112basic_stringIcSt11char_traitsIcESaIcEEES5_SaIS5_EEvPT_PT0_RT1_
FN:936,_ZSt14__relocate_a_1IPNSt7__cxx1112basic_stringIcSt11char_traitsIcESaIcEEES6_SaIS5_EET0_T_S9_S8_RT1_
FNDA:0,_ZSt14__relocate_a_1IPNSt7__cxx1112basic_stringIcSt11char_traitsIcESaIcEEES6_SaIS5_EET0_T_S9_S8_RT1_
FN:958,_ZSt12__relocate_aIPNSt7__cxx1112basic_stringIcSt11char_traitsIcESaIcEEES6_SaIS5_EET0_T_S9_S8_RT1_
FNDA:0,_ZSt12__relocate_aIPNSt7__cxx1112basic_stringIcSt11char_traitsIcESaIcEEES6_SaIS5_EET0_T_S9_S8_RT1_
DA:76,0
DA:79,0
DA:82,0
DA:83,0
DA:84,0
DA:86,0
DA:88,0
DA:89,0
DA:115,0
DA:134,0
DA:140,0
DA:305,0
DA:307,0
DA:323,0
DA:329,0
DA:330,0
DA:905,0
DA:912,0
DA:913,0
DA:914,0
DA:936,0
DA:948,0
DA:949,0
DA:950,0
DA:952,0
DA:958,0
DA:964,0
DA:966,0
end_of_record
SF:/usr/include/c++/9/bits/stl_vector.h
FN:94,_ZNSt12_Vector_baseIlSaIlEE17_Vector_impl_dataC2Ev
FNDA:0,_ZNSt12_Vector_baseIlSaIlEE17_Vector_impl_dataC2Ev
FN:94,_ZNSt12_Vector_baseINSt7__cxx1112basic_stringIcSt11char_traitsIcESaIcEEESaIS5_EE17_Vector_impl_dataC2Ev
FNDA:0,_ZNSt12_Vector_baseINSt7__cxx1112basic_stringIcSt11char_traitsIcESaIcEEESaIS5_EE17_Vector_impl_dataC2Ev
FN:106,_ZNSt12_Vector_baseIlSaIlEE17_Vector_impl_data12_M_copy_dataERKS2_
FNDA:0,_ZNSt12_Vector_baseIlSaIlEE17_Vector_impl_data12_M_copy_dataERKS2_
FN:114,_ZNSt12_Vector_baseIlSaIlEE17_Vector_impl_data12_M_swap_dataERS2_
FNDA:0,_ZNSt12_Vector_baseIlSaIlEE17_Vector_impl_data12_M_swap_dataERS2_
FN:128,_ZNSt12_Vector_baseIlSaIlEE12_Vector_implC2Ev
FNDA:0,_ZNSt12_Vector_baseIlSaIlEE12_Vector_implC2Ev
FN:128,_ZNSt12_Vector_baseINSt7__cxx1112basic_stringIcSt11char_traitsIcESaIcEEESaIS5_EE12_Vector_implC2Ev
FNDA:0,_ZNSt12_Vector_baseINSt7__cxx1112basic_stringIcSt11char_traitsIcESaIcEEESaIS5_EE12_Vector_implC2Ev
FN:133,_ZNSt12_Vector_baseIlSaIlEE12_Vector_implC2ERKS0_
FNDA:0,_ZNSt12_Vector_baseIlSaIlEE12_Vector_implC2ERKS0_
FN:273,_ZNSt12_Vector_baseIlSaIlEE19_M_get_Tp_allocatorEv
FNDA:0,_ZNSt12_Vector_baseIlSaIlEE19_M_get_Tp_allocatorEv
FN:273,_ZNSt12_Vector_baseINSt7__cxx1112basic_stringIcSt11char_traitsIcESaIcEEESaIS5_EE19_M_get_Tp_allocatorEv
FNDA:0,_ZNSt12_Vector_baseINSt7__cxx1112basic_stringIcSt11char_traitsIcESaIcEEESaIS5_EE19_M_get_Tp_allocatorEv
FN:277,_ZNKSt12_Vector_baseINSt7__cxx1112basic_stringIcSt11char_traitsIcESaIcEEESaIS5_EE19_M_get_Tp_allocatorEv
FNDA:0,_ZNKSt12_Vector_baseINSt7__cxx1112basic_stringIcSt11char_traitsIcESaIcEEESaIS5_EE19_M_get_Tp_allocatorEv
FN:277,_ZNKSt12_Vector_baseIlSaIlEE19_M_get_Tp_allocatorEv
FNDA:0,_ZNKSt12_Vector_baseIlSaIlEE19_M_get_Tp_allocatorEv
FN:281,_ZNKSt12_Vector_baseIlSaIlEE13get_allocatorEv
FNDA:0,_ZNKSt12_Vector_baseIlSaIlEE13get_allocatorEv
FN:285,_ZNSt12_Vector_baseINSt7__cxx1112basic_stringIcSt11char_traitsIcESaIcEEESaIS5_EEC2Ev
FNDA:0,_ZNSt12_Vector_baseINSt7__cxx1112basic_stringIcSt11char_traitsIcESaIcEEESaIS5_EEC2Ev
FN:285,_ZNSt12_Vector_baseIlSaIlEEC2Ev
FNDA:0,_ZNSt12_Vector_baseIlSaIlEEC2Ev
FN:290,_ZNSt12_Vector_baseIlSaIlEEC2ERKS0_
FNDA:0,_ZNSt12_Vector_baseIlSaIlEEC2ERKS0_
FN:330,_ZNSt12_Vector_baseIlSaIlEED2Ev
FNDA:0,_ZNSt12_Vector_baseIlSaIlEED2Ev
FN:330,_ZNSt12_Vector_baseINSt7__cxx1112basic_stringIcSt11char_traitsIcESaIcEEESaIS5_EED2Ev
FNDA:0,_ZNSt12_Vector_baseINSt7__cxx1112basic_stringIcSt11char_traitsIcESaIcEEESaIS5_EED2Ev
FN:340,_ZNSt12_Vector_baseINSt7__cxx1112basic_stringIcSt11char_traitsIcESaIcEEESaIS5_EE11_M_allocateEm
FNDA:0,_ZNSt12_Vector_baseINSt7__cxx1112basic_stringIcSt11char_traitsIcESaIcEEESaIS5_EE11_M_allocateEm
FN:347,_ZNSt12_Vector_baseIlSaIlEE13_M_deallocateEPlm
FNDA:0,_ZNSt12_Vector_baseIlSaIlEE13_M_deallocateEPlm
FN:347,_ZNSt12_Vector_baseINSt7__cxx1112basic_stringIcSt11char_traitsIcESaIcEEESaIS5_EE13_M_deallocateEPS5_m
FNDA:0,_ZNSt12_Vector_baseINSt7__cxx1112basic_stringIcSt11char_traitsIcESaIcEEESaIS5_EE13_M_deallocateEPS5_m
FN:428,_ZNSt6vectorINSt7__cxx1112basic_stringIcSt11char_traitsIcESaIcEEESaIS5_EE19_S_nothrow_relocateESt17integral_constantIbLb1EE
FNDA:0,_ZNSt6vectorINSt7__cxx1112basic_stringIcSt11char_traitsIcESaIcEEESaIS5_EE19_S_nothrow_relocateESt17integral_constantIbLb1EE
FN:441,_ZNSt6vectorINSt7__cxx1112basic_stringIcSt11char_traitsIcESaIcEEESaIS5_EE15_S_use_relocateEv
FNDA:0,_ZNSt6vectorINSt7__cxx1112basic_stringIcSt11char_traitsIcESaIcEEESaIS5_EE15_S_use_relocateEv
FN:450,_ZNSt6vectorINSt7__cxx1112basic_stringIcSt11char_traitsIcESaIcEEESaIS5_EE14_S_do_relocateEPS5_S8_S8_RS6_St17integral_constantIbLb1EE
FNDA:0,_ZNSt6vectorINSt7__cxx1112basic_stringIcSt11char_traitsIcESaIcEEESaIS5_EE14_S_do_relocateEPS5_S8_S8_RS6_St17integral_constantIbLb1EE
FN:462,_ZNSt6vectorINSt7__cxx1112basic_stringIcSt11char_traitsIcESaIcEEESaIS5_EE11_S_relocateEPS5_S8_S8_RS6_
FNDA:0,_ZNSt6vectorINSt7__cxx1112basic_stringIcSt11char_traitsIcESaIcEEESaIS5_EE11_S_relocateEPS5_S8_S8_RS6_
FN:484,_ZNSt6vectorINSt7__cxx1112basic_stringIcSt11char_traitsIcESaIcEEESaIS5_EEC2Ev
FNDA:0,_ZNSt6vectorINSt7__cxx1112basic_stringIcSt11char_traitsIcESaIcEEESaIS5_EEC2Ev
FN:484,_ZNSt6vectorIlSaIlEEC2Ev
FNDA:0,_ZNSt6vectorIlSaIlEEC2Ev
FN:494,_ZNSt6vectorIlSaIlEEC2ERKS0_
FNDA:0,_ZNSt6vectorIlSaIlEEC2ERKS0_
FN:675,_ZNSt6vectorINSt7__cxx1112basic_stringIcSt11char_traitsIcESaIcEEESaIS5_EED2Ev
FNDA:0,_ZNSt6vectorINSt7__cxx1112basic_stringIcSt11char_traitsIcESaIcEEESaIS5_EED2Ev
FN:675,_ZNSt6vectorIlSaIlEED2Ev
FNDA:0,_ZNSt6vectorIlSaIlEED2Ev
FN:706,_ZNSt6vectorIlSaIlEEaSEOS1_
FNDA:0,_ZNSt6vectorIlSaIlEEaSEOS1_
FN:808,_ZNSt6vectorINSt7__cxx1112basic_stringIcSt11char_traitsIcESaIcEEESaIS5_EE5beginEv
FNDA:0,_ZNSt6vectorINSt7__cxx1112basic_stringIcSt11char_traitsIcESaIcEEESaIS5_EE5beginEv
FN:826,_ZNSt6vectorINSt7__cxx1112basic_stringIcSt11char_traitsIcESaIcEEESaIS5_EE3endEv
FNDA:0,_ZNSt6vectorINSt7__cxx1112basic_stringIcSt11char_traitsIcESaIcEEESaIS5_EE3endEv
FN:915,_ZNKSt6vectorINSt7__cxx1112basic_stringIcSt11char_traitsIcESaIcEEESaIS5_EE4sizeEv
FNDA:0,_ZNKSt6vectorINSt7__cxx1112basic_stringIcSt11char_traitsIcESaIcEEESaIS5_EE4sizeEv
FN:920,_ZNKSt6vectorINSt7__cxx1112basic_stringIcSt11char_traitsIcESaIcEEESaIS5_EE8max_sizeEv
FNDA:0,_ZNKSt6vectorINSt7__cxx1112basic_stringIcSt11char_traitsIcESaIcEEESaIS5_EE8max_sizeEv
FN:1200,_ZNSt6vectorINSt7__cxx1112basic_stringIcSt11char_traitsIcESaIcEEESaIS5_EE9push_backEOS5_
FNDA:0,_ZNSt6vectorINSt7__cxx1112basic_stringIcSt11char_traitsIcESaIcEEESaIS5_EE9push_backEOS5_
FN:1753,_ZNKSt6vectorINSt7__cxx1112basic_stringIcSt11char_traitsIcESaIcEEESaIS5_EE12_M_check_lenEmPKc
FNDA:0,_ZNKSt6vectorINSt7__cxx1112basic_stringIcSt11char_traitsIcESaIcEEESaIS5_EE12_M_check_lenEmPKc
FN:1773,_ZNSt6vectorINSt7__cxx1112basic_stringIcSt11char_traitsIcESaIcEEESaIS5_EE11_S_max_sizeERKS6_
FNDA:0,_ZNSt6vectorINSt7__cxx1112basic_stringIcSt11char_traitsIcESaIcEEESaIS5_EE11_S_max_sizeERKS6_
FN:1812,_ZNSt6vectorIlSaIlEE14_M_move_assignEOS1_St17integral_constantIbLb1EE
FNDA:0,_ZNSt6vectorIlSaIlEE14_M_move_assignEOS1_St17integral_constantIbLb1EE
DA:94,0
DA:95,0
DA:96,0
DA:94,0
DA:95,0
DA:96,0
DA:106,0
DA:108,0
DA:109,0
DA:110,0
DA:111,0
DA:114,0
DA:118,0
DA:119,0
DA:120,0
DA:121,0
DA:122,0
DA:128,0
DA:130,0
DA:131,0
DA:128,0
DA:130,0
DA:131,0
DA:133,0
DA:134,0
DA:135,0
DA:273,0
DA:274,0
DA:273,0
DA:274,0
DA:277,0
DA:278,0
DA:277,0
DA:278,0
DA:281,0
DA:282,0
DA:285,0
DA:285,0
DA:290,0
DA:291,0
DA:330,0
DA:332,0
DA:333,0
DA:334,0
DA:330,0
DA:332,0
DA:333,0
DA:334,0
DA:340,0
DA:343,0
DA:347,0
DA:350,0
DA:351,0
DA:352,0
DA:347,0
DA:350,0
DA:351,0
DA:352,0
DA:428,0
DA:433,0
DA:441,0
DA:446,0
DA:450,0
DA:453,0
DA:462,0
DA:466,0
DA:484,0
DA:484,0
DA:494,0
DA:495,0
DA:675,0
DA:677,0
DA:678,0
DA:680,0
DA:675,0
DA:677,0
DA:678,0
DA:680,0
DA:706,0
DA:708,0
DA:711,0
DA:712,0
DA:808,0
DA:809,0
DA:826,0
DA:827,0
DA:915,0
DA:916,0
DA:920,0
DA:921,0
DA:1200,0
DA:1201,0
DA:1753,0
DA:1755,0
DA:1756,0
DA:1758,0
DA:1759,0
DA:1773,0
DA:1778,0
DA:1780,0
DA:1781,0
DA:1812,0
DA:1814,0
DA:1815,0
DA:1816,0
DA:1817,0
DA:1818,0
end_of_record
SF:/usr/include/c++/9/bits/vector.tcc
FN:109,_ZNSt6vectorINSt7__cxx1112basic_stringIcSt11char_traitsIcESaIcEEESaIS5_EE12emplace_backIJS5_EEEvDpOT_
FNDA:0,_ZNSt6vectorINSt7__cxx1112basic_stringIcSt11char_traitsIcESaIcEEESaIS5_EE12emplace_backIJS5_EEEvDpOT_
FN:426,_ZNSt6vectorINSt7__cxx1112basic_stringIcSt11char_traitsIcESaIcEEESaIS5_EE17_M_realloc_insertIJS5_EEEvN9__gnu_cxx17__normal_iteratorIPS5_S7_EEDpOT_
FNDA:0,_ZNSt6vectorINSt7__cxx1112basic_stringIcSt11char_traitsIcESaIcEEESaIS5_EE17_M_realloc_insertIJS5_EEEvN9__gnu_cxx17__normal_iteratorIPS5_S7_EEDpOT_
DA:109,0
DA:112,0
DA:115,0
DA:117,0
DA:121,0
DA:125,0
DA:426,0
DA:435,0
DA:437,0
DA:438,0
DA:439,0
DA:440,0
DA:441,0
DA:449,0
DA:450,0
DA:456,0
DA:459,0
DA:461,0
DA:462,0
DA:464,0
DA:466,0
DA:467,0
DA:474,0
DA:475,0
DA:477,0
DA:481,0
DA:482,0
DA:485,0
DA:487,0
DA:488,0
DA:489,0
DA:491,0
DA:492,0
DA:493,0
DA:496,0
DA:498,0
DA:500,0
DA:501,0
DA:502,0
DA:503,0
DA:504,0
DA:505,0
end_of_record
SF:/usr/include/c++/9/bits/allocator.h
FN:138,_ZNSaINSt7__cxx1112basic_stringIcSt11char_traitsIcESaIcEEEEC2Ev
FNDA:0,_ZNSaINSt7__cxx1112basic_stringIcSt11char_traitsIcESaIcEEEEC2Ev
FN:138,_ZNSaIlEC2Ev
FNDA:0,_ZNSaIlEC2Ev
FN:141,_ZNSaIlEC2ERKS_
FNDA:0,_ZNSaIlEC2ERKS_
FN:153,_ZNSaINSt7__cxx1112basic_stringIcSt11char_traitsIcESaIcEEEED2Ev
FNDA:0,_ZNSaINSt7__cxx1112basic_stringIcSt11char_traitsIcESaIcEEEED2Ev
FN:153,_ZNSaIlED2Ev
FNDA:0,_ZNSaIlED2Ev
DA:138,0
DA:138,0
DA:141,0
DA:142,0
DA:153,0
DA:153,0
end_of_record
SF:/usr/include/c++/9/bits/stl_iterator.h
FN:806,_ZN9__gnu_cxx17__normal_iteratorIPNSt7__cxx1112basic_stringIcSt11char_traitsIcESaIcEEESt6vectorIS6_SaIS6_EEEC2ERKS7_
FNDA:0,_ZN9__gnu_cxx17__normal_iteratorIPNSt7__cxx1112basic_stringIcSt11char_traitsIcESaIcEEESt6vectorIS6_SaIS6_EEEC2ERKS7_
FN:871,_ZNK9__gnu_cxx17__normal_iteratorIPNSt7__cxx1112basic_stringIcSt11char_traitsIcESaIcEEESt6vectorIS6_SaIS6_EEE4baseEv
FNDA:0,_ZNK9__gnu_cxx17__normal_iteratorIPNSt7__cxx1112basic_stringIcSt11char_traitsIcESaIcEEESt6vectorIS6_SaIS6_EEE4baseEv
FN:989,_ZN9__gnu_cxxmiIPNSt7__cxx1112basic_stringIcSt11char_traitsIcESaIcEEESt6vectorIS6_SaIS6_EEEENS_17__normal_iteratorIT_T0_E15difference_typeERKSE_SH_
FNDA:0,_ZN9__gnu_cxxmiIPNSt7__cxx1112basic_stringIcSt11char_traitsIcESaIcEEESt6vectorIS6_SaIS6_EEEENS_17__normal_iteratorIT_T0_E15difference_typeERKSE_SH_
FN:1057,_ZNSt13move_iteratorIPNSt7__cxx1112basic_stringIcSt11char_traitsIcESaIcEEEEC2ES6_
FNDA:0,_ZNSt13move_iteratorIPNSt7__cxx1112basic_stringIcSt11char_traitsIcESaIcEEEEC2ES6_
FN:1066,_ZNKSt13move_iteratorIPNSt7__cxx1112basic_stringIcSt11char_traitsIcESaIcEEEE4baseEv
FNDA:0,_ZNKSt13move_iteratorIPNSt7__cxx1112basic_stringIcSt11char_traitsIcESaIcEEEE4baseEv
FN:1070,_ZNKSt13move_iteratorIPNSt7__cxx1112basic_stringIcSt11char_traitsIcESaIcEEEEdeEv
FNDA:0,_ZNKSt13move_iteratorIPNSt7__cxx1112basic_stringIcSt11char_traitsIcESaIcEEEEdeEv
FN:1078,_ZNSt13move_iteratorIPNSt7__cxx1112basic_stringIcSt11char_traitsIcESaIcEEEEppEv
FNDA:0,_ZNSt13move_iteratorIPNSt7__cxx1112basic_stringIcSt11char_traitsIcESaIcEEEEppEv
FN:1145,_ZSteqIPNSt7__cxx1112basic_stringIcSt11char_traitsIcESaIcEEEEbRKSt13move_iteratorIT_ESB_
FNDA:0,_ZSteqIPNSt7__cxx1112basic_stringIcSt11char_traitsIcESaIcEEEEbRKSt13move_iteratorIT_ESB_
FN:1157,_ZStneIPNSt7__cxx1112basic_stringIcSt11char_traitsIcESaIcEEEEbRKSt13move_iteratorIT_ESB_
FNDA:0,_ZStneIPNSt7__cxx1112basic_stringIcSt11char_traitsIcESaIcEEEEbRKSt13move_iteratorIT_ESB_
FN:1242,_ZSt32__make_move_if_noexcept_iteratorINSt7__cxx1112basic_stringIcSt11char_traitsIcESaIcEEESt13move_iteratorIPS5_EET0_PT_
FNDA:0,_ZSt32__make_move_if_noexcept_iteratorINSt7__cxx1112basic_stringIcSt11char_traitsIcESaIcEEESt13move_iteratorIPS5_EET0_PT_
DA:806,0
DA:807,0
DA:871,0
DA:872,0
DA:989,0
DA:992,0
DA:1057,0
DA:1058,0
DA:1066,0
DA:1067,0
DA:1070,0
DA:1071,0
DA:1078,0
DA:1080,0
DA:1081,0
DA:1145,0
DA:1147,0
DA:1157,0
DA:1159,0
DA:1242,0
DA:1243,0
end_of_record
SF:/usr/include/c++/9/bits/stl_algobase.h
FN:198,_ZSt3minImERKT_S2_S2_
FNDA:0,_ZSt3minImERKT_S2_S2_
FN:222,_ZSt3maxImERKT_S2_S2_
FNDA:0,_ZSt3maxImERKT_S2_S2_
FN:280,_ZSt12__niter_baseIPNSt7__cxx1112basic_stringIcSt11char_traitsIcESaIcEEEET_S7_
FNDA:0,_ZSt12__niter_baseIPNSt7__cxx1112basic_stringIcSt11char_traitsIcESaIcEEEET_S7_
DA:198,0
DA:203,0
DA:204,0
DA:205,0
DA:222,0
DA:227,0
DA:228,0
DA:229,0
DA:280,0
DA:282,0
end_of_record
SF:/usr/include/c++/9/bits/basic_string.tcc
FN:206,_ZNSt7__cxx1112basic_stringIcSt11char_traitsIcESaIcEE12_M_constructIPKcEEvT_S8_St20forward_iterator_tag
FNDA:0,_ZNSt7__cxx1112basic_stringIcSt11char_traitsIcESaIcEE12_M_constructIPKcEEvT_S8_St20forward_iterator_tag
DA:206,0
DA:211,0
DA:212,0
DA:215,0
DA:217,0
DA:219,0
DA:220,0
DA:225,0
DA:226,0
DA:228,0
DA:229,0
DA:232,0
DA:233,0
end_of_record
SF:/workspace/vtr-verilog-to-routing/ODIN_II/SRC/read_xml_config_file.cpp
FN:53,_Z16read_config_filePc
FNDA:0,_Z16read_config_filePc
FN:100,_Z18read_verilog_filesN4pugi8xml_nodeEP8config_tRKN8pugiutil8loc_dataE
FNDA:0,_Z18read_verilog_filesN4pugi8xml_nodeEP8config_tRKN8pugiutil8loc_dataE
FN:117,_Z12read_outputsN4pugi8xml_nodeEP8config_tRKN8pugiutil8loc_dataE
FNDA:0,_Z12read_outputsN4pugi8xml_nodeEP8config_tRKN8pugiutil8loc_dataE
FN:153,_Z19read_debug_switchesN4pugi8xml_nodeEP8config_tRKN8pugiutil8loc_dataE
FNDA:0,_Z19read_debug_switchesN4pugi8xml_nodeEP8config_tRKN8pugiutil8loc_dataE
FN:193,_Z33set_default_optimization_settingsP8config_t
FNDA:0,_Z33set_default_optimization_settingsP8config_t
FN:211,_Z18read_optimizationsN4pugi8xml_nodeEP8config_tRKN8pugiutil8loc_dataE
FNDA:0,_Z18read_optimizationsN4pugi8xml_nodeEP8config_tRKN8pugiutil8loc_dataE
DA:53,0
DA:55,0
DA:58,0
DA:60,0
DA:61,0
DA:63,0
DA:66,0
DA:69,0
DA:70,0
DA:73,0
DA:74,0
DA:77,0
DA:78,0
DA:79,0
DA:81,0
DA:85,0
DA:86,0
DA:87,0
DA:88,0
DA:89,0
DA:94,0
DA:100,0
DA:102,0
DA:103,0
DA:105,0
DA:106,0
DA:108,0
DA:109,0
DA:111,0
DA:117,0
DA:119,0
DA:121,0
DA:122,0
DA:124,0
DA:127,0
DA:128,0
DA:130,0
DA:133,0
DA:134,0
DA:136,0
DA:137,0
DA:140,0
DA:142,0
DA:144,0
DA:147,0
DA:153,0
DA:155,0
DA:157,0
DA:158,0
DA:160,0
DA:163,0
DA:164,0
DA:166,0
DA:169,0
DA:170,0
DA:172,0
DA:175,0
DA:176,0
DA:178,0
DA:181,0
DA:182,0
DA:184,0
DA:187,0
DA:193,0
DA:195,0
DA:196,0
DA:197,0
DA:198,0
DA:199,0
DA:200,0
DA:201,0
DA:202,0
DA:203,0
DA:204,0
DA:205,0
DA:211,0
DA:214,0
DA:216,0
DA:217,0
DA:219,0
DA:220,0
DA:222,0
DA:225,0
DA:227,0
DA:228,0
DA:230,0
DA:233,0
DA:235,0
DA:236,0
DA:238,0
DA:241,0
DA:243,0
DA:244,0
DA:246,0
DA:249,0
DA:252,0
DA:253,0
DA:255,0
DA:256,0
DA:258,0
DA:261,0
DA:263,0
DA:264,0
DA:266,0
DA:267,0
DA:268,0
DA:269,0
DA:271,0
DA:274,0
DA:278,0
DA:279,0
DA:281,0
DA:282,0
DA:284,0
DA:287,0
DA:289,0
DA:290,0
DA:292,0
DA:295,0
DA:297,0
DA:298,0
DA:300,0
DA:303,0
DA:305,0
DA:306,0
DA:308,0
DA:311,0
DA:313,0
DA:314,0
DA:316,0
DA:319,0
DA:322,0
end_of_record
SF:/workspace/vtr-verilog-to-routing/libs/libpugiutil/src/pugixml_loc.hpp
FN:16,_ZN8pugiutil8loc_dataC2Ev
FNDA:0,_ZN8pugiutil8loc_dataC2Ev
DA:16,0
end_of_record
SF:/usr/include/c++/9/bits/basic_string.h
FN:243,_ZNSt7__cxx1112basic_stringIcSt11char_traitsIcESaIcEE16_M_construct_auxIPKcEEvT_S8_St12__false_type
FNDA:0,_ZNSt7__cxx1112basic_stringIcSt11char_traitsIcESaIcEE16_M_construct_auxIPKcEEvT_S8_St12__false_type
FN:263,_ZNSt7__cxx1112basic_stringIcSt11char_traitsIcESaIcEE12_M_constructIPKcEEvT_S8_
FNDA:0,_ZNSt7__cxx1112basic_stringIcSt11char_traitsIcESaIcEE12_M_constructIPKcEEvT_S8_
DA:243,0
DA:247,0
DA:248,0
DA:263,0
DA:266,0
DA:267,0
end_of_record
SF:/usr/include/c++/9/ext/new_allocator.h
FN:80,_ZN9__gnu_cxx13new_allocatorINSt7__cxx1112basic_stringIcSt11char_traitsIcESaIcEEEEC2Ev
FNDA:0,_ZN9__gnu_cxx13new_allocatorINSt7__cxx1112basic_stringIcSt11char_traitsIcESaIcEEEEC2Ev
FN:80,_ZN9__gnu_cxx13new_allocatorIlEC2Ev
FNDA:0,_ZN9__gnu_cxx13new_allocatorIlEC2Ev
FN:80,_ZN9__gnu_cxx13new_allocatorIcEC2Ev
FNDA:0,_ZN9__gnu_cxx13new_allocatorIcEC2Ev
FN:83,_ZN9__gnu_cxx13new_allocatorIlEC2ERKS1_
FNDA:0,_ZN9__gnu_cxx13new_allocatorIlEC2ERKS1_
FN:89,_ZN9__gnu_cxx13new_allocatorINSt7__cxx1112basic_stringIcSt11char_traitsIcESaIcEEEED2Ev
FNDA:0,_ZN9__gnu_cxx13new_allocatorINSt7__cxx1112basic_stringIcSt11char_traitsIcESaIcEEEED2Ev
FN:89,_ZN9__gnu_cxx13new_allocatorIlED2Ev
FNDA:0,_ZN9__gnu_cxx13new_allocatorIlED2Ev
FN:89,_ZN9__gnu_cxx13new_allocatorIcED2Ev
FNDA:0,_ZN9__gnu_cxx13new_allocatorIcED2Ev
FN:102,_ZN9__gnu_cxx13new_allocatorINSt7__cxx1112basic_stringIcSt11char_traitsIcESaIcEEEE8allocateEmPKv
FNDA:0,_ZN9__gnu_cxx13new_allocatorINSt7__cxx1112basic_stringIcSt11char_traitsIcESaIcEEEE8allocateEmPKv
FN:119,_ZN9__gnu_cxx13new_allocatorINSt7__cxx1112basic_stringIcSt11char_traitsIcESaIcEEEE10deallocateEPS6_m
FNDA:0,_ZN9__gnu_cxx13new_allocatorINSt7__cxx1112basic_stringIcSt11char_traitsIcESaIcEEEE10deallocateEPS6_m
FN:119,_ZN9__gnu_cxx13new_allocatorIlE10deallocateEPlm
FNDA:0,_ZN9__gnu_cxx13new_allocatorIlE10deallocateEPlm
FN:132,_ZNK9__gnu_cxx13new_allocatorINSt7__cxx1112basic_stringIcSt11char_traitsIcESaIcEEEE8max_sizeEv
FNDA:0,_ZNK9__gnu_cxx13new_allocatorINSt7__cxx1112basic_stringIcSt11char_traitsIcESaIcEEEE8max_sizeEv
FN:144,_ZN9__gnu_cxx13new_allocatorINSt7__cxx1112basic_stringIcSt11char_traitsIcESaIcEEEE9constructIS6_JS6_EEEvPT_DpOT0_
FNDA:0,_ZN9__gnu_cxx13new_allocatorINSt7__cxx1112basic_stringIcSt11char_traitsIcESaIcEEEE9constructIS6_JS6_EEEvPT_DpOT0_
FN:151,_ZN9__gnu_cxx13new_allocatorINSt7__cxx1112basic_stringIcSt11char_traitsIcESaIcEEEE7destroyIS6_EEvPT_
FNDA:0,_ZN9__gnu_cxx13new_allocatorINSt7__cxx1112basic_stringIcSt11char_traitsIcESaIcEEEE7destroyIS6_EEvPT_
DA:80,0
DA:80,0
DA:80,0
DA:83,0
DA:89,0
DA:89,0
DA:89,0
DA:102,0
DA:104,0
DA:105,0
DA:114,0
DA:119,0
DA:128,0
DA:129,0
DA:119,0
DA:128,0
DA:129,0
DA:132,0
DA:135,0
DA:144,0
DA:147,0
DA:151,0
DA:153,0
end_of_record
SF:/usr/include/c++/9/ext/type_traits.h
FN:152,_ZN9__gnu_cxx17__is_null_pointerIKcEEbPT_
FNDA:0,_ZN9__gnu_cxx17__is_null_pointerIKcEEbPT_
DA:152,0
DA:153,0
end_of_record
TN:
SF:/usr/include/c++/9/tuple
FN:76,_ZNSt10_Head_baseILm1ESt14default_deleteINSt6thread6_StateEELb1EEC2Ev
FNDA:0,_ZNSt10_Head_baseILm1ESt14default_deleteINSt6thread6_StateEELb1EEC2Ev
FN:113,_ZNSt10_Head_baseILm1ESt14default_deleteINSt6thread6_StateEELb1EE7_M_headERS4_
FNDA:0,_ZNSt10_Head_baseILm1ESt14default_deleteINSt6thread6_StateEELb1EE7_M_headERS4_
FN:122,_ZNSt10_Head_baseILm0EPNSt6thread6_StateELb0EEC2Ev
FNDA:0,_ZNSt10_Head_baseILm0EPNSt6thread6_StateELb0EEC2Ev
FN:125,_ZNSt10_Head_baseILm0EPFviP14netlist_subsetiiELb0EEC2ERKS3_
FNDA:0,_ZNSt10_Head_baseILm0EPFviP14netlist_subsetiiELb0EEC2ERKS3_
FN:125,_ZNSt10_Head_baseILm0ERKlLb0EEC2ES1_
FNDA:0,_ZNSt10_Head_baseILm0ERKlLb0EEC2ES1_
FN:125,_ZNSt10_Head_baseILm0EPFviiiP8stages_tiELb0EEC2ERKS3_
FNDA:0,_ZNSt10_Head_baseILm0EPFviiiP8stages_tiELb0EEC2ERKS3_
FN:125,_ZNSt10_Head_baseILm0ERKiLb0EEC2ES1_
FNDA:0,_ZNSt10_Head_baseILm0ERKiLb0EEC2ES1_
FN:125,_ZNSt10_Head_baseILm0EPFviP14netlist_subsetiiibELb0EEC2ERKS3_
FNDA:0,_ZNSt10_Head_baseILm0EPFviP14netlist_subsetiiibELb0EEC2ERKS3_
FN:132,_ZNSt10_Head_baseILm4EP8stages_tLb0EEC2IS1_EEOT_
FNDA:0,_ZNSt10_Head_baseILm4EP8stages_tLb0EEC2IS1_EEOT_
FN:132,_ZNSt10_Head_baseILm5EiLb0EEC2IiEEOT_
FNDA:0,_ZNSt10_Head_baseILm5EiLb0EEC2IiEEOT_
FN:132,_ZNSt10_Head_baseILm3EiLb0EEC2IiEEOT_
FNDA:0,_ZNSt10_Head_baseILm3EiLb0EEC2IiEEOT_
FN:132,_ZNSt10_Head_baseILm4EiLb0EEC2IiEEOT_
FNDA:0,_ZNSt10_Head_baseILm4EiLb0EEC2IiEEOT_
FN:132,_ZNSt10_Head_baseILm0EPFviiiP8stages_tiELb0EEC2IS3_EEOT_
FNDA:0,_ZNSt10_Head_baseILm0EPFviiiP8stages_tiELb0EEC2IS3_EEOT_
FN:132,_ZNSt10_Head_baseILm1EiLb0EEC2IRiEEOT_
FNDA:0,_ZNSt10_Head_baseILm1EiLb0EEC2IRiEEOT_
FN:132,_ZNSt10_Head_baseILm2EP14netlist_subsetLb0EEC2IRS1_EEOT_
FNDA:0,_ZNSt10_Head_baseILm2EP14netlist_subsetLb0EEC2IRS1_EEOT_
FN:132,_ZNSt10_Head_baseILm3EiLb0EEC2IRiEEOT_
FNDA:0,_ZNSt10_Head_baseILm3EiLb0EEC2IRiEEOT_
FN:132,_ZNSt10_Head_baseILm4EiLb0EEC2IRiEEOT_
FNDA:0,_ZNSt10_Head_baseILm4EiLb0EEC2IRiEEOT_
FN:132,_ZNSt10_Head_baseILm2EiLb0EEC2IRiEEOT_
FNDA:0,_ZNSt10_Head_baseILm2EiLb0EEC2IRiEEOT_
FN:132,_ZNSt10_Head_baseILm4EP8stages_tLb0EEC2IRS1_EEOT_
FNDA:0,_ZNSt10_Head_baseILm4EP8stages_tLb0EEC2IRS1_EEOT_
FN:132,_ZNSt10_Head_baseILm0EPFviP14netlist_subsetiiibELb0EEC2IS3_EEOT_
FNDA:0,_ZNSt10_Head_baseILm0EPFviP14netlist_subsetiiibELb0EEC2IS3_EEOT_
FN:132,_ZNSt10_Head_baseILm1EiLb0EEC2IiEEOT_
FNDA:0,_ZNSt10_Head_baseILm1EiLb0EEC2IiEEOT_
FN:132,_ZNSt10_Head_baseILm0EOiLb0EEC2IiEEOT_
FNDA:0,_ZNSt10_Head_baseILm0EOiLb0EEC2IiEEOT_
FN:132,_ZNSt10_Head_baseILm6EiLb0EEC2IiEEOT_
FNDA:0,_ZNSt10_Head_baseILm6EiLb0EEC2IiEEOT_
FN:132,_ZNSt10_Head_baseILm2EP14netlist_subsetLb0EEC2IS1_EEOT_
FNDA:0,_ZNSt10_Head_baseILm2EP14netlist_subsetLb0EEC2IS1_EEOT_
FN:132,_ZNSt10_Head_baseILm0EPFviP14netlist_subsetiiELb0EEC2IS3_EEOT_
FNDA:0,_ZNSt10_Head_baseILm0EPFviP14netlist_subsetiiELb0EEC2IS3_EEOT_
FN:132,_ZNSt10_Head_baseILm2EiLb0EEC2IiEEOT_
FNDA:0,_ZNSt10_Head_baseILm2EiLb0EEC2IiEEOT_
FN:132,_ZNSt10_Head_baseILm5EiLb0EEC2IRiEEOT_
FNDA:0,_ZNSt10_Head_baseILm5EiLb0EEC2IRiEEOT_
FN:160,_ZNSt10_Head_baseILm0ERKiLb0EE7_M_headERS2_
FNDA:0,_ZNSt10_Head_baseILm0ERKiLb0EE7_M_headERS2_
FN:160,_ZNSt10_Head_baseILm0EPFviP14netlist_subsetiiibELb0EE7_M_headERS4_
FNDA:0,_ZNSt10_Head_baseILm0EPFviP14netlist_subsetiiibELb0EE7_M_headERS4_
FN:160,_ZNSt10_Head_baseILm0EPFviP14netlist_subsetiiELb0EE7_M_headERS4_
FNDA:0,_ZNSt10_Head_baseILm0EPFviP14netlist_subsetiiELb0EE7_M_headERS4_
FN:160,_ZNSt10_Head_baseILm4EP8stages_tLb0EE7_M_headERS2_
FNDA:0,_ZNSt10_Head_baseILm4EP8stages_tLb0EE7_M_headERS2_
FN:160,_ZNSt10_Head_baseILm4EiLb0EE7_M_headERS0_
FNDA:0,_ZNSt10_Head_baseILm4EiLb0EE7_M_headERS0_
FN:160,_ZNSt10_Head_baseILm0EOiLb0EE7_M_headERS1_
FNDA:0,_ZNSt10_Head_baseILm0EOiLb0EE7_M_headERS1_
FN:160,_ZNSt10_Head_baseILm1EiLb0EE7_M_headERS0_
FNDA:0,_ZNSt10_Head_baseILm1EiLb0EE7_M_headERS0_
FN:160,_ZNSt10_Head_baseILm2EP14netlist_subsetLb0EE7_M_headERS2_
FNDA:0,_ZNSt10_Head_baseILm2EP14netlist_subsetLb0EE7_M_headERS2_
FN:160,_ZNSt10_Head_baseILm3EiLb0EE7_M_headERS0_
FNDA:0,_ZNSt10_Head_baseILm3EiLb0EE7_M_headERS0_
FN:160,_ZNSt10_Head_baseILm0EPFviiiP8stages_tiELb0EE7_M_headERS4_
FNDA:0,_ZNSt10_Head_baseILm0EPFviiiP8stages_tiELb0EE7_M_headERS4_
FN:160,_ZNSt10_Head_baseILm0ERKlLb0EE7_M_headERS2_
FNDA:0,_ZNSt10_Head_baseILm0ERKlLb0EE7_M_headERS2_
FN:160,_ZNSt10_Head_baseILm5EiLb0EE7_M_headERS0_
FNDA:0,_ZNSt10_Head_baseILm5EiLb0EE7_M_headERS0_
FN:160,_ZNSt10_Head_baseILm6EiLb0EE7_M_headERS0_
FNDA:0,_ZNSt10_Head_baseILm6EiLb0EE7_M_headERS0_
FN:160,_ZNSt10_Head_baseILm0EPNSt6thread6_StateELb0EE7_M_headERS3_
FNDA:0,_ZNSt10_Head_baseILm0EPNSt6thread6_StateELb0EE7_M_headERS3_
FN:160,_ZNSt10_Head_baseILm2EiLb0EE7_M_headERS0_
FNDA:0,_ZNSt10_Head_baseILm2EiLb0EE7_M_headERS0_
FN:195,_ZNSt11_Tuple_implILm0EJPFviP14netlist_subsetiiibEiS1_iiiiEE7_M_headERS4_
FNDA:0,_ZNSt11_Tuple_implILm0EJPFviP14netlist_subsetiiibEiS1_iiiiEE7_M_headERS4_
FN:195,_ZNSt11_Tuple_implILm5EJiiEE7_M_headERS0_
FNDA:0,_ZNSt11_Tuple_implILm5EJiiEE7_M_headERS0_
FN:195,_ZNSt11_Tuple_implILm0EJPFviiiP8stages_tiEiiiS1_iEE7_M_headERS4_
FNDA:0,_ZNSt11_Tuple_implILm0EJPFviiiP8stages_tiEiiiS1_iEE7_M_headERS4_
FN:195,_ZNSt11_Tuple_implILm0EJPFviP14netlist_subsetiiEiS1_iiEE7_M_headERS4_
FNDA:0,_ZNSt11_Tuple_implILm0EJPFviP14netlist_subsetiiEiS1_iiEE7_M_headERS4_
FN:195,_ZNSt11_Tuple_implILm4EJP8stages_tiEE7_M_headERS2_
FNDA:0,_ZNSt11_Tuple_implILm4EJP8stages_tiEE7_M_headERS2_
FN:195,_ZNSt11_Tuple_implILm4EJiiiEE7_M_headERS0_
FNDA:0,_ZNSt11_Tuple_implILm4EJiiiEE7_M_headERS0_
FN:195,_ZNSt11_Tuple_implILm1EJiP14netlist_subsetiiiiEE7_M_headERS2_
FNDA:0,_ZNSt11_Tuple_implILm1EJiP14netlist_subsetiiiiEE7_M_headERS2_
FN:195,_ZNSt11_Tuple_implILm3EJiiEE7_M_headERS0_
FNDA:0,_ZNSt11_Tuple_implILm3EJiiEE7_M_headERS0_
FN:195,_ZNSt11_Tuple_implILm1EJiiiP8stages_tiEE7_M_headERS2_
FNDA:0,_ZNSt11_Tuple_implILm1EJiiiP8stages_tiEE7_M_headERS2_
FN:195,_ZNSt11_Tuple_implILm3EJiP8stages_tiEE7_M_headERS2_
FNDA:0,_ZNSt11_Tuple_implILm3EJiP8stages_tiEE7_M_headERS2_
FN:195,_ZNSt11_Tuple_implILm1EJiP14netlist_subsetiiEE7_M_headERS2_
FNDA:0,_ZNSt11_Tuple_implILm1EJiP14netlist_subsetiiEE7_M_headERS2_
FN:195,_ZNSt11_Tuple_implILm3EJiiiiEE7_M_headERS0_
FNDA:0,_ZNSt11_Tuple_implILm3EJiiiiEE7_M_headERS0_
FN:195,_ZNSt11_Tuple_implILm2EJP14netlist_subsetiiEE7_M_headERS2_
FNDA:0,_ZNSt11_Tuple_implILm2EJP14netlist_subsetiiEE7_M_headERS2_
FN:195,_ZNSt11_Tuple_implILm2EJP14netlist_subsetiiiiEE7_M_headERS2_
FNDA:0,_ZNSt11_Tuple_implILm2EJP14netlist_subsetiiiiEE7_M_headERS2_
FN:195,_ZNSt11_Tuple_implILm2EJiiP8stages_tiEE7_M_headERS2_
FNDA:0,_ZNSt11_Tuple_implILm2EJiiP8stages_tiEE7_M_headERS2_
FN:195,_ZNSt11_Tuple_implILm0EJPNSt6thread6_StateESt14default_deleteIS1_EEE7_M_headERS5_
FNDA:0,_ZNSt11_Tuple_implILm0EJPNSt6thread6_StateESt14default_deleteIS1_EEE7_M_headERS5_
FN:201,_ZNSt11_Tuple_implILm1EJiiiP8stages_tiEE7_M_tailERS2_
FNDA:0,_ZNSt11_Tuple_implILm1EJiiiP8stages_tiEE7_M_tailERS2_
FN:201,_ZNSt11_Tuple_implILm5EJiiEE7_M_tailERS0_
FNDA:0,_ZNSt11_Tuple_implILm5EJiiEE7_M_tailERS0_
FN:201,_ZNSt11_Tuple_implILm1EJiP14netlist_subsetiiEE7_M_tailERS2_
FNDA:0,_ZNSt11_Tuple_implILm1EJiP14netlist_subsetiiEE7_M_tailERS2_
FN:201,_ZNSt11_Tuple_implILm2EJP14netlist_subsetiiiiEE7_M_tailERS2_
FNDA:0,_ZNSt11_Tuple_implILm2EJP14netlist_subsetiiiiEE7_M_tailERS2_
FN:201,_ZNSt11_Tuple_implILm2EJiiP8stages_tiEE7_M_tailERS2_
FNDA:0,_ZNSt11_Tuple_implILm2EJiiP8stages_tiEE7_M_tailERS2_
FN:201,_ZNSt11_Tuple_implILm2EJP14netlist_subsetiiEE7_M_tailERS2_
FNDA:0,_ZNSt11_Tuple_implILm2EJP14netlist_subsetiiEE7_M_tailERS2_
FN:201,_ZNSt11_Tuple_implILm3EJiiiiEE7_M_tailERS0_
FNDA:0,_ZNSt11_Tuple_implILm3EJiiiiEE7_M_tailERS0_
FN:201,_ZNSt11_Tuple_implILm3EJiP8stages_tiEE7_M_tailERS2_
FNDA:0,_ZNSt11_Tuple_implILm3EJiP8stages_tiEE7_M_tailERS2_
FN:201,_ZNSt11_Tuple_implILm3EJiiEE7_M_tailERS0_
FNDA:0,_ZNSt11_Tuple_implILm3EJiiEE7_M_tailERS0_
FN:201,_ZNSt11_Tuple_implILm4EJP8stages_tiEE7_M_tailERS2_
FNDA:0,_ZNSt11_Tuple_implILm4EJP8stages_tiEE7_M_tailERS2_
FN:201,_ZNSt11_Tuple_implILm1EJiP14netlist_subsetiiiiEE7_M_tailERS2_
FNDA:0,_ZNSt11_Tuple_implILm1EJiP14netlist_subsetiiiiEE7_M_tailERS2_
FN:201,_ZNSt11_Tuple_implILm4EJiiiEE7_M_tailERS0_
FNDA:0,_ZNSt11_Tuple_implILm4EJiiiEE7_M_tailERS0_
FN:201,_ZNSt11_Tuple_implILm0EJPFviP14netlist_subsetiiEiS1_iiEE7_M_tailERS4_
FNDA:0,_ZNSt11_Tuple_implILm0EJPFviP14netlist_subsetiiEiS1_iiEE7_M_tailERS4_
FN:201,_ZNSt11_Tuple_implILm0EJPFviP14netlist_subsetiiibEiS1_iiiiEE7_M_tailERS4_
FNDA:0,_ZNSt11_Tuple_implILm0EJPFviP14netlist_subsetiiibEiS1_iiiiEE7_M_tailERS4_
FN:201,_ZNSt11_Tuple_implILm0EJPFviiiP8stages_tiEiiiS1_iEE7_M_tailERS4_
FNDA:0,_ZNSt11_Tuple_implILm0EJPFviiiP8stages_tiEiiiS1_iEE7_M_tailERS4_
FN:206,_ZNSt11_Tuple_implILm0EJPNSt6thread6_StateESt14default_deleteIS1_EEEC2Ev
FNDA:0,_ZNSt11_Tuple_implILm0EJPNSt6thread6_StateESt14default_deleteIS1_EEEC2Ev
FN:216,_ZNSt11_Tuple_implILm2EJP14netlist_subsetiiEEC2IRS1_JRiiEvEEOT_DpOT0_
FNDA:0,_ZNSt11_Tuple_implILm2EJP14netlist_subsetiiEEC2IRS1_JRiiEvEEOT_DpOT0_
FN:216,_ZNSt11_Tuple_implILm3EJiiEEC2IRiJiEvEEOT_DpOT0_
FNDA:0,_ZNSt11_Tuple_implILm3EJiiEEC2IRiJiEvEEOT_DpOT0_
FN:216,_ZNSt11_Tuple_implILm1EJiP14netlist_subsetiiEEC2IRiJRS1_S4_iEvEEOT_DpOT0_
FNDA:0,_ZNSt11_Tuple_implILm1EJiP14netlist_subsetiiEEC2IRiJRS1_S4_iEvEEOT_DpOT0_
FN:216,_ZNSt11_Tuple_implILm0EJPFviP14netlist_subsetiiEiS1_iiEEC2IRS2_JRiRS1_S7_iEvEEOT_DpOT0_
FNDA:0,_ZNSt11_Tuple_implILm0EJPFviP14netlist_subsetiiEiS1_iiEEC2IRS2_JRiRS1_S7_iEvEEOT_DpOT0_
FN:216,_ZNSt11_Tuple_implILm4EJP8stages_tiEEC2IRS1_JRiEvEEOT_DpOT0_
FNDA:0,_ZNSt11_Tuple_implILm4EJP8stages_tiEEC2IRS1_JRiEvEEOT_DpOT0_
FN:216,_ZNSt11_Tuple_implILm3EJiP8stages_tiEEC2IRiJRS1_S4_EvEEOT_DpOT0_
FNDA:0,_ZNSt11_Tuple_implILm3EJiP8stages_tiEEC2IRiJRS1_S4_EvEEOT_DpOT0_
FN:216,_ZNSt11_Tuple_implILm2EJiiP8stages_tiEEC2IRiJS4_RS1_S4_EvEEOT_DpOT0_
FNDA:0,_ZNSt11_Tuple_implILm2EJiiP8stages_tiEEC2IRiJS4_RS1_S4_EvEEOT_DpOT0_
FN:216,_ZNSt11_Tuple_implILm1EJiiiP8stages_tiEEC2IRiJS4_S4_RS1_S4_EvEEOT_DpOT0_
FNDA:0,_ZNSt11_Tuple_implILm1EJiiiP8stages_tiEEC2IRiJS4_S4_RS1_S4_EvEEOT_DpOT0_
FN:216,_ZNSt11_Tuple_implILm0EJPFviiiP8stages_tiEiiiS1_iEEC2IRS2_JRiS7_S7_RS1_S7_EvEEOT_DpOT0_
FNDA:0,_ZNSt11_Tuple_implILm0EJPFviiiP8stages_tiEiiiS1_iEEC2IRS2_JRiS7_S7_RS1_S7_EvEEOT_DpOT0_
FN:216,_ZNSt11_Tuple_implILm0EJPFviP14netlist_subsetiiibEiS1_iiiiEEC2IRS2_JRiRS1_S7_S7_S7_iEvEEOT_DpOT0_
FNDA:0,_ZNSt11_Tuple_implILm0EJPFviP14netlist_subsetiiibEiS1_iiiiEEC2IRS2_JRiRS1_S7_S7_S7_iEvEEOT_DpOT0_
FN:216,_ZNSt11_Tuple_implILm5EJiiEEC2IRiJiEvEEOT_DpOT0_
FNDA:0,_ZNSt11_Tuple_implILm5EJiiEEC2IRiJiEvEEOT_DpOT0_
FN:216,_ZNSt11_Tuple_implILm1EJiP14netlist_subsetiiiiEEC2IRiJRS1_S4_S4_S4_iEvEEOT_DpOT0_
FNDA:0,_ZNSt11_Tuple_implILm1EJiP14netlist_subsetiiiiEEC2IRiJRS1_S4_S4_S4_iEvEEOT_DpOT0_
FN:216,_ZNSt11_Tuple_implILm4EJiiiEEC2IRiJS2_iEvEEOT_DpOT0_
FNDA:0,_ZNSt11_Tuple_implILm4EJiiiEEC2IRiJS2_iEvEEOT_DpOT0_
FN:216,_ZNSt11_Tuple_implILm3EJiiiiEEC2IRiJS2_S2_iEvEEOT_DpOT0_
FNDA:0,_ZNSt11_Tuple_implILm3EJiiiiEEC2IRiJS2_S2_iEvEEOT_DpOT0_
FN:216,_ZNSt11_Tuple_implILm2EJP14netlist_subsetiiiiEEC2IRS1_JRiS5_S5_iEvEEOT_DpOT0_
FNDA:0,_ZNSt11_Tuple_implILm2EJP14netlist_subsetiiiiEEC2IRS1_JRiS5_S5_iEvEEOT_DpOT0_
FN:227,_ZNSt11_Tuple_implILm5EJiiEEC2EOS0_
FNDA:0,_ZNSt11_Tuple_implILm5EJiiEEC2EOS0_
FN:227,_ZNSt11_Tuple_implILm4EJiiiEEC2EOS0_
FNDA:0,_ZNSt11_Tuple_implILm4EJiiiEEC2EOS0_
FN:227,_ZNSt11_Tuple_implILm2EJiiP8stages_tiEEC2EOS2_
FNDA:0,_ZNSt11_Tuple_implILm2EJiiP8stages_tiEEC2EOS2_
FN:227,_ZNSt11_Tuple_implILm2EJP14netlist_subsetiiiiEEC2EOS2_
FNDA:0,_ZNSt11_Tuple_implILm2EJP14netlist_subsetiiiiEEC2EOS2_
FN:227,_ZNSt11_Tuple_implILm3EJiiEEC2EOS0_
FNDA:0,_ZNSt11_Tuple_implILm3EJiiEEC2EOS0_
FN:227,_ZNSt11_Tuple_implILm4EJP8stages_tiEEC2EOS2_
FNDA:0,_ZNSt11_Tuple_implILm4EJP8stages_tiEEC2EOS2_
FN:227,_ZNSt11_Tuple_implILm0EJPFviP14netlist_subsetiiibEiS1_iiiiEEC2EOS4_
FNDA:0,_ZNSt11_Tuple_implILm0EJPFviP14netlist_subsetiiibEiS1_iiiiEEC2EOS4_
FN:227,_ZNSt11_Tuple_implILm0EJPFviiiP8stages_tiEiiiS1_iEEC2EOS4_
FNDA:0,_ZNSt11_Tuple_implILm0EJPFviiiP8stages_tiEiiiS1_iEEC2EOS4_
FN:227,_ZNSt11_Tuple_implILm2EJP14netlist_subsetiiEEC2EOS2_
FNDA:0,_ZNSt11_Tuple_implILm2EJP14netlist_subsetiiEEC2EOS2_
FN:227,_ZNSt11_Tuple_implILm0EJPFviP14netlist_subsetiiEiS1_iiEEC2EOS4_
FNDA:0,_ZNSt11_Tuple_implILm0EJPFviP14netlist_subsetiiEiS1_iiEEC2EOS4_
FN:227,_ZNSt11_Tuple_implILm3EJiP8stages_tiEEC2EOS2_
FNDA:0,_ZNSt11_Tuple_implILm3EJiP8stages_tiEEC2EOS2_
FN:227,_ZNSt11_Tuple_implILm1EJiP14netlist_subsetiiEEC2EOS2_
FNDA:0,_ZNSt11_Tuple_implILm1EJiP14netlist_subsetiiEEC2EOS2_
FN:227,_ZNSt11_Tuple_implILm3EJiiiiEEC2EOS0_
FNDA:0,_ZNSt11_Tuple_implILm3EJiiiiEEC2EOS0_
FN:227,_ZNSt11_Tuple_implILm1EJiiiP8stages_tiEEC2EOS2_
FNDA:0,_ZNSt11_Tuple_implILm1EJiiiP8stages_tiEEC2EOS2_
FN:227,_ZNSt11_Tuple_implILm1EJiP14netlist_subsetiiiiEEC2EOS2_
FNDA:0,_ZNSt11_Tuple_implILm1EJiP14netlist_subsetiiiiEEC2EOS2_
FN:334,_ZNSt11_Tuple_implILm5EJiEE7_M_headERS0_
FNDA:0,_ZNSt11_Tuple_implILm5EJiEE7_M_headERS0_
FN:334,_ZNSt11_Tuple_implILm0EJRKlEE7_M_headERS2_
FNDA:0,_ZNSt11_Tuple_implILm0EJRKlEE7_M_headERS2_
FN:334,_ZNSt11_Tuple_implILm0EJRKiEE7_M_headERS2_
FNDA:0,_ZNSt11_Tuple_implILm0EJRKiEE7_M_headERS2_
FN:334,_ZNSt11_Tuple_implILm6EJiEE7_M_headERS0_
FNDA:0,_ZNSt11_Tuple_implILm6EJiEE7_M_headERS0_
FN:334,_ZNSt11_Tuple_implILm4EJiEE7_M_headERS0_
FNDA:0,_ZNSt11_Tuple_implILm4EJiEE7_M_headERS0_
FN:334,_ZNSt11_Tuple_implILm0EJOiEE7_M_headERS1_
FNDA:0,_ZNSt11_Tuple_implILm0EJOiEE7_M_headERS1_
FN:334,_ZNSt11_Tuple_implILm1EJSt14default_deleteINSt6thread6_StateEEEE7_M_headERS4_
FNDA:0,_ZNSt11_Tuple_implILm1EJSt14default_deleteINSt6thread6_StateEEEE7_M_headERS4_
FN:339,_ZNSt11_Tuple_implILm1EJSt14default_deleteINSt6thread6_StateEEEEC2Ev
FNDA:0,_ZNSt11_Tuple_implILm1EJSt14default_deleteINSt6thread6_StateEEEEC2Ev
FN:343,_ZNSt11_Tuple_implILm0EJRKlEEC2ES1_
FNDA:0,_ZNSt11_Tuple_implILm0EJRKlEEC2ES1_
FN:343,_ZNSt11_Tuple_implILm0EJRKiEEC2ES1_
FNDA:0,_ZNSt11_Tuple_implILm0EJRKiEEC2ES1_
FN:348,_ZNSt11_Tuple_implILm4EJiEEC2IiEEOT_
FNDA:0,_ZNSt11_Tuple_implILm4EJiEEC2IiEEOT_
FN:348,_ZNSt11_Tuple_implILm6EJiEEC2IiEEOT_
FNDA:0,_ZNSt11_Tuple_implILm6EJiEEC2IiEEOT_
FN:348,_ZNSt11_Tuple_implILm0EJOiEEC2IiEEOT_
FNDA:0,_ZNSt11_Tuple_implILm0EJOiEEC2IiEEOT_
FN:348,_ZNSt11_Tuple_implILm5EJiEEC2IRiEEOT_
FNDA:0,_ZNSt11_Tuple_implILm5EJiEEC2IRiEEOT_
FN:358,_ZNSt11_Tuple_implILm0EJRKlEEC2EOS2_
FNDA:0,_ZNSt11_Tuple_implILm0EJRKlEEC2EOS2_
FN:358,_ZNSt11_Tuple_implILm0EJOiEEC2EOS1_
FNDA:0,_ZNSt11_Tuple_implILm0EJOiEEC2EOS1_
FN:358,_ZNSt11_Tuple_implILm0EJRKiEEC2EOS2_
FNDA:0,_ZNSt11_Tuple_implILm0EJRKiEEC2EOS2_
FN:358,_ZNSt11_Tuple_implILm4EJiEEC2EOS0_
FNDA:0,_ZNSt11_Tuple_implILm4EJiEEC2EOS0_
FN:358,_ZNSt11_Tuple_implILm5EJiEEC2EOS0_
FNDA:0,_ZNSt11_Tuple_implILm5EJiEEC2EOS0_
FN:358,_ZNSt11_Tuple_implILm6EJiEEC2EOS0_
FNDA:0,_ZNSt11_Tuple_implILm6EJiEEC2EOS0_
FN:588,_ZNSt5tupleIJRKlEEC2IvLb1EEES1_
FNDA:0,_ZNSt5tupleIJRKlEEC2IvLb1EEES1_
FN:588,_ZNSt5tupleIJRKiEEC2IvLb1EEES1_
FNDA:0,_ZNSt5tupleIJRKiEEC2IvLb1EEES1_
FN:626,_ZNSt5tupleIJPFviiiP8stages_tiEiiiS1_iEEC2IJRS2_RiS7_S7_RS1_S7_ELb1EEEDpOT_
FNDA:0,_ZNSt5tupleIJPFviiiP8stages_tiEiiiS1_iEEC2IJRS2_RiS7_S7_RS1_S7_ELb1EEEDpOT_
FN:626,_ZNSt5tupleIJPFviP14netlist_subsetiiibEiS1_iiiiEEC2IJRS2_RiRS1_S7_S7_S7_iELb1EEEDpOT_
FNDA:0,_ZNSt5tupleIJPFviP14netlist_subsetiiibEiS1_iiiiEEC2IJRS2_RiRS1_S7_S7_S7_iELb1EEEDpOT_
FN:626,_ZNSt5tupleIJOiEEC2IJiELb1EEEDpOT_
FNDA:0,_ZNSt5tupleIJOiEEC2IJiELb1EEEDpOT_
FN:626,_ZNSt5tupleIJPFviP14netlist_subsetiiEiS1_iiEEC2IJRS2_RiRS1_S7_iELb1EEEDpOT_
FNDA:0,_ZNSt5tupleIJPFviP14netlist_subsetiiEiS1_iiEEC2IJRS2_RiRS1_S7_iELb1EEEDpOT_
FN:642,_ZNSt5tupleIJPFviiiP8stages_tiEiiiS1_iEEC2EOS4_
FNDA:0,_ZNSt5tupleIJPFviiiP8stages_tiEiiiS1_iEEC2EOS4_
FN:642,_ZNSt5tupleIJPFviP14netlist_subsetiiEiS1_iiEEC2EOS4_
FNDA:0,_ZNSt5tupleIJPFviP14netlist_subsetiiEiS1_iiEEC2EOS4_
FN:642,_ZNSt5tupleIJOiEEC2EOS1_
FNDA:0,_ZNSt5tupleIJOiEEC2EOS1_
FN:642,_ZNSt5tupleIJPFviP14netlist_subsetiiibEiS1_iiiiEEC2EOS4_
FNDA:0,_ZNSt5tupleIJPFviP14netlist_subsetiiibEiS1_iiiiEEC2EOS4_
FN:642,_ZNSt5tupleIJRKiEEC2EOS2_
FNDA:0,_ZNSt5tupleIJRKiEEC2EOS2_
FN:642,_ZNSt5tupleIJRKlEEC2EOS2_
FNDA:0,_ZNSt5tupleIJRKlEEC2EOS2_
FN:918,_ZNSt5tupleIJPNSt6thread6_StateESt14default_deleteIS1_EEEC2IS2_S4_Lb1EEEv
FNDA:0,_ZNSt5tupleIJPNSt6thread6_StateESt14default_deleteIS1_EEEC2IS2_S4_Lb1EEEv
FN:1309,_ZSt12__get_helperILm6EiJEERT0_RSt11_Tuple_implIXT_EJS0_DpT1_EE
FNDA:0,_ZSt12__get_helperILm6EiJEERT0_RSt11_Tuple_implIXT_EJS0_DpT1_EE
FN:1309,_ZSt12__get_helperILm1ESt14default_deleteINSt6thread6_StateEEJEERT0_RSt11_Tuple_implIXT_EJS4_DpT1_EE
FNDA:0,_ZSt12__get_helperILm1ESt14default_deleteINSt6thread6_StateEEJEERT0_RSt11_Tuple_implIXT_EJS4_DpT1_EE
FN:1309,_ZSt12__get_helperILm0EPFviP14netlist_subsetiiEJiS1_iiEERT0_RSt11_Tuple_implIXT_EJS4_DpT1_EE
FNDA:0,_ZSt12__get_helperILm0EPFviP14netlist_subsetiiEJiS1_iiEERT0_RSt11_Tuple_implIXT_EJS4_DpT1_EE
FN:1309,_ZSt12__get_helperILm1EiJP14netlist_subsetiiEERT0_RSt11_Tuple_implIXT_EJS2_DpT1_EE
FNDA:0,_ZSt12__get_helperILm1EiJP14netlist_subsetiiEERT0_RSt11_Tuple_implIXT_EJS2_DpT1_EE
FN:1309,_ZSt12__get_helperILm2EP14netlist_subsetJiiEERT0_RSt11_Tuple_implIXT_EJS2_DpT1_EE
FNDA:0,_ZSt12__get_helperILm2EP14netlist_subsetJiiEERT0_RSt11_Tuple_implIXT_EJS2_DpT1_EE
FN:1309,_ZSt12__get_helperILm3EiJiEERT0_RSt11_Tuple_implIXT_EJS0_DpT1_EE
FNDA:0,_ZSt12__get_helperILm3EiJiEERT0_RSt11_Tuple_implIXT_EJS0_DpT1_EE
FN:1309,_ZSt12__get_helperILm4EiJEERT0_RSt11_Tuple_implIXT_EJS0_DpT1_EE
FNDA:0,_ZSt12__get_helperILm4EiJEERT0_RSt11_Tuple_implIXT_EJS0_DpT1_EE
FN:1309,_ZSt12__get_helperILm0EPFviiiP8stages_tiEJiiiS1_iEERT0_RSt11_Tuple_implIXT_EJS4_DpT1_EE
FNDA:0,_ZSt12__get_helperILm0EPFviiiP8stages_tiEJiiiS1_iEERT0_RSt11_Tuple_implIXT_EJS4_DpT1_EE
FN:1309,_ZSt12__get_helperILm1EiJiiP8stages_tiEERT0_RSt11_Tuple_implIXT_EJS2_DpT1_EE
FNDA:0,_ZSt12__get_helperILm1EiJiiP8stages_tiEERT0_RSt11_Tuple_implIXT_EJS2_DpT1_EE
FN:1309,_ZSt12__get_helperILm2EiJiP8stages_tiEERT0_RSt11_Tuple_implIXT_EJS2_DpT1_EE
FNDA:0,_ZSt12__get_helperILm2EiJiP8stages_tiEERT0_RSt11_Tuple_implIXT_EJS2_DpT1_EE
FN:1309,_ZSt12__get_helperILm0ERKlJEERT0_RSt11_Tuple_implIXT_EJS2_DpT1_EE
FNDA:0,_ZSt12__get_helperILm0ERKlJEERT0_RSt11_Tuple_implIXT_EJS2_DpT1_EE
FN:1309,_ZSt12__get_helperILm0ERKiJEERT0_RSt11_Tuple_implIXT_EJS2_DpT1_EE
FNDA:0,_ZSt12__get_helperILm0ERKiJEERT0_RSt11_Tuple_implIXT_EJS2_DpT1_EE
FN:1309,_ZSt12__get_helperILm3EiJP8stages_tiEERT0_RSt11_Tuple_implIXT_EJS2_DpT1_EE
FNDA:0,_ZSt12__get_helperILm3EiJP8stages_tiEERT0_RSt11_Tuple_implIXT_EJS2_DpT1_EE
FN:1309,_ZSt12__get_helperILm0EOiJEERT0_RSt11_Tuple_implIXT_EJS1_DpT1_EE
FNDA:0,_ZSt12__get_helperILm0EOiJEERT0_RSt11_Tuple_implIXT_EJS1_DpT1_EE
FN:1309,_ZSt12__get_helperILm0EPNSt6thread6_StateEJSt14default_deleteIS1_EEERT0_RSt11_Tuple_implIXT_EJS5_DpT1_EE
FNDA:0,_ZSt12__get_helperILm0EPNSt6thread6_StateEJSt14default_deleteIS1_EEERT0_RSt11_Tuple_implIXT_EJS5_DpT1_EE
FN:1309,_ZSt12__get_helperILm5EiJiEERT0_RSt11_Tuple_implIXT_EJS0_DpT1_EE
FNDA:0,_ZSt12__get_helperILm5EiJiEERT0_RSt11_Tuple_implIXT_EJS0_DpT1_EE
FN:1309,_ZSt12__get_helperILm4EiJiiEERT0_RSt11_Tuple_implIXT_EJS0_DpT1_EE
FNDA:0,_ZSt12__get_helperILm4EiJiiEERT0_RSt11_Tuple_implIXT_EJS0_DpT1_EE
FN:1309,_ZSt12__get_helperILm3EiJiiiEERT0_RSt11_Tuple_implIXT_EJS0_DpT1_EE
FNDA:0,_ZSt12__get_helperILm3EiJiiiEERT0_RSt11_Tuple_implIXT_EJS0_DpT1_EE
FN:1309,_ZSt12__get_helperILm2EP14netlist_subsetJiiiiEERT0_RSt11_Tuple_implIXT_EJS2_DpT1_EE
FNDA:0,_ZSt12__get_helperILm2EP14netlist_subsetJiiiiEERT0_RSt11_Tuple_implIXT_EJS2_DpT1_EE
FN:1309,_ZSt12__get_helperILm1EiJP14netlist_subsetiiiiEERT0_RSt11_Tuple_implIXT_EJS2_DpT1_EE
FNDA:0,_ZSt12__get_helperILm1EiJP14netlist_subsetiiiiEERT0_RSt11_Tuple_implIXT_EJS2_DpT1_EE
FN:1309,_ZSt12__get_helperILm0EPFviP14netlist_subsetiiibEJiS1_iiiiEERT0_RSt11_Tuple_implIXT_EJS4_DpT1_EE
FNDA:0,_ZSt12__get_helperILm0EPFviP14netlist_subsetiiibEJiS1_iiiiEERT0_RSt11_Tuple_implIXT_EJS4_DpT1_EE
FN:1309,_ZSt12__get_helperILm5EiJEERT0_RSt11_Tuple_implIXT_EJS0_DpT1_EE
FNDA:0,_ZSt12__get_helperILm5EiJEERT0_RSt11_Tuple_implIXT_EJS0_DpT1_EE
FN:1309,_ZSt12__get_helperILm4EP8stages_tJiEERT0_RSt11_Tuple_implIXT_EJS2_DpT1_EE
FNDA:0,_ZSt12__get_helperILm4EP8stages_tJiEERT0_RSt11_Tuple_implIXT_EJS2_DpT1_EE
FN:1320,_ZSt3getILm4EJPFviP14netlist_subsetiiEiS1_iiEERNSt13tuple_elementIXT_ESt5tupleIJDpT0_EEE4typeERS8_
FNDA:0,_ZSt3getILm4EJPFviP14netlist_subsetiiEiS1_iiEERNSt13tuple_elementIXT_ESt5tupleIJDpT0_EEE4typeERS8_
FN:1320,_ZSt3getILm0EJPFviiiP8stages_tiEiiiS1_iEERNSt13tuple_elementIXT_ESt5tupleIJDpT0_EEE4typeERS8_
FNDA:0,_ZSt3getILm0EJPFviiiP8stages_tiEiiiS1_iEERNSt13tuple_elementIXT_ESt5tupleIJDpT0_EEE4typeERS8_
FN:1320,_ZSt3getILm1EJPFviiiP8stages_tiEiiiS1_iEERNSt13tuple_elementIXT_ESt5tupleIJDpT0_EEE4typeERS8_
FNDA:0,_ZSt3getILm1EJPFviiiP8stages_tiEiiiS1_iEERNSt13tuple_elementIXT_ESt5tupleIJDpT0_EEE4typeERS8_
FN:1320,_ZSt3getILm0EJPFviP14netlist_subsetiiEiS1_iiEERNSt13tuple_elementIXT_ESt5tupleIJDpT0_EEE4typeERS8_
FNDA:0,_ZSt3getILm0EJPFviP14netlist_subsetiiEiS1_iiEERNSt13tuple_elementIXT_ESt5tupleIJDpT0_EEE4typeERS8_
FN:1320,_ZSt3getILm2EJPFviiiP8stages_tiEiiiS1_iEERNSt13tuple_elementIXT_ESt5tupleIJDpT0_EEE4typeERS8_
FNDA:0,_ZSt3getILm2EJPFviiiP8stages_tiEiiiS1_iEERNSt13tuple_elementIXT_ESt5tupleIJDpT0_EEE4typeERS8_
FN:1320,_ZSt3getILm3EJPFviiiP8stages_tiEiiiS1_iEERNSt13tuple_elementIXT_ESt5tupleIJDpT0_EEE4typeERS8_
FNDA:0,_ZSt3getILm3EJPFviiiP8stages_tiEiiiS1_iEERNSt13tuple_elementIXT_ESt5tupleIJDpT0_EEE4typeERS8_
FN:1320,_ZSt3getILm4EJPFviiiP8stages_tiEiiiS1_iEERNSt13tuple_elementIXT_ESt5tupleIJDpT0_EEE4typeERS8_
FNDA:0,_ZSt3getILm4EJPFviiiP8stages_tiEiiiS1_iEERNSt13tuple_elementIXT_ESt5tupleIJDpT0_EEE4typeERS8_
FN:1320,_ZSt3getILm5EJPFviiiP8stages_tiEiiiS1_iEERNSt13tuple_elementIXT_ESt5tupleIJDpT0_EEE4typeERS8_
FNDA:0,_ZSt3getILm5EJPFviiiP8stages_tiEiiiS1_iEERNSt13tuple_elementIXT_ESt5tupleIJDpT0_EEE4typeERS8_
FN:1320,_ZSt3getILm0EJPFviP14netlist_subsetiiibEiS1_iiiiEERNSt13tuple_elementIXT_ESt5tupleIJDpT0_EEE4typeERS8_
FNDA:0,_ZSt3getILm0EJPFviP14netlist_subsetiiibEiS1_iiiiEERNSt13tuple_elementIXT_ESt5tupleIJDpT0_EEE4typeERS8_
FN:1320,_ZSt3getILm1EJPFviP14netlist_subsetiiibEiS1_iiiiEERNSt13tuple_elementIXT_ESt5tupleIJDpT0_EEE4typeERS8_
FNDA:0,_ZSt3getILm1EJPFviP14netlist_subsetiiibEiS1_iiiiEERNSt13tuple_elementIXT_ESt5tupleIJDpT0_EEE4typeERS8_
FN:1320,_ZSt3getILm2EJPFviP14netlist_subsetiiibEiS1_iiiiEERNSt13tuple_elementIXT_ESt5tupleIJDpT0_EEE4typeERS8_
FNDA:0,_ZSt3getILm2EJPFviP14netlist_subsetiiibEiS1_iiiiEERNSt13tuple_elementIXT_ESt5tupleIJDpT0_EEE4typeERS8_
FN:1320,_ZSt3getILm3EJPFviP14netlist_subsetiiibEiS1_iiiiEERNSt13tuple_elementIXT_ESt5tupleIJDpT0_EEE4typeERS8_
FNDA:0,_ZSt3getILm3EJPFviP14netlist_subsetiiibEiS1_iiiiEERNSt13tuple_elementIXT_ESt5tupleIJDpT0_EEE4typeERS8_
FN:1320,_ZSt3getILm4EJPFviP14netlist_subsetiiibEiS1_iiiiEERNSt13tuple_elementIXT_ESt5tupleIJDpT0_EEE4typeERS8_
FNDA:0,_ZSt3getILm4EJPFviP14netlist_subsetiiibEiS1_iiiiEERNSt13tuple_elementIXT_ESt5tupleIJDpT0_EEE4typeERS8_
FN:1320,_ZSt3getILm5EJPFviP14netlist_subsetiiibEiS1_iiiiEERNSt13tuple_elementIXT_ESt5tupleIJDpT0_EEE4typeERS8_
FNDA:0,_ZSt3getILm5EJPFviP14netlist_subsetiiibEiS1_iiiiEERNSt13tuple_elementIXT_ESt5tupleIJDpT0_EEE4typeERS8_
FN:1320,_ZSt3getILm6EJPFviP14netlist_subsetiiibEiS1_iiiiEERNSt13tuple_elementIXT_ESt5tupleIJDpT0_EEE4typeERS8_
FNDA:0,_ZSt3getILm6EJPFviP14netlist_subsetiiibEiS1_iiiiEERNSt13tuple_elementIXT_ESt5tupleIJDpT0_EEE4typeERS8_
FN:1320,_ZSt3getILm2EJPFviP14netlist_subsetiiEiS1_iiEERNSt13tuple_elementIXT_ESt5tupleIJDpT0_EEE4typeERS8_
FNDA:0,_ZSt3getILm2EJPFviP14netlist_subsetiiEiS1_iiEERNSt13tuple_elementIXT_ESt5tupleIJDpT0_EEE4typeERS8_
FN:1320,_ZSt3getILm1EJPNSt6thread6_StateESt14default_deleteIS1_EEERNSt13tuple_elementIXT_ESt5tupleIJDpT0_EEE4typeERS9_
FNDA:0,_ZSt3getILm1EJPNSt6thread6_StateESt14default_deleteIS1_EEERNSt13tuple_elementIXT_ESt5tupleIJDpT0_EEE4typeERS9_
FN:1320,_ZSt3getILm0EJOiEERNSt13tuple_elementIXT_ESt5tupleIJDpT0_EEE4typeERS5_
FNDA:0,_ZSt3getILm0EJOiEERNSt13tuple_elementIXT_ESt5tupleIJDpT0_EEE4typeERS5_
FN:1320,_ZSt3getILm0EJRKiEERNSt13tuple_elementIXT_ESt5tupleIJDpT0_EEE4typeERS6_
FNDA:0,_ZSt3getILm0EJRKiEERNSt13tuple_elementIXT_ESt5tupleIJDpT0_EEE4typeERS6_
FN:1320,_ZSt3getILm0EJRKlEERNSt13tuple_elementIXT_ESt5tupleIJDpT0_EEE4typeERS6_
FNDA:0,_ZSt3getILm0EJRKlEERNSt13tuple_elementIXT_ESt5tupleIJDpT0_EEE4typeERS6_
FN:1320,_ZSt3getILm0EJPNSt6thread6_StateESt14default_deleteIS1_EEERNSt13tuple_elementIXT_ESt5tupleIJDpT0_EEE4typeERS9_
FNDA:0,_ZSt3getILm0EJPNSt6thread6_StateESt14default_deleteIS1_EEERNSt13tuple_elementIXT_ESt5tupleIJDpT0_EEE4typeERS9_
FN:1320,_ZSt3getILm3EJPFviP14netlist_subsetiiEiS1_iiEERNSt13tuple_elementIXT_ESt5tupleIJDpT0_EEE4typeERS8_
FNDA:0,_ZSt3getILm3EJPFviP14netlist_subsetiiEiS1_iiEERNSt13tuple_elementIXT_ESt5tupleIJDpT0_EEE4typeERS8_
FN:1320,_ZSt3getILm1EJPFviP14netlist_subsetiiEiS1_iiEERNSt13tuple_elementIXT_ESt5tupleIJDpT0_EEE4typeERS8_
FNDA:0,_ZSt3getILm1EJPFviP14netlist_subsetiiEiS1_iiEERNSt13tuple_elementIXT_ESt5tupleIJDpT0_EEE4typeERS8_
FN:1332,_ZSt3getILm3EJPFviP14netlist_subsetiiEiS1_iiEEONSt13tuple_elementIXT_ESt5tupleIJDpT0_EEE4typeEOS8_
FNDA:0,_ZSt3getILm3EJPFviP14netlist_subsetiiEiS1_iiEEONSt13tuple_elementIXT_ESt5tupleIJDpT0_EEE4typeEOS8_
FN:1332,_ZSt3getILm6EJPFviP14netlist_subsetiiibEiS1_iiiiEEONSt13tuple_elementIXT_ESt5tupleIJDpT0_EEE4typeEOS8_
FNDA:0,_ZSt3getILm6EJPFviP14netlist_subsetiiibEiS1_iiiiEEONSt13tuple_elementIXT_ESt5tupleIJDpT0_EEE4typeEOS8_
FN:1332,_ZSt3getILm0EJPFviP14netlist_subsetiiEiS1_iiEEONSt13tuple_elementIXT_ESt5tupleIJDpT0_EEE4typeEOS8_
FNDA:0,_ZSt3getILm0EJPFviP14netlist_subsetiiEiS1_iiEEONSt13tuple_elementIXT_ESt5tupleIJDpT0_EEE4typeEOS8_
FN:1332,_ZSt3getILm1EJPFviP14netlist_subsetiiEiS1_iiEEONSt13tuple_elementIXT_ESt5tupleIJDpT0_EEE4typeEOS8_
FNDA:0,_ZSt3getILm1EJPFviP14netlist_subsetiiEiS1_iiEEONSt13tuple_elementIXT_ESt5tupleIJDpT0_EEE4typeEOS8_
FN:1332,_ZSt3getILm2EJPFviP14netlist_subsetiiEiS1_iiEEONSt13tuple_elementIXT_ESt5tupleIJDpT0_EEE4typeEOS8_
FNDA:0,_ZSt3getILm2EJPFviP14netlist_subsetiiEiS1_iiEEONSt13tuple_elementIXT_ESt5tupleIJDpT0_EEE4typeEOS8_
FN:1332,_ZSt3getILm4EJPFviP14netlist_subsetiiibEiS1_iiiiEEONSt13tuple_elementIXT_ESt5tupleIJDpT0_EEE4typeEOS8_
FNDA:0,_ZSt3getILm4EJPFviP14netlist_subsetiiibEiS1_iiiiEEONSt13tuple_elementIXT_ESt5tupleIJDpT0_EEE4typeEOS8_
FN:1332,_ZSt3getILm5EJPFviP14netlist_subsetiiibEiS1_iiiiEEONSt13tuple_elementIXT_ESt5tupleIJDpT0_EEE4typeEOS8_
FNDA:0,_ZSt3getILm5EJPFviP14netlist_subsetiiibEiS1_iiiiEEONSt13tuple_elementIXT_ESt5tupleIJDpT0_EEE4typeEOS8_
FN:1332,_ZSt3getILm4EJPFviP14netlist_subsetiiEiS1_iiEEONSt13tuple_elementIXT_ESt5tupleIJDpT0_EEE4typeEOS8_
FNDA:0,_ZSt3getILm4EJPFviP14netlist_subsetiiEiS1_iiEEONSt13tuple_elementIXT_ESt5tupleIJDpT0_EEE4typeEOS8_
FN:1332,_ZSt3getILm1EJPFviP14netlist_subsetiiibEiS1_iiiiEEONSt13tuple_elementIXT_ESt5tupleIJDpT0_EEE4typeEOS8_
FNDA:0,_ZSt3getILm1EJPFviP14netlist_subsetiiibEiS1_iiiiEEONSt13tuple_elementIXT_ESt5tupleIJDpT0_EEE4typeEOS8_
FN:1332,_ZSt3getILm3EJPFviP14netlist_subsetiiibEiS1_iiiiEEONSt13tuple_elementIXT_ESt5tupleIJDpT0_EEE4typeEOS8_
FNDA:0,_ZSt3getILm3EJPFviP14netlist_subsetiiibEiS1_iiiiEEONSt13tuple_elementIXT_ESt5tupleIJDpT0_EEE4typeEOS8_
FN:1332,_ZSt3getILm2EJPFviP14netlist_subsetiiibEiS1_iiiiEEONSt13tuple_elementIXT_ESt5tupleIJDpT0_EEE4typeEOS8_
FNDA:0,_ZSt3getILm2EJPFviP14netlist_subsetiiibEiS1_iiiiEEONSt13tuple_elementIXT_ESt5tupleIJDpT0_EEE4typeEOS8_
FN:1332,_ZSt3getILm0EJPFviiiP8stages_tiEiiiS1_iEEONSt13tuple_elementIXT_ESt5tupleIJDpT0_EEE4typeEOS8_
FNDA:0,_ZSt3getILm0EJPFviiiP8stages_tiEiiiS1_iEEONSt13tuple_elementIXT_ESt5tupleIJDpT0_EEE4typeEOS8_
FN:1332,_ZSt3getILm0EJPFviP14netlist_subsetiiibEiS1_iiiiEEONSt13tuple_elementIXT_ESt5tupleIJDpT0_EEE4typeEOS8_
FNDA:0,_ZSt3getILm0EJPFviP14netlist_subsetiiibEiS1_iiiiEEONSt13tuple_elementIXT_ESt5tupleIJDpT0_EEE4typeEOS8_
FN:1332,_ZSt3getILm5EJPFviiiP8stages_tiEiiiS1_iEEONSt13tuple_elementIXT_ESt5tupleIJDpT0_EEE4typeEOS8_
FNDA:0,_ZSt3getILm5EJPFviiiP8stages_tiEiiiS1_iEEONSt13tuple_elementIXT_ESt5tupleIJDpT0_EEE4typeEOS8_
FN:1332,_ZSt3getILm4EJPFviiiP8stages_tiEiiiS1_iEEONSt13tuple_elementIXT_ESt5tupleIJDpT0_EEE4typeEOS8_
FNDA:0,_ZSt3getILm4EJPFviiiP8stages_tiEiiiS1_iEEONSt13tuple_elementIXT_ESt5tupleIJDpT0_EEE4typeEOS8_
FN:1332,_ZSt3getILm3EJPFviiiP8stages_tiEiiiS1_iEEONSt13tuple_elementIXT_ESt5tupleIJDpT0_EEE4typeEOS8_
FNDA:0,_ZSt3getILm3EJPFviiiP8stages_tiEiiiS1_iEEONSt13tuple_elementIXT_ESt5tupleIJDpT0_EEE4typeEOS8_
FN:1332,_ZSt3getILm2EJPFviiiP8stages_tiEiiiS1_iEEONSt13tuple_elementIXT_ESt5tupleIJDpT0_EEE4typeEOS8_
FNDA:0,_ZSt3getILm2EJPFviiiP8stages_tiEiiiS1_iEEONSt13tuple_elementIXT_ESt5tupleIJDpT0_EEE4typeEOS8_
FN:1332,_ZSt3getILm1EJPFviiiP8stages_tiEiiiS1_iEEONSt13tuple_elementIXT_ESt5tupleIJDpT0_EEE4typeEOS8_
FNDA:0,_ZSt3getILm1EJPFviiiP8stages_tiEiiiS1_iEEONSt13tuple_elementIXT_ESt5tupleIJDpT0_EEE4typeEOS8_
FN:1482,_ZSt16forward_as_tupleIJiEESt5tupleIJDpOT_EES3_
FNDA:0,_ZSt16forward_as_tupleIJiEESt5tupleIJDpOT_EES3_
FN:1658,_ZNSt4pairIKlSt6vectorIaSaIaEEEC2IJRS0_EJEEESt21piecewise_construct_tSt5tupleIJDpT_EES8_IJDpT0_EE
FNDA:0,_ZNSt4pairIKlSt6vectorIaSaIaEEEC2IJRS0_EJEEESt21piecewise_construct_tSt5tupleIJDpT_EES8_IJDpT0_EE
FN:1658,_ZNSt4pairIKiSt3mapIlSt6vectorIaSaIaEESt4lessIlESaIS_IKlS4_EEEEC2IJRS0_EJEEESt21piecewise_construct_tSt5tupleIJDpT_EESF_IJDpT0_EE
FNDA:0,_ZNSt4pairIKiSt3mapIlSt6vectorIaSaIaEESt4lessIlESaIS_IKlS4_EEEEC2IJRS0_EJEEESt21piecewise_construct_tSt5tupleIJDpT_EESF_IJDpT0_EE
FN:1658,_ZNSt4pairIKiiEC2IJOiEJEEESt21piecewise_construct_tSt5tupleIJDpT_EES5_IJDpT0_EE
FNDA:0,_ZNSt4pairIKiiEC2IJOiEJEEESt21piecewise_construct_tSt5tupleIJDpT_EES5_IJDpT0_EE
FN:1670,_ZNSt4pairIKlSt6vectorIaSaIaEEEC2IJRS0_EJLm0EEJEJEEERSt5tupleIJDpT_EERS7_IJDpT1_EESt12_Index_tupleIJXspT0_EEESG_IJXspT2_EEE
FNDA:0,_ZNSt4pairIKlSt6vectorIaSaIaEEEC2IJRS0_EJLm0EEJEJEEERSt5tupleIJDpT_EERS7_IJDpT1_EESt12_Index_tupleIJXspT0_EEESG_IJXspT2_EEE
FN:1670,_ZNSt4pairIKiSt3mapIlSt6vectorIaSaIaEESt4lessIlESaIS_IKlS4_EEEEC2IJRS0_EJLm0EEJEJEEERSt5tupleIJDpT_EERSE_IJDpT1_EESt12_Index_tupleIJXspT0_EEESN_IJXspT2_EEE
FNDA:0,_ZNSt4pairIKiSt3mapIlSt6vectorIaSaIaEESt4lessIlESaIS_IKlS4_EEEEC2IJRS0_EJLm0EEJEJEEERSt5tupleIJDpT_EERSE_IJDpT1_EESt12_Index_tupleIJXspT0_EEESN_IJXspT2_EEE
FN:1670,_ZNSt4pairIKiiEC2IJOiEJLm0EEJEJEEERSt5tupleIJDpT_EERS4_IJDpT1_EESt12_Index_tupleIJXspT0_EEESD_IJXspT2_EEE
FNDA:0,_ZNSt4pairIKiiEC2IJOiEJLm0EEJEJEEERSt5tupleIJDpT_EERS4_IJDpT1_EESt12_Index_tupleIJXspT0_EEESD_IJXspT2_EEE
DA:76,0
DA:77,0
DA:113,0
DA:122,0
DA:123,0
DA:125,0
DA:126,0
DA:125,0
DA:126,0
DA:125,0
DA:126,0
DA:125,0
DA:126,0
DA:125,0
DA:126,0
DA:132,0
DA:133,0
DA:132,0
DA:133,0
DA:132,0
DA:133,0
DA:132,0
DA:133,0
DA:132,0
DA:133,0
DA:132,0
DA:133,0
DA:132,0
DA:133,0
DA:132,0
DA:133,0
DA:132,0
DA:133,0
DA:132,0
DA:133,0
DA:132,0
DA:133,0
DA:132,0
DA:133,0
DA:132,0
DA:133,0
DA:132,0
DA:133,0
DA:132,0
DA:133,0
DA:132,0
DA:133,0
DA:132,0
DA:133,0
DA:132,0
DA:133,0
DA:132,0
DA:133,0
DA:160,0
DA:160,0
DA:160,0
DA:160,0
DA:160,0
DA:160,0
DA:160,0
DA:160,0
DA:160,0
DA:160,0
DA:160,0
DA:160,0
DA:160,0
DA:160,0
DA:160,0
DA:195,0
DA:195,0
DA:195,0
DA:195,0
DA:195,0
DA:195,0
DA:195,0
DA:195,0
DA:195,0
DA:195,0
DA:195,0
DA:195,0
DA:195,0
DA:195,0
DA:195,0
DA:195,0
DA:201,0
DA:201,0
DA:201,0
DA:201,0
DA:201,0
DA:201,0
DA:201,0
DA:201,0
DA:201,0
DA:201,0
DA:201,0
DA:201,0
DA:201,0
DA:201,0
DA:201,0
DA:206,0
DA:207,0
DA:216,0
DA:218,0
DA:216,0
DA:218,0
DA:216,0
DA:218,0
DA:216,0
DA:218,0
DA:216,0
DA:218,0
DA:216,0
DA:218,0
DA:216,0
DA:218,0
DA:216,0
DA:218,0
DA:216,0
DA:218,0
DA:216,0
DA:218,0
DA:216,0
DA:218,0
DA:216,0
DA:218,0
DA:216,0
DA:218,0
DA:216,0
DA:218,0
DA:216,0
DA:218,0
DA:227,0
DA:230,0
DA:231,0
DA:227,0
DA:230,0
DA:231,0
DA:227,0
DA:230,0
DA:231,0
DA:227,0
DA:230,0
DA:231,0
DA:227,0
DA:230,0
DA:231,0
DA:227,0
DA:230,0
DA:231,0
DA:227,0
DA:230,0
DA:231,0
DA:227,0
DA:230,0
DA:231,0
DA:227,0
DA:230,0
DA:231,0
DA:227,0
DA:230,0
DA:231,0
DA:227,0
DA:230,0
DA:231,0
DA:227,0
DA:230,0
DA:231,0
DA:227,0
DA:230,0
DA:231,0
DA:227,0
DA:230,0
DA:231,0
DA:227,0
DA:230,0
DA:231,0
DA:334,0
DA:334,0
DA:334,0
DA:334,0
DA:334,0
DA:334,0
DA:334,0
DA:339,0
DA:340,0
DA:343,0
DA:344,0
DA:343,0
DA:344,0
DA:348,0
DA:349,0
DA:348,0
DA:349,0
DA:348,0
DA:349,0
DA:348,0
DA:349,0
DA:358,0
DA:360,0
DA:358,0
DA:360,0
DA:358,0
DA:360,0
DA:358,0
DA:360,0
DA:358,0
DA:360,0
DA:358,0
DA:360,0
DA:588,0
DA:589,0
DA:588,0
DA:589,0
DA:626,0
DA:627,0
DA:626,0
DA:627,0
DA:626,0
DA:627,0
DA:626,0
DA:627,0
DA:642,0
DA:642,0
DA:642,0
DA:642,0
DA:642,0
DA:642,0
DA:918,0
DA:919,0
DA:1309,0
DA:1310,0
DA:1309,0
DA:1310,0
DA:1309,0
DA:1310,0
DA:1309,0
DA:1310,0
DA:1309,0
DA:1310,0
DA:1309,0
DA:1310,0
DA:1309,0
DA:1310,0
DA:1309,0
DA:1310,0
DA:1309,0
DA:1310,0
DA:1309,0
DA:1310,0
DA:1309,0
DA:1310,0
DA:1309,0
DA:1310,0
DA:1309,0
DA:1310,0
DA:1309,0
DA:1310,0
DA:1309,0
DA:1310,0
DA:1309,0
DA:1310,0
DA:1309,0
DA:1310,0
DA:1309,0
DA:1310,0
DA:1309,0
DA:1310,0
DA:1309,0
DA:1310,0
DA:1309,0
DA:1310,0
DA:1309,0
DA:1310,0
DA:1309,0
DA:1310,0
DA:1320,0
DA:1321,0
DA:1320,0
DA:1321,0
DA:1320,0
DA:1321,0
DA:1320,0
DA:1321,0
DA:1320,0
DA:1321,0
DA:1320,0
DA:1321,0
DA:1320,0
DA:1321,0
DA:1320,0
DA:1321,0
DA:1320,0
DA:1321,0
DA:1320,0
DA:1321,0
DA:1320,0
DA:1321,0
DA:1320,0
DA:1321,0
DA:1320,0
DA:1321,0
DA:1320,0
DA:1321,0
DA:1320,0
DA:1321,0
DA:1320,0
DA:1321,0
DA:1320,0
DA:1321,0
DA:1320,0
DA:1321,0
DA:1320,0
DA:1321,0
DA:1320,0
DA:1321,0
DA:1320,0
DA:1321,0
DA:1320,0
DA:1321,0
DA:1320,0
DA:1321,0
DA:1332,0
DA:1335,0
DA:1332,0
DA:1335,0
DA:1332,0
DA:1335,0
DA:1332,0
DA:1335,0
DA:1332,0
DA:1335,0
DA:1332,0
DA:1335,0
DA:1332,0
DA:1335,0
DA:1332,0
DA:1335,0
DA:1332,0
DA:1335,0
DA:1332,0
DA:1335,0
DA:1332,0
DA:1335,0
DA:1332,0
DA:1335,0
DA:1332,0
DA:1335,0
DA:1332,0
DA:1335,0
DA:1332,0
DA:1335,0
DA:1332,0
DA:1335,0
DA:1332,0
DA:1335,0
DA:1332,0
DA:1335,0
DA:1482,0
DA:1483,0
DA:1658,0
DA:1663,0
DA:1664,0
DA:1658,0
DA:1663,0
DA:1664,0
DA:1658,0
DA:1663,0
DA:1664,0
DA:1670,0
DA:1673,0
DA:1674,0
DA:1675,0
DA:1670,0
DA:1673,0
DA:1674,0
DA:1675,0
DA:1670,0
DA:1673,0
DA:1674,0
DA:1675,0
end_of_record
SF:/usr/include/c++/9/initializer_list
FN:71,_ZNKSt16initializer_listISt4pairIKiSt3mapIlSt6vectorIaSaIaEESt4lessIlESaIS0_IKlS5_EEEEE4sizeEv
FNDA:0,_ZNKSt16initializer_listISt4pairIKiSt3mapIlSt6vectorIaSaIaEESt4lessIlESaIS0_IKlS5_EEEEE4sizeEv
FN:71,_ZNKSt16initializer_listISt4pairIKlSt6vectorIaSaIaEEEE4sizeEv
FNDA:0,_ZNKSt16initializer_listISt4pairIKlSt6vectorIaSaIaEEEE4sizeEv
FN:75,_ZNKSt16initializer_listISt4pairIKiSt3mapIlSt6vectorIaSaIaEESt4lessIlESaIS0_IKlS5_EEEEE5beginEv
FNDA:0,_ZNKSt16initializer_listISt4pairIKiSt3mapIlSt6vectorIaSaIaEESt4lessIlESaIS0_IKlS5_EEEEE5beginEv
FN:75,_ZNKSt16initializer_listISt4pairIKlSt6vectorIaSaIaEEEE5beginEv
FNDA:0,_ZNKSt16initializer_listISt4pairIKlSt6vectorIaSaIaEEEE5beginEv
FN:79,_ZNKSt16initializer_listISt4pairIKiSt3mapIlSt6vectorIaSaIaEESt4lessIlESaIS0_IKlS5_EEEEE3endEv
FNDA:0,_ZNKSt16initializer_listISt4pairIKiSt3mapIlSt6vectorIaSaIaEESt4lessIlESaIS0_IKlS5_EEEEE3endEv
FN:79,_ZNKSt16initializer_listISt4pairIKlSt6vectorIaSaIaEEEE3endEv
FNDA:0,_ZNKSt16initializer_listISt4pairIKlSt6vectorIaSaIaEEEE3endEv
DA:71,0
DA:71,0
DA:75,0
DA:75,0
DA:79,0
DA:79,0
end_of_record
SF:/usr/include/c++/9/bits/allocator.h
FN:138,_ZNSaISt13_Rb_tree_nodeISt4pairIKlSt6vectorIaSaIaEEEEEC2Ev
FNDA:0,_ZNSaISt13_Rb_tree_nodeISt4pairIKlSt6vectorIaSaIaEEEEEC2Ev
FN:138,_ZNSaINSt8__detail10_Hash_nodeIlLb0EEEEC2Ev
FNDA:0,_ZNSaINSt8__detail10_Hash_nodeIlLb0EEEEC2Ev
FN:138,_ZNSaINSt8__detail10_Hash_nodeISt4pairIKNSt7__cxx1112basic_stringIcSt11char_traitsIcESaIcEEES7_ELb1EEEEC2Ev
FNDA:0,_ZNSaINSt8__detail10_Hash_nodeISt4pairIKNSt7__cxx1112basic_stringIcSt11char_traitsIcESaIcEEES7_ELb1EEEEC2Ev
FN:138,_ZNSaISt6threadEC2Ev
FNDA:0,_ZNSaISt6threadEC2Ev
FN:138,_ZNSaISt13_Rb_tree_nodeISt4pairIKiiEEEC2Ev
FNDA:0,_ZNSaISt13_Rb_tree_nodeISt4pairIKiiEEEC2Ev
FN:138,_ZNSaI12AtomicBufferEC2Ev
FNDA:0,_ZNSaI12AtomicBufferEC2Ev
FN:138,_ZNSaISt6vectorIaSaIaEEEC2Ev
FNDA:0,_ZNSaISt6vectorIaSaIaEEEC2Ev
FN:138,_ZNSaIaEC2Ev
FNDA:0,_ZNSaIaEC2Ev
FN:138,_ZNSaIP9nnode_t_tEC2Ev
FNDA:0,_ZNSaIP9nnode_t_tEC2Ev
FN:138,_ZNSaINSt8__detail10_Hash_nodeIP9nnode_t_tLb0EEEEC2Ev
FNDA:0,_ZNSaINSt8__detail10_Hash_nodeIP9nnode_t_tLb0EEEEC2Ev
FN:141,_ZNSaINSt7__cxx1112basic_stringIcSt11char_traitsIcESaIcEEEEC2ERKS5_
FNDA:0,_ZNSaINSt7__cxx1112basic_stringIcSt11char_traitsIcESaIcEEEEC2ERKS5_
FN:141,_ZNSaISt6vectorIaSaIaEEEC2ERKS2_
FNDA:0,_ZNSaISt6vectorIaSaIaEEEC2ERKS2_
FN:141,_ZNSaIaEC2ERKS_
FNDA:0,_ZNSaIaEC2ERKS_
FN:141,_ZNSaI12AtomicBufferEC2ERKS0_
FNDA:0,_ZNSaI12AtomicBufferEC2ERKS0_
FN:141,_ZNSaISt13_Rb_tree_nodeISt4pairIKlSt6vectorIaSaIaEEEEEC2ERKS7_
FNDA:0,_ZNSaISt13_Rb_tree_nodeISt4pairIKlSt6vectorIaSaIaEEEEEC2ERKS7_
FN:151,_ZNSaIPNSt8__detail15_Hash_node_baseEEC2INS_10_Hash_nodeIP9nnode_t_tLb0EEEEERKSaIT_E
FNDA:0,_ZNSaIPNSt8__detail15_Hash_node_baseEEC2INS_10_Hash_nodeIP9nnode_t_tLb0EEEEERKSaIT_E
FN:151,_ZNSaIPP9nnode_t_tEC2IS0_EERKSaIT_E
FNDA:0,_ZNSaIPP9nnode_t_tEC2IS0_EERKSaIT_E
FN:151,_ZNSaIPNSt8__detail15_Hash_node_baseEEC2INS_10_Hash_nodeISt4pairIKNSt7__cxx1112basic_stringIcSt11char_traitsIcESaIcEEESB_ELb1EEEEERKSaIT_E
FNDA:0,_ZNSaIPNSt8__detail15_Hash_node_baseEEC2INS_10_Hash_nodeISt4pairIKNSt7__cxx1112basic_stringIcSt11char_traitsIcESaIcEEESB_ELb1EEEEERKSaIT_E
FN:151,_ZNSaIPNSt8__detail15_Hash_node_baseEEC2INS_10_Hash_nodeIlLb0EEEEERKSaIT_E
FNDA:0,_ZNSaIPNSt8__detail15_Hash_node_baseEEC2INS_10_Hash_nodeIlLb0EEEEERKSaIT_E
FN:151,_ZNSaISt23_Sp_counted_ptr_inplaceI12AtomicBufferSaIS0_ELN9__gnu_cxx12_Lock_policyE2EEEC2IS0_EERKSaIT_E
FNDA:0,_ZNSaISt23_Sp_counted_ptr_inplaceI12AtomicBufferSaIS0_ELN9__gnu_cxx12_Lock_policyE2EEEC2IS0_EERKSaIT_E
FN:153,_ZNSaINSt8__detail10_Hash_nodeIP9nnode_t_tLb0EEEED2Ev
FNDA:0,_ZNSaINSt8__detail10_Hash_nodeIP9nnode_t_tLb0EEEED2Ev
FN:153,_ZNSaISt13_Rb_tree_nodeISt4pairIKiiEEED2Ev
FNDA:0,_ZNSaISt13_Rb_tree_nodeISt4pairIKiiEEED2Ev
FN:153,_ZNSaIaED2Ev
FNDA:0,_ZNSaIaED2Ev
FN:153,_ZNSaISt6vectorIaSaIaEEED2Ev
FNDA:0,_ZNSaISt6vectorIaSaIaEEED2Ev
FN:153,_ZNSaISt6threadED2Ev
FNDA:0,_ZNSaISt6threadED2Ev
FN:153,_ZNSaINSt8__detail10_Hash_nodeISt4pairIKNSt7__cxx1112basic_stringIcSt11char_traitsIcESaIcEEES7_ELb1EEEED2Ev
FNDA:0,_ZNSaINSt8__detail10_Hash_nodeISt4pairIKNSt7__cxx1112basic_stringIcSt11char_traitsIcESaIcEEES7_ELb1EEEED2Ev
FN:153,_ZNSaINSt8__detail10_Hash_nodeIlLb0EEEED2Ev
FNDA:0,_ZNSaINSt8__detail10_Hash_nodeIlLb0EEEED2Ev
FN:153,_ZNSaI12AtomicBufferED2Ev
FNDA:0,_ZNSaI12AtomicBufferED2Ev
FN:153,_ZNSaINSt7__cxx1112basic_stringIcSt11char_traitsIcESaIcEEEED2Ev
FNDA:0,_ZNSaINSt7__cxx1112basic_stringIcSt11char_traitsIcESaIcEEEED2Ev
FN:153,_ZNSaIP9nnode_t_tED2Ev
FNDA:0,_ZNSaIP9nnode_t_tED2Ev
FN:153,_ZNSaIPP9nnode_t_tED2Ev
FNDA:0,_ZNSaIPP9nnode_t_tED2Ev
FN:153,_ZNSaIPNSt8__detail15_Hash_node_baseEED2Ev
FNDA:0,_ZNSaIPNSt8__detail15_Hash_node_baseEED2Ev
FN:153,_ZNSaISt23_Sp_counted_ptr_inplaceI12AtomicBufferSaIS0_ELN9__gnu_cxx12_Lock_policyE2EEED2Ev
FNDA:0,_ZNSaISt23_Sp_counted_ptr_inplaceI12AtomicBufferSaIS0_ELN9__gnu_cxx12_Lock_policyE2EEED2Ev
FN:153,_ZNSaISt13_Rb_tree_nodeISt4pairIKlSt6vectorIaSaIaEEEEED2Ev
FNDA:0,_ZNSaISt13_Rb_tree_nodeISt4pairIKlSt6vectorIaSaIaEEEEED2Ev
FN:160,_ZStneRKSaIaES1_
FNDA:0,_ZStneRKSaIaES1_
DA:138,0
DA:138,0
DA:138,0
DA:138,0
DA:138,0
DA:138,0
DA:138,0
DA:138,0
DA:138,0
DA:138,0
DA:141,0
DA:142,0
DA:141,0
DA:142,0
DA:141,0
DA:142,0
DA:141,0
DA:142,0
DA:141,0
DA:142,0
DA:151,0
DA:151,0
DA:151,0
DA:151,0
DA:151,0
DA:153,0
DA:153,0
DA:153,0
DA:153,0
DA:153,0
DA:153,0
DA:153,0
DA:153,0
DA:153,0
DA:153,0
DA:153,0
DA:153,0
DA:153,0
DA:153,0
DA:160,0
DA:161,0
end_of_record
SF:/usr/include/c++/9/bits/deque.tcc
FN:479,_ZNSt5dequeIP9nnode_t_tSaIS1_EE16_M_push_back_auxIJRKS1_EEEvDpOT_
FNDA:0,_ZNSt5dequeIP9nnode_t_tSaIS1_EE16_M_push_back_auxIJRKS1_EEEvDpOT_
FN:571,_ZNSt5dequeIP9nnode_t_tSaIS1_EE16_M_pop_front_auxEv
FNDA:0,_ZNSt5dequeIP9nnode_t_tSaIS1_EE16_M_pop_front_auxEv
FN:926,_ZNSt5dequeIP9nnode_t_tSaIS1_EE17_M_reallocate_mapEmb
FNDA:0,_ZNSt5dequeIP9nnode_t_tSaIS1_EE17_M_reallocate_mapEmb
DA:479,0
DA:487,0
DA:488,0
DA:491,0
DA:492,0
DA:496,0
DA:502,0
DA:504,0
DA:511,0
DA:571,0
DA:574,0
DA:576,0
DA:577,0
DA:578,0
DA:579,0
DA:926,0
DA:929,0
DA:930,0
DA:931,0
DA:934,0
DA:936,0
DA:937,0
DA:938,0
DA:939,0
DA:940,0
DA:941,0
DA:944,0
DA:945,0
DA:946,0
DA:950,0
DA:951,0
DA:954,0
DA:955,0
DA:956,0
DA:957,0
DA:958,0
DA:960,0
DA:962,0
DA:963,0
DA:966,0
DA:967,0
DA:968,0
end_of_record
SF:/usr/include/c++/9/bits/basic_string.h
FN:243,_ZNSt7__cxx1112basic_stringIcSt11char_traitsIcESaIcEE16_M_construct_auxIPcEEvT_S7_St12__false_type
FNDA:0,_ZNSt7__cxx1112basic_stringIcSt11char_traitsIcESaIcEE16_M_construct_auxIPcEEvT_S7_St12__false_type
FN:243,_ZNSt7__cxx1112basic_stringIcSt11char_traitsIcESaIcEE16_M_construct_auxIPKcEEvT_S8_St12__false_type
FNDA:0,_ZNSt7__cxx1112basic_stringIcSt11char_traitsIcESaIcEE16_M_construct_auxIPKcEEvT_S8_St12__false_type
FN:263,_ZNSt7__cxx1112basic_stringIcSt11char_traitsIcESaIcEE12_M_constructIPcEEvT_S7_
FNDA:0,_ZNSt7__cxx1112basic_stringIcSt11char_traitsIcESaIcEE12_M_constructIPcEEvT_S7_
FN:263,_ZNSt7__cxx1112basic_stringIcSt11char_traitsIcESaIcEE12_M_constructIPKcEEvT_S8_
FNDA:0,_ZNSt7__cxx1112basic_stringIcSt11char_traitsIcESaIcEE12_M_constructIPKcEEvT_S8_
FN:6149,_ZSteqIcEN9__gnu_cxx11__enable_ifIXsrSt9__is_charIT_E7__valueEbE6__typeERKNSt7__cxx1112basic_stringIS3_St11char_traitsIS3_ESaIS3_EEESE_
FNDA:0,_ZSteqIcEN9__gnu_cxx11__enable_ifIXsrSt9__is_charIT_E7__valueEbE6__typeERKNSt7__cxx1112basic_stringIS3_St11char_traitsIS3_ESaIS3_EEESE_
FN:6175,_ZSteqIcSt11char_traitsIcESaIcEEbRKNSt7__cxx1112basic_stringIT_T0_T1_EEPKS5_
FNDA:0,_ZSteqIcSt11char_traitsIcESaIcEEbRKNSt7__cxx1112basic_stringIT_T0_T1_EEPKS5_
FN:6734,_ZNKSt4hashINSt7__cxx1112basic_stringIcSt11char_traitsIcESaIcEEEEclERKS5_
FNDA:0,_ZNKSt4hashINSt7__cxx1112basic_stringIcSt11char_traitsIcESaIcEEEEclERKS5_
DA:243,0
DA:247,0
DA:248,0
DA:243,0
DA:247,0
DA:248,0
DA:263,0
DA:266,0
DA:267,0
DA:263,0
DA:266,0
DA:267,0
DA:6149,0
DA:6151,0
DA:6152,0
DA:6153,0
DA:6175,0
DA:6177,0
DA:6734,0
DA:6735,0
end_of_record
SF:/usr/include/c++/9/bits/cpp_type_traits.h
FN:428,_ZSt12__miter_baseIPPP9nnode_t_tET_S4_
FNDA:0,_ZSt12__miter_baseIPPP9nnode_t_tET_S4_
FN:428,_ZSt12__miter_baseIPaET_S1_
FNDA:0,_ZSt12__miter_baseIPaET_S1_
FN:428,_ZSt12__miter_baseIN9__gnu_cxx17__normal_iteratorIPKaSt6vectorIaSaIaEEEEET_S8_
FNDA:0,_ZSt12__miter_baseIN9__gnu_cxx17__normal_iteratorIPKaSt6vectorIaSaIaEEEEET_S8_
DA:428,0
DA:429,0
DA:428,0
DA:429,0
DA:428,0
DA:429,0
end_of_record
SF:/usr/include/c++/9/bits/std_mutex.h
FN:98,_ZNSt5mutex4lockEv
FNDA:0,_ZNSt5mutex4lockEv
FN:115,_ZNSt5mutex6unlockEv
FNDA:0,_ZNSt5mutex6unlockEv
DA:98,0
DA:100,0
DA:103,0
DA:104,0
DA:105,0
DA:115,0
DA:118,0
DA:119,0
end_of_record
SF:/usr/include/c++/9/bits/stl_queue.h
FN:160,_ZNSt5queueIP9nnode_t_tSt5dequeIS1_SaIS1_EEEC2IS4_vEEv
FNDA:0,_ZNSt5queueIP9nnode_t_tSt5dequeIS1_SaIS1_EEEC2IS4_vEEv
FN:197,_ZNKSt5queueIP9nnode_t_tSt5dequeIS1_SaIS1_EEE5emptyEv
FNDA:0,_ZNKSt5queueIP9nnode_t_tSt5dequeIS1_SaIS1_EEE5emptyEv
FN:210,_ZNSt5queueIP9nnode_t_tSt5dequeIS1_SaIS1_EEE5frontEv
FNDA:0,_ZNSt5queueIP9nnode_t_tSt5dequeIS1_SaIS1_EEE5frontEv
FN:259,_ZNSt5queueIP9nnode_t_tSt5dequeIS1_SaIS1_EEE4pushERKS1_
FNDA:0,_ZNSt5queueIP9nnode_t_tSt5dequeIS1_SaIS1_EEE4pushERKS1_
FN:292,_ZNSt5queueIP9nnode_t_tSt5dequeIS1_SaIS1_EEE3popEv
FNDA:0,_ZNSt5queueIP9nnode_t_tSt5dequeIS1_SaIS1_EEE3popEv
DA:160,0
DA:161,0
DA:197,0
DA:198,0
DA:210,0
DA:213,0
DA:259,0
DA:260,0
DA:292,0
DA:295,0
DA:296,0
end_of_record
SF:/usr/include/c++/9/bits/stl_algobase.h
FN:198,_ZSt3minImERKT_S2_S2_
FNDA:0,_ZSt3minImERKT_S2_S2_
FN:198,_ZSt3minIiERKT_S2_S2_
FNDA:0,_ZSt3minIiERKT_S2_S2_
FN:222,_ZSt3maxIiERKT_S2_S2_
FNDA:0,_ZSt3maxIiERKT_S2_S2_
FN:222,_ZSt3maxImERKT_S2_S2_
FNDA:0,_ZSt3maxImERKT_S2_S2_
FN:222,_ZSt3maxIlERKT_S2_S2_
FNDA:0,_ZSt3maxIlERKT_S2_S2_
FN:280,_ZSt12__niter_baseIPPP9nnode_t_tET_S4_
FNDA:0,_ZSt12__niter_baseIPPP9nnode_t_tET_S4_
FN:280,_ZSt12__niter_baseIPaET_S1_
FNDA:0,_ZSt12__niter_baseIPaET_S1_
FN:280,_ZSt12__niter_baseIPSt6threadET_S2_
FNDA:0,_ZSt12__niter_baseIPSt6threadET_S2_
FN:289,_ZSt12__niter_wrapIN9__gnu_cxx17__normal_iteratorIPaSt6vectorIaSaIaEEEES2_ET_S7_T0_
FNDA:0,_ZSt12__niter_wrapIN9__gnu_cxx17__normal_iteratorIPaSt6vectorIaSaIaEEEES2_ET_S7_T0_
FN:295,_ZSt12__niter_wrapIPPP9nnode_t_tET_RKS4_S4_
FNDA:0,_ZSt12__niter_wrapIPPP9nnode_t_tET_RKS4_S4_
FN:295,_ZSt12__niter_wrapIPaET_RKS1_S1_
FNDA:0,_ZSt12__niter_wrapIPaET_RKS1_S1_
FN:375,_ZNSt11__copy_moveILb0ELb1ESt26random_access_iterator_tagE8__copy_mIPP9nnode_t_tEEPT_PKS6_S9_S7_
FNDA:0,_ZNSt11__copy_moveILb0ELb1ESt26random_access_iterator_tagE8__copy_mIPP9nnode_t_tEEPT_PKS6_S9_S7_
FN:375,_ZNSt11__copy_moveILb0ELb1ESt26random_access_iterator_tagE8__copy_mIaEEPT_PKS3_S6_S4_
FNDA:0,_ZNSt11__copy_moveILb0ELb1ESt26random_access_iterator_tagE8__copy_mIaEEPT_PKS3_S6_S4_
FN:393,_ZSt13__copy_move_aILb0EPPP9nnode_t_tS3_ET1_T0_S5_S4_
FNDA:0,_ZSt13__copy_move_aILb0EPPP9nnode_t_tS3_ET1_T0_S5_S4_
FN:393,_ZSt13__copy_move_aILb0EPaS0_ET1_T0_S2_S1_
FNDA:0,_ZSt13__copy_move_aILb0EPaS0_ET1_T0_S2_S1_
FN:393,_ZSt13__copy_move_aILb0EPKaPaET1_T0_S4_S3_
FNDA:0,_ZSt13__copy_move_aILb0EPKaPaET1_T0_S4_S3_
FN:438,_ZSt14__copy_move_a2ILb0EN9__gnu_cxx17__normal_iteratorIPKaSt6vectorIaSaIaEEEEPaET1_T0_SA_S9_
FNDA:0,_ZSt14__copy_move_a2ILb0EN9__gnu_cxx17__normal_iteratorIPKaSt6vectorIaSaIaEEEEPaET1_T0_SA_S9_
FN:438,_ZSt14__copy_move_a2ILb0EPPP9nnode_t_tS3_ET1_T0_S5_S4_
FNDA:0,_ZSt14__copy_move_a2ILb0EPPP9nnode_t_tS3_ET1_T0_S5_S4_
FN:438,_ZSt14__copy_move_a2ILb0EN9__gnu_cxx17__normal_iteratorIPKaSt6vectorIaSaIaEEEENS1_IPaS6_EEET1_T0_SB_SA_
FNDA:0,_ZSt14__copy_move_a2ILb0EN9__gnu_cxx17__normal_iteratorIPKaSt6vectorIaSaIaEEEENS1_IPaS6_EEET1_T0_SB_SA_
FN:438,_ZSt14__copy_move_a2ILb0EPaS0_ET1_T0_S2_S1_
FNDA:0,_ZSt14__copy_move_a2ILb0EPaS0_ET1_T0_S2_S1_
FN:465,_ZSt4copyIPPP9nnode_t_tS3_ET0_T_S5_S4_
FNDA:0,_ZSt4copyIPPP9nnode_t_tS3_ET0_T_S5_S4_
FN:465,_ZSt4copyIN9__gnu_cxx17__normal_iteratorIPKaSt6vectorIaSaIaEEEENS1_IPaS6_EEET0_T_SB_SA_
FNDA:0,_ZSt4copyIN9__gnu_cxx17__normal_iteratorIPKaSt6vectorIaSaIaEEEENS1_IPaS6_EEET0_T_SB_SA_
FN:465,_ZSt4copyIPaS0_ET0_T_S2_S1_
FNDA:0,_ZSt4copyIPaS0_ET0_T_S2_S1_
FN:465,_ZSt4copyIN9__gnu_cxx17__normal_iteratorIPKaSt6vectorIaSaIaEEEEPaET0_T_SA_S9_
FNDA:0,_ZSt4copyIN9__gnu_cxx17__normal_iteratorIPKaSt6vectorIaSaIaEEEEPaET0_T_SA_S9_
FN:577,_ZNSt20__copy_move_backwardILb0ELb1ESt26random_access_iterator_tagE13__copy_move_bIPP9nnode_t_tEEPT_PKS6_S9_S7_
FNDA:0,_ZNSt20__copy_move_backwardILb0ELb1ESt26random_access_iterator_tagE13__copy_move_bIPP9nnode_t_tEEPT_PKS6_S9_S7_
FN:595,_ZSt22__copy_move_backward_aILb0EPPP9nnode_t_tS3_ET1_T0_S5_S4_
FNDA:0,_ZSt22__copy_move_backward_aILb0EPPP9nnode_t_tS3_ET1_T0_S5_S4_
FN:613,_ZSt23__copy_move_backward_a2ILb0EPPP9nnode_t_tS3_ET1_T0_S5_S4_
FNDA:0,_ZSt23__copy_move_backward_a2ILb0EPPP9nnode_t_tS3_ET1_T0_S5_S4_
FN:641,_ZSt13copy_backwardIPPP9nnode_t_tS3_ET0_T_S5_S4_
FNDA:0,_ZSt13copy_backwardIPPP9nnode_t_tS3_ET0_T_S5_S4_
FN:721,_ZSt8__fill_aIaEN9__gnu_cxx11__enable_ifIXsrSt9__is_byteIT_E7__valueEvE6__typeEPS3_S7_RKS3_
FNDA:0,_ZSt8__fill_aIaEN9__gnu_cxx11__enable_ifIXsrSt9__is_byteIT_E7__valueEvE6__typeEPS3_S7_RKS3_
FN:779,_ZSt10__fill_n_aImaEN9__gnu_cxx11__enable_ifIXsrSt9__is_byteIT0_E7__valueEPS3_E6__typeES5_T_RKS3_
FNDA:0,_ZSt10__fill_n_aImaEN9__gnu_cxx11__enable_ifIXsrSt9__is_byteIT0_E7__valueEPS3_E6__typeES5_T_RKS3_
FN:802,_ZSt6fill_nIPamaET_S1_T0_RKT1_
FNDA:0,_ZSt6fill_nIPamaET_S1_T0_RKT1_
DA:198,0
DA:203,0
DA:204,0
DA:205,0
DA:198,0
DA:203,0
DA:204,0
DA:205,0
DA:222,0
DA:227,0
DA:228,0
DA:229,0
DA:222,0
DA:227,0
DA:228,0
DA:229,0
DA:222,0
DA:227,0
DA:228,0
DA:229,0
DA:280,0
DA:282,0
DA:280,0
DA:282,0
DA:280,0
DA:282,0
DA:289,0
DA:290,0
DA:295,0
DA:296,0
DA:295,0
DA:296,0
DA:375,0
DA:384,0
DA:385,0
DA:386,0
DA:387,0
DA:375,0
DA:384,0
DA:385,0
DA:386,0
DA:387,0
DA:393,0
DA:398,0
DA:404,0
DA:393,0
DA:398,0
DA:404,0
DA:393,0
DA:398,0
DA:404,0
DA:438,0
DA:440,0
DA:443,0
DA:438,0
DA:440,0
DA:443,0
DA:438,0
DA:440,0
DA:443,0
DA:438,0
DA:440,0
DA:443,0
DA:465,0
DA:474,0
DA:465,0
DA:474,0
DA:465,0
DA:474,0
DA:465,0
DA:474,0
DA:577,0
DA:586,0
DA:587,0
DA:588,0
DA:589,0
DA:595,0
DA:600,0
DA:606,0
DA:608,0
DA:613,0
DA:615,0
DA:618,0
DA:641,0
DA:652,0
DA:721,0
DA:723,0
DA:724,0
DA:725,0
DA:726,0
DA:779,0
DA:781,0
DA:782,0
DA:802,0
DA:808,0
DA:809,0
end_of_record
SF:/usr/include/c++/9/bits/shared_ptr_base.h
FN:117,_ZNSt16_Sp_counted_baseILN9__gnu_cxx12_Lock_policyE2EEC2Ev
FNDA:0,_ZNSt16_Sp_counted_baseILN9__gnu_cxx12_Lock_policyE2EEC2Ev
FN:121,_ZNSt16_Sp_counted_baseILN9__gnu_cxx12_Lock_policyE2EED2Ev
FNDA:0,_ZNSt16_Sp_counted_baseILN9__gnu_cxx12_Lock_policyE2EED2Ev
FN:121,_ZNSt16_Sp_counted_baseILN9__gnu_cxx12_Lock_policyE2EED0Ev
FNDA:0,_ZNSt16_Sp_counted_baseILN9__gnu_cxx12_Lock_policyE2EED0Ev
FN:131,_ZNSt16_Sp_counted_baseILN9__gnu_cxx12_Lock_policyE2EE10_M_destroyEv
FNDA:0,_ZNSt16_Sp_counted_baseILN9__gnu_cxx12_Lock_policyE2EE10_M_destroyEv
FN:138,_ZNSt16_Sp_counted_baseILN9__gnu_cxx12_Lock_policyE2EE15_M_add_ref_copyEv
FNDA:0,_ZNSt16_Sp_counted_baseILN9__gnu_cxx12_Lock_policyE2EE15_M_add_ref_copyEv
FN:148,_ZNSt16_Sp_counted_baseILN9__gnu_cxx12_Lock_policyE2EE10_M_releaseEv
FNDA:0,_ZNSt16_Sp_counted_baseILN9__gnu_cxx12_Lock_policyE2EE10_M_releaseEv
FN:414,_ZNSt14_Sp_ebo_helperILi0ESaI12AtomicBufferELb1EEC2ERKS1_
FNDA:0,_ZNSt14_Sp_ebo_helperILi0ESaI12AtomicBufferELb1EEC2ERKS1_
FN:418,_ZNSt14_Sp_ebo_helperILi0ESaI12AtomicBufferELb1EE6_S_getERS2_
FNDA:0,_ZNSt14_Sp_ebo_helperILi0ESaI12AtomicBufferELb1EE6_S_getERS2_
FN:508,_ZNSt19_Sp_make_shared_tag5_S_tiEv
FNDA:0,_ZNSt19_Sp_make_shared_tag5_S_tiEv
FN:531,_ZNSt23_Sp_counted_ptr_inplaceI12AtomicBufferSaIS0_ELN9__gnu_cxx12_Lock_policyE2EE5_ImplC2ES1_
FNDA:0,_ZNSt23_Sp_counted_ptr_inplaceI12AtomicBufferSaIS0_ELN9__gnu_cxx12_Lock_policyE2EE5_ImplC2ES1_
FN:533,_ZNSt23_Sp_counted_ptr_inplaceI12AtomicBufferSaIS0_ELN9__gnu_cxx12_Lock_policyE2EE5_Impl8_M_allocEv
FNDA:0,_ZNSt23_Sp_counted_ptr_inplaceI12AtomicBufferSaIS0_ELN9__gnu_cxx12_Lock_policyE2EE5_Impl8_M_allocEv
FN:543,_ZNSt23_Sp_counted_ptr_inplaceI12AtomicBufferSaIS0_ELN9__gnu_cxx12_Lock_policyE2EEC2IJaEEES1_DpOT_
FNDA:0,_ZNSt23_Sp_counted_ptr_inplaceI12AtomicBufferSaIS0_ELN9__gnu_cxx12_Lock_policyE2EEC2IJaEEES1_DpOT_
FN:552,_ZNSt23_Sp_counted_ptr_inplaceI12AtomicBufferSaIS0_ELN9__gnu_cxx12_Lock_policyE2EED2Ev
FNDA:0,_ZNSt23_Sp_counted_ptr_inplaceI12AtomicBufferSaIS0_ELN9__gnu_cxx12_Lock_policyE2EED2Ev
FN:552,_ZNSt23_Sp_counted_ptr_inplaceI12AtomicBufferSaIS0_ELN9__gnu_cxx12_Lock_policyE2EED0Ev
FNDA:0,_ZNSt23_Sp_counted_ptr_inplaceI12AtomicBufferSaIS0_ELN9__gnu_cxx12_Lock_policyE2EED0Ev
FN:555,_ZNSt23_Sp_counted_ptr_inplaceI12AtomicBufferSaIS0_ELN9__gnu_cxx12_Lock_policyE2EE10_M_disposeEv
FNDA:0,_ZNSt23_Sp_counted_ptr_inplaceI12AtomicBufferSaIS0_ELN9__gnu_cxx12_Lock_policyE2EE10_M_disposeEv
FN:562,_ZNSt23_Sp_counted_ptr_inplaceI12AtomicBufferSaIS0_ELN9__gnu_cxx12_Lock_policyE2EE10_M_destroyEv
FNDA:0,_ZNSt23_Sp_counted_ptr_inplaceI12AtomicBufferSaIS0_ELN9__gnu_cxx12_Lock_policyE2EE10_M_destroyEv
FN:575,_ZNSt23_Sp_counted_ptr_inplaceI12AtomicBufferSaIS0_ELN9__gnu_cxx12_Lock_policyE2EE14_M_get_deleterERKSt9type_info
FNDA:0,_ZNSt23_Sp_counted_ptr_inplaceI12AtomicBufferSaIS0_ELN9__gnu_cxx12_Lock_policyE2EE14_M_get_deleterERKSt9type_info
FN:594,_ZNSt23_Sp_counted_ptr_inplaceI12AtomicBufferSaIS0_ELN9__gnu_cxx12_Lock_policyE2EE6_M_ptrEv
FNDA:0,_ZNSt23_Sp_counted_ptr_inplaceI12AtomicBufferSaIS0_ELN9__gnu_cxx12_Lock_policyE2EE6_M_ptrEv
FN:616,_ZNSt14__shared_countILN9__gnu_cxx12_Lock_policyE2EEC2Ev
FNDA:0,_ZNSt14__shared_countILN9__gnu_cxx12_Lock_policyE2EEC2Ev
FN:672,_ZNSt14__shared_countILN9__gnu_cxx12_Lock_policyE2EEC2I12AtomicBufferSaIS4_EJaEEERPT_St20_Sp_alloc_shared_tagIT0_EDpOT1_
FNDA:0,_ZNSt14__shared_countILN9__gnu_cxx12_Lock_policyE2EEC2I12AtomicBufferSaIS4_EJaEEERPT_St20_Sp_alloc_shared_tagIT0_EDpOT1_
FN:727,_ZNSt14__shared_countILN9__gnu_cxx12_Lock_policyE2EED2Ev
FNDA:0,_ZNSt14__shared_countILN9__gnu_cxx12_Lock_policyE2EED2Ev
FN:741,_ZNSt14__shared_countILN9__gnu_cxx12_Lock_policyE2EEaSERKS2_
FNDA:0,_ZNSt14__shared_countILN9__gnu_cxx12_Lock_policyE2EEaSERKS2_
FN:756,_ZNSt14__shared_countILN9__gnu_cxx12_Lock_policyE2EE7_M_swapERS2_
FNDA:0,_ZNSt14__shared_countILN9__gnu_cxx12_Lock_policyE2EE7_M_swapERS2_
FN:1012,_ZNKSt19__shared_ptr_accessI12AtomicBufferLN9__gnu_cxx12_Lock_policyE2ELb0ELb0EEptEv
FNDA:0,_ZNKSt19__shared_ptr_accessI12AtomicBufferLN9__gnu_cxx12_Lock_policyE2ELb0ELb0EEptEv
FN:1020,_ZNKSt19__shared_ptr_accessI12AtomicBufferLN9__gnu_cxx12_Lock_policyE2ELb0ELb0EE6_M_getEv
FNDA:0,_ZNKSt19__shared_ptr_accessI12AtomicBufferLN9__gnu_cxx12_Lock_policyE2ELb0ELb0EE6_M_getEv
FN:1080,_ZNSt12__shared_ptrI12AtomicBufferLN9__gnu_cxx12_Lock_policyE2EEaSERKS3_
FNDA:0,_ZNSt12__shared_ptrI12AtomicBufferLN9__gnu_cxx12_Lock_policyE2EEaSERKS3_
FN:1169,_ZNSt12__shared_ptrI12AtomicBufferLN9__gnu_cxx12_Lock_policyE2EED2Ev
FNDA:0,_ZNSt12__shared_ptrI12AtomicBufferLN9__gnu_cxx12_Lock_policyE2EED2Ev
FN:1176,_ZNSt12__shared_ptrI12AtomicBufferLN9__gnu_cxx12_Lock_policyE2EEC2EOS3_
FNDA:0,_ZNSt12__shared_ptrI12AtomicBufferLN9__gnu_cxx12_Lock_policyE2EEC2EOS3_
FN:1263,_ZNSt12__shared_ptrI12AtomicBufferLN9__gnu_cxx12_Lock_policyE2EEaSEOS3_
FNDA:0,_ZNSt12__shared_ptrI12AtomicBufferLN9__gnu_cxx12_Lock_policyE2EEaSEOS3_
FN:1309,_ZNKSt12__shared_ptrI12AtomicBufferLN9__gnu_cxx12_Lock_policyE2EE3getEv
FNDA:0,_ZNKSt12__shared_ptrI12AtomicBufferLN9__gnu_cxx12_Lock_policyE2EE3getEv
FN:1312,_ZNKSt12__shared_ptrI12AtomicBufferLN9__gnu_cxx12_Lock_policyE2EEcvbEv
FNDA:0,_ZNKSt12__shared_ptrI12AtomicBufferLN9__gnu_cxx12_Lock_policyE2EEcvbEv
FN:1324,_ZNSt12__shared_ptrI12AtomicBufferLN9__gnu_cxx12_Lock_policyE2EE4swapERS3_
FNDA:0,_ZNSt12__shared_ptrI12AtomicBufferLN9__gnu_cxx12_Lock_policyE2EE4swapERS3_
FN:1343,_ZNSt12__shared_ptrI12AtomicBufferLN9__gnu_cxx12_Lock_policyE2EEC2ISaIS0_EJaEEESt20_Sp_alloc_shared_tagIT_EDpOT0_
FNDA:0,_ZNSt12__shared_ptrI12AtomicBufferLN9__gnu_cxx12_Lock_policyE2EEC2ISaIS0_EJaEEESt20_Sp_alloc_shared_tagIT_EDpOT0_
FN:1388,_ZNSt12__shared_ptrI12AtomicBufferLN9__gnu_cxx12_Lock_policyE2EE31_M_enable_shared_from_this_withIS0_S0_EENSt9enable_ifIXntsrNS3_15__has_esft_baseIT0_vEE5valueEvE4typeEPT_
FNDA:0,_ZNSt12__shared_ptrI12AtomicBufferLN9__gnu_cxx12_Lock_policyE2EE31_M_enable_shared_from_this_withIS0_S0_EENSt9enable_ifIXntsrNS3_15__has_esft_baseIT0_vEE5valueEvE4typeEPT_
DA:117,0
DA:118,0
DA:121,0
DA:122,0
DA:121,0
DA:122,0
DA:131,0
DA:132,0
DA:138,0
DA:139,0
DA:148,0
DA:152,0
DA:155,0
DA:167,0
DA:168,0
DA:171,0
DA:174,0
DA:414,0
DA:418,0
DA:508,0
DA:511,0
DA:531,0
DA:533,0
DA:543,0
DA:544,0
DA:548,0
DA:550,0
DA:552,0
DA:552,0
DA:555,0
DA:557,0
DA:558,0
DA:562,0
DA:564,0
DA:565,0
DA:566,0
DA:567,0
DA:575,0
DA:577,0
DA:582,0
DA:583,0
DA:585,0
DA:590,0
DA:591,0
DA:594,0
DA:616,0
DA:617,0
DA:672,0
DA:676,0
DA:677,0
DA:678,0
DA:679,0
DA:680,0
DA:681,0
DA:682,0
DA:683,0
DA:684,0
DA:727,0
DA:729,0
DA:730,0
DA:731,0
DA:741,0
DA:743,0
DA:744,0
DA:746,0
DA:747,0
DA:748,0
DA:749,0
DA:750,0
DA:752,0
DA:756,0
DA:758,0
DA:759,0
DA:760,0
DA:761,0
DA:1012,0
DA:1015,0
DA:1020,0
DA:1021,0
DA:1080,0
DA:1169,0
DA:1176,0
DA:1177,0
DA:1179,0
DA:1180,0
DA:1181,0
DA:1263,0
DA:1265,0
DA:1266,0
DA:1309,0
DA:1310,0
DA:1312,0
DA:1313,0
DA:1324,0
DA:1326,0
DA:1327,0
DA:1328,0
DA:1343,0
DA:1344,0
DA:1345,0
DA:1388,0
DA:1389,0
end_of_record
SF:/usr/include/c++/9/bits/ptr_traits.h
FN:146,_ZNSt14pointer_traitsIPNSt8__detail10_Hash_nodeIlLb0EEEE10pointer_toERS2_
FNDA:0,_ZNSt14pointer_traitsIPNSt8__detail10_Hash_nodeIlLb0EEEE10pointer_toERS2_
FN:146,_ZNSt14pointer_traitsIPNSt8__detail10_Hash_nodeISt4pairIKNSt7__cxx1112basic_stringIcSt11char_traitsIcESaIcEEES8_ELb1EEEE10pointer_toERSB_
FNDA:0,_ZNSt14pointer_traitsIPNSt8__detail10_Hash_nodeISt4pairIKNSt7__cxx1112basic_stringIcSt11char_traitsIcESaIcEEES8_ELb1EEEE10pointer_toERSB_
FN:146,_ZNSt14pointer_traitsIPNSt8__detail10_Hash_nodeIP9nnode_t_tLb0EEEE10pointer_toERS4_
FNDA:0,_ZNSt14pointer_traitsIPNSt8__detail10_Hash_nodeIP9nnode_t_tLb0EEEE10pointer_toERS4_
FN:146,_ZNSt14pointer_traitsIPPNSt8__detail15_Hash_node_baseEE10pointer_toERS2_
FNDA:0,_ZNSt14pointer_traitsIPPNSt8__detail15_Hash_node_baseEE10pointer_toERS2_
FN:156,_ZSt12__to_addressIPNSt8__detail15_Hash_node_baseEEPT_S4_
FNDA:0,_ZSt12__to_addressIPNSt8__detail15_Hash_node_baseEEPT_S4_
FN:156,_ZSt12__to_addressISt23_Sp_counted_ptr_inplaceI12AtomicBufferSaIS1_ELN9__gnu_cxx12_Lock_policyE2EEEPT_S7_
FNDA:0,_ZSt12__to_addressISt23_Sp_counted_ptr_inplaceI12AtomicBufferSaIS1_ELN9__gnu_cxx12_Lock_policyE2EEEPT_S7_
FN:156,_ZSt12__to_addressINSt8__detail10_Hash_nodeIlLb0EEEEPT_S4_
FNDA:0,_ZSt12__to_addressINSt8__detail10_Hash_nodeIlLb0EEEEPT_S4_
FN:156,_ZSt12__to_addressINSt8__detail10_Hash_nodeIP9nnode_t_tLb0EEEEPT_S6_
FNDA:0,_ZSt12__to_addressINSt8__detail10_Hash_nodeIP9nnode_t_tLb0EEEEPT_S6_
FN:156,_ZSt12__to_addressINSt8__detail10_Hash_nodeISt4pairIKNSt7__cxx1112basic_stringIcSt11char_traitsIcESaIcEEES8_ELb1EEEEPT_SD_
FNDA:0,_ZSt12__to_addressINSt8__detail10_Hash_nodeISt4pairIKNSt7__cxx1112basic_stringIcSt11char_traitsIcESaIcEEES8_ELb1EEEEPT_SD_
DA:146,0
DA:147,0
DA:146,0
DA:147,0
DA:146,0
DA:147,0
DA:146,0
DA:147,0
DA:156,0
DA:159,0
DA:156,0
DA:159,0
DA:156,0
DA:159,0
DA:156,0
DA:159,0
DA:156,0
DA:159,0
end_of_record
SF:/usr/include/c++/9/bits/allocated_ptr.h
FN:52,_ZNSt15__allocated_ptrISaISt23_Sp_counted_ptr_inplaceI12AtomicBufferSaIS1_ELN9__gnu_cxx12_Lock_policyE2EEEEC2ERS6_PS5_
FNDA:0,_ZNSt15__allocated_ptrISaISt23_Sp_counted_ptr_inplaceI12AtomicBufferSaIS1_ELN9__gnu_cxx12_Lock_policyE2EEEEC2ERS6_PS5_
FN:70,_ZNSt15__allocated_ptrISaISt23_Sp_counted_ptr_inplaceI12AtomicBufferSaIS1_ELN9__gnu_cxx12_Lock_policyE2EEEED2Ev
FNDA:0,_ZNSt15__allocated_ptrISaISt23_Sp_counted_ptr_inplaceI12AtomicBufferSaIS1_ELN9__gnu_cxx12_Lock_policyE2EEEED2Ev
FN:78,_ZNSt15__allocated_ptrISaISt23_Sp_counted_ptr_inplaceI12AtomicBufferSaIS1_ELN9__gnu_cxx12_Lock_policyE2EEEEaSEDn
FNDA:0,_ZNSt15__allocated_ptrISaISt23_Sp_counted_ptr_inplaceI12AtomicBufferSaIS1_ELN9__gnu_cxx12_Lock_policyE2EEEEaSEDn
FN:85,_ZNSt15__allocated_ptrISaISt23_Sp_counted_ptr_inplaceI12AtomicBufferSaIS1_ELN9__gnu_cxx12_Lock_policyE2EEEE3getEv
FNDA:0,_ZNSt15__allocated_ptrISaISt23_Sp_counted_ptr_inplaceI12AtomicBufferSaIS1_ELN9__gnu_cxx12_Lock_policyE2EEEE3getEv
FN:95,_ZSt18__allocate_guardedISaISt23_Sp_counted_ptr_inplaceI12AtomicBufferSaIS1_ELN9__gnu_cxx12_Lock_policyE2EEEESt15__allocated_ptrIT_ERS8_
FNDA:0,_ZSt18__allocate_guardedISaISt23_Sp_counted_ptr_inplaceI12AtomicBufferSaIS1_ELN9__gnu_cxx12_Lock_policyE2EEEESt15__allocated_ptrIT_ERS8_
DA:52,0
DA:53,0
DA:54,0
DA:70,0
DA:72,0
DA:73,0
DA:74,0
DA:78,0
DA:80,0
DA:81,0
DA:85,0
DA:95,0
DA:97,0
end_of_record
SF:/usr/include/c++/9/new
FN:173,_ZnwmPv
FNDA:0,_ZnwmPv
FN:179,_ZdlPvS_
FNDA:0,_ZdlPvS_
DA:173,0
DA:174,0
DA:179,0
end_of_record
SF:/usr/include/c++/9/bits/move.h
FN:47,_ZSt11__addressofISt6vectorIaSaIaEEEPT_RS3_
FNDA:0,_ZSt11__addressofISt6vectorIaSaIaEEEPT_RS3_
FN:47,_ZSt11__addressofINSt7__cxx1112basic_stringIcSt11char_traitsIcESaIcEEEEPT_RS6_
FNDA:0,_ZSt11__addressofINSt7__cxx1112basic_stringIcSt11char_traitsIcESaIcEEEEPT_RS6_
FN:47,_ZSt11__addressofIPNSt8__detail15_Hash_node_baseEEPT_RS3_
FNDA:0,_ZSt11__addressofIPNSt8__detail15_Hash_node_baseEEPT_RS3_
FN:47,_ZSt11__addressofISt6threadEPT_RS1_
FNDA:0,_ZSt11__addressofISt6threadEPT_RS1_
FN:47,_ZSt11__addressofINSt8__detail10_Hash_nodeIlLb0EEEEPT_RS3_
FNDA:0,_ZSt11__addressofINSt8__detail10_Hash_nodeIlLb0EEEEPT_RS3_
FN:47,_ZSt11__addressofINSt8__detail10_Hash_nodeISt4pairIKNSt7__cxx1112basic_stringIcSt11char_traitsIcESaIcEEES8_ELb1EEEEPT_RSC_
FNDA:0,_ZSt11__addressofINSt8__detail10_Hash_nodeISt4pairIKNSt7__cxx1112basic_stringIcSt11char_traitsIcESaIcEEES8_ELb1EEEEPT_RSC_
FN:47,_ZSt11__addressofISaISt23_Sp_counted_ptr_inplaceI12AtomicBufferSaIS1_ELN9__gnu_cxx12_Lock_policyE2EEEEPT_RS7_
FNDA:0,_ZSt11__addressofISaISt23_Sp_counted_ptr_inplaceI12AtomicBufferSaIS1_ELN9__gnu_cxx12_Lock_policyE2EEEEPT_RS7_
FN:47,_ZSt11__addressofINSt8__detail10_Hash_nodeIP9nnode_t_tLb0EEEEPT_RS5_
FNDA:0,_ZSt11__addressofINSt8__detail10_Hash_nodeIP9nnode_t_tLb0EEEEPT_RS5_
FN:74,_ZSt7forwardISt5tupleIJRKiEEEOT_RNSt16remove_referenceIS4_E4typeE
FNDA:0,_ZSt7forwardISt5tupleIJRKiEEEOT_RNSt16remove_referenceIS4_E4typeE
FN:74,_ZSt7forwardIRKSt21piecewise_construct_tEOT_RNSt16remove_referenceIS3_E4typeE
FNDA:0,_ZSt7forwardIRKSt21piecewise_construct_tEOT_RNSt16remove_referenceIS3_E4typeE
FN:74,_ZSt7forwardISt5tupleIJRKlEEEOT_RNSt16remove_referenceIS4_E4typeE
FNDA:0,_ZSt7forwardISt5tupleIJRKlEEEOT_RNSt16remove_referenceIS4_E4typeE
FN:74,_ZSt7forwardISt4pairIKNSt7__cxx1112basic_stringIcSt11char_traitsIcESaIcEEES6_EEOT_RNSt16remove_referenceIS9_E4typeE
FNDA:0,_ZSt7forwardISt4pairIKNSt7__cxx1112basic_stringIcSt11char_traitsIcESaIcEEES6_EEOT_RNSt16remove_referenceIS9_E4typeE
FN:74,_ZSt7forwardIPFviP14netlist_subsetiiibEEOT_RNSt16remove_referenceIS4_E4typeE
FNDA:0,_ZSt7forwardIPFviP14netlist_subsetiiibEEOT_RNSt16remove_referenceIS4_E4typeE
FN:74,_ZSt7forwardIPFviiiP8stages_tiEEOT_RNSt16remove_referenceIS4_E4typeE
FNDA:0,_ZSt7forwardIPFviiiP8stages_tiEEOT_RNSt16remove_referenceIS4_E4typeE
FN:74,_ZSt7forwardIPFviP14netlist_subsetiiEEOT_RNSt16remove_referenceIS4_E4typeE
FNDA:0,_ZSt7forwardIPFviP14netlist_subsetiiEEOT_RNSt16remove_referenceIS4_E4typeE
FN:74,_ZSt7forwardIRKP9nnode_t_tEOT_RNSt16remove_referenceIS4_E4typeE
FNDA:0,_ZSt7forwardIRKP9nnode_t_tEOT_RNSt16remove_referenceIS4_E4typeE
FN:74,_ZSt7forwardIOiEOT_RNSt16remove_referenceIS1_E4typeE
FNDA:0,_ZSt7forwardIOiEOT_RNSt16remove_referenceIS1_E4typeE
FN:74,_ZSt7forwardIRKSt4pairIKlSt6vectorIaSaIaEEEEOT_RNSt16remove_referenceIS8_E4typeE
FNDA:0,_ZSt7forwardIRKSt4pairIKlSt6vectorIaSaIaEEEEOT_RNSt16remove_referenceIS8_E4typeE
FN:74,_ZSt7forwardIRKSt4pairIKiSt3mapIlSt6vectorIaSaIaEESt4lessIlESaIS0_IKlS5_EEEEEOT_RNSt16remove_referenceISF_E4typeE
FNDA:0,_ZSt7forwardIRKSt4pairIKiSt3mapIlSt6vectorIaSaIaEESt4lessIlESaIS0_IKlS5_EEEEEOT_RNSt16remove_referenceISF_E4typeE
FN:74,_ZSt7forwardIRKlEOT_RNSt16remove_referenceIS2_E4typeE
FNDA:0,_ZSt7forwardIRKlEOT_RNSt16remove_referenceIS2_E4typeE
FN:74,_ZSt7forwardINSt8__detail14_Node_iteratorIP9nnode_t_tLb1ELb0EEEEOT_RNSt16remove_referenceIS5_E4typeE
FNDA:0,_ZSt7forwardINSt8__detail14_Node_iteratorIP9nnode_t_tLb1ELb0EEEEOT_RNSt16remove_referenceIS5_E4typeE
FN:74,_ZSt7forwardIRPSt18_Rb_tree_node_baseEOT_RNSt16remove_referenceIS3_E4typeE
FNDA:0,_ZSt7forwardIRPSt18_Rb_tree_node_baseEOT_RNSt16remove_referenceIS3_E4typeE
FN:74,_ZSt7forwardIRFviP14netlist_subsetiiEEOT_RNSt16remove_referenceIS4_E4typeE
FNDA:0,_ZSt7forwardIRFviP14netlist_subsetiiEEOT_RNSt16remove_referenceIS4_E4typeE
FN:74,_ZSt7forwardIiEOT_RNSt16remove_referenceIS0_E4typeE
FNDA:0,_ZSt7forwardIiEOT_RNSt16remove_referenceIS0_E4typeE
FN:74,_ZSt7forwardIRPcEOT_RNSt16remove_referenceIS2_E4typeE
FNDA:0,_ZSt7forwardIRPcEOT_RNSt16remove_referenceIS2_E4typeE
FN:74,_ZSt7forwardIbEOT_RNSt16remove_referenceIS0_E4typeE
FNDA:0,_ZSt7forwardIbEOT_RNSt16remove_referenceIS0_E4typeE
FN:74,_ZSt7forwardIRFviP14netlist_subsetiiibEEOT_RNSt16remove_referenceIS4_E4typeE
FNDA:0,_ZSt7forwardIRFviP14netlist_subsetiiibEEOT_RNSt16remove_referenceIS4_E4typeE
FN:74,_ZSt7forwardIRiEOT_RNSt16remove_referenceIS1_E4typeE
FNDA:0,_ZSt7forwardIRiEOT_RNSt16remove_referenceIS1_E4typeE
FN:74,_ZSt7forwardIRP14netlist_subsetEOT_RNSt16remove_referenceIS3_E4typeE
FNDA:0,_ZSt7forwardIRP14netlist_subsetEOT_RNSt16remove_referenceIS3_E4typeE
FN:74,_ZSt7forwardIRFviiiP8stages_tiEEOT_RNSt16remove_referenceIS4_E4typeE
FNDA:0,_ZSt7forwardIRFviiiP8stages_tiEEOT_RNSt16remove_referenceIS4_E4typeE
FN:74,_ZSt7forwardIRP8stages_tEOT_RNSt16remove_referenceIS3_E4typeE
FNDA:0,_ZSt7forwardIRP8stages_tEOT_RNSt16remove_referenceIS3_E4typeE
FN:74,_ZSt7forwardISt5tupleIJEEEOT_RNSt16remove_referenceIS2_E4typeE
FNDA:0,_ZSt7forwardISt5tupleIJEEEOT_RNSt16remove_referenceIS2_E4typeE
FN:74,_ZSt7forwardIaEOT_RNSt16remove_referenceIS0_E4typeE
FNDA:0,_ZSt7forwardIaEOT_RNSt16remove_referenceIS0_E4typeE
FN:74,_ZSt7forwardINSt6thread8_InvokerISt5tupleIJPFviP14netlist_subsetiiibEiS4_iiiiEEEEEOT_RNSt16remove_referenceIS9_E4typeE
FNDA:0,_ZSt7forwardINSt6thread8_InvokerISt5tupleIJPFviP14netlist_subsetiiibEiS4_iiiiEEEEEOT_RNSt16remove_referenceIS9_E4typeE
FN:74,_ZSt7forwardISt6threadEOT_RNSt16remove_referenceIS1_E4typeE
FNDA:0,_ZSt7forwardISt6threadEOT_RNSt16remove_referenceIS1_E4typeE
FN:74,_ZSt7forwardINSt6thread8_InvokerISt5tupleIJPFviiiP8stages_tiEiiiS4_iEEEEEOT_RNSt16remove_referenceIS9_E4typeE
FNDA:0,_ZSt7forwardINSt6thread8_InvokerISt5tupleIJPFviiiP8stages_tiEiiiS4_iEEEEEOT_RNSt16remove_referenceIS9_E4typeE
FN:74,_ZSt7forwardINSt6thread8_InvokerISt5tupleIJPFviP14netlist_subsetiiEiS4_iiEEEEEOT_RNSt16remove_referenceIS9_E4typeE
FNDA:0,_ZSt7forwardINSt6thread8_InvokerISt5tupleIJPFviP14netlist_subsetiiEiS4_iiEEEEEOT_RNSt16remove_referenceIS9_E4typeE
FN:74,_ZSt7forwardIOP8stages_tEOT_RNSt16remove_referenceIS3_E4typeE
FNDA:0,_ZSt7forwardIOP8stages_tEOT_RNSt16remove_referenceIS3_E4typeE
FN:74,_ZSt7forwardISt5tupleIJOiEEEOT_RNSt16remove_referenceIS3_E4typeE
FNDA:0,_ZSt7forwardISt5tupleIJOiEEEOT_RNSt16remove_referenceIS3_E4typeE
FN:74,_ZSt7forwardIOPFviP14netlist_subsetiiibEEOT_RNSt16remove_referenceIS5_E4typeE
FNDA:0,_ZSt7forwardIOPFviP14netlist_subsetiiibEEOT_RNSt16remove_referenceIS5_E4typeE
FN:74,_ZSt7forwardIRKSt6vectorIaSaIaEEEOT_RNSt16remove_referenceIS5_E4typeE
FNDA:0,_ZSt7forwardIRKSt6vectorIaSaIaEEEOT_RNSt16remove_referenceIS5_E4typeE
FN:74,_ZSt7forwardIRSt4pairIKNSt7__cxx1112basic_stringIcSt11char_traitsIcESaIcEEES6_EEOT_RNSt16remove_referenceISA_E4typeE
FNDA:0,_ZSt7forwardIRSt4pairIKNSt7__cxx1112basic_stringIcSt11char_traitsIcESaIcEEES6_EEOT_RNSt16remove_referenceISA_E4typeE
FN:74,_ZSt7forwardIP8stages_tEOT_RNSt16remove_referenceIS2_E4typeE
FNDA:0,_ZSt7forwardIP8stages_tEOT_RNSt16remove_referenceIS2_E4typeE
FN:74,_ZSt7forwardIRlEOT_RNSt16remove_referenceIS1_E4typeE
FNDA:0,_ZSt7forwardIRlEOT_RNSt16remove_referenceIS1_E4typeE
FN:74,_ZSt7forwardIRKNSt7__cxx1112basic_stringIcSt11char_traitsIcESaIcEEEEOT_RNSt16remove_referenceIS8_E4typeE
FNDA:0,_ZSt7forwardIRKNSt7__cxx1112basic_stringIcSt11char_traitsIcESaIcEEEEOT_RNSt16remove_referenceIS8_E4typeE
FN:74,_ZSt7forwardIRKiEOT_RNSt16remove_referenceIS2_E4typeE
FNDA:0,_ZSt7forwardIRKiEOT_RNSt16remove_referenceIS2_E4typeE
FN:74,_ZSt7forwardIRPSt13_Rb_tree_nodeISt4pairIKlSt6vectorIaSaIaEEEEEOT_RNSt16remove_referenceISA_E4typeE
FNDA:0,_ZSt7forwardIRPSt13_Rb_tree_nodeISt4pairIKlSt6vectorIaSaIaEEEEEOT_RNSt16remove_referenceISA_E4typeE
FN:74,_ZSt7forwardIRPSt13_Rb_tree_nodeISt4pairIKiSt3mapIlSt6vectorIaSaIaEESt4lessIlESaIS1_IKlS6_EEEEEEOT_RNSt16remove_referenceISH_E4typeE
FNDA:0,_ZSt7forwardIRPSt13_Rb_tree_nodeISt4pairIKiSt3mapIlSt6vectorIaSaIaEESt4lessIlESaIS1_IKlS6_EEEEEEOT_RNSt16remove_referenceISH_E4typeE
FN:74,_ZSt7forwardIRPSt13_Rb_tree_nodeISt4pairIKiiEEEOT_RNSt16remove_referenceIS7_E4typeE
FNDA:0,_ZSt7forwardIRPSt13_Rb_tree_nodeISt4pairIKiiEEEOT_RNSt16remove_referenceIS7_E4typeE
FN:74,_ZSt7forwardIRP9nnode_t_tEOT_RNSt16remove_referenceIS3_E4typeE
FNDA:0,_ZSt7forwardIRP9nnode_t_tEOT_RNSt16remove_referenceIS3_E4typeE
FN:74,_ZSt7forwardIOPFviP14netlist_subsetiiEEOT_RNSt16remove_referenceIS5_E4typeE
FNDA:0,_ZSt7forwardIOPFviP14netlist_subsetiiEEOT_RNSt16remove_referenceIS5_E4typeE
FN:74,_ZSt7forwardIP14netlist_subsetEOT_RNSt16remove_referenceIS2_E4typeE
FNDA:0,_ZSt7forwardIP14netlist_subsetEOT_RNSt16remove_referenceIS2_E4typeE
FN:74,_ZSt7forwardINSt8__detail14_Node_iteratorISt4pairIKNSt7__cxx1112basic_stringIcSt11char_traitsIcESaIcEEES8_ELb0ELb1EEEEOT_RNSt16remove_referenceISC_E4typeE
FNDA:0,_ZSt7forwardINSt8__detail14_Node_iteratorISt4pairIKNSt7__cxx1112basic_stringIcSt11char_traitsIcESaIcEEES8_ELb0ELb1EEEEOT_RNSt16remove_referenceISC_E4typeE
FN:74,_ZSt7forwardIOP14netlist_subsetEOT_RNSt16remove_referenceIS3_E4typeE
FNDA:0,_ZSt7forwardIOP14netlist_subsetEOT_RNSt16remove_referenceIS3_E4typeE
FN:74,_ZSt7forwardIOPFviiiP8stages_tiEEOT_RNSt16remove_referenceIS5_E4typeE
FNDA:0,_ZSt7forwardIOPFviiiP8stages_tiEEOT_RNSt16remove_referenceIS5_E4typeE
FN:74,_ZSt7forwardINSt8__detail14_Node_iteratorIlLb1ELb0EEEEOT_RNSt16remove_referenceIS3_E4typeE
FNDA:0,_ZSt7forwardINSt8__detail14_Node_iteratorIlLb1ELb0EEEEOT_RNSt16remove_referenceIS3_E4typeE
FN:99,_ZSt4moveIRiEONSt16remove_referenceIT_E4typeEOS2_
FNDA:0,_ZSt4moveIRiEONSt16remove_referenceIT_E4typeEOS2_
FN:99,_ZSt4moveIRPNSt6thread6_StateEEONSt16remove_referenceIT_E4typeEOS5_
FNDA:0,_ZSt4moveIRPNSt6thread6_StateEEONSt16remove_referenceIT_E4typeEOS5_
FN:99,_ZSt4moveIRSt11_Tuple_implILm5EJiEEEONSt16remove_referenceIT_E4typeEOS4_
FNDA:0,_ZSt4moveIRSt11_Tuple_implILm5EJiEEEONSt16remove_referenceIT_E4typeEOS4_
FN:99,_ZSt4moveIRSt11_Tuple_implILm4EJiEEEONSt16remove_referenceIT_E4typeEOS4_
FNDA:0,_ZSt4moveIRSt11_Tuple_implILm4EJiEEEONSt16remove_referenceIT_E4typeEOS4_
FN:99,_ZSt4moveIRSt4pairIKNSt7__cxx1112basic_stringIcSt11char_traitsIcESaIcEEES6_EEONSt16remove_referenceIT_E4typeEOSB_
FNDA:0,_ZSt4moveIRSt4pairIKNSt7__cxx1112basic_stringIcSt11char_traitsIcESaIcEEES6_EEONSt16remove_referenceIT_E4typeEOSB_
FN:99,_ZSt4moveIRSt6vectorIS0_IaSaIaEESaIS2_EEEONSt16remove_referenceIT_E4typeEOS7_
FNDA:0,_ZSt4moveIRSt6vectorIS0_IaSaIaEESaIS2_EEEONSt16remove_referenceIT_E4typeEOS7_
FN:99,_ZSt4moveIRSt10shared_ptrI12AtomicBufferEEONSt16remove_referenceIT_E4typeEOS5_
FNDA:0,_ZSt4moveIRSt10shared_ptrI12AtomicBufferEEONSt16remove_referenceIT_E4typeEOS5_
FN:99,_ZSt4moveIRSt5tupleIJPFviiiP8stages_tiEiiiS2_iEEEONSt16remove_referenceIT_E4typeEOS8_
FNDA:0,_ZSt4moveIRSt5tupleIJPFviiiP8stages_tiEiiiS2_iEEEONSt16remove_referenceIT_E4typeEOS8_
FN:99,_ZSt4moveIRSaIcEEONSt16remove_referenceIT_E4typeEOS3_
FNDA:0,_ZSt4moveIRSaIcEEONSt16remove_referenceIT_E4typeEOS3_
FN:99,_ZSt4moveIRNSt6thread2idEEONSt16remove_referenceIT_E4typeEOS4_
FNDA:0,_ZSt4moveIRNSt6thread2idEEONSt16remove_referenceIT_E4typeEOS4_
FN:99,_ZSt4moveIRSt11_Tuple_implILm6EJiEEEONSt16remove_referenceIT_E4typeEOS4_
FNDA:0,_ZSt4moveIRSt11_Tuple_implILm6EJiEEEONSt16remove_referenceIT_E4typeEOS4_
FN:99,_ZSt4moveIRSt5tupleIJPFviP14netlist_subsetiiibEiS2_iiiiEEEONSt16remove_referenceIT_E4typeEOS8_
FNDA:0,_ZSt4moveIRSt5tupleIJPFviP14netlist_subsetiiibEiS2_iiiiEEEONSt16remove_referenceIT_E4typeEOS8_
FN:99,_ZSt4moveIRSt5tupleIJPFviP14netlist_subsetiiEiS2_iiEEEONSt16remove_referenceIT_E4typeEOS8_
FNDA:0,_ZSt4moveIRSt5tupleIJPFviP14netlist_subsetiiEiS2_iiEEEONSt16remove_referenceIT_E4typeEOS8_
FN:99,_ZSt4moveIRSt6threadEONSt16remove_referenceIT_E4typeEOS3_
FNDA:0,_ZSt4moveIRSt6threadEONSt16remove_referenceIT_E4typeEOS3_
FN:99,_ZSt4moveIRP12AtomicBufferEONSt16remove_referenceIT_E4typeEOS4_
FNDA:0,_ZSt4moveIRP12AtomicBufferEONSt16remove_referenceIT_E4typeEOS4_
FN:99,_ZSt4moveIRSaISt6vectorIaSaIaEEEEONSt16remove_referenceIT_E4typeEOS6_
FNDA:0,_ZSt4moveIRSaISt6vectorIaSaIaEEEEONSt16remove_referenceIT_E4typeEOS6_
FN:99,_ZSt4moveIRSt11_Tuple_implILm3EJiiiiEEEONSt16remove_referenceIT_E4typeEOS4_
FNDA:0,_ZSt4moveIRSt11_Tuple_implILm3EJiiiiEEEONSt16remove_referenceIT_E4typeEOS4_
FN:99,_ZSt4moveIRSt11_Tuple_implILm2EJP14netlist_subsetiiEEEONSt16remove_referenceIT_E4typeEOS6_
FNDA:0,_ZSt4moveIRSt11_Tuple_implILm2EJP14netlist_subsetiiEEEONSt16remove_referenceIT_E4typeEOS6_
FN:99,_ZSt4moveIRSt11_Tuple_implILm2EJiiP8stages_tiEEEONSt16remove_referenceIT_E4typeEOS6_
FNDA:0,_ZSt4moveIRSt11_Tuple_implILm2EJiiP8stages_tiEEEONSt16remove_referenceIT_E4typeEOS6_
FN:99,_ZSt4moveIRSt11_Tuple_implILm2EJP14netlist_subsetiiiiEEEONSt16remove_referenceIT_E4typeEOS6_
FNDA:0,_ZSt4moveIRSt11_Tuple_implILm2EJP14netlist_subsetiiiiEEEONSt16remove_referenceIT_E4typeEOS6_
FN:99,_ZSt4moveIRSt11_Tuple_implILm3EJiP8stages_tiEEEONSt16remove_referenceIT_E4typeEOS6_
FNDA:0,_ZSt4moveIRSt11_Tuple_implILm3EJiP8stages_tiEEEONSt16remove_referenceIT_E4typeEOS6_
FN:99,_ZSt4moveIRSt11_Tuple_implILm3EJiiEEEONSt16remove_referenceIT_E4typeEOS4_
FNDA:0,_ZSt4moveIRSt11_Tuple_implILm3EJiiEEEONSt16remove_referenceIT_E4typeEOS4_
FN:99,_ZSt4moveIRSt11_Tuple_implILm5EJiiEEEONSt16remove_referenceIT_E4typeEOS4_
FNDA:0,_ZSt4moveIRSt11_Tuple_implILm5EJiiEEEONSt16remove_referenceIT_E4typeEOS4_
FN:99,_ZSt4moveIRSt11_Tuple_implILm1EJiP14netlist_subsetiiEEEONSt16remove_referenceIT_E4typeEOS6_
FNDA:0,_ZSt4moveIRSt11_Tuple_implILm1EJiP14netlist_subsetiiEEEONSt16remove_referenceIT_E4typeEOS6_
FN:99,_ZSt4moveIRSt11_Tuple_implILm1EJiiiP8stages_tiEEEONSt16remove_referenceIT_E4typeEOS6_
FNDA:0,_ZSt4moveIRSt11_Tuple_implILm1EJiiiP8stages_tiEEEONSt16remove_referenceIT_E4typeEOS6_
FN:99,_ZSt4moveIRSt11_Tuple_implILm1EJiP14netlist_subsetiiiiEEEONSt16remove_referenceIT_E4typeEOS6_
FNDA:0,_ZSt4moveIRSt11_Tuple_implILm1EJiP14netlist_subsetiiiiEEEONSt16remove_referenceIT_E4typeEOS6_
FN:99,_ZSt4moveIRSt11_Tuple_implILm4EJiiiEEEONSt16remove_referenceIT_E4typeEOS4_
FNDA:0,_ZSt4moveIRSt11_Tuple_implILm4EJiiiEEEONSt16remove_referenceIT_E4typeEOS4_
FN:99,_ZSt4moveIRSt11_Tuple_implILm4EJP8stages_tiEEEONSt16remove_referenceIT_E4typeEOS6_
FNDA:0,_ZSt4moveIRSt11_Tuple_implILm4EJP8stages_tiEEEONSt16remove_referenceIT_E4typeEOS6_
FN:99,_ZSt4moveIRSt12__shared_ptrI12AtomicBufferLN9__gnu_cxx12_Lock_policyE2EEEONSt16remove_referenceIT_E4typeEOS7_
FNDA:0,_ZSt4moveIRSt12__shared_ptrI12AtomicBufferLN9__gnu_cxx12_Lock_policyE2EEEONSt16remove_referenceIT_E4typeEOS7_
FN:138,_ZSt9addressofIPNSt8__detail15_Hash_node_baseEEPT_RS3_
FNDA:0,_ZSt9addressofIPNSt8__detail15_Hash_node_baseEEPT_RS3_
FN:138,_ZSt9addressofINSt8__detail10_Hash_nodeIP9nnode_t_tLb0EEEEPT_RS5_
FNDA:0,_ZSt9addressofINSt8__detail10_Hash_nodeIP9nnode_t_tLb0EEEEPT_RS5_
FN:138,_ZSt9addressofINSt8__detail10_Hash_nodeISt4pairIKNSt7__cxx1112basic_stringIcSt11char_traitsIcESaIcEEES8_ELb1EEEEPT_RSC_
FNDA:0,_ZSt9addressofINSt8__detail10_Hash_nodeISt4pairIKNSt7__cxx1112basic_stringIcSt11char_traitsIcESaIcEEES8_ELb1EEEEPT_RSC_
FN:138,_ZSt9addressofINSt8__detail10_Hash_nodeIlLb0EEEEPT_RS3_
FNDA:0,_ZSt9addressofINSt8__detail10_Hash_nodeIlLb0EEEEPT_RS3_
FN:182,_ZSt4swapIP12AtomicBufferENSt9enable_ifIXsrSt6__and_IJSt6__not_ISt15__is_tuple_likeIT_EESt21is_move_constructibleIS6_ESt18is_move_assignableIS6_EEE5valueEvE4typeERS6_SG_
FNDA:0,_ZSt4swapIP12AtomicBufferENSt9enable_ifIXsrSt6__and_IJSt6__not_ISt15__is_tuple_likeIT_EESt21is_move_constructibleIS6_ESt18is_move_assignableIS6_EEE5valueEvE4typeERS6_SG_
FN:182,_ZSt4swapINSt6thread2idEENSt9enable_ifIXsrSt6__and_IJSt6__not_ISt15__is_tuple_likeIT_EESt21is_move_constructibleIS6_ESt18is_move_assignableIS6_EEE5valueEvE4typeERS6_SG_
FNDA:0,_ZSt4swapINSt6thread2idEENSt9enable_ifIXsrSt6__and_IJSt6__not_ISt15__is_tuple_likeIT_EESt21is_move_constructibleIS6_ESt18is_move_assignableIS6_EEE5valueEvE4typeERS6_SG_
DA:47,0
DA:48,0
DA:47,0
DA:48,0
DA:47,0
DA:48,0
DA:47,0
DA:48,0
DA:47,0
DA:48,0
DA:47,0
DA:48,0
DA:47,0
DA:48,0
DA:47,0
DA:48,0
DA:74,0
DA:75,0
DA:74,0
DA:75,0
DA:74,0
DA:75,0
DA:74,0
DA:75,0
DA:74,0
DA:75,0
DA:74,0
DA:75,0
DA:74,0
DA:75,0
DA:74,0
DA:75,0
DA:74,0
DA:75,0
DA:74,0
DA:75,0
DA:74,0
DA:75,0
DA:74,0
DA:75,0
DA:74,0
DA:75,0
DA:74,0
DA:75,0
DA:74,0
DA:75,0
DA:74,0
DA:75,0
DA:74,0
DA:75,0
DA:74,0
DA:75,0
DA:74,0
DA:75,0
DA:74,0
DA:75,0
DA:74,0
DA:75,0
DA:74,0
DA:75,0
DA:74,0
DA:75,0
DA:74,0
DA:75,0
DA:74,0
DA:75,0
DA:74,0
DA:75,0
DA:74,0
DA:75,0
DA:74,0
DA:75,0
DA:74,0
DA:75,0
DA:74,0
DA:75,0
DA:74,0
DA:75,0
DA:74,0
DA:75,0
DA:74,0
DA:75,0
DA:74,0
DA:75,0
DA:74,0
DA:75,0
DA:74,0
DA:75,0
DA:74,0
DA:75,0
DA:74,0
DA:75,0
DA:74,0
DA:75,0
DA:74,0
DA:75,0
DA:74,0
DA:75,0
DA:74,0
DA:75,0
DA:74,0
DA:75,0
DA:74,0
DA:75,0
DA:74,0
DA:75,0
DA:74,0
DA:75,0
DA:74,0
DA:75,0
DA:74,0
DA:75,0
DA:99,0
DA:100,0
DA:99,0
DA:100,0
DA:99,0
DA:100,0
DA:99,0
DA:100,0
DA:99,0
DA:100,0
DA:99,0
DA:100,0
DA:99,0
DA:100,0
DA:99,0
DA:100,0
DA:99,0
DA:100,0
DA:99,0
DA:100,0
DA:99,0
DA:100,0
DA:99,0
DA:100,0
DA:99,0
DA:100,0
DA:99,0
DA:100,0
DA:99,0
DA:100,0
DA:99,0
DA:100,0
DA:99,0
DA:100,0
DA:99,0
DA:100,0
DA:99,0
DA:100,0
DA:99,0
DA:100,0
DA:99,0
DA:100,0
DA:99,0
DA:100,0
DA:99,0
DA:100,0
DA:99,0
DA:100,0
DA:99,0
DA:100,0
DA:99,0
DA:100,0
DA:99,0
DA:100,0
DA:99,0
DA:100,0
DA:99,0
DA:100,0
DA:138,0
DA:139,0
DA:138,0
DA:139,0
DA:138,0
DA:139,0
DA:138,0
DA:139,0
DA:182,0
DA:193,0
DA:194,0
DA:195,0
DA:196,0
DA:182,0
DA:193,0
DA:194,0
DA:195,0
DA:196,0
end_of_record
SF:/workspace/vtr-verilog-to-routing/ODIN_II/SRC/simulate_blif.cpp
FN:47,_ZL10init_valueP9nnode_t_t
FNDA:0,_ZL10init_valueP9nnode_t_t
FN:61,_ZL13get_edge_typeP8npin_t_ti
FNDA:0,_ZL13get_edge_typeP8npin_t_ti
FN:80,_ZL10ff_trigger11edge_type_eP8npin_t_ti
FNDA:0,_ZL10ff_trigger11edge_type_eP8npin_t_ti
FN:93,_ZL5get_DP8npin_t_ti
FNDA:0,_ZL5get_DP8npin_t_ti
FN:98,_ZL5get_QP8npin_t_ti
FNDA:0,_ZL5get_QP8npin_t_ti
FN:103,_ZL10compute_ffbaai
FNDA:0,_ZL10compute_ffbaai
FN:117,_ZL10compute_ffbP8npin_t_tS0_i
FNDA:0,_ZL10compute_ffbP8npin_t_tS0_i
FN:122,_ZL13is_clock_nodeP9nnode_t_t
FNDA:0,_ZL13is_clock_nodeP9nnode_t_t
FN:257,_Z16simulate_netlistP11netlist_t_t
FNDA:0,_Z16simulate_netlistP11netlist_t_t
FN:417,_Z15init_simulationP11netlist_t_t
FNDA:0,_Z15init_simulationP11netlist_t_t
FN:536,_Z20terminate_simulationP12sim_data_t_t
FNDA:0,_Z20terminate_simulationP12sim_data_t_t
FN:558,_Z25simulate_steps_sequentialP12sim_data_t_td
FNDA:0,_Z25simulate_steps_sequentialP12sim_data_t_td
FN:629,_Z26simulate_steps_in_parallelP12sim_data_t_tiid
FNDA:0,_Z26simulate_steps_in_parallelP12sim_data_t_tiid
FN:835,_Z11single_stepP12sim_data_t_ti
FNDA:0,_Z11single_stepP12sim_data_t_ti
FN:904,_ZL22compute_and_store_partiiiP8stages_ti
FNDA:0,_ZL22compute_and_store_partiiiP8stages_ti
FN:913,_ZL14simulate_cycleiP8stages_t
FNDA:0,_ZL14simulate_cycleiP8stages_t
FN:953,_ZL36compute_and_store_part_multithreadediP14netlist_subseti
FNDA:0,_ZL36compute_and_store_part_multithreadediP14netlist_subseti
FN:1000,_ZL45compute_and_store_part_in_waves_multithreadediP14netlist_subsetiiib
FNDA:0,_ZL45compute_and_store_part_in_waves_multithreadediP14netlist_subsetiiib
FN:1086,_ZL41compute_and_store_part_wave_multithreadediP14netlist_subsetii
FNDA:0,_ZL41compute_and_store_part_wave_multithreadediP14netlist_subsetii
FN:1138,_ZL28simulate_cycle_multithreadediP24thread_node_distribution
FNDA:0,_ZL28simulate_cycle_multithreadediP24thread_node_distribution
FN:1169,_ZL26update_undriven_input_pinsP9nnode_t_ti
FNDA:0,_ZL26update_undriven_input_pinsP9nnode_t_ti
FN:1199,_ZL13is_node_readyP9nnode_t_ti
FNDA:0,_ZL13is_node_readyP9nnode_t_ti
FN:1283,_ZL20simulate_first_cycleP11netlist_t_tiP7lines_t
FNDA:0,_ZL20simulate_first_cycleP11netlist_t_tiP7lines_t
FN:1355,_ZL19stage_ordered_nodesPP9nnode_t_ti
FNDA:0,_ZL19stage_ordered_nodesPP9nnode_t_ti
FN:1436,_ZL29calculate_thread_distributionP8stages_t
FNDA:0,_ZL29calculate_thread_distributionP8stages_t
FN:1713,_ZL23compute_and_store_valueP9nnode_t_ti
FNDA:0,_ZL23compute_and_store_valueP9nnode_t_ti
FN:2090,_ZL21get_num_covered_nodesP8stages_t
FNDA:0,_ZL21get_num_covered_nodesP8stages_t
FN:2103,_ZL16is_node_completeP9nnode_t_ti
FNDA:0,_ZL16is_node_completeP9nnode_t_ti
FN:2116,_Z15set_clock_ratioiP9nnode_t_t
FNDA:0,_Z15set_clock_ratioiP9nnode_t_t
FN:2129,_Z15get_clock_ratioP9nnode_t_t
FNDA:0,_Z15get_clock_ratioP9nnode_t_t
FN:2142,_ZL14get_parents_ofP9nnode_t_tPi
FNDA:0,_ZL14get_parents_ofP9nnode_t_tPi
FN:2171,_Z15get_children_ofP9nnode_t_tPi
FNDA:0,_Z15get_children_ofP9nnode_t_tPi
FN:2254,_ZL25get_children_pinnumber_ofP9nnode_t_tPi
FNDA:0,_ZL25get_children_pinnumber_ofP9nnode_t_tPi
FN:2337,_Z23get_children_of_nodepinP9nnode_t_tPii
FNDA:0,_Z23get_children_of_nodepinP9nnode_t_tPii
FN:2429,_ZL14initialize_pinP8npin_t_t
FNDA:0,_ZL14initialize_pinP8npin_t_t
FN:2464,_ZL16update_pin_valueP8npin_t_tai
FNDA:0,_ZL16update_pin_valueP8npin_t_tai
FN:2475,_Z13get_pin_valueP8npin_t_ti
FNDA:0,_Z13get_pin_valueP8npin_t_ti
FN:2487,_ZL13get_pin_cycleP8npin_t_t
FNDA:0,_ZL13get_pin_cycleP8npin_t_t
FN:2498,_ZL21compute_flipflop_nodeP9nnode_t_ti
FNDA:0,_ZL21compute_flipflop_nodeP9nnode_t_ti
FN:2515,_ZL18compute_mux_2_nodeP9nnode_t_ti
FNDA:0,_ZL18compute_mux_2_nodeP9nnode_t_ti
FN:2588,_ZL20compute_hard_ip_nodeP9nnode_t_ti
FNDA:0,_ZL20compute_hard_ip_nodeP9nnode_t_ti
FN:2650,_ZL21compute_multiply_nodeP9nnode_t_ti
FNDA:0,_ZL21compute_multiply_nodeP9nnode_t_ti
FN:2696,_ZL20compute_generic_nodeP9nnode_t_ti
FNDA:0,_ZL20compute_generic_nodeP9nnode_t_ti
FN:2741,_ZL15multiply_arraysPiiS_i
FNDA:0,_ZL15multiply_arraysPiiS_i
FN:2771,_ZL16compute_add_nodeP9nnode_t_tii
FNDA:0,_ZL16compute_add_nodeP9nnode_t_tii
FN:2833,_ZL10add_arraysPiiS_iS_ii
FNDA:0,_ZL10add_arraysPiiS_iS_ii
FN:2908,_ZL22compute_unary_sub_nodeP9nnode_t_ti
FNDA:0,_ZL22compute_unary_sub_nodeP9nnode_t_ti
FN:2966,_ZL16unary_sub_arraysPiiS_i
FNDA:0,_ZL16unary_sub_arraysPiiS_i
FN:2993,_ZL19compute_memory_nodeP9nnode_t_ti
FNDA:0,_ZL19compute_memory_nodeP9nnode_t_ti
FN:3007,_ZL15compute_addressP15signal_list_t_ti
FNDA:0,_ZL15compute_addressP15signal_list_t_ti
FN:3022,_ZL20read_write_to_memoryP9nnode_t_tP15signal_list_t_tS2_S2_bP8npin_t_ti
FNDA:0,_ZL20read_write_to_memoryP9nnode_t_tP15signal_list_t_tS2_S2_bP8npin_t_ti
FN:3097,_ZL23write_back_memory_nodesPP9nnode_t_ti
FNDA:0,_ZL23write_back_memory_nodesPP9nnode_t_ti
FN:3127,_ZL26compute_single_port_memoryP9nnode_t_ti
FNDA:0,_ZL26compute_single_port_memoryP9nnode_t_ti
FN:3145,_ZL24compute_dual_port_memoryP9nnode_t_ti
FNDA:0,_ZL24compute_dual_port_memoryP9nnode_t_ti
FN:3167,_ZL18instantiate_memoryP9nnode_t_tll
FNDA:0,_ZL18instantiate_memoryP9nnode_t_tll
FN:3192,_ZL19preprocess_mif_fileP8_IO_FILE
FNDA:0,_ZL19preprocess_mif_fileP8_IO_FILE
FN:3230,_ZL15parse_mif_radixNSt7__cxx1112basic_stringIcSt11char_traitsIcESaIcEEE
FNDA:0,_ZL15parse_mif_radixNSt7__cxx1112basic_stringIcSt11char_traitsIcESaIcEEE
FN:3239,_ZL27assign_memory_from_mif_fileP9nnode_t_tP8_IO_FILEPcil
FNDA:0,_ZL27assign_memory_from_mif_fileP9nnode_t_tP8_IO_FILEPcil
FN:3395,_ZL19assign_node_to_lineP9nnode_t_tP7lines_tii
FNDA:0,_ZL19assign_node_to_lineP9nnode_t_tP7lines_tii
FN:3447,_ZL20insert_pin_into_lineP8npin_t_tiP6line_ti
FNDA:0,_ZL20insert_pin_into_lineP8npin_t_tiP6line_ti
FN:3482,_ZL12create_linesP11netlist_t_ti
FNDA:0,_ZL12create_linesP11netlist_t_ti
FN:3520,_ZL20write_vector_headersP8_IO_FILEP7lines_t
FNDA:0,_ZL20write_vector_headersP8_IO_FILEP7lines_t
FN:3534,_ZL26verify_test_vector_headersP8_IO_FILEP7lines_t
FNDA:0,_ZL26verify_test_vector_headersP8_IO_FILEP7lines_t
FN:3594,_ZL12verify_linesP7lines_t
FNDA:0,_ZL12verify_linesP7lines_t
FN:3616,_ZL22find_portname_in_linesPcP7lines_t
FNDA:0,_ZL22find_portname_in_linesPcP7lines_t
FN:3629,_ZL11create_linePc
FNDA:0,_ZL11create_linePc
FN:3647,_ZL22generate_vector_headerP7lines_t
FNDA:0,_ZL22generate_vector_headerP7lines_t
FN:3676,_ZL24add_test_vector_to_linesP11test_vectorP7lines_ti
FNDA:0,_ZL24add_test_vector_to_linesP11test_vectorP7lines_ti
FN:3704,_ZL20compare_test_vectorsP11test_vectorS0_
FNDA:0,_ZL20compare_test_vectorsP11test_vectorS0_
FN:3749,_ZL17parse_test_vectorPc
FNDA:0,_ZL17parse_test_vectorPc
FN:3818,_ZL25contains_a_substr_of_nameSt6vectorINSt7__cxx1112basic_stringIcSt11char_traitsIcESaIcEEESaIS5_EEPKc
FNDA:0,_ZL25contains_a_substr_of_nameSt6vectorINSt7__cxx1112basic_stringIcSt11char_traitsIcESaIcEEESaIS5_EEPKc
FN:3838,_ZL27generate_random_test_vectoriP12sim_data_t_t
FNDA:0,_ZL27generate_random_test_vectoriP12sim_data_t_t
FN:3928,_ZL19write_cycle_to_fileP7lines_tP8_IO_FILEi
FNDA:0,_ZL19write_cycle_to_fileP7lines_tP8_IO_FILEi
FN:3940,_ZL20write_vector_to_fileP7lines_tP8_IO_FILEi
FNDA:0,_ZL20write_vector_to_fileP7lines_tP8_IO_FILEi
FN:4012,_ZL28write_cycle_to_modelsim_fileP11netlist_t_tP7lines_tP8_IO_FILEi
FNDA:0,_ZL28write_cycle_to_modelsim_fileP11netlist_t_tP7lines_tP8_IO_FILEi
FN:4038,_ZL29write_vector_to_modelsim_fileP7lines_tP8_IO_FILEi
FNDA:0,_ZL29write_vector_to_modelsim_fileP7lines_tP8_IO_FILEi
FN:4090,_ZL21verify_output_vectorsPci
FNDA:0,_ZL21verify_output_vectorsPci
FN:4200,_ZL29add_additional_items_to_linesP9nnode_t_tP7lines_t
FNDA:0,_ZL29add_additional_items_to_linesP9nnode_t_tP7lines_t
FN:4282,_ZL16get_mif_filenameP9nnode_t_t
FNDA:0,_ZL16get_mif_filenameP9nnode_t_t
FN:4302,_ZL20line_has_unknown_pinP6line_ti
FNDA:0,_ZL20line_has_unknown_pinP6line_ti
FN:4321,_Z18get_line_pin_valueP6line_tii
FNDA:0,_Z18get_line_pin_valueP6line_tii
FN:4330,_ZL19vector_value_to_hexPai
FNDA:0,_ZL19vector_value_to_hexPai
FN:4352,_ZL18count_test_vectorsP8_IO_FILE
FNDA:0,_ZL18count_test_vectorsP8_IO_FILE
FN:4372,_ZL24count_empty_test_vectorsP8_IO_FILE
FNDA:0,_ZL24count_empty_test_vectorsP8_IO_FILE
FN:4394,_ZL9is_vectorPc
FNDA:0,_ZL9is_vectorPc
FN:4417,_ZL15get_next_vectorP8_IO_FILEPc
FNDA:0,_ZL15get_next_vectorP8_IO_FILEPc
FN:4434,_ZL10free_linesP7lines_t
FNDA:0,_ZL10free_linesP7lines_t
FN:4451,_ZL11free_stagesP8stages_t
FNDA:0,_ZL11free_stagesP8stages_t
FN:4463,_ZL24free_thread_distributionP24thread_node_distribution
FNDA:0,_ZL24free_thread_distributionP24thread_node_distribution
FN:4482,_ZL16free_test_vectorP11test_vector
FNDA:0,_ZL16free_test_vectorP11test_vector
FN:4494,_ZL19print_netlist_statsP8stages_ti
FNDA:0,_ZL19print_netlist_statsP8stages_ti
FN:4515,_ZL22print_simulation_statsP8stages_tidd
FNDA:0,_ZL22print_simulation_statsP8stages_tidd
FN:4532,_ZL14print_ancestryP9nnode_t_ti
FNDA:0,_ZL14print_ancestryP9nnode_t_ti
FN:4623,_ZL18print_update_traceP9nnode_t_ti
FNDA:0,_ZL18print_update_traceP9nnode_t_ti
DA:47,0
DA:49,0
DA:61,0
DA:63,0
DA:64,0
DA:65,0
DA:66,0
DA:68,0
DA:70,0
DA:71,0
DA:73,0
DA:74,0
DA:75,0
DA:76,0
DA:77,0
DA:80,0
DA:82,0
DA:85,0
DA:86,0
DA:87,0
DA:88,0
DA:89,0
DA:90,0
DA:93,0
DA:95,0
DA:98,0
DA:100,0
DA:103,0
DA:105,0
DA:117,0
DA:119,0
DA:122,0
DA:124,0
DA:125,0
DA:126,0
DA:127,0
DA:128,0
DA:257,0
DA:259,0
DA:260,0
DA:261,0
DA:267,0
DA:268,0
DA:270,0
DA:272,0
DA:274,0
DA:276,0
DA:278,0
DA:279,0
DA:280,0
DA:284,0
DA:288,0
DA:289,0
DA:291,0
DA:293,0
DA:294,0
DA:296,0
DA:297,0
DA:299,0
DA:300,0
DA:304,0
DA:306,0
DA:307,0
DA:417,0
DA:420,0
DA:421,0
DA:422,0
DA:423,0
DA:425,0
DA:427,0
DA:429,0
DA:431,0
DA:432,0
DA:433,0
DA:436,0
DA:437,0
DA:438,0
DA:439,0
DA:440,0
DA:443,0
DA:444,0
DA:445,0
DA:446,0
DA:447,0
DA:450,0
DA:451,0
DA:452,0
DA:453,0
DA:454,0
DA:457,0
DA:458,0
DA:459,0
DA:460,0
DA:461,0
DA:464,0
DA:465,0
DA:466,0
DA:468,0
DA:469,0
DA:470,0
DA:473,0
DA:474,0
DA:478,0
DA:479,0
DA:481,0
DA:482,0
DA:483,0
DA:484,0
DA:486,0
DA:489,0
DA:490,0
DA:492,0
DA:497,0
DA:499,0
DA:500,0
DA:501,0
DA:503,0
DA:507,0
DA:509,0
DA:510,0
DA:512,0
DA:516,0
DA:519,0
DA:520,0
DA:522,0
DA:525,0
DA:527,0
DA:529,0
DA:530,0
DA:533,0
DA:536,0
DA:538,0
DA:540,0
DA:542,0
DA:544,0
DA:545,0
DA:547,0
DA:548,0
DA:549,0
DA:550,0
DA:551,0
DA:552,0
DA:553,0
DA:554,0
DA:558,0
DA:561,0
DA:563,0
DA:564,0
DA:566,0
DA:569,0
DA:570,0
DA:571,0
DA:573,0
DA:576,0
DA:578,0
DA:580,0
DA:581,0
DA:583,0
DA:585,0
DA:586,0
DA:587,0
DA:589,0
DA:592,0
DA:593,0
DA:599,0
DA:600,0
DA:606,0
DA:609,0
DA:612,0
DA:613,0
DA:615,0
DA:619,0
DA:620,0
DA:621,0
DA:622,0
DA:625,0
DA:629,0
DA:633,0
DA:634,0
DA:635,0
DA:636,0
DA:637,0
DA:639,0
DA:640,0
DA:641,0
DA:642,0
DA:644,0
DA:645,0
DA:647,0
DA:649,0
DA:650,0
DA:653,0
DA:655,0
DA:656,0
DA:657,0
DA:658,0
DA:659,0
DA:662,0
DA:670,0
DA:672,0
DA:673,0
DA:676,0
DA:677,0
DA:679,0
DA:684,0
DA:687,0
DA:688,0
DA:689,0
DA:692,0
DA:693,0
DA:695,0
DA:698,0
DA:700,0
DA:701,0
DA:705,0
DA:708,0
DA:710,0
DA:715,0
DA:718,0
DA:719,0
DA:720,0
DA:721,0
DA:722,0
DA:726,0
DA:727,0
DA:729,0
DA:731,0
DA:734,0
DA:737,0
DA:741,0
DA:742,0
DA:743,0
DA:745,0
DA:747,0
DA:748,0
DA:750,0
DA:752,0
DA:753,0
DA:754,0
DA:756,0
DA:759,0
DA:760,0
DA:766,0
DA:767,0
DA:770,0
DA:772,0
DA:773,0
DA:774,0
DA:776,0
DA:777,0
DA:778,0
DA:779,0
DA:780,0
DA:784,0
DA:788,0
DA:789,0
DA:797,0
DA:798,0
DA:800,0
DA:801,0
DA:802,0
DA:805,0
DA:808,0
DA:809,0
DA:816,0
DA:817,0
DA:819,0
DA:820,0
DA:823,0
DA:824,0
DA:826,0
DA:827,0
DA:828,0
DA:830,0
DA:835,0
DA:838,0
DA:842,0
DA:845,0
DA:849,0
DA:850,0
DA:852,0
DA:856,0
DA:859,0
DA:860,0
DA:861,0
DA:862,0
DA:864,0
DA:868,0
DA:875,0
DA:876,0
DA:881,0
DA:885,0
DA:889,0
DA:891,0
DA:904,0
DA:907,0
DA:908,0
DA:909,0
DA:911,0
DA:913,0
DA:915,0
DA:916,0
DA:918,0
DA:920,0
DA:921,0
DA:923,0
DA:924,0
DA:926,0
DA:928,0
DA:929,0
DA:931,0
DA:932,0
DA:934,0
DA:936,0
DA:937,0
DA:939,0
DA:944,0
DA:945,0
DA:947,0
DA:949,0
DA:953,0
DA:956,0
DA:957,0
DA:958,0
DA:960,0
DA:961,0
DA:964,0
DA:966,0
DA:968,0
DA:970,0
DA:972,0
DA:973,0
DA:975,0
DA:976,0
DA:979,0
DA:980,0
DA:982,0
DA:984,0
DA:986,0
DA:987,0
DA:989,0
DA:991,0
DA:993,0
DA:994,0
DA:995,0
DA:1000,0
DA:1003,0
DA:1004,0
DA:1006,0
DA:1008,0
DA:1010,0
DA:1011,0
DA:1012,0
DA:1013,0
DA:1015,0
DA:1017,0
DA:1018,0
DA:1019,0
DA:1021,0
DA:1022,0
DA:1024,0
DA:1026,0
DA:1028,0
DA:1030,0
DA:1032,0
DA:1033,0
DA:1036,0
DA:1038,0
DA:1043,0
DA:1045,0
DA:1047,0
DA:1049,0
DA:1057,0
DA:1058,0
DA:1059,0
DA:1060,0
DA:1061,0
DA:1063,0
DA:1066,0
DA:1067,0
DA:1068,0
DA:1069,0
DA:1072,0
DA:1074,0
DA:1075,0
DA:1076,0
DA:1082,0
DA:1083,0
DA:1086,0
DA:1089,0
DA:1090,0
DA:1093,0
DA:1095,0
DA:1096,0
DA:1097,0
DA:1099,0
DA:1100,0
DA:1102,0
DA:1104,0
DA:1106,0
DA:1108,0
DA:1110,0
DA:1111,0
DA:1113,0
DA:1114,0
DA:1119,0
DA:1121,0
DA:1123,0
DA:1125,0
DA:1132,0
DA:1134,0
DA:1138,0
DA:1140,0
DA:1144,0
DA:1146,0
DA:1149,0
DA:1150,0
DA:1152,0
DA:1153,0
DA:1155,0
DA:1169,0
DA:1172,0
DA:1173,0
DA:1176,0
DA:1178,0
DA:1180,0
DA:1183,0
DA:1185,0
DA:1194,0
DA:1199,0
DA:1201,0
DA:1208,0
DA:1210,0
DA:1212,0
DA:1214,0
DA:1216,0
DA:1218,0
DA:1219,0
DA:1222,0
DA:1224,0
DA:1225,0
DA:1227,0
DA:1231,0
DA:1236,0
DA:1238,0
DA:1239,0
DA:1242,0
DA:1243,0
DA:1245,0
DA:1246,0
DA:1248,0
DA:1251,0
DA:1253,0
DA:1255,0
DA:1257,0
DA:1258,0
DA:1262,0
DA:1263,0
DA:1270,0
DA:1271,0
DA:1272,0
DA:1274,0
DA:1283,0
DA:1285,0
DA:1288,0
DA:1290,0
DA:1292,0
DA:1293,0
DA:1298,0
DA:1299,0
DA:1300,0
DA:1302,0
DA:1304,0
DA:1305,0
DA:1309,0
DA:1310,0
DA:1313,0
DA:1315,0
DA:1316,0
DA:1317,0
DA:1319,0
DA:1322,0
DA:1323,0
DA:1325,0
DA:1327,0
DA:1329,0
DA:1331,0
DA:1332,0
DA:1336,0
DA:1338,0
DA:1341,0
DA:1342,0
DA:1346,0
DA:1347,0
DA:1349,0
DA:1355,0
DA:1356,0
DA:1357,0
DA:1358,0
DA:1359,0
DA:1360,0
DA:1361,0
DA:1362,0
DA:1363,0
DA:1364,0
DA:1365,0
DA:1366,0
DA:1369,0
DA:1370,0
DA:1373,0
DA:1375,0
DA:1376,0
DA:1380,0
DA:1383,0
DA:1386,0
DA:1387,0
DA:1388,0
DA:1389,0
DA:1390,0
DA:1393,0
DA:1395,0
DA:1396,0
DA:1397,0
DA:1398,0
DA:1399,0
DA:1400,0
DA:1401,0
DA:1403,0
DA:1404,0
DA:1408,0
DA:1409,0
DA:1412,0
DA:1415,0
DA:1418,0
DA:1422,0
DA:1424,0
DA:1426,0
DA:1428,0
DA:1429,0
DA:1430,0
DA:1436,0
DA:1441,0
DA:1442,0
DA:1443,0
DA:1444,0
DA:1446,0
DA:1453,0
DA:1456,0
DA:1459,0
DA:1460,0
DA:1461,0
DA:1462,0
DA:1464,0
DA:1465,0
DA:1466,0
DA:1469,0
DA:1471,0
DA:1472,0
DA:1475,0
DA:1478,0
DA:1479,0
DA:1480,0
DA:1481,0
DA:1482,0
DA:1483,0
DA:1484,0
DA:1485,0
DA:1487,0
DA:1489,0
DA:1491,0
DA:1494,0
DA:1495,0
DA:1499,0
DA:1500,0
DA:1501,0
DA:1502,0
DA:1503,0
DA:1507,0
DA:1509,0
DA:1511,0
DA:1513,0
DA:1514,0
DA:1517,0
DA:1519,0
DA:1521,0
DA:1522,0
DA:1524,0
DA:1526,0
DA:1528,0
DA:1530,0
DA:1531,0
DA:1532,0
DA:1533,0
DA:1535,0
DA:1536,0
DA:1537,0
DA:1538,0
DA:1539,0
DA:1540,0
DA:1541,0
DA:1542,0
DA:1544,0
DA:1650,0
DA:1652,0
DA:1654,0
DA:1657,0
DA:1660,0
DA:1663,0
DA:1667,0
DA:1668,0
DA:1669,0
DA:1673,0
DA:1676,0
DA:1679,0
DA:1682,0
DA:1684,0
DA:1686,0
DA:1691,0
DA:1699,0
DA:1700,0
DA:1702,0
DA:1704,0
DA:1705,0
DA:1713,0
DA:1716,0
DA:1717,0
DA:1718,0
DA:1720,0
DA:1721,0
DA:1722,0
DA:1723,0
DA:1724,0
DA:1725,0
DA:1726,0
DA:1727,0
DA:1728,0
DA:1729,0
DA:1730,0
DA:1731,0
DA:1732,0
DA:1734,0
DA:1735,0
DA:1736,0
DA:1738,0
DA:1740,0
DA:1742,0
DA:1743,0
DA:1745,0
DA:1746,0
DA:1747,0
DA:1748,0
DA:1750,0
DA:1752,0
DA:1753,0
DA:1754,0
DA:1756,0
DA:1758,0
DA:1760,0
DA:1761,0
DA:1763,0
DA:1764,0
DA:1765,0
DA:1766,0
DA:1768,0
DA:1770,0
DA:1771,0
DA:1772,0
DA:1774,0
DA:1776,0
DA:1778,0
DA:1779,0
DA:1781,0
DA:1782,0
DA:1783,0
DA:1784,0
DA:1786,0
DA:1789,0
DA:1790,0
DA:1791,0
DA:1793,0
DA:1795,0
DA:1797,0
DA:1798,0
DA:1800,0
DA:1801,0
DA:1802,0
DA:1803,0
DA:1805,0
DA:1807,0
DA:1809,0
DA:1810,0
DA:1811,0
DA:1813,0
DA:1814,0
DA:1815,0
DA:1816,0
DA:1818,0
DA:1820,0
DA:1822,0
DA:1824,0
DA:1826,0
DA:1827,0
DA:1828,0
DA:1830,0
DA:1831,0
DA:1832,0
DA:1833,0
DA:1835,0
DA:1837,0
DA:1839,0
DA:1841,0
DA:1843,0
DA:1844,0
DA:1845,0
DA:1847,0
DA:1848,0
DA:1849,0
DA:1850,0
DA:1851,0
DA:1852,0
DA:1853,0
DA:1855,0
DA:1857,0
DA:1859,0
DA:1861,0
DA:1863,0
DA:1865,0
DA:1866,0
DA:1867,0
DA:1869,0
DA:1870,0
DA:1871,0
DA:1872,0
DA:1873,0
DA:1875,0
DA:1877,0
DA:1879,0
DA:1881,0
DA:1884,0
DA:1885,0
DA:1886,0
DA:1888,0
DA:1890,0
DA:1892,0
DA:1893,0
DA:1895,0
DA:1896,0
DA:1897,0
DA:1898,0
DA:1900,0
DA:1903,0
DA:1904,0
DA:1905,0
DA:1907,0
DA:1909,0
DA:1911,0
DA:1912,0
DA:1914,0
DA:1915,0
DA:1916,0
DA:1917,0
DA:1919,0
DA:1921,0
DA:1923,0
DA:1925,0
DA:1926,0
DA:1927,0
DA:1928,0
DA:1930,0
DA:1932,0
DA:1934,0
DA:1937,0
DA:1938,0
DA:1940,0
DA:1942,0
DA:1943,0
DA:1946,0
DA:1947,0
DA:1948,0
DA:1950,0
DA:1951,0
DA:1953,0
DA:1954,0
DA:1959,0
DA:1961,0
DA:1962,0
DA:1964,0
DA:1968,0
DA:1970,0
DA:1971,0
DA:1973,0
DA:1976,0
DA:1978,0
DA:1979,0
DA:1980,0
DA:1981,0
DA:1982,0
DA:1983,0
DA:1984,0
DA:1985,0
DA:1986,0
DA:1987,0
DA:1988,0
DA:1989,0
DA:1990,0
DA:1991,0
DA:1992,0
DA:1993,0
DA:1994,0
DA:1995,0
DA:1996,0
DA:1997,0
DA:1998,0
DA:1999,0
DA:2000,0
DA:2001,0
DA:2003,0
DA:2004,0
DA:2005,0
DA:2006,0
DA:2007,0
DA:2008,0
DA:2010,0
DA:2011,0
DA:2013,0
DA:2033,0
DA:2034,0
DA:2038,0
DA:2039,0
DA:2040,0
DA:2041,0
DA:2042,0
DA:2043,0
DA:2047,0
DA:2049,0
DA:2050,0
DA:2052,0
DA:2055,0
DA:2058,0
DA:2060,0
DA:2064,0
DA:2066,0
DA:2067,0
DA:2068,0
DA:2069,0
DA:2072,0
DA:2076,0
DA:2077,0
DA:2082,0
DA:2090,0
DA:2092,0
DA:2093,0
DA:2094,0
DA:2095,0
DA:2097,0
DA:2103,0
DA:2106,0
DA:2107,0
DA:2108,0
DA:2110,0
DA:2116,0
DA:2119,0
DA:2120,0
DA:2122,0
DA:2129,0
DA:2132,0
DA:2133,0
DA:2135,0
DA:2142,0
DA:2144,0
DA:2145,0
DA:2148,0
DA:2150,0
DA:2151,0
DA:2153,0
DA:2155,0
DA:2158,0
DA:2159,0
DA:2162,0
DA:2163,0
DA:2171,0
DA:2173,0
DA:2174,0
DA:2176,0
DA:2178,0
DA:2179,0
DA:2180,0
DA:2186,0
DA:2188,0
DA:2189,0
DA:2190,0
DA:2192,0
DA:2205,0
DA:2206,0
DA:2207,0
DA:2211,0
DA:2213,0
DA:2214,0
DA:2216,0
DA:2219,0
DA:2221,0
DA:2222,0
DA:2224,0
DA:2226,0
DA:2227,0
DA:2230,0
DA:2232,0
DA:2233,0
DA:2238,0
DA:2239,0
DA:2245,0
DA:2246,0
DA:2254,0
DA:2256,0
DA:2257,0
DA:2259,0
DA:2261,0
DA:2262,0
DA:2263,0
DA:2269,0
DA:2271,0
DA:2272,0
DA:2273,0
DA:2275,0
DA:2288,0
DA:2289,0
DA:2290,0
DA:2294,0
DA:2296,0
DA:2297,0
DA:2299,0
DA:2302,0
DA:2304,0
DA:2305,0
DA:2307,0
DA:2309,0
DA:2310,0
DA:2313,0
DA:2315,0
DA:2316,0
DA:2321,0
DA:2322,0
DA:2328,0
DA:2329,0
DA:2337,0
DA:2339,0
DA:2340,0
DA:2341,0
DA:2342,0
DA:2344,0
DA:2345,0
DA:2348,0
DA:2349,0
DA:2350,0
DA:2356,0
DA:2358,0
DA:2359,0
DA:2360,0
DA:2362,0
DA:2375,0
DA:2376,0
DA:2377,0
DA:2381,0
DA:2383,0
DA:2384,0
DA:2386,0
DA:2389,0
DA:2391,0
DA:2392,0
DA:2394,0
DA:2396,0
DA:2397,0
DA:2400,0
DA:2402,0
DA:2403,0
DA:2408,0
DA:2409,0
DA:2415,0
DA:2416,0
DA:2429,0
DA:2432,0
DA:2433,0
DA:2436,0
DA:2437,0
DA:2439,0
DA:2441,0
DA:2443,0
DA:2446,0
DA:2448,0
DA:2449,0
DA:2450,0
DA:2454,0
DA:2464,0
DA:2466,0
DA:2467,0
DA:2469,0
DA:2470,0
DA:2475,0
DA:2477,0
DA:2479,0
DA:2481,0
DA:2487,0
DA:2489,0
DA:2490,0
DA:2492,0
DA:2498,0
DA:2500,0
DA:2502,0
DA:2503,0
DA:2504,0
DA:2505,0
DA:2506,0
DA:2508,0
DA:2509,0
DA:2510,0
DA:2515,0
DA:2517,0
DA:2518,0
DA:2519,0
DA:2521,0
DA:2524,0
DA:2525,0
DA:2526,0
DA:2528,0
DA:2530,0
DA:2531,0
DA:2533,0
DA:2534,0
DA:2535,0
DA:2536,0
DA:2542,0
DA:2543,0
DA:2547,0
DA:2549,0
DA:2550,0
DA:2553,0
DA:2556,0
DA:2562,0
DA:2563,0
DA:2565,0
DA:2568,0
DA:2570,0
DA:2574,0
DA:2575,0
DA:2581,0
DA:2583,0
DA:2588,0
DA:2590,0
DA:2591,0
DA:2594,0
DA:2595,0
DA:2597,0
DA:2599,0
DA:2601,0
DA:2602,0
DA:2605,0
DA:2607,0
DA:2609,0
DA:2610,0
DA:2613,0
DA:2616,0
DA:2618,0
DA:2619,0
DA:2620,0
DA:2623,0
DA:2625,0
DA:2629,0
DA:2630,0
DA:2632,0
DA:2633,0
DA:2635,0
DA:2636,0
DA:2638,0
DA:2639,0
DA:2645,0
DA:2650,0
DA:2652,0
DA:2653,0
DA:2656,0
DA:2657,0
DA:2659,0
DA:2660,0
DA:2662,0
DA:2663,0
DA:2667,0
DA:2669,0
DA:2670,0
DA:2674,0
DA:2675,0
DA:2677,0
DA:2678,0
DA:2680,0
DA:2681,0
DA:2683,0
DA:2685,0
DA:2686,0
DA:2688,0
DA:2689,0
DA:2690,0
DA:2693,0
DA:2696,0
DA:2698,0
DA:2699,0
DA:2701,0
DA:2702,0
DA:2703,0
DA:2705,0
DA:2707,0
DA:2710,0
DA:2712,0
DA:2714,0
DA:2715,0
DA:2718,0
DA:2719,0
DA:2722,0
DA:2725,0
DA:2726,0
DA:2727,0
DA:2729,0
DA:2730,0
DA:2741,0
DA:2743,0
DA:2744,0
DA:2747,0
DA:2749,0
DA:2752,0
DA:2753,0
DA:2756,0
DA:2758,0
DA:2760,0
DA:2761,0
DA:2764,0
DA:2771,0
DA:2773,0
DA:2774,0
DA:2777,0
DA:2779,0
DA:2780,0
DA:2781,0
DA:2783,0
DA:2786,0
DA:2788,0
DA:2789,0
DA:2790,0
DA:2791,0
DA:2794,0
DA:2796,0
DA:2797,0
DA:2798,0
DA:2799,0
DA:2801,0
DA:2803,0
DA:2804,0
DA:2806,0
DA:2807,0
DA:2809,0
DA:2811,0
DA:2814,0
DA:2815,0
DA:2817,0
DA:2819,0
DA:2820,0
DA:2821,0
DA:2822,0
DA:2824,0
DA:2833,0
DA:2835,0
DA:2836,0
DA:2840,0
DA:2842,0
DA:2843,0
DA:2847,0
DA:2848,0
DA:2851,0
DA:2852,0
DA:2853,0
DA:2855,0
DA:2857,0
DA:2858,0
DA:2862,0
DA:2863,0
DA:2865,0
DA:2867,0
DA:2869,0
DA:2871,0
DA:2873,0
DA:2874,0
DA:2878,0
DA:2879,0
DA:2881,0
DA:2886,0
DA:2888,0
DA:2890,0
DA:2891,0
DA:2894,0
DA:2895,0
DA:2897,0
DA:2901,0
DA:2908,0
DA:2910,0
DA:2911,0
DA:2914,0
DA:2915,0
DA:2917,0
DA:2918,0
DA:2920,0
DA:2921,0
DA:2925,0
DA:2927,0
DA:2928,0
DA:2932,0
DA:2933,0
DA:2935,0
DA:2936,0
DA:2938,0
DA:2939,0
DA:2940,0
DA:2942,0
DA:2944,0
DA:2947,0
DA:2948,0
DA:2950,0
DA:2952,0
DA:2953,0
DA:2954,0
DA:2957,0
DA:2966,0
DA:2968,0
DA:2969,0
DA:2974,0
DA:2975,0
DA:2976,0
DA:2978,0
DA:2979,0
DA:2980,0
DA:2982,0
DA:2983,0
DA:2984,0
DA:2987,0
DA:2993,0
DA:2995,0
DA:2996,0
DA:2997,0
DA:2998,0
DA:3000,0
DA:3002,0
DA:3007,0
DA:3009,0
DA:3010,0
DA:3013,0
DA:3014,0
DA:3015,0
DA:3017,0
DA:3019,0
DA:3022,0
DA:3025,0
DA:3029,0
DA:3030,0
DA:3033,0
DA:3034,0
DA:3037,0
DA:3040,0
DA:3042,0
DA:3044,0
DA:3049,0
DA:3051,0
DA:3059,0
DA:3060,0
DA:3062,0
DA:3064,0
DA:3066,0
DA:3073,0
DA:3075,0
DA:3076,0
DA:3077,0
DA:3079,0
DA:3083,0
DA:3090,0
DA:3092,0
DA:3094,0
DA:3097,0
DA:3101,0
DA:3103,0
DA:3104,0
DA:3106,0
DA:3107,0
DA:3109,0
DA:3110,0
DA:3111,0
DA:3113,0
DA:3114,0
DA:3115,0
DA:3117,0
DA:3119,0
DA:3122,0
DA:3127,0
DA:3129,0
DA:3131,0
DA:3133,0
DA:3134,0
DA:3137,0
DA:3139,0
DA:3140,0
DA:3145,0
DA:3147,0
DA:3148,0
DA:3150,0
DA:3151,0
DA:3152,0
DA:3153,0
DA:3157,0
DA:3158,0
DA:3160,0
DA:3161,0
DA:3167,0
DA:3169,0
DA:3170,0
DA:3171,0
DA:3173,0
DA:3174,0
DA:3175,0
DA:3177,0
DA:3181,0
DA:3182,0
DA:3184,0
DA:3186,0
DA:3192,0
DA:3194,0
DA:3195,0
DA:3196,0
DA:3199,0
DA:3200,0
DA:3203,0
DA:3205,0
DA:3208,0
DA:3211,0
DA:3212,0
DA:3214,0
DA:3215,0
DA:3220,0
DA:3221,0
DA:3224,0
DA:3226,0
DA:3227,0
DA:3230,0
DA:3232,0
DA:3233,0
DA:3234,0
DA:3235,0
DA:3236,0
DA:3239,0
DA:3241,0
DA:3242,0
DA:3244,0
DA:3247,0
DA:3248,0
DA:3249,0
DA:3251,0
DA:3252,0
DA:3253,0
DA:3255,0
DA:3257,0
DA:3258,0
DA:3260,0
DA:3263,0
DA:3266,0
DA:3269,0
DA:3270,0
DA:3273,0
DA:3274,0
DA:3277,0
DA:3278,0
DA:3280,0
DA:3282,0
DA:3285,0
DA:3286,0
DA:3288,0
DA:3289,0
DA:3291,0
DA:3292,0
DA:3294,0
DA:3295,0
DA:3298,0
DA:3299,0
DA:3303,0
DA:3313,0
DA:3314,0
DA:3316,0
DA:3317,0
DA:3320,0
DA:3321,0
DA:3322,0
DA:3324,0
DA:3328,0
DA:3331,0
DA:3332,0
DA:3333,0
DA:3335,0
DA:3336,0
DA:3337,0
DA:3341,0
DA:3342,0
DA:3343,0
DA:3345,0
DA:3346,0
DA:3347,0
DA:3348,0
DA:3353,0
DA:3354,0
DA:3355,0
DA:3356,0
DA:3357,0
DA:3358,0
DA:3362,0
DA:3363,0
DA:3364,0
DA:3365,0
DA:3366,0
DA:3367,0
DA:3371,0
DA:3375,0
DA:3380,0
DA:3384,0
DA:3388,0
DA:3389,0
DA:3395,0
DA:3398,0
DA:3400,0
DA:3401,0
DA:3402,0
DA:3406,0
DA:3408,0
DA:3409,0
DA:3412,0
DA:3413,0
DA:3416,0
DA:3417,0
DA:3419,0
DA:3421,0
DA:3423,0
DA:3428,0
DA:3429,0
DA:3430,0
DA:3431,0
DA:3436,0
DA:3437,0
DA:3440,0
DA:3442,0
DA:3447,0
DA:3450,0
DA:3451,0
DA:3455,0
DA:3457,0
DA:3461,0
DA:3463,0
DA:3464,0
DA:3466,0
DA:3470,0
DA:3471,0
DA:3472,0
DA:3473,0
DA:3474,0
DA:3482,0
DA:3484,0
DA:3485,0
DA:3486,0
DA:3488,0
DA:3489,0
DA:3492,0
DA:3494,0
DA:3495,0
DA:3497,0
DA:3499,0
DA:3500,0
DA:3501,0
DA:3503,0
DA:3508,0
DA:3509,0
DA:3511,0
DA:3513,0
DA:3520,0
DA:3522,0
DA:3523,0
DA:3524,0
DA:3525,0
DA:3526,0
DA:3534,0
DA:3536,0
DA:3537,0
DA:3541,0
DA:3542,0
DA:3543,0
DA:3547,0
DA:3549,0
DA:3551,0
DA:3553,0
DA:3555,0
DA:3556,0
DA:3558,0
DA:3560,0
DA:3562,0
DA:3564,0
DA:3565,0
DA:3569,0
DA:3570,0
DA:3574,0
DA:3575,0
DA:3579,0
DA:3580,0
DA:3584,0
DA:3585,0
DA:3588,0
DA:3594,0
DA:3597,0
DA:3600,0
DA:3602,0
DA:3604,0
DA:3605,0
DA:3609,0
DA:3616,0
DA:3619,0
DA:3620,0
DA:3621,0
DA:3623,0
DA:3629,0
DA:3631,0
DA:3633,0
DA:3634,0
DA:3635,0
DA:3636,0
DA:3637,0
DA:3639,0
DA:3641,0
DA:3647,0
DA:3649,0
DA:3650,0
DA:3653,0
DA:3656,0
DA:3657,0
DA:3659,0
DA:3660,0
DA:3662,0
DA:3666,0
DA:3668,0
DA:3669,0
DA:3676,0
DA:3678,0
DA:3679,0
DA:3680,0
DA:3681,0
DA:3684,0
DA:3686,0
DA:3688,0
DA:3689,0
DA:3692,0
DA:3694,0
DA:3695,0
DA:3698,0
DA:3704,0
DA:3706,0
DA:3707,0
DA:3709,0
DA:3710,0
DA:3714,0
DA:3717,0
DA:3719,0
DA:3721,0
DA:3722,0
DA:3724,0
DA:3733,0
DA:3735,0
DA:3737,0
DA:3738,0
DA:3739,0
DA:3742,0
DA:3749,0
DA:3751,0
DA:3752,0
DA:3753,0
DA:3754,0
DA:3755,0
DA:3757,0
DA:3759,0
DA:3760,0
DA:3761,0
DA:3763,0
DA:3764,0
DA:3765,0
DA:3766,0
DA:3768,0
DA:3770,0
DA:3771,0
DA:3772,0
DA:3774,0
DA:3776,0
DA:3778,0
DA:3780,0
DA:3782,0
DA:3783,0
DA:3785,0
DA:3786,0
DA:3788,0
DA:3789,0
DA:3791,0
DA:3796,0
DA:3798,0
DA:3799,0
DA:3800,0
DA:3802,0
DA:3803,0
DA:3806,0
DA:3807,0
DA:3809,0
DA:3810,0
DA:3818,0
DA:3820,0
DA:3821,0
DA:3823,0
DA:3824,0
DA:3826,0
DA:3827,0
DA:3829,0
DA:3831,0
DA:3832,0
DA:3833,0
DA:3835,0
DA:3838,0
DA:3843,0
DA:3844,0
DA:3845,0
DA:3846,0
DA:3848,0
DA:3850,0
DA:3851,0
DA:3852,0
DA:3853,0
DA:3855,0
DA:3856,0
DA:3859,0
DA:3861,0
DA:3862,0
DA:3867,0
DA:3869,0
DA:3870,0
DA:3873,0
DA:3874,0
DA:3876,0
DA:3877,0
DA:3879,0
DA:3882,0
DA:3888,0
DA:3890,0
DA:3891,0
DA:3896,0
DA:3898,0
DA:3899,0
DA:3904,0
DA:3906,0
DA:3909,0
DA:3910,0
DA:3912,0
DA:3914,0
DA:3928,0
DA:3930,0
DA:3931,0
DA:3933,0
DA:3934,0
DA:3940,0
DA:3942,0
DA:3945,0
DA:3947,0
DA:3948,0
DA:3949,0
DA:3951,0
DA:3953,0
DA:3954,0
DA:3957,0
DA:3959,0
DA:3961,0
DA:3962,0
DA:3963,0
DA:3964,0
DA:3966,0
DA:3977,0
DA:3978,0
DA:3979,0
DA:3981,0
DA:3983,0
DA:3985,0
DA:3987,0
DA:3988,0
DA:3990,0
DA:3992,0
DA:3994,0
DA:3995,0
DA:3999,0
DA:4004,0
DA:4006,0
DA:4007,0
DA:4012,0
DA:4014,0
DA:4016,0
DA:4020,0
DA:4022,0
DA:4023,0
DA:4025,0
DA:4026,0
DA:4027,0
DA:4032,0
DA:4033,0
DA:4038,0
DA:4041,0
DA:4043,0
DA:4045,0
DA:4048,0
DA:4050,0
DA:4052,0
DA:4053,0
DA:4055,0
DA:4059,0
DA:4060,0
DA:4063,0
DA:4065,0
DA:4066,0
DA:4068,0
DA:4070,0
DA:4071,0
DA:4074,0
DA:4078,0
DA:4090,0
DA:4092,0
DA:4095,0
DA:4097,0
DA:4098,0
DA:4106,0
DA:4107,0
DA:4110,0
DA:4111,0
DA:4112,0
DA:4113,0
DA:4114,0
DA:4120,0
DA:4122,0
DA:4124,0
DA:4125,0
DA:4126,0
DA:4128,0
DA:4130,0
DA:4131,0
DA:4132,0
DA:4135,0
DA:4137,0
DA:4138,0
DA:4145,0
DA:4150,0
DA:4151,0
DA:4153,0
DA:4156,0
DA:4158,0
DA:4159,0
DA:4160,0
DA:4161,0
DA:4167,0
DA:4169,0
DA:4170,0
DA:4171,0
DA:4178,0
DA:4179,0
DA:4184,0
DA:4186,0
DA:4187,0
DA:4190,0
DA:4191,0
DA:4193,0
DA:4200,0
DA:4202,0
DA:4203,0
DA:4205,0
DA:4206,0
DA:4209,0
DA:4211,0
DA:4213,0
DA:4215,0
DA:4217,0
DA:4219,0
DA:4220,0
DA:4223,0
DA:4226,0
DA:4228,0
DA:4230,0
DA:4232,0
DA:4233,0
DA:4236,0
DA:4241,0
DA:4243,0
DA:4245,0
DA:4247,0
DA:4248,0
DA:4253,0
DA:4255,0
DA:4257,0
DA:4260,0
DA:4261,0
DA:4263,0
DA:4265,0
DA:4267,0
DA:4268,0
DA:4269,0
DA:4271,0
DA:4272,0
DA:4276,0
DA:4282,0
DA:4285,0
DA:4286,0
DA:4288,0
DA:4289,0
DA:4290,0
DA:4292,0
DA:4294,0
DA:4295,0
DA:4302,0
DA:4304,0
DA:4306,0
DA:4308,0
DA:4310,0
DA:4311,0
DA:4314,0
DA:4321,0
DA:4323,0
DA:4330,0
DA:4333,0
DA:4335,0
DA:4336,0
DA:4338,0
DA:4340,0
DA:4342,0
DA:4344,0
DA:4346,0
DA:4352,0
DA:4354,0
DA:4356,0
DA:4358,0
DA:4359,0
DA:4361,0
DA:4362,0
DA:4364,0
DA:4366,0
DA:4372,0
DA:4374,0
DA:4376,0
DA:4378,0
DA:4379,0
DA:4380,0
DA:4382,0
DA:4383,0
DA:4385,0
DA:4387,0
DA:4394,0
DA:4396,0
DA:4397,0
DA:4399,0
DA:4401,0
DA:4402,0
DA:4406,0
DA:4407,0
DA:4417,0
DA:4419,0
DA:4421,0
DA:4424,0
DA:4425,0
DA:4426,0
DA:4428,0
DA:4434,0
DA:4437,0
DA:4439,0
DA:4440,0
DA:4441,0
DA:4444,0
DA:4445,0
DA:4446,0
DA:4451,0
DA:4453,0
DA:4454,0
DA:4455,0
DA:4456,0
DA:4457,0
DA:4458,0
DA:4463,0
DA:4465,0
DA:4467,0
DA:4469,0
DA:4471,0
DA:4472,0
DA:4474,0
DA:4475,0
DA:4476,0
DA:4482,0
DA:4484,0
DA:4485,0
DA:4486,0
DA:4487,0
DA:4488,0
DA:4489,0
DA:4494,0
DA:4496,0
DA:4497,0
DA:4499,0
DA:4500,0
DA:4502,0
DA:4503,0
DA:4504,0
DA:4505,0
DA:4506,0
DA:4507,0
DA:4508,0
DA:4510,0
DA:4515,0
DA:4517,0
DA:4518,0
DA:4519,0
DA:4520,0
DA:4521,0
DA:4522,0
DA:4523,0
DA:4524,0
DA:4525,0
DA:4526,0
DA:4532,0
DA:4534,0
DA:4536,0
DA:4537,0
DA:4538,0
DA:4539,0
DA:4540,0
DA:4542,0
DA:4544,0
DA:4545,0
DA:4546,0
DA:4547,0
DA:4548,0
DA:4550,0
DA:4552,0
DA:4553,0
DA:4554,0
DA:4555,0
DA:4556,0
DA:4557,0
DA:4558,0
DA:4606,0
DA:4610,0
DA:4611,0
DA:4612,0
DA:4623,0
DA:4626,0
DA:4627,0
DA:4638,0
DA:4641,0
DA:4643,0
DA:4644,0
DA:4645,0
DA:4647,0
DA:4649,0
DA:4650,0
DA:4651,0
DA:4652,0
DA:4654,0
DA:4655,0
DA:4656,0
DA:4657,0
DA:4658,0
DA:4661,0
DA:4663,0
DA:4664,0
DA:4665,0
DA:4668,0
DA:4669,0
DA:4672,0
DA:4674,0
DA:4675,0
DA:4677,0
DA:4679,0
DA:4680,0
DA:4681,0
DA:4683,0
DA:4686,0
DA:4687,0
DA:4688,0
DA:4691,0
DA:4693,0
DA:4694,0
DA:4695,0
DA:4696,0
DA:4705,0
end_of_record
SF:/usr/include/c++/9/bits/stl_vector.h
FN:94,_ZNSt12_Vector_baseIaSaIaEE17_Vector_impl_dataC2Ev
FNDA:0,_ZNSt12_Vector_baseIaSaIaEE17_Vector_impl_dataC2Ev
FN:94,_ZNSt12_Vector_baseISt6threadSaIS0_EE17_Vector_impl_dataC2Ev
FNDA:0,_ZNSt12_Vector_baseISt6threadSaIS0_EE17_Vector_impl_dataC2Ev
FN:94,_ZNSt12_Vector_baseISt6vectorIaSaIaEESaIS2_EE17_Vector_impl_dataC2Ev
FNDA:0,_ZNSt12_Vector_baseISt6vectorIaSaIaEESaIS2_EE17_Vector_impl_dataC2Ev
FN:94,_ZNSt12_Vector_baseINSt7__cxx1112basic_stringIcSt11char_traitsIcESaIcEEESaIS5_EE17_Vector_impl_dataC2Ev
FNDA:0,_ZNSt12_Vector_baseINSt7__cxx1112basic_stringIcSt11char_traitsIcESaIcEEESaIS5_EE17_Vector_impl_dataC2Ev
FN:106,_ZNSt12_Vector_baseISt6vectorIaSaIaEESaIS2_EE17_Vector_impl_data12_M_copy_dataERKS5_
FNDA:0,_ZNSt12_Vector_baseISt6vectorIaSaIaEESaIS2_EE17_Vector_impl_data12_M_copy_dataERKS5_
FN:114,_ZNSt12_Vector_baseISt6vectorIaSaIaEESaIS2_EE17_Vector_impl_data12_M_swap_dataERS5_
FNDA:0,_ZNSt12_Vector_baseISt6vectorIaSaIaEESaIS2_EE17_Vector_impl_data12_M_swap_dataERS5_
FN:128,_ZNSt12_Vector_baseIaSaIaEE12_Vector_implC2Ev
FNDA:0,_ZNSt12_Vector_baseIaSaIaEE12_Vector_implC2Ev
FN:128,_ZNSt12_Vector_baseISt6threadSaIS0_EE12_Vector_implC2Ev
FNDA:0,_ZNSt12_Vector_baseISt6threadSaIS0_EE12_Vector_implC2Ev
FN:133,_ZNSt12_Vector_baseISt6vectorIaSaIaEESaIS2_EE12_Vector_implC2ERKS3_
FNDA:0,_ZNSt12_Vector_baseISt6vectorIaSaIaEESaIS2_EE12_Vector_implC2ERKS3_
FN:133,_ZNSt12_Vector_baseINSt7__cxx1112basic_stringIcSt11char_traitsIcESaIcEEESaIS5_EE12_Vector_implC2ERKS6_
FNDA:0,_ZNSt12_Vector_baseINSt7__cxx1112basic_stringIcSt11char_traitsIcESaIcEEESaIS5_EE12_Vector_implC2ERKS6_
FN:133,_ZNSt12_Vector_baseIaSaIaEE12_Vector_implC2ERKS0_
FNDA:0,_ZNSt12_Vector_baseIaSaIaEE12_Vector_implC2ERKS0_
FN:273,_ZNSt12_Vector_baseIaSaIaEE19_M_get_Tp_allocatorEv
FNDA:0,_ZNSt12_Vector_baseIaSaIaEE19_M_get_Tp_allocatorEv
FN:273,_ZNSt12_Vector_baseINSt7__cxx1112basic_stringIcSt11char_traitsIcESaIcEEESaIS5_EE19_M_get_Tp_allocatorEv
FNDA:0,_ZNSt12_Vector_baseINSt7__cxx1112basic_stringIcSt11char_traitsIcESaIcEEESaIS5_EE19_M_get_Tp_allocatorEv
FN:273,_ZNSt12_Vector_baseISt6vectorIaSaIaEESaIS2_EE19_M_get_Tp_allocatorEv
FNDA:0,_ZNSt12_Vector_baseISt6vectorIaSaIaEESaIS2_EE19_M_get_Tp_allocatorEv
FN:273,_ZNSt12_Vector_baseISt6threadSaIS0_EE19_M_get_Tp_allocatorEv
FNDA:0,_ZNSt12_Vector_baseISt6threadSaIS0_EE19_M_get_Tp_allocatorEv
FN:277,_ZNKSt12_Vector_baseINSt7__cxx1112basic_stringIcSt11char_traitsIcESaIcEEESaIS5_EE19_M_get_Tp_allocatorEv
FNDA:0,_ZNKSt12_Vector_baseINSt7__cxx1112basic_stringIcSt11char_traitsIcESaIcEEESaIS5_EE19_M_get_Tp_allocatorEv
FN:277,_ZNKSt12_Vector_baseIaSaIaEE19_M_get_Tp_allocatorEv
FNDA:0,_ZNKSt12_Vector_baseIaSaIaEE19_M_get_Tp_allocatorEv
FN:277,_ZNKSt12_Vector_baseISt6vectorIaSaIaEESaIS2_EE19_M_get_Tp_allocatorEv
FNDA:0,_ZNKSt12_Vector_baseISt6vectorIaSaIaEESaIS2_EE19_M_get_Tp_allocatorEv
FN:277,_ZNKSt12_Vector_baseISt6threadSaIS0_EE19_M_get_Tp_allocatorEv
FNDA:0,_ZNKSt12_Vector_baseISt6threadSaIS0_EE19_M_get_Tp_allocatorEv
FN:281,_ZNKSt12_Vector_baseISt6vectorIaSaIaEESaIS2_EE13get_allocatorEv
FNDA:0,_ZNKSt12_Vector_baseISt6vectorIaSaIaEESaIS2_EE13get_allocatorEv
FN:285,_ZNSt12_Vector_baseIaSaIaEEC2Ev
FNDA:0,_ZNSt12_Vector_baseIaSaIaEEC2Ev
FN:285,_ZNSt12_Vector_baseISt6threadSaIS0_EEC2Ev
FNDA:0,_ZNSt12_Vector_baseISt6threadSaIS0_EEC2Ev
FN:290,_ZNSt12_Vector_baseISt6vectorIaSaIaEESaIS2_EEC2ERKS3_
FNDA:0,_ZNSt12_Vector_baseISt6vectorIaSaIaEESaIS2_EEC2ERKS3_
FN:300,_ZNSt12_Vector_baseISt6vectorIaSaIaEESaIS2_EEC2EmRKS3_
FNDA:0,_ZNSt12_Vector_baseISt6vectorIaSaIaEESaIS2_EEC2EmRKS3_
FN:300,_ZNSt12_Vector_baseINSt7__cxx1112basic_stringIcSt11char_traitsIcESaIcEEESaIS5_EEC2EmRKS6_
FNDA:0,_ZNSt12_Vector_baseINSt7__cxx1112basic_stringIcSt11char_traitsIcESaIcEEESaIS5_EEC2EmRKS6_
FN:300,_ZNSt12_Vector_baseIaSaIaEEC2EmRKS0_
FNDA:0,_ZNSt12_Vector_baseIaSaIaEEC2EmRKS0_
FN:330,_ZNSt12_Vector_baseISt6threadSaIS0_EED2Ev
FNDA:0,_ZNSt12_Vector_baseISt6threadSaIS0_EED2Ev
FN:330,_ZNSt12_Vector_baseIaSaIaEED2Ev
FNDA:0,_ZNSt12_Vector_baseIaSaIaEED2Ev
FN:330,_ZNSt12_Vector_baseISt6vectorIaSaIaEESaIS2_EED2Ev
FNDA:0,_ZNSt12_Vector_baseISt6vectorIaSaIaEESaIS2_EED2Ev
FN:330,_ZNSt12_Vector_baseINSt7__cxx1112basic_stringIcSt11char_traitsIcESaIcEEESaIS5_EED2Ev
FNDA:0,_ZNSt12_Vector_baseINSt7__cxx1112basic_stringIcSt11char_traitsIcESaIcEEESaIS5_EED2Ev
FN:340,_ZNSt12_Vector_baseIaSaIaEE11_M_allocateEm
FNDA:0,_ZNSt12_Vector_baseIaSaIaEE11_M_allocateEm
FN:340,_ZNSt12_Vector_baseINSt7__cxx1112basic_stringIcSt11char_traitsIcESaIcEEESaIS5_EE11_M_allocateEm
FNDA:0,_ZNSt12_Vector_baseINSt7__cxx1112basic_stringIcSt11char_traitsIcESaIcEEESaIS5_EE11_M_allocateEm
FN:340,_ZNSt12_Vector_baseISt6vectorIaSaIaEESaIS2_EE11_M_allocateEm
FNDA:0,_ZNSt12_Vector_baseISt6vectorIaSaIaEESaIS2_EE11_M_allocateEm
FN:340,_ZNSt12_Vector_baseISt6threadSaIS0_EE11_M_allocateEm
FNDA:0,_ZNSt12_Vector_baseISt6threadSaIS0_EE11_M_allocateEm
FN:347,_ZNSt12_Vector_baseISt6vectorIaSaIaEESaIS2_EE13_M_deallocateEPS2_m
FNDA:0,_ZNSt12_Vector_baseISt6vectorIaSaIaEESaIS2_EE13_M_deallocateEPS2_m
FN:347,_ZNSt12_Vector_baseISt6threadSaIS0_EE13_M_deallocateEPS0_m
FNDA:0,_ZNSt12_Vector_baseISt6threadSaIS0_EE13_M_deallocateEPS0_m
FN:347,_ZNSt12_Vector_baseIaSaIaEE13_M_deallocateEPam
FNDA:0,_ZNSt12_Vector_baseIaSaIaEE13_M_deallocateEPam
FN:347,_ZNSt12_Vector_baseINSt7__cxx1112basic_stringIcSt11char_traitsIcESaIcEEESaIS5_EE13_M_deallocateEPS5_m
FNDA:0,_ZNSt12_Vector_baseINSt7__cxx1112basic_stringIcSt11char_traitsIcESaIcEEESaIS5_EE13_M_deallocateEPS5_m
FN:356,_ZNSt12_Vector_baseIaSaIaEE17_M_create_storageEm
FNDA:0,_ZNSt12_Vector_baseIaSaIaEE17_M_create_storageEm
FN:356,_ZNSt12_Vector_baseINSt7__cxx1112basic_stringIcSt11char_traitsIcESaIcEEESaIS5_EE17_M_create_storageEm
FNDA:0,_ZNSt12_Vector_baseINSt7__cxx1112basic_stringIcSt11char_traitsIcESaIcEEESaIS5_EE17_M_create_storageEm
FN:356,_ZNSt12_Vector_baseISt6vectorIaSaIaEESaIS2_EE17_M_create_storageEm
FNDA:0,_ZNSt12_Vector_baseISt6vectorIaSaIaEESaIS2_EE17_M_create_storageEm
FN:428,_ZNSt6vectorISt6threadSaIS0_EE19_S_nothrow_relocateESt17integral_constantIbLb1EE
FNDA:0,_ZNSt6vectorISt6threadSaIS0_EE19_S_nothrow_relocateESt17integral_constantIbLb1EE
FN:441,_ZNSt6vectorISt6threadSaIS0_EE15_S_use_relocateEv
FNDA:0,_ZNSt6vectorISt6threadSaIS0_EE15_S_use_relocateEv
FN:450,_ZNSt6vectorISt6threadSaIS0_EE14_S_do_relocateEPS0_S3_S3_RS1_St17integral_constantIbLb1EE
FNDA:0,_ZNSt6vectorISt6threadSaIS0_EE14_S_do_relocateEPS0_S3_S3_RS1_St17integral_constantIbLb1EE
FN:462,_ZNSt6vectorISt6threadSaIS0_EE11_S_relocateEPS0_S3_S3_RS1_
FNDA:0,_ZNSt6vectorISt6threadSaIS0_EE11_S_relocateEPS0_S3_S3_RS1_
FN:484,_ZNSt6vectorIaSaIaEEC2Ev
FNDA:0,_ZNSt6vectorIaSaIaEEC2Ev
FN:484,_ZNSt6vectorISt6threadSaIS0_EEC2Ev
FNDA:0,_ZNSt6vectorISt6threadSaIS0_EEC2Ev
FN:494,_ZNSt6vectorIS_IaSaIaEESaIS1_EEC2ERKS2_
FNDA:0,_ZNSt6vectorIS_IaSaIaEESaIS1_EEC2ERKS2_
FN:519,_ZNSt6vectorIS_IaSaIaEESaIS1_EEC2EmRKS1_RKS2_
FNDA:0,_ZNSt6vectorIS_IaSaIaEESaIS1_EEC2EmRKS1_RKS2_
FN:519,_ZNSt6vectorIaSaIaEEC2EmRKaRKS0_
FNDA:0,_ZNSt6vectorIaSaIaEEC2EmRKaRKS0_
FN:550,_ZNSt6vectorINSt7__cxx1112basic_stringIcSt11char_traitsIcESaIcEEESaIS5_EEC2ERKS7_
FNDA:0,_ZNSt6vectorINSt7__cxx1112basic_stringIcSt11char_traitsIcESaIcEEESaIS5_EEC2ERKS7_
FN:550,_ZNSt6vectorIaSaIaEEC2ERKS1_
FNDA:0,_ZNSt6vectorIaSaIaEEC2ERKS1_
FN:675,_ZNSt6vectorIS_IaSaIaEESaIS1_EED2Ev
FNDA:0,_ZNSt6vectorIS_IaSaIaEESaIS1_EED2Ev
FN:675,_ZNSt6vectorINSt7__cxx1112basic_stringIcSt11char_traitsIcESaIcEEESaIS5_EED2Ev
FNDA:0,_ZNSt6vectorINSt7__cxx1112basic_stringIcSt11char_traitsIcESaIcEEESaIS5_EED2Ev
FN:675,_ZNSt6vectorIaSaIaEED2Ev
FNDA:0,_ZNSt6vectorIaSaIaEED2Ev
FN:675,_ZNSt6vectorISt6threadSaIS0_EED2Ev
FNDA:0,_ZNSt6vectorISt6threadSaIS0_EED2Ev
FN:706,_ZNSt6vectorIS_IaSaIaEESaIS1_EEaSEOS3_
FNDA:0,_ZNSt6vectorIS_IaSaIaEESaIS1_EEaSEOS3_
FN:808,_ZNSt6vectorISt6threadSaIS0_EE5beginEv
FNDA:0,_ZNSt6vectorISt6threadSaIS0_EE5beginEv
FN:808,_ZNSt6vectorIaSaIaEE5beginEv
FNDA:0,_ZNSt6vectorIaSaIaEE5beginEv
FN:808,_ZNSt6vectorINSt7__cxx1112basic_stringIcSt11char_traitsIcESaIcEEESaIS5_EE5beginEv
FNDA:0,_ZNSt6vectorINSt7__cxx1112basic_stringIcSt11char_traitsIcESaIcEEESaIS5_EE5beginEv
FN:817,_ZNKSt6vectorIaSaIaEE5beginEv
FNDA:0,_ZNKSt6vectorIaSaIaEE5beginEv
FN:817,_ZNKSt6vectorIS_IaSaIaEESaIS1_EE5beginEv
FNDA:0,_ZNKSt6vectorIS_IaSaIaEESaIS1_EE5beginEv
FN:817,_ZNKSt6vectorINSt7__cxx1112basic_stringIcSt11char_traitsIcESaIcEEESaIS5_EE5beginEv
FNDA:0,_ZNKSt6vectorINSt7__cxx1112basic_stringIcSt11char_traitsIcESaIcEEESaIS5_EE5beginEv
FN:826,_ZNSt6vectorISt6threadSaIS0_EE3endEv
FNDA:0,_ZNSt6vectorISt6threadSaIS0_EE3endEv
FN:826,_ZNSt6vectorIaSaIaEE3endEv
FNDA:0,_ZNSt6vectorIaSaIaEE3endEv
FN:826,_ZNSt6vectorINSt7__cxx1112basic_stringIcSt11char_traitsIcESaIcEEESaIS5_EE3endEv
FNDA:0,_ZNSt6vectorINSt7__cxx1112basic_stringIcSt11char_traitsIcESaIcEEESaIS5_EE3endEv
FN:835,_ZNKSt6vectorIaSaIaEE3endEv
FNDA:0,_ZNKSt6vectorIaSaIaEE3endEv
FN:835,_ZNKSt6vectorIS_IaSaIaEESaIS1_EE3endEv
FNDA:0,_ZNKSt6vectorIS_IaSaIaEESaIS1_EE3endEv
FN:835,_ZNKSt6vectorINSt7__cxx1112basic_stringIcSt11char_traitsIcESaIcEEESaIS5_EE3endEv
FNDA:0,_ZNKSt6vectorINSt7__cxx1112basic_stringIcSt11char_traitsIcESaIcEEESaIS5_EE3endEv
FN:915,_ZNKSt6vectorIS_IaSaIaEESaIS1_EE4sizeEv
FNDA:0,_ZNKSt6vectorIS_IaSaIaEESaIS1_EE4sizeEv
FN:915,_ZNKSt6vectorISt6threadSaIS0_EE4sizeEv
FNDA:0,_ZNKSt6vectorISt6threadSaIS0_EE4sizeEv
FN:915,_ZNKSt6vectorIaSaIaEE4sizeEv
FNDA:0,_ZNKSt6vectorIaSaIaEE4sizeEv
FN:915,_ZNKSt6vectorINSt7__cxx1112basic_stringIcSt11char_traitsIcESaIcEEESaIS5_EE4sizeEv
FNDA:0,_ZNKSt6vectorINSt7__cxx1112basic_stringIcSt11char_traitsIcESaIcEEESaIS5_EE4sizeEv
FN:920,_ZNKSt6vectorISt6threadSaIS0_EE8max_sizeEv
FNDA:0,_ZNKSt6vectorISt6threadSaIS0_EE8max_sizeEv
FN:995,_ZNKSt6vectorIaSaIaEE8capacityEv
FNDA:0,_ZNKSt6vectorIaSaIaEE8capacityEv
FN:1004,_ZNKSt6vectorINSt7__cxx1112basic_stringIcSt11char_traitsIcESaIcEEESaIS5_EE5emptyEv
FNDA:0,_ZNKSt6vectorINSt7__cxx1112basic_stringIcSt11char_traitsIcESaIcEEESaIS5_EE5emptyEv
FN:1004,_ZNKSt6vectorIS_IaSaIaEESaIS1_EE5emptyEv
FNDA:0,_ZNKSt6vectorIS_IaSaIaEESaIS1_EE5emptyEv
FN:1040,_ZNSt6vectorINSt7__cxx1112basic_stringIcSt11char_traitsIcESaIcEEESaIS5_EEixEm
FNDA:0,_ZNSt6vectorINSt7__cxx1112basic_stringIcSt11char_traitsIcESaIcEEESaIS5_EEixEm
FN:1040,_ZNSt6vectorIaSaIaEEixEm
FNDA:0,_ZNSt6vectorIaSaIaEEixEm
FN:1040,_ZNSt6vectorIS_IaSaIaEESaIS1_EEixEm
FNDA:0,_ZNSt6vectorIS_IaSaIaEESaIS1_EEixEm
FN:1200,_ZNSt6vectorISt6threadSaIS0_EE9push_backEOS0_
FNDA:0,_ZNSt6vectorISt6threadSaIS0_EE9push_backEOS0_
FN:1495,_ZNSt6vectorIaSaIaEE5clearEv
FNDA:0,_ZNSt6vectorIaSaIaEE5clearEv
FN:1505,_ZNSt6vectorIaSaIaEE20_M_allocate_and_copyIN9__gnu_cxx17__normal_iteratorIPKaS1_EEEEPamT_S9_
FNDA:0,_ZNSt6vectorIaSaIaEE20_M_allocate_and_copyIN9__gnu_cxx17__normal_iteratorIPKaS1_EEEEPamT_S9_
FN:1590,_ZNSt6vectorIaSaIaEE18_M_fill_initializeEmRKa
FNDA:0,_ZNSt6vectorIaSaIaEE18_M_fill_initializeEmRKa
FN:1590,_ZNSt6vectorIS_IaSaIaEESaIS1_EE18_M_fill_initializeEmRKS1_
FNDA:0,_ZNSt6vectorIS_IaSaIaEESaIS1_EE18_M_fill_initializeEmRKS1_
FN:1753,_ZNKSt6vectorISt6threadSaIS0_EE12_M_check_lenEmPKc
FNDA:0,_ZNKSt6vectorISt6threadSaIS0_EE12_M_check_lenEmPKc
FN:1764,_ZNSt6vectorIaSaIaEE17_S_check_init_lenEmRKS0_
FNDA:0,_ZNSt6vectorIaSaIaEE17_S_check_init_lenEmRKS0_
FN:1764,_ZNSt6vectorIS_IaSaIaEESaIS1_EE17_S_check_init_lenEmRKS2_
FNDA:0,_ZNSt6vectorIS_IaSaIaEESaIS1_EE17_S_check_init_lenEmRKS2_
FN:1773,_ZNSt6vectorIaSaIaEE11_S_max_sizeERKS0_
FNDA:0,_ZNSt6vectorIaSaIaEE11_S_max_sizeERKS0_
FN:1773,_ZNSt6vectorIS_IaSaIaEESaIS1_EE11_S_max_sizeERKS2_
FNDA:0,_ZNSt6vectorIS_IaSaIaEESaIS1_EE11_S_max_sizeERKS2_
FN:1773,_ZNSt6vectorISt6threadSaIS0_EE11_S_max_sizeERKS1_
FNDA:0,_ZNSt6vectorISt6threadSaIS0_EE11_S_max_sizeERKS1_
FN:1789,_ZNSt6vectorIaSaIaEE15_M_erase_at_endEPa
FNDA:0,_ZNSt6vectorIaSaIaEE15_M_erase_at_endEPa
FN:1812,_ZNSt6vectorIS_IaSaIaEESaIS1_EE14_M_move_assignEOS3_St17integral_constantIbLb1EE
FNDA:0,_ZNSt6vectorIS_IaSaIaEESaIS1_EE14_M_move_assignEOS3_St17integral_constantIbLb1EE
DA:94,0
DA:95,0
DA:96,0
DA:94,0
DA:95,0
DA:96,0
DA:94,0
DA:95,0
DA:96,0
DA:94,0
DA:95,0
DA:96,0
DA:106,0
DA:108,0
DA:109,0
DA:110,0
DA:111,0
DA:114,0
DA:118,0
DA:119,0
DA:120,0
DA:121,0
DA:122,0
DA:128,0
DA:130,0
DA:131,0
DA:128,0
DA:130,0
DA:131,0
DA:133,0
DA:134,0
DA:135,0
DA:133,0
DA:134,0
DA:135,0
DA:133,0
DA:134,0
DA:135,0
DA:273,0
DA:274,0
DA:273,0
DA:274,0
DA:273,0
DA:274,0
DA:273,0
DA:274,0
DA:277,0
DA:278,0
DA:277,0
DA:278,0
DA:277,0
DA:278,0
DA:277,0
DA:278,0
DA:281,0
DA:282,0
DA:285,0
DA:285,0
DA:290,0
DA:291,0
DA:300,0
DA:301,0
DA:302,0
DA:300,0
DA:301,0
DA:302,0
DA:300,0
DA:301,0
DA:302,0
DA:330,0
DA:332,0
DA:333,0
DA:334,0
DA:330,0
DA:332,0
DA:333,0
DA:334,0
DA:330,0
DA:332,0
DA:333,0
DA:334,0
DA:330,0
DA:332,0
DA:333,0
DA:334,0
DA:340,0
DA:343,0
DA:340,0
DA:343,0
DA:340,0
DA:343,0
DA:340,0
DA:343,0
DA:347,0
DA:350,0
DA:351,0
DA:352,0
DA:347,0
DA:350,0
DA:351,0
DA:352,0
DA:347,0
DA:350,0
DA:351,0
DA:352,0
DA:347,0
DA:350,0
DA:351,0
DA:352,0
DA:356,0
DA:358,0
DA:359,0
DA:360,0
DA:361,0
DA:356,0
DA:358,0
DA:359,0
DA:360,0
DA:361,0
DA:356,0
DA:358,0
DA:359,0
DA:360,0
DA:361,0
DA:428,0
DA:433,0
DA:441,0
DA:446,0
DA:450,0
DA:453,0
DA:462,0
DA:466,0
DA:484,0
DA:484,0
DA:494,0
DA:495,0
DA:519,0
DA:521,0
DA:522,0
DA:519,0
DA:521,0
DA:522,0
DA:550,0
DA:552,0
DA:554,0
DA:555,0
DA:557,0
DA:558,0
DA:550,0
DA:552,0
DA:554,0
DA:555,0
DA:557,0
DA:558,0
DA:675,0
DA:677,0
DA:678,0
DA:680,0
DA:675,0
DA:677,0
DA:678,0
DA:680,0
DA:675,0
DA:677,0
DA:678,0
DA:680,0
DA:675,0
DA:677,0
DA:678,0
DA:680,0
DA:706,0
DA:708,0
DA:711,0
DA:712,0
DA:808,0
DA:809,0
DA:808,0
DA:809,0
DA:808,0
DA:809,0
DA:817,0
DA:818,0
DA:817,0
DA:818,0
DA:817,0
DA:818,0
DA:826,0
DA:827,0
DA:826,0
DA:827,0
DA:826,0
DA:827,0
DA:835,0
DA:836,0
DA:835,0
DA:836,0
DA:835,0
DA:836,0
DA:915,0
DA:916,0
DA:915,0
DA:916,0
DA:915,0
DA:916,0
DA:915,0
DA:916,0
DA:920,0
DA:921,0
DA:995,0
DA:996,0
DA:997,0
DA:1004,0
DA:1005,0
DA:1004,0
DA:1005,0
DA:1040,0
DA:1043,0
DA:1040,0
DA:1043,0
DA:1040,0
DA:1043,0
DA:1200,0
DA:1201,0
DA:1495,0
DA:1496,0
DA:1505,0
DA:1508,0
DA:1511,0
DA:1512,0
DA:1513,0
DA:1515,0
DA:1517,0
DA:1518,0
DA:1590,0
DA:1592,0
DA:1593,0
DA:1594,0
DA:1595,0
DA:1590,0
DA:1592,0
DA:1593,0
DA:1594,0
DA:1595,0
DA:1753,0
DA:1755,0
DA:1756,0
DA:1758,0
DA:1759,0
DA:1764,0
DA:1766,0
DA:1767,0
DA:1769,0
DA:1764,0
DA:1766,0
DA:1767,0
DA:1769,0
DA:1773,0
DA:1778,0
DA:1780,0
DA:1781,0
DA:1773,0
DA:1778,0
DA:1780,0
DA:1781,0
DA:1773,0
DA:1778,0
DA:1780,0
DA:1781,0
DA:1789,0
DA:1791,0
DA:1793,0
DA:1794,0
DA:1795,0
DA:1798,0
DA:1812,0
DA:1814,0
DA:1815,0
DA:1816,0
DA:1817,0
DA:1818,0
end_of_record
SF:/usr/include/c++/9/ext/atomicity.h
FN:48,_ZN9__gnu_cxxL18__exchange_and_addEPVii
FNDA:0,_ZN9__gnu_cxxL18__exchange_and_addEPVii
FN:52,_ZN9__gnu_cxxL12__atomic_addEPVii
FNDA:0,_ZN9__gnu_cxxL12__atomic_addEPVii
FN:65,_ZN9__gnu_cxxL25__exchange_and_add_singleEPii
FNDA:0,_ZN9__gnu_cxxL25__exchange_and_add_singleEPii
FN:73,_ZN9__gnu_cxxL19__atomic_add_singleEPii
FNDA:0,_ZN9__gnu_cxxL19__atomic_add_singleEPii
FN:78,_ZN9__gnu_cxxL27__exchange_and_add_dispatchEPii
FNDA:0,_ZN9__gnu_cxxL27__exchange_and_add_dispatchEPii
FN:92,_ZN9__gnu_cxxL21__atomic_add_dispatchEPii
FNDA:0,_ZN9__gnu_cxxL21__atomic_add_dispatchEPii
DA:48,0
DA:49,0
DA:52,0
DA:53,0
DA:65,0
DA:67,0
DA:68,0
DA:69,0
DA:73,0
DA:74,0
DA:78,0
DA:81,0
DA:82,0
DA:84,0
DA:92,0
DA:95,0
DA:96,0
DA:98,0
DA:102,0
end_of_record
SF:/usr/include/c++/9/bits/stl_deque.h
FN:93,_ZSt16__deque_buf_sizem
FNDA:0,_ZSt16__deque_buf_sizem
FN:130,_ZNSt15_Deque_iteratorIP9nnode_t_tRS1_PS1_E14_S_buffer_sizeEv
FNDA:0,_ZNSt15_Deque_iteratorIP9nnode_t_tRS1_PS1_E14_S_buffer_sizeEv
FN:150,_ZNSt15_Deque_iteratorIP9nnode_t_tRS1_PS1_EC2Ev
FNDA:0,_ZNSt15_Deque_iteratorIP9nnode_t_tRS1_PS1_EC2Ev
FN:167,_ZNSt15_Deque_iteratorIP9nnode_t_tRS1_PS1_EC2ERKS4_
FNDA:0,_ZNSt15_Deque_iteratorIP9nnode_t_tRS1_PS1_EC2ERKS4_
FN:179,_ZNKSt15_Deque_iteratorIP9nnode_t_tRS1_PS1_EdeEv
FNDA:0,_ZNKSt15_Deque_iteratorIP9nnode_t_tRS1_PS1_EdeEv
FN:273,_ZNSt15_Deque_iteratorIP9nnode_t_tRS1_PS1_E11_M_set_nodeEPS3_
FNDA:0,_ZNSt15_Deque_iteratorIP9nnode_t_tRS1_PS1_E11_M_set_nodeEPS3_
FN:286,_ZSteqIP9nnode_t_tRS1_PS1_EbRKSt15_Deque_iteratorIT_T0_T1_ESA_
FNDA:0,_ZSteqIP9nnode_t_tRS1_PS1_EbRKSt15_Deque_iteratorIT_T0_T1_ESA_
FN:370,_ZStmiIP9nnode_t_tRS1_PS1_ENSt15_Deque_iteratorIT_T0_T1_E15difference_typeERKS8_SB_
FNDA:0,_ZStmiIP9nnode_t_tRS1_PS1_ENSt15_Deque_iteratorIT_T0_T1_E15difference_typeERKS8_SB_
FN:508,_ZNSt11_Deque_baseIP9nnode_t_tSaIS1_EEC2Ev
FNDA:0,_ZNSt11_Deque_baseIP9nnode_t_tSaIS1_EEC2Ev
FN:575,_ZNSt11_Deque_baseIP9nnode_t_tSaIS1_EE11_Deque_implC2Ev
FNDA:0,_ZNSt11_Deque_baseIP9nnode_t_tSaIS1_EE11_Deque_implC2Ev
FN:605,_ZNSt11_Deque_baseIP9nnode_t_tSaIS1_EE19_M_get_Tp_allocatorEv
FNDA:0,_ZNSt11_Deque_baseIP9nnode_t_tSaIS1_EE19_M_get_Tp_allocatorEv
FN:609,_ZNKSt11_Deque_baseIP9nnode_t_tSaIS1_EE19_M_get_Tp_allocatorEv
FNDA:0,_ZNKSt11_Deque_baseIP9nnode_t_tSaIS1_EE19_M_get_Tp_allocatorEv
FN:613,_ZNKSt11_Deque_baseIP9nnode_t_tSaIS1_EE20_M_get_map_allocatorEv
FNDA:0,_ZNKSt11_Deque_baseIP9nnode_t_tSaIS1_EE20_M_get_map_allocatorEv
FN:617,_ZNSt11_Deque_baseIP9nnode_t_tSaIS1_EE16_M_allocate_nodeEv
FNDA:0,_ZNSt11_Deque_baseIP9nnode_t_tSaIS1_EE16_M_allocate_nodeEv
FN:624,_ZNSt11_Deque_baseIP9nnode_t_tSaIS1_EE18_M_deallocate_nodeEPS1_
FNDA:0,_ZNSt11_Deque_baseIP9nnode_t_tSaIS1_EE18_M_deallocate_nodeEPS1_
FN:631,_ZNSt11_Deque_baseIP9nnode_t_tSaIS1_EE15_M_allocate_mapEm
FNDA:0,_ZNSt11_Deque_baseIP9nnode_t_tSaIS1_EE15_M_allocate_mapEm
FN:638,_ZNSt11_Deque_baseIP9nnode_t_tSaIS1_EE17_M_deallocate_mapEPPS1_m
FNDA:0,_ZNSt11_Deque_baseIP9nnode_t_tSaIS1_EE17_M_deallocate_mapEPPS1_m
FN:678,_ZNSt11_Deque_baseIP9nnode_t_tSaIS1_EED2Ev
FNDA:0,_ZNSt11_Deque_baseIP9nnode_t_tSaIS1_EED2Ev
FN:699,_ZNSt11_Deque_baseIP9nnode_t_tSaIS1_EE17_M_initialize_mapEm
FNDA:0,_ZNSt11_Deque_baseIP9nnode_t_tSaIS1_EE17_M_initialize_mapEm
FN:738,_ZNSt11_Deque_baseIP9nnode_t_tSaIS1_EE15_M_create_nodesEPPS1_S5_
FNDA:0,_ZNSt11_Deque_baseIP9nnode_t_tSaIS1_EE15_M_create_nodesEPPS1_S5_
FN:756,_ZNSt11_Deque_baseIP9nnode_t_tSaIS1_EE16_M_destroy_nodesEPPS1_S5_
FNDA:0,_ZNSt11_Deque_baseIP9nnode_t_tSaIS1_EE16_M_destroy_nodesEPPS1_S5_
FN:915,_ZNSt5dequeIP9nnode_t_tSaIS1_EEC2Ev
FNDA:0,_ZNSt5dequeIP9nnode_t_tSaIS1_EEC2Ev
FN:1071,_ZNSt5dequeIP9nnode_t_tSaIS1_EED2Ev
FNDA:0,_ZNSt5dequeIP9nnode_t_tSaIS1_EED2Ev
FN:1193,_ZNSt5dequeIP9nnode_t_tSaIS1_EE5beginEv
FNDA:0,_ZNSt5dequeIP9nnode_t_tSaIS1_EE5beginEv
FN:1210,_ZNSt5dequeIP9nnode_t_tSaIS1_EE3endEv
FNDA:0,_ZNSt5dequeIP9nnode_t_tSaIS1_EE3endEv
FN:1298,_ZNKSt5dequeIP9nnode_t_tSaIS1_EE4sizeEv
FNDA:0,_ZNKSt5dequeIP9nnode_t_tSaIS1_EE4sizeEv
FN:1303,_ZNKSt5dequeIP9nnode_t_tSaIS1_EE8max_sizeEv
FNDA:0,_ZNKSt5dequeIP9nnode_t_tSaIS1_EE8max_sizeEv
FN:1384,_ZNKSt5dequeIP9nnode_t_tSaIS1_EE5emptyEv
FNDA:0,_ZNKSt5dequeIP9nnode_t_tSaIS1_EE5emptyEv
FN:1478,_ZNSt5dequeIP9nnode_t_tSaIS1_EE5frontEv
FNDA:0,_ZNSt5dequeIP9nnode_t_tSaIS1_EE5frontEv
FN:1569,_ZNSt5dequeIP9nnode_t_tSaIS1_EE9push_backERKS1_
FNDA:0,_ZNSt5dequeIP9nnode_t_tSaIS1_EE9push_backERKS1_
FN:1605,_ZNSt5dequeIP9nnode_t_tSaIS1_EE9pop_frontEv
FNDA:0,_ZNSt5dequeIP9nnode_t_tSaIS1_EE9pop_frontEv
FN:1896,_ZNSt5dequeIP9nnode_t_tSaIS1_EE11_S_max_sizeERKS2_
FNDA:0,_ZNSt5dequeIP9nnode_t_tSaIS1_EE11_S_max_sizeERKS2_
FN:2113,_ZNSt5dequeIP9nnode_t_tSaIS1_EE15_M_destroy_dataESt15_Deque_iteratorIS1_RS1_PS1_ES7_RKS2_
FNDA:0,_ZNSt5dequeIP9nnode_t_tSaIS1_EE15_M_destroy_dataESt15_Deque_iteratorIS1_RS1_PS1_ES7_RKS2_
FN:2194,_ZNSt5dequeIP9nnode_t_tSaIS1_EE22_M_reserve_map_at_backEm
FNDA:0,_ZNSt5dequeIP9nnode_t_tSaIS1_EE22_M_reserve_map_at_backEm
DA:93,0
DA:95,0
DA:130,0
DA:131,0
DA:150,0
DA:151,0
DA:167,0
DA:168,0
DA:169,0
DA:179,0
DA:180,0
DA:273,0
DA:275,0
DA:276,0
DA:277,0
DA:278,0
DA:286,0
DA:288,0
DA:370,0
DA:374,0
DA:375,0
DA:376,0
DA:508,0
DA:509,0
DA:510,0
DA:575,0
DA:577,0
DA:578,0
DA:605,0
DA:606,0
DA:609,0
DA:610,0
DA:613,0
DA:614,0
DA:617,0
DA:620,0
DA:624,0
DA:627,0
DA:628,0
DA:631,0
DA:633,0
DA:634,0
DA:638,0
DA:640,0
DA:641,0
DA:642,0
DA:678,0
DA:681,0
DA:683,0
DA:684,0
DA:685,0
DA:687,0
DA:699,0
DA:702,0
DA:705,0
DA:706,0
DA:707,0
DA:714,0
DA:715,0
DA:716,0
DA:719,0
DA:720,0
DA:722,0
DA:723,0
DA:724,0
DA:725,0
DA:728,0
DA:729,0
DA:730,0
DA:731,0
DA:732,0
DA:733,0
DA:734,0
DA:738,0
DA:744,0
DA:745,0
DA:747,0
DA:749,0
DA:750,0
DA:752,0
DA:756,0
DA:760,0
DA:761,0
DA:762,0
DA:915,0
DA:1071,0
DA:1072,0
DA:1193,0
DA:1194,0
DA:1210,0
DA:1211,0
DA:1298,0
DA:1299,0
DA:1303,0
DA:1304,0
DA:1384,0
DA:1385,0
DA:1478,0
DA:1481,0
DA:1569,0
DA:1571,0
DA:1572,0
DA:1574,0
DA:1576,0
DA:1579,0
DA:1580,0
DA:1605,0
DA:1608,0
DA:1609,0
DA:1611,0
DA:1613,0
DA:1616,0
DA:1617,0
DA:1896,0
DA:1898,0
DA:1899,0
DA:1900,0
DA:2113,0
DA:2118,0
DA:2194,0
DA:2196,0
DA:2197,0
DA:2198,0
DA:2199,0
end_of_record
SF:/usr/include/c++/9/bits/stl_algo.h
FN:4326,_ZSt9transformIN9__gnu_cxx17__normal_iteratorIPcNSt7__cxx1112basic_stringIcSt11char_traitsIcESaIcEEEEES9_PFiiEET0_T_SD_SC_T1_
FNDA:0,_ZSt9transformIN9__gnu_cxx17__normal_iteratorIPcNSt7__cxx1112basic_stringIcSt11char_traitsIcESaIcEEEEES9_PFiiEET0_T_SD_SC_T1_
DA:4326,0
DA:4336,0
DA:4337,0
DA:4338,0
end_of_record
SF:/usr/include/c++/9/bits/stl_iterator_base_types.h
FN:205,_ZSt19__iterator_categoryIPcENSt15iterator_traitsIT_E17iterator_categoryERKS2_
FNDA:0,_ZSt19__iterator_categoryIPcENSt15iterator_traitsIT_E17iterator_categoryERKS2_
FN:205,_ZSt19__iterator_categoryIPKcENSt15iterator_traitsIT_E17iterator_categoryERKS3_
FNDA:0,_ZSt19__iterator_categoryIPKcENSt15iterator_traitsIT_E17iterator_categoryERKS3_
DA:205,0
DA:206,0
DA:205,0
DA:206,0
end_of_record
SF:/usr/include/c++/9/thread
FN:82,_ZNSt6thread2idC2Ev
FNDA:0,_ZNSt6thread2idC2Ev
FN:117,_ZNSt6threadC2IRFviP14netlist_subsetiiibEJRiRS2_S5_S5_S5_iEvEEOT_DpOT0_
FNDA:0,_ZNSt6threadC2IRFviP14netlist_subsetiiibEJRiRS2_S5_S5_S5_iEvEEOT_DpOT0_
FN:117,_ZNSt6threadC2IRFviiiP8stages_tiEJRiS5_S5_RS2_S5_EvEEOT_DpOT0_
FNDA:0,_ZNSt6threadC2IRFviiiP8stages_tiEJRiS5_S5_RS2_S5_EvEEOT_DpOT0_
FN:117,_ZNSt6threadC2IRFviP14netlist_subsetiiEJRiRS2_S5_iEvEEOT_DpOT0_
FNDA:0,_ZNSt6threadC2IRFviP14netlist_subsetiiEJRiRS2_S5_iEvEEOT_DpOT0_
FN:136,_ZNSt6threadD2Ev
FNDA:0,_ZNSt6threadD2Ev
FN:144,_ZNSt6threadC2EOS_
FNDA:0,_ZNSt6threadC2EOS_
FN:158,_ZNSt6thread4swapERS_
FNDA:0,_ZNSt6thread4swapERS_
FN:162,_ZNKSt6thread8joinableEv
FNDA:0,_ZNKSt6thread8joinableEv
FN:191,_ZNSt6thread11_State_implINS_8_InvokerISt5tupleIJPFviP14netlist_subsetiiEiS4_iiEEEEEC2EOS8_
FNDA:0,_ZNSt6thread11_State_implINS_8_InvokerISt5tupleIJPFviP14netlist_subsetiiEiS4_iiEEEEEC2EOS8_
FN:191,_ZNSt6thread11_State_implINS_8_InvokerISt5tupleIJPFviiiP8stages_tiEiiiS4_iEEEEEC2EOS8_
FNDA:0,_ZNSt6thread11_State_implINS_8_InvokerISt5tupleIJPFviiiP8stages_tiEiiiS4_iEEEEEC2EOS8_
FN:191,_ZNSt6thread11_State_implINS_8_InvokerISt5tupleIJPFviP14netlist_subsetiiibEiS4_iiiiEEEEEC2EOS8_
FNDA:0,_ZNSt6thread11_State_implINS_8_InvokerISt5tupleIJPFviP14netlist_subsetiiibEiS4_iiiiEEEEEC2EOS8_
FN:195,_ZNSt6thread11_State_implINS_8_InvokerISt5tupleIJPFviP14netlist_subsetiiibEiS4_iiiiEEEEE6_M_runEv
FNDA:0,_ZNSt6thread11_State_implINS_8_InvokerISt5tupleIJPFviP14netlist_subsetiiibEiS4_iiiiEEEEE6_M_runEv
FN:195,_ZNSt6thread11_State_implINS_8_InvokerISt5tupleIJPFviiiP8stages_tiEiiiS4_iEEEEE6_M_runEv
FNDA:0,_ZNSt6thread11_State_implINS_8_InvokerISt5tupleIJPFviiiP8stages_tiEiiiS4_iEEEEE6_M_runEv
FN:195,_ZNSt6thread11_State_implINS_8_InvokerISt5tupleIJPFviP14netlist_subsetiiEiS4_iiEEEEE6_M_runEv
FNDA:0,_ZNSt6thread11_State_implINS_8_InvokerISt5tupleIJPFviP14netlist_subsetiiEiS4_iiEEEEE6_M_runEv
FN:203,_ZNSt6thread13_S_make_stateINS_8_InvokerISt5tupleIJPFviiiP8stages_tiEiiiS4_iEEEEEESt10unique_ptrINS_6_StateESt14default_deleteISA_EEOT_
FNDA:0,_ZNSt6thread13_S_make_stateINS_8_InvokerISt5tupleIJPFviiiP8stages_tiEiiiS4_iEEEEEESt10unique_ptrINS_6_StateESt14default_deleteISA_EEOT_
FN:203,_ZNSt6thread13_S_make_stateINS_8_InvokerISt5tupleIJPFviP14netlist_subsetiiibEiS4_iiiiEEEEEESt10unique_ptrINS_6_StateESt14default_deleteISA_EEOT_
FNDA:0,_ZNSt6thread13_S_make_stateINS_8_InvokerISt5tupleIJPFviP14netlist_subsetiiibEiS4_iiiiEEEEEESt10unique_ptrINS_6_StateESt14default_deleteISA_EEOT_
FN:203,_ZNSt6thread13_S_make_stateINS_8_InvokerISt5tupleIJPFviP14netlist_subsetiiEiS4_iiEEEEEESt10unique_ptrINS_6_StateESt14default_deleteISA_EEOT_
FNDA:0,_ZNSt6thread13_S_make_stateINS_8_InvokerISt5tupleIJPFviP14netlist_subsetiiEiS4_iiEEEEEESt10unique_ptrINS_6_StateESt14default_deleteISA_EEOT_
FN:243,_ZNSt6thread8_InvokerISt5tupleIJPFviP14netlist_subsetiiibEiS3_iiiiEEE9_M_invokeIJLm0ELm1ELm2ELm3ELm4ELm5ELm6EEEEvSt12_Index_tupleIJXspT_EEE
FNDA:0,_ZNSt6thread8_InvokerISt5tupleIJPFviP14netlist_subsetiiibEiS3_iiiiEEE9_M_invokeIJLm0ELm1ELm2ELm3ELm4ELm5ELm6EEEEvSt12_Index_tupleIJXspT_EEE
FN:243,_ZNSt6thread8_InvokerISt5tupleIJPFviP14netlist_subsetiiEiS3_iiEEE9_M_invokeIJLm0ELm1ELm2ELm3ELm4EEEEvSt12_Index_tupleIJXspT_EEE
FNDA:0,_ZNSt6thread8_InvokerISt5tupleIJPFviP14netlist_subsetiiEiS3_iiEEE9_M_invokeIJLm0ELm1ELm2ELm3ELm4EEEEvSt12_Index_tupleIJXspT_EEE
FN:243,_ZNSt6thread8_InvokerISt5tupleIJPFviiiP8stages_tiEiiiS3_iEEE9_M_invokeIJLm0ELm1ELm2ELm3ELm4ELm5EEEEvSt12_Index_tupleIJXspT_EEE
FNDA:0,_ZNSt6thread8_InvokerISt5tupleIJPFviiiP8stages_tiEiiiS3_iEEE9_M_invokeIJLm0ELm1ELm2ELm3ELm4ELm5EEEEvSt12_Index_tupleIJXspT_EEE
FN:247,_ZNSt6thread8_InvokerISt5tupleIJPFviP14netlist_subsetiiEiS3_iiEEEclEv
FNDA:0,_ZNSt6thread8_InvokerISt5tupleIJPFviP14netlist_subsetiiEiS3_iiEEEclEv
FN:247,_ZNSt6thread8_InvokerISt5tupleIJPFviiiP8stages_tiEiiiS3_iEEEclEv
FNDA:0,_ZNSt6thread8_InvokerISt5tupleIJPFviiiP8stages_tiEiiiS3_iEEEclEv
FN:247,_ZNSt6thread8_InvokerISt5tupleIJPFviP14netlist_subsetiiibEiS3_iiiiEEEclEv
FNDA:0,_ZNSt6thread8_InvokerISt5tupleIJPFviP14netlist_subsetiiibEiS3_iiiiEEEclEv
FN:263,_ZNSt6thread14__make_invokerIRFviiiP8stages_tiEJRiS5_S5_RS2_S5_EEENS_8_InvokerISt5tupleIJNSt5decayIT_E4typeEDpNS9_IT0_E4typeEEEEEOSA_DpOSD_
FNDA:0,_ZNSt6thread14__make_invokerIRFviiiP8stages_tiEJRiS5_S5_RS2_S5_EEENS_8_InvokerISt5tupleIJNSt5decayIT_E4typeEDpNS9_IT0_E4typeEEEEEOSA_DpOSD_
FN:263,_ZNSt6thread14__make_invokerIRFviP14netlist_subsetiiibEJRiRS2_S5_S5_S5_iEEENS_8_InvokerISt5tupleIJNSt5decayIT_E4typeEDpNS9_IT0_E4typeEEEEEOSA_DpOSD_
FNDA:0,_ZNSt6thread14__make_invokerIRFviP14netlist_subsetiiibEJRiRS2_S5_S5_S5_iEEENS_8_InvokerISt5tupleIJNSt5decayIT_E4typeEDpNS9_IT0_E4typeEEEEEOSA_DpOSD_
FN:263,_ZNSt6thread14__make_invokerIRFviP14netlist_subsetiiEJRiRS2_S5_iEEENS_8_InvokerISt5tupleIJNSt5decayIT_E4typeEDpNS9_IT0_E4typeEEEEEOSA_DpOSD_
FNDA:0,_ZNSt6thread14__make_invokerIRFviP14netlist_subsetiiEJRiRS2_S5_iEEENS_8_InvokerISt5tupleIJNSt5decayIT_E4typeEDpNS9_IT0_E4typeEEEEEOSA_DpOSD_
FN:276,_ZSteqNSt6thread2idES0_
FNDA:0,_ZSteqNSt6thread2idES0_
FN:353,_ZNSt11this_thread5yieldEv
FNDA:0,_ZNSt11this_thread5yieldEv
DA:82,0
DA:117,0
DA:118,0
DA:126,0
DA:130,0
DA:134,0
DA:117,0
DA:118,0
DA:126,0
DA:130,0
DA:134,0
DA:117,0
DA:118,0
DA:126,0
DA:130,0
DA:134,0
DA:136,0
DA:137,0
DA:138,0
DA:139,0
DA:140,0
DA:144,0
DA:145,0
DA:158,0
DA:159,0
DA:162,0
DA:163,0
DA:191,0
DA:192,0
DA:191,0
DA:192,0
DA:191,0
DA:192,0
DA:195,0
DA:195,0
DA:195,0
DA:203,0
DA:206,0
DA:203,0
DA:206,0
DA:203,0
DA:206,0
DA:243,0
DA:244,0
DA:243,0
DA:244,0
DA:243,0
DA:244,0
DA:247,0
DA:251,0
DA:247,0
DA:251,0
DA:247,0
DA:251,0
DA:263,0
DA:267,0
DA:263,0
DA:267,0
DA:263,0
DA:267,0
DA:276,0
DA:282,0
DA:353,0
DA:356,0
DA:358,0
end_of_record
SF:/usr/include/c++/9/bits/stl_function.h
FN:355,_ZNKSt8equal_toIlEclERKlS2_
FNDA:0,_ZNKSt8equal_toIlEclERKlS2_
FN:355,_ZNKSt8equal_toIP9nnode_t_tEclERKS1_S4_
FNDA:0,_ZNKSt8equal_toIP9nnode_t_tEclERKS1_S4_
FN:355,_ZNKSt8equal_toINSt7__cxx1112basic_stringIcSt11char_traitsIcESaIcEEEEclERKS5_S8_
FNDA:0,_ZNKSt8equal_toINSt7__cxx1112basic_stringIcSt11char_traitsIcESaIcEEEEclERKS5_S8_
FN:385,_ZNKSt4lessIlEclERKlS2_
FNDA:0,_ZNKSt4lessIlEclERKlS2_
FN:385,_ZNKSt4lessIiEclERKiS2_
FNDA:0,_ZNKSt4lessIiEclERKiS2_
FN:1155,_ZNKSt10_Select1stISt4pairIKlSt6vectorIaSaIaEEEEclERKS5_
FNDA:0,_ZNKSt10_Select1stISt4pairIKlSt6vectorIaSaIaEEEEclERKS5_
FN:1155,_ZNKSt10_Select1stISt4pairIKiSt3mapIlSt6vectorIaSaIaEESt4lessIlESaIS0_IKlS5_EEEEEclERKSC_
FNDA:0,_ZNKSt10_Select1stISt4pairIKiSt3mapIlSt6vectorIaSaIaEESt4lessIlESaIS0_IKlS5_EEEEEclERKSC_
FN:1155,_ZNKSt10_Select1stISt4pairIKiiEEclERKS2_
FNDA:0,_ZNKSt10_Select1stISt4pairIKiiEEclERKS2_
DA:355,0
DA:356,0
DA:355,0
DA:356,0
DA:355,0
DA:356,0
DA:385,0
DA:386,0
DA:385,0
DA:386,0
DA:1155,0
DA:1156,0
DA:1155,0
DA:1156,0
DA:1155,0
DA:1156,0
end_of_record
SF:/workspace/vtr-verilog-to-routing/libs/EXTERNAL/libargparse/src/argparse_value.hpp
FN:50,_ZNK8argparse8ArgValueIPcEcvS1_Ev
FNDA:0,_ZNK8argparse8ArgValueIPcEcvS1_Ev
FN:50,_ZNK8argparse8ArgValueIbEcvbEv
FNDA:0,_ZNK8argparse8ArgValueIbEcvbEv
FN:50,_ZNK8argparse8ArgValueIdEcvdEv
FNDA:0,_ZNK8argparse8ArgValueIdEcvdEv
FN:50,_ZNK8argparse8ArgValueIiEcviEv
FNDA:0,_ZNK8argparse8ArgValueIiEcviEv
FN:53,_ZNK8argparse8ArgValueISt6vectorINSt7__cxx1112basic_stringIcSt11char_traitsIcESaIcEEESaIS7_EEE5valueEv
FNDA:0,_ZNK8argparse8ArgValueISt6vectorINSt7__cxx1112basic_stringIcSt11char_traitsIcESaIcEEESaIS7_EEE5valueEv
FN:53,_ZNK8argparse8ArgValueIiE5valueEv
FNDA:0,_ZNK8argparse8ArgValueIiE5valueEv
DA:50,0
DA:50,0
DA:50,0
DA:50,0
DA:53,0
DA:53,0
end_of_record
SF:/usr/include/c++/9/bits/stl_pair.h
FN:303,_ZNSt4pairIKiSt3mapIlSt6vectorIaSaIaEESt4lessIlESaIS_IKlS4_EEEEC2ERKSB_
FNDA:0,_ZNSt4pairIKiSt3mapIlSt6vectorIaSaIaEESt4lessIlESaIS_IKlS4_EEEEC2ERKSB_
FN:303,_ZNSt4pairIKlSt6vectorIaSaIaEEEC2ERKS4_
FNDA:0,_ZNSt4pairIKlSt6vectorIaSaIaEEEC2ERKS4_
FN:304,_ZNSt4pairIKNSt7__cxx1112basic_stringIcSt11char_traitsIcESaIcEEES5_EC2EOS7_
FNDA:0,_ZNSt4pairIKNSt7__cxx1112basic_stringIcSt11char_traitsIcESaIcEEES5_EC2EOS7_
FN:311,_ZNSt4pairIPSt18_Rb_tree_node_baseS1_EC2IRS1_Lb1EEEOT_RKS1_
FNDA:0,_ZNSt4pairIPSt18_Rb_tree_node_baseS1_EC2IRS1_Lb1EEEOT_RKS1_
FN:325,_ZNSt4pairIPSt18_Rb_tree_node_baseS1_EC2IRS1_Lb1EEERKS1_OT_
FNDA:0,_ZNSt4pairIPSt18_Rb_tree_node_baseS1_EC2IRS1_Lb1EEERKS1_OT_
FN:341,_ZNSt4pairINSt8__detail14_Node_iteratorIS_IKNSt7__cxx1112basic_stringIcSt11char_traitsIcESaIcEEES7_ELb0ELb1EEEbEC2ISA_bLb1EEEOT_OT0_
FNDA:0,_ZNSt4pairINSt8__detail14_Node_iteratorIS_IKNSt7__cxx1112basic_stringIcSt11char_traitsIcESaIcEEES7_ELb0ELb1EEEbEC2ISA_bLb1EEEOT_OT0_
FN:341,_ZNSt4pairIPSt18_Rb_tree_node_baseS1_EC2IRPSt13_Rb_tree_nodeIS_IKlSt6vectorIaSaIaEEEERS1_Lb1EEEOT_OT0_
FNDA:0,_ZNSt4pairIPSt18_Rb_tree_node_baseS1_EC2IRPSt13_Rb_tree_nodeIS_IKlSt6vectorIaSaIaEEEERS1_Lb1EEEOT_OT0_
FN:341,_ZNSt4pairIPSt18_Rb_tree_node_baseS1_EC2IRPSt13_Rb_tree_nodeIS_IKiSt3mapIlSt6vectorIaSaIaEESt4lessIlESaIS_IKlS9_EEEEERS1_Lb1EEEOT_OT0_
FNDA:0,_ZNSt4pairIPSt18_Rb_tree_node_baseS1_EC2IRPSt13_Rb_tree_nodeIS_IKiSt3mapIlSt6vectorIaSaIaEESt4lessIlESaIS_IKlS9_EEEEERS1_Lb1EEEOT_OT0_
FN:341,_ZNSt4pairIPSt18_Rb_tree_node_baseS1_EC2IRPSt13_Rb_tree_nodeIS_IKiiEERS1_Lb1EEEOT_OT0_
FNDA:0,_ZNSt4pairIPSt18_Rb_tree_node_baseS1_EC2IRPSt13_Rb_tree_nodeIS_IKiiEERS1_Lb1EEEOT_OT0_
FN:341,_ZNSt4pairINSt8__detail14_Node_iteratorIlLb1ELb0EEEbEC2IS2_bLb1EEEOT_OT0_
FNDA:0,_ZNSt4pairINSt8__detail14_Node_iteratorIlLb1ELb0EEEbEC2IS2_bLb1EEEOT_OT0_
FN:341,_ZNSt4pairIPSt18_Rb_tree_node_baseS1_EC2IRS1_S4_Lb1EEEOT_OT0_
FNDA:0,_ZNSt4pairIPSt18_Rb_tree_node_baseS1_EC2IRS1_S4_Lb1EEEOT_OT0_
FN:341,_ZNSt4pairINSt8__detail14_Node_iteratorIP9nnode_t_tLb1ELb0EEEbEC2IS4_bLb1EEEOT_OT0_
FNDA:0,_ZNSt4pairINSt8__detail14_Node_iteratorIP9nnode_t_tLb1ELb0EEEbEC2IS4_bLb1EEEOT_OT0_
FN:341,_ZNSt4pairIKNSt7__cxx1112basic_stringIcSt11char_traitsIcESaIcEEES5_EC2IRPcSA_Lb1EEEOT_OT0_
FNDA:0,_ZNSt4pairIKNSt7__cxx1112basic_stringIcSt11char_traitsIcESaIcEEES5_EC2IRPcSA_Lb1EEEOT_OT0_
FN:524,_ZSt9make_pairINSt8__detail14_Node_iteratorIlLb1ELb0EEEbESt4pairINSt17__decay_and_stripIT_E6__typeENS4_IT0_E6__typeEEOS5_OS8_
FNDA:0,_ZSt9make_pairINSt8__detail14_Node_iteratorIlLb1ELb0EEEbESt4pairINSt17__decay_and_stripIT_E6__typeENS4_IT0_E6__typeEEOS5_OS8_
FN:524,_ZSt9make_pairINSt8__detail14_Node_iteratorISt4pairIKNSt7__cxx1112basic_stringIcSt11char_traitsIcESaIcEEES8_ELb0ELb1EEEbES2_INSt17__decay_and_stripIT_E6__typeENSC_IT0_E6__typeEEOSD_OSG_
FNDA:0,_ZSt9make_pairINSt8__detail14_Node_iteratorISt4pairIKNSt7__cxx1112basic_stringIcSt11char_traitsIcESaIcEEES8_ELb0ELb1EEEbES2_INSt17__decay_and_stripIT_E6__typeENSC_IT0_E6__typeEEOSD_OSG_
FN:524,_ZSt9make_pairINSt8__detail14_Node_iteratorIP9nnode_t_tLb1ELb0EEEbESt4pairINSt17__decay_and_stripIT_E6__typeENS6_IT0_E6__typeEEOS7_OSA_
FNDA:0,_ZSt9make_pairINSt8__detail14_Node_iteratorIP9nnode_t_tLb1ELb0EEEbESt4pairINSt17__decay_and_stripIT_E6__typeENS6_IT0_E6__typeEEOS7_OSA_
DA:303,0
DA:303,0
DA:304,0
DA:311,0
DA:312,0
DA:325,0
DA:326,0
DA:341,0
DA:342,0
DA:341,0
DA:342,0
DA:341,0
DA:342,0
DA:341,0
DA:342,0
DA:341,0
DA:342,0
DA:341,0
DA:342,0
DA:341,0
DA:342,0
DA:341,0
DA:342,0
DA:524,0
DA:529,0
DA:524,0
DA:529,0
DA:524,0
DA:529,0
end_of_record
SF:/usr/include/x86_64-linux-gnu/c++/9/bits/gthr-default.h
FN:248,_ZL18__gthread_active_pv
FNDA:0,_ZL18__gthread_active_pv
FN:691,_ZL15__gthread_yieldv
FNDA:0,_ZL15__gthread_yieldv
FN:746,_ZL20__gthread_mutex_lockP15pthread_mutex_t
FNDA:0,_ZL20__gthread_mutex_lockP15pthread_mutex_t
FN:776,_ZL22__gthread_mutex_unlockP15pthread_mutex_t
FNDA:0,_ZL22__gthread_mutex_unlockP15pthread_mutex_t
DA:248,0
DA:252,0
DA:691,0
DA:693,0
DA:746,0
DA:748,0
DA:749,0
DA:751,0
DA:776,0
DA:778,0
DA:779,0
DA:781,0
end_of_record
SF:/usr/include/c++/9/bits/char_traits.h
FN:315,_ZNSt11char_traitsIcE7compareEPKcS2_m
FNDA:0,_ZNSt11char_traitsIcE7compareEPKcS2_m
FN:329,_ZNSt11char_traitsIcE6lengthEPKc
FNDA:0,_ZNSt11char_traitsIcE6lengthEPKc
FN:361,_ZNSt11char_traitsIcE4copyEPcPKcm
FNDA:0,_ZNSt11char_traitsIcE4copyEPcPKcm
DA:315,0
DA:317,0
DA:318,0
DA:325,0
DA:329,0
DA:335,0
DA:361,0
DA:363,0
DA:364,0
DA:365,0
end_of_record
SF:/usr/include/c++/9/ext/alloc_traits.h
FN:97,_ZN9__gnu_cxx14__alloc_traitsISaISt13_Rb_tree_nodeISt4pairIKlSt6vectorIaSaIaEEEEES8_E17_S_select_on_copyERKS9_
FNDA:0,_ZN9__gnu_cxx14__alloc_traitsISaISt13_Rb_tree_nodeISt4pairIKlSt6vectorIaSaIaEEEEES8_E17_S_select_on_copyERKS9_
FN:97,_ZN9__gnu_cxx14__alloc_traitsISaINSt7__cxx1112basic_stringIcSt11char_traitsIcESaIcEEEES6_E17_S_select_on_copyERKS7_
FNDA:0,_ZN9__gnu_cxx14__alloc_traitsISaINSt7__cxx1112basic_stringIcSt11char_traitsIcESaIcEEEES6_E17_S_select_on_copyERKS7_
FN:97,_ZN9__gnu_cxx14__alloc_traitsISaIaEaE17_S_select_on_copyERKS1_
FNDA:0,_ZN9__gnu_cxx14__alloc_traitsISaIaEaE17_S_select_on_copyERKS1_
FN:97,_ZN9__gnu_cxx14__alloc_traitsISaIcEcE17_S_select_on_copyERKS1_
FNDA:0,_ZN9__gnu_cxx14__alloc_traitsISaIcEcE17_S_select_on_copyERKS1_
FN:103,_ZN9__gnu_cxx14__alloc_traitsISaIaEaE27_S_propagate_on_copy_assignEv
FNDA:0,_ZN9__gnu_cxx14__alloc_traitsISaIaEaE27_S_propagate_on_copy_assignEv
FN:112,_ZN9__gnu_cxx14__alloc_traitsISaIaEaE15_S_always_equalEv
FNDA:0,_ZN9__gnu_cxx14__alloc_traitsISaIaEaE15_S_always_equalEv
DA:97,0
DA:98,0
DA:97,0
DA:98,0
DA:97,0
DA:98,0
DA:97,0
DA:98,0
DA:103,0
DA:104,0
DA:112,0
DA:113,0
end_of_record
SF:/usr/include/c++/9/bits/stl_iterator.h
FN:806,_ZN9__gnu_cxx17__normal_iteratorIPNSt7__cxx1112basic_stringIcSt11char_traitsIcESaIcEEESt6vectorIS6_SaIS6_EEEC2ERKS7_
FNDA:0,_ZN9__gnu_cxx17__normal_iteratorIPNSt7__cxx1112basic_stringIcSt11char_traitsIcESaIcEEESt6vectorIS6_SaIS6_EEEC2ERKS7_
FN:806,_ZN9__gnu_cxx17__normal_iteratorIPKaSt6vectorIaSaIaEEEC2ERKS2_
FNDA:0,_ZN9__gnu_cxx17__normal_iteratorIPKaSt6vectorIaSaIaEEEC2ERKS2_
FN:806,_ZN9__gnu_cxx17__normal_iteratorIPSt6threadSt6vectorIS1_SaIS1_EEEC2ERKS2_
FNDA:0,_ZN9__gnu_cxx17__normal_iteratorIPSt6threadSt6vectorIS1_SaIS1_EEEC2ERKS2_
FN:806,_ZN9__gnu_cxx17__normal_iteratorIPaSt6vectorIaSaIaEEEC2ERKS1_
FNDA:0,_ZN9__gnu_cxx17__normal_iteratorIPaSt6vectorIaSaIaEEEC2ERKS1_
FN:806,_ZN9__gnu_cxx17__normal_iteratorIPKSt6vectorIaSaIaEES1_IS3_SaIS3_EEEC2ERKS5_
FNDA:0,_ZN9__gnu_cxx17__normal_iteratorIPKSt6vectorIaSaIaEES1_IS3_SaIS3_EEEC2ERKS5_
FN:806,_ZN9__gnu_cxx17__normal_iteratorIPKNSt7__cxx1112basic_stringIcSt11char_traitsIcESaIcEEESt6vectorIS6_SaIS6_EEEC2ERKS8_
FNDA:0,_ZN9__gnu_cxx17__normal_iteratorIPKNSt7__cxx1112basic_stringIcSt11char_traitsIcESaIcEEESt6vectorIS6_SaIS6_EEEC2ERKS8_
FN:819,_ZNK9__gnu_cxx17__normal_iteratorIPSt6threadSt6vectorIS1_SaIS1_EEEdeEv
FNDA:0,_ZNK9__gnu_cxx17__normal_iteratorIPSt6threadSt6vectorIS1_SaIS1_EEEdeEv
FN:819,_ZNK9__gnu_cxx17__normal_iteratorIPcNSt7__cxx1112basic_stringIcSt11char_traitsIcESaIcEEEEdeEv
FNDA:0,_ZNK9__gnu_cxx17__normal_iteratorIPcNSt7__cxx1112basic_stringIcSt11char_traitsIcESaIcEEEEdeEv
FN:819,_ZNK9__gnu_cxx17__normal_iteratorIPNSt7__cxx1112basic_stringIcSt11char_traitsIcESaIcEEESt6vectorIS6_SaIS6_EEEdeEv
FNDA:0,_ZNK9__gnu_cxx17__normal_iteratorIPNSt7__cxx1112basic_stringIcSt11char_traitsIcESaIcEEESt6vectorIS6_SaIS6_EEEdeEv
FN:819,_ZNK9__gnu_cxx17__normal_iteratorIPKNSt7__cxx1112basic_stringIcSt11char_traitsIcESaIcEEESt6vectorIS6_SaIS6_EEEdeEv
FNDA:0,_ZNK9__gnu_cxx17__normal_iteratorIPKNSt7__cxx1112basic_stringIcSt11char_traitsIcESaIcEEESt6vectorIS6_SaIS6_EEEdeEv
FN:827,_ZN9__gnu_cxx17__normal_iteratorIPSt6threadSt6vectorIS1_SaIS1_EEEppEv
FNDA:0,_ZN9__gnu_cxx17__normal_iteratorIPSt6threadSt6vectorIS1_SaIS1_EEEppEv
FN:827,_ZN9__gnu_cxx17__normal_iteratorIPcNSt7__cxx1112basic_stringIcSt11char_traitsIcESaIcEEEEppEv
FNDA:0,_ZN9__gnu_cxx17__normal_iteratorIPcNSt7__cxx1112basic_stringIcSt11char_traitsIcESaIcEEEEppEv
FN:827,_ZN9__gnu_cxx17__normal_iteratorIPKNSt7__cxx1112basic_stringIcSt11char_traitsIcESaIcEEESt6vectorIS6_SaIS6_EEEppEv
FNDA:0,_ZN9__gnu_cxx17__normal_iteratorIPKNSt7__cxx1112basic_stringIcSt11char_traitsIcESaIcEEESt6vectorIS6_SaIS6_EEEppEv
FN:827,_ZN9__gnu_cxx17__normal_iteratorIPNSt7__cxx1112basic_stringIcSt11char_traitsIcESaIcEEESt6vectorIS6_SaIS6_EEEppEv
FNDA:0,_ZN9__gnu_cxx17__normal_iteratorIPNSt7__cxx1112basic_stringIcSt11char_traitsIcESaIcEEESt6vectorIS6_SaIS6_EEEppEv
FN:859,_ZNK9__gnu_cxx17__normal_iteratorIPaSt6vectorIaSaIaEEEplEl
FNDA:0,_ZNK9__gnu_cxx17__normal_iteratorIPaSt6vectorIaSaIaEEEplEl
FN:871,_ZNK9__gnu_cxx17__normal_iteratorIPSt6threadSt6vectorIS1_SaIS1_EEE4baseEv
FNDA:0,_ZNK9__gnu_cxx17__normal_iteratorIPSt6threadSt6vectorIS1_SaIS1_EEE4baseEv
FN:871,_ZNK9__gnu_cxx17__normal_iteratorIPcNSt7__cxx1112basic_stringIcSt11char_traitsIcESaIcEEEE4baseEv
FNDA:0,_ZNK9__gnu_cxx17__normal_iteratorIPcNSt7__cxx1112basic_stringIcSt11char_traitsIcESaIcEEEE4baseEv
FN:871,_ZNK9__gnu_cxx17__normal_iteratorIPKNSt7__cxx1112basic_stringIcSt11char_traitsIcESaIcEEESt6vectorIS6_SaIS6_EEE4baseEv
FNDA:0,_ZNK9__gnu_cxx17__normal_iteratorIPKNSt7__cxx1112basic_stringIcSt11char_traitsIcESaIcEEESt6vectorIS6_SaIS6_EEE4baseEv
FN:871,_ZNK9__gnu_cxx17__normal_iteratorIPKaSt6vectorIaSaIaEEE4baseEv
FNDA:0,_ZNK9__gnu_cxx17__normal_iteratorIPKaSt6vectorIaSaIaEEE4baseEv
FN:871,_ZNK9__gnu_cxx17__normal_iteratorIPKSt6vectorIaSaIaEES1_IS3_SaIS3_EEE4baseEv
FNDA:0,_ZNK9__gnu_cxx17__normal_iteratorIPKSt6vectorIaSaIaEES1_IS3_SaIS3_EEE4baseEv
FN:871,_ZNK9__gnu_cxx17__normal_iteratorIPaSt6vectorIaSaIaEEE4baseEv
FNDA:0,_ZNK9__gnu_cxx17__normal_iteratorIPaSt6vectorIaSaIaEEE4baseEv
FN:871,_ZNK9__gnu_cxx17__normal_iteratorIPNSt7__cxx1112basic_stringIcSt11char_traitsIcESaIcEEESt6vectorIS6_SaIS6_EEE4baseEv
FNDA:0,_ZNK9__gnu_cxx17__normal_iteratorIPNSt7__cxx1112basic_stringIcSt11char_traitsIcESaIcEEESt6vectorIS6_SaIS6_EEE4baseEv
FN:893,_ZN9__gnu_cxxeqIPKSt6vectorIaSaIaEES1_IS3_SaIS3_EEEEbRKNS_17__normal_iteratorIT_T0_EESD_
FNDA:0,_ZN9__gnu_cxxeqIPKSt6vectorIaSaIaEES1_IS3_SaIS3_EEEEbRKNS_17__normal_iteratorIT_T0_EESD_
FN:893,_ZN9__gnu_cxxeqIPKNSt7__cxx1112basic_stringIcSt11char_traitsIcESaIcEEESt6vectorIS6_SaIS6_EEEEbRKNS_17__normal_iteratorIT_T0_EESH_
FNDA:0,_ZN9__gnu_cxxeqIPKNSt7__cxx1112basic_stringIcSt11char_traitsIcESaIcEEESt6vectorIS6_SaIS6_EEEEbRKNS_17__normal_iteratorIT_T0_EESH_
FN:907,_ZN9__gnu_cxxneIPcNSt7__cxx1112basic_stringIcSt11char_traitsIcESaIcEEEEEbRKNS_17__normal_iteratorIT_T0_EESD_
FNDA:0,_ZN9__gnu_cxxneIPcNSt7__cxx1112basic_stringIcSt11char_traitsIcESaIcEEEEEbRKNS_17__normal_iteratorIT_T0_EESD_
FN:907,_ZN9__gnu_cxxneIPNSt7__cxx1112basic_stringIcSt11char_traitsIcESaIcEEESt6vectorIS6_SaIS6_EEEEbRKNS_17__normal_iteratorIT_T0_EESG_
FNDA:0,_ZN9__gnu_cxxneIPNSt7__cxx1112basic_stringIcSt11char_traitsIcESaIcEEESt6vectorIS6_SaIS6_EEEEbRKNS_17__normal_iteratorIT_T0_EESG_
FN:907,_ZN9__gnu_cxxneIPSt6threadSt6vectorIS1_SaIS1_EEEEbRKNS_17__normal_iteratorIT_T0_EESB_
FNDA:0,_ZN9__gnu_cxxneIPSt6threadSt6vectorIS1_SaIS1_EEEEbRKNS_17__normal_iteratorIT_T0_EESB_
FN:907,_ZN9__gnu_cxxneIPKNSt7__cxx1112basic_stringIcSt11char_traitsIcESaIcEEESt6vectorIS6_SaIS6_EEEEbRKNS_17__normal_iteratorIT_T0_EESH_
FNDA:0,_ZN9__gnu_cxxneIPKNSt7__cxx1112basic_stringIcSt11char_traitsIcESaIcEEESt6vectorIS6_SaIS6_EEEEbRKNS_17__normal_iteratorIT_T0_EESH_
FN:989,_ZN9__gnu_cxxmiIPSt6threadSt6vectorIS1_SaIS1_EEEENS_17__normal_iteratorIT_T0_E15difference_typeERKS9_SC_
FNDA:0,_ZN9__gnu_cxxmiIPSt6threadSt6vectorIS1_SaIS1_EEEENS_17__normal_iteratorIT_T0_E15difference_typeERKS9_SC_
FN:1010,_ZSt12__niter_baseIPKaSt6vectorIaSaIaEEET_N9__gnu_cxx17__normal_iteratorIS5_T0_EE
FNDA:0,_ZSt12__niter_baseIPKaSt6vectorIaSaIaEEET_N9__gnu_cxx17__normal_iteratorIS5_T0_EE
FN:1010,_ZSt12__niter_baseIPaSt6vectorIaSaIaEEET_N9__gnu_cxx17__normal_iteratorIS4_T0_EE
FNDA:0,_ZSt12__niter_baseIPaSt6vectorIaSaIaEEET_N9__gnu_cxx17__normal_iteratorIS4_T0_EE
FN:1057,_ZNSt13move_iteratorIPSt6threadEC2ES1_
FNDA:0,_ZNSt13move_iteratorIPSt6threadEC2ES1_
FN:1066,_ZNKSt13move_iteratorIPSt6threadE4baseEv
FNDA:0,_ZNKSt13move_iteratorIPSt6threadE4baseEv
FN:1070,_ZNKSt13move_iteratorIPSt6threadEdeEv
FNDA:0,_ZNKSt13move_iteratorIPSt6threadEdeEv
FN:1078,_ZNSt13move_iteratorIPSt6threadEppEv
FNDA:0,_ZNSt13move_iteratorIPSt6threadEppEv
FN:1145,_ZSteqIPSt6threadEbRKSt13move_iteratorIT_ES6_
FNDA:0,_ZSteqIPSt6threadEbRKSt13move_iteratorIT_ES6_
FN:1157,_ZStneIPSt6threadEbRKSt13move_iteratorIT_ES6_
FNDA:0,_ZStneIPSt6threadEbRKSt13move_iteratorIT_ES6_
FN:1242,_ZSt32__make_move_if_noexcept_iteratorISt6threadSt13move_iteratorIPS0_EET0_PT_
FNDA:0,_ZSt32__make_move_if_noexcept_iteratorISt6threadSt13move_iteratorIPS0_EET0_PT_
DA:806,0
DA:807,0
DA:806,0
DA:807,0
DA:806,0
DA:807,0
DA:806,0
DA:807,0
DA:806,0
DA:807,0
DA:806,0
DA:807,0
DA:819,0
DA:820,0
DA:819,0
DA:820,0
DA:819,0
DA:820,0
DA:819,0
DA:820,0
DA:827,0
DA:829,0
DA:830,0
DA:827,0
DA:829,0
DA:830,0
DA:827,0
DA:829,0
DA:830,0
DA:827,0
DA:829,0
DA:830,0
DA:859,0
DA:860,0
DA:871,0
DA:872,0
DA:871,0
DA:872,0
DA:871,0
DA:872,0
DA:871,0
DA:872,0
DA:871,0
DA:872,0
DA:871,0
DA:872,0
DA:871,0
DA:872,0
DA:893,0
DA:896,0
DA:893,0
DA:896,0
DA:907,0
DA:910,0
DA:907,0
DA:910,0
DA:907,0
DA:910,0
DA:907,0
DA:910,0
DA:989,0
DA:992,0
DA:1010,0
DA:1012,0
DA:1010,0
DA:1012,0
DA:1057,0
DA:1058,0
DA:1066,0
DA:1067,0
DA:1070,0
DA:1071,0
DA:1078,0
DA:1080,0
DA:1081,0
DA:1145,0
DA:1147,0
DA:1157,0
DA:1159,0
DA:1242,0
DA:1243,0
end_of_record
SF:/usr/include/c++/9/bits/shared_ptr.h
FN:103,_ZNSt10shared_ptrI12AtomicBufferEaSERKS1_
FNDA:0,_ZNSt10shared_ptrI12AtomicBufferEaSERKS1_
FN:333,_ZNSt10shared_ptrI12AtomicBufferEaSEOS1_
FNDA:0,_ZNSt10shared_ptrI12AtomicBufferEaSEOS1_
FN:358,_ZNSt10shared_ptrI12AtomicBufferEC2ISaIS0_EJaEEESt20_Sp_alloc_shared_tagIT_EDpOT0_
FNDA:0,_ZNSt10shared_ptrI12AtomicBufferEC2ISaIS0_EJaEEESt20_Sp_alloc_shared_tagIT_EDpOT0_
FN:388,_ZSteqI12AtomicBufferEbRKSt10shared_ptrIT_EDn
FNDA:0,_ZSteqI12AtomicBufferEbRKSt10shared_ptrIT_EDn
FN:699,_ZSt15allocate_sharedI12AtomicBufferSaIS0_EJaEESt10shared_ptrIT_ERKT0_DpOT1_
FNDA:0,_ZSt15allocate_sharedI12AtomicBufferSaIS0_EJaEESt10shared_ptrIT_ERKT0_DpOT1_
FN:714,_ZSt11make_sharedI12AtomicBufferJaEESt10shared_ptrIT_EDpOT0_
FNDA:0,_ZSt11make_sharedI12AtomicBufferJaEESt10shared_ptrIT_EDpOT0_
DA:103,0
DA:333,0
DA:335,0
DA:336,0
DA:358,0
DA:359,0
DA:360,0
DA:388,0
DA:389,0
DA:699,0
DA:702,0
DA:714,0
DA:718,0
end_of_record
SF:/usr/include/c++/9/bits/functional_hash.h
FN:109,_ZNKSt4hashIP9nnode_t_tEclES1_
FNDA:0,_ZNKSt4hashIP9nnode_t_tEclES1_
FN:156,_ZNKSt4hashIlEclEl
FNDA:0,_ZNKSt4hashIlEclEl
FN:195,_ZNSt10_Hash_impl4hashEPKvmm
FNDA:0,_ZNSt10_Hash_impl4hashEPKvmm
DA:109,0
DA:110,0
DA:156,0
DA:195,0
DA:197,0
end_of_record
SF:/usr/include/c++/9/bits/invoke.h
FN:59,_ZSt13__invoke_implIvPFviP14netlist_subsetiiibEJiS1_iiiiEET_St14__invoke_otherOT0_DpOT1_
FNDA:0,_ZSt13__invoke_implIvPFviP14netlist_subsetiiibEJiS1_iiiiEET_St14__invoke_otherOT0_DpOT1_
FN:59,_ZSt13__invoke_implIvPFviiiP8stages_tiEJiiiS1_iEET_St14__invoke_otherOT0_DpOT1_
FNDA:0,_ZSt13__invoke_implIvPFviiiP8stages_tiEJiiiS1_iEET_St14__invoke_otherOT0_DpOT1_
FN:59,_ZSt13__invoke_implIvPFviP14netlist_subsetiiEJiS1_iiEET_St14__invoke_otherOT0_DpOT1_
FNDA:0,_ZSt13__invoke_implIvPFviP14netlist_subsetiiEJiS1_iiEET_St14__invoke_otherOT0_DpOT1_
FN:89,_ZSt8__invokeIPFviP14netlist_subsetiiibEJiS1_iiiiEENSt15__invoke_resultIT_JDpT0_EE4typeEOS5_DpOS6_
FNDA:0,_ZSt8__invokeIPFviP14netlist_subsetiiibEJiS1_iiiiEENSt15__invoke_resultIT_JDpT0_EE4typeEOS5_DpOS6_
FN:89,_ZSt8__invokeIPFviiiP8stages_tiEJiiiS1_iEENSt15__invoke_resultIT_JDpT0_EE4typeEOS5_DpOS6_
FNDA:0,_ZSt8__invokeIPFviiiP8stages_tiEJiiiS1_iEENSt15__invoke_resultIT_JDpT0_EE4typeEOS5_DpOS6_
FN:89,_ZSt8__invokeIPFviP14netlist_subsetiiEJiS1_iiEENSt15__invoke_resultIT_JDpT0_EE4typeEOS5_DpOS6_
FNDA:0,_ZSt8__invokeIPFviP14netlist_subsetiiEJiS1_iiEENSt15__invoke_resultIT_JDpT0_EE4typeEOS5_DpOS6_
DA:59,0
DA:60,0
DA:59,0
DA:60,0
DA:59,0
DA:60,0
DA:89,0
DA:95,0
DA:96,0
DA:89,0
DA:95,0
DA:96,0
DA:89,0
DA:95,0
DA:96,0
end_of_record
SF:/usr/include/c++/9/bits/vector.tcc
FN:109,_ZNSt6vectorISt6threadSaIS0_EE12emplace_backIJS0_EEEvDpOT_
FNDA:0,_ZNSt6vectorISt6threadSaIS0_EE12emplace_backIJS0_EEEvDpOT_
FN:198,_ZNSt6vectorIaSaIaEEaSERKS1_
FNDA:0,_ZNSt6vectorIaSaIaEEaSERKS1_
FN:426,_ZNSt6vectorISt6threadSaIS0_EE17_M_realloc_insertIJS0_EEEvN9__gnu_cxx17__normal_iteratorIPS0_S2_EEDpOT_
FNDA:0,_ZNSt6vectorISt6threadSaIS0_EE17_M_realloc_insertIJS0_EEEvN9__gnu_cxx17__normal_iteratorIPS0_S2_EEDpOT_
DA:109,0
DA:112,0
DA:115,0
DA:117,0
DA:121,0
DA:125,0
DA:198,0
DA:201,0
DA:205,0
DA:207,0
DA:208,0
DA:211,0
DA:212,0
DA:213,0
DA:214,0
DA:215,0
DA:216,0
DA:217,0
DA:219,0
DA:223,0
DA:224,0
DA:226,0
DA:228,0
DA:229,0
DA:230,0
DA:231,0
DA:232,0
DA:233,0
DA:234,0
DA:236,0
DA:238,0
DA:239,0
DA:243,0
DA:245,0
DA:246,0
DA:248,0
DA:250,0
DA:252,0
DA:426,0
DA:435,0
DA:437,0
DA:438,0
DA:439,0
DA:440,0
DA:441,0
DA:449,0
DA:450,0
DA:456,0
DA:459,0
DA:461,0
DA:462,0
DA:464,0
DA:466,0
DA:467,0
DA:474,0
DA:475,0
DA:477,0
DA:481,0
DA:482,0
DA:485,0
DA:487,0
DA:488,0
DA:489,0
DA:491,0
DA:492,0
DA:493,0
DA:496,0
DA:498,0
DA:500,0
DA:501,0
DA:502,0
DA:503,0
DA:504,0
DA:505,0
end_of_record
SF:/usr/include/c++/9/ext/type_traits.h
FN:152,_ZN9__gnu_cxx17__is_null_pointerIcEEbPT_
FNDA:0,_ZN9__gnu_cxx17__is_null_pointerIcEEbPT_
FN:152,_ZN9__gnu_cxx17__is_null_pointerIKcEEbPT_
FNDA:0,_ZN9__gnu_cxx17__is_null_pointerIKcEEbPT_
DA:152,0
DA:153,0
DA:152,0
DA:153,0
end_of_record
SF:/usr/include/c++/9/ext/new_allocator.h
FN:80,_ZN9__gnu_cxx13new_allocatorIcEC2Ev
FNDA:0,_ZN9__gnu_cxx13new_allocatorIcEC2Ev
FN:80,_ZN9__gnu_cxx13new_allocatorISt23_Sp_counted_ptr_inplaceI12AtomicBufferSaIS2_ELNS_12_Lock_policyE2EEEC2Ev
FNDA:0,_ZN9__gnu_cxx13new_allocatorISt23_Sp_counted_ptr_inplaceI12AtomicBufferSaIS2_ELNS_12_Lock_policyE2EEEC2Ev
FN:80,_ZN9__gnu_cxx13new_allocatorIPNSt8__detail15_Hash_node_baseEEC2Ev
FNDA:0,_ZN9__gnu_cxx13new_allocatorIPNSt8__detail15_Hash_node_baseEEC2Ev
FN:80,_ZN9__gnu_cxx13new_allocatorIPP9nnode_t_tEC2Ev
FNDA:0,_ZN9__gnu_cxx13new_allocatorIPP9nnode_t_tEC2Ev
FN:80,_ZN9__gnu_cxx13new_allocatorIP9nnode_t_tEC2Ev
FNDA:0,_ZN9__gnu_cxx13new_allocatorIP9nnode_t_tEC2Ev
FN:80,_ZN9__gnu_cxx13new_allocatorI12AtomicBufferEC2Ev
FNDA:0,_ZN9__gnu_cxx13new_allocatorI12AtomicBufferEC2Ev
FN:80,_ZN9__gnu_cxx13new_allocatorISt13_Rb_tree_nodeISt4pairIKiiEEEC2Ev
FNDA:0,_ZN9__gnu_cxx13new_allocatorISt13_Rb_tree_nodeISt4pairIKiiEEEC2Ev
FN:80,_ZN9__gnu_cxx13new_allocatorISt6threadEC2Ev
FNDA:0,_ZN9__gnu_cxx13new_allocatorISt6threadEC2Ev
FN:80,_ZN9__gnu_cxx13new_allocatorINSt8__detail10_Hash_nodeIlLb0EEEEC2Ev
FNDA:0,_ZN9__gnu_cxx13new_allocatorINSt8__detail10_Hash_nodeIlLb0EEEEC2Ev
FN:80,_ZN9__gnu_cxx13new_allocatorINSt8__detail10_Hash_nodeISt4pairIKNSt7__cxx1112basic_stringIcSt11char_traitsIcESaIcEEES9_ELb1EEEEC2Ev
FNDA:0,_ZN9__gnu_cxx13new_allocatorINSt8__detail10_Hash_nodeISt4pairIKNSt7__cxx1112basic_stringIcSt11char_traitsIcESaIcEEES9_ELb1EEEEC2Ev
FN:80,_ZN9__gnu_cxx13new_allocatorISt6vectorIaSaIaEEEC2Ev
FNDA:0,_ZN9__gnu_cxx13new_allocatorISt6vectorIaSaIaEEEC2Ev
FN:80,_ZN9__gnu_cxx13new_allocatorIaEC2Ev
FNDA:0,_ZN9__gnu_cxx13new_allocatorIaEC2Ev
FN:80,_ZN9__gnu_cxx13new_allocatorINSt8__detail10_Hash_nodeIP9nnode_t_tLb0EEEEC2Ev
FNDA:0,_ZN9__gnu_cxx13new_allocatorINSt8__detail10_Hash_nodeIP9nnode_t_tLb0EEEEC2Ev
FN:80,_ZN9__gnu_cxx13new_allocatorISt13_Rb_tree_nodeISt4pairIKlSt6vectorIaSaIaEEEEEC2Ev
FNDA:0,_ZN9__gnu_cxx13new_allocatorISt13_Rb_tree_nodeISt4pairIKlSt6vectorIaSaIaEEEEEC2Ev
FN:83,_ZN9__gnu_cxx13new_allocatorIcEC2ERKS1_
FNDA:0,_ZN9__gnu_cxx13new_allocatorIcEC2ERKS1_
FN:83,_ZN9__gnu_cxx13new_allocatorIaEC2ERKS1_
FNDA:0,_ZN9__gnu_cxx13new_allocatorIaEC2ERKS1_
FN:83,_ZN9__gnu_cxx13new_allocatorISt6vectorIaSaIaEEEC2ERKS4_
FNDA:0,_ZN9__gnu_cxx13new_allocatorISt6vectorIaSaIaEEEC2ERKS4_
FN:83,_ZN9__gnu_cxx13new_allocatorINSt7__cxx1112basic_stringIcSt11char_traitsIcESaIcEEEEC2ERKS7_
FNDA:0,_ZN9__gnu_cxx13new_allocatorINSt7__cxx1112basic_stringIcSt11char_traitsIcESaIcEEEEC2ERKS7_
FN:83,_ZN9__gnu_cxx13new_allocatorISt13_Rb_tree_nodeISt4pairIKlSt6vectorIaSaIaEEEEEC2ERKS9_
FNDA:0,_ZN9__gnu_cxx13new_allocatorISt13_Rb_tree_nodeISt4pairIKlSt6vectorIaSaIaEEEEEC2ERKS9_
FN:83,_ZN9__gnu_cxx13new_allocatorI12AtomicBufferEC2ERKS2_
FNDA:0,_ZN9__gnu_cxx13new_allocatorI12AtomicBufferEC2ERKS2_
FN:89,_ZN9__gnu_cxx13new_allocatorI12AtomicBufferED2Ev
FNDA:0,_ZN9__gnu_cxx13new_allocatorI12AtomicBufferED2Ev
FN:89,_ZN9__gnu_cxx13new_allocatorIPP9nnode_t_tED2Ev
FNDA:0,_ZN9__gnu_cxx13new_allocatorIPP9nnode_t_tED2Ev
FN:89,_ZN9__gnu_cxx13new_allocatorINSt8__detail10_Hash_nodeISt4pairIKNSt7__cxx1112basic_stringIcSt11char_traitsIcESaIcEEES9_ELb1EEEED2Ev
FNDA:0,_ZN9__gnu_cxx13new_allocatorINSt8__detail10_Hash_nodeISt4pairIKNSt7__cxx1112basic_stringIcSt11char_traitsIcESaIcEEES9_ELb1EEEED2Ev
FN:89,_ZN9__gnu_cxx13new_allocatorIPNSt8__detail15_Hash_node_baseEED2Ev
FNDA:0,_ZN9__gnu_cxx13new_allocatorIPNSt8__detail15_Hash_node_baseEED2Ev
FN:89,_ZN9__gnu_cxx13new_allocatorISt6vectorIaSaIaEEED2Ev
FNDA:0,_ZN9__gnu_cxx13new_allocatorISt6vectorIaSaIaEEED2Ev
FN:89,_ZN9__gnu_cxx13new_allocatorISt13_Rb_tree_nodeISt4pairIKlSt6vectorIaSaIaEEEEED2Ev
FNDA:0,_ZN9__gnu_cxx13new_allocatorISt13_Rb_tree_nodeISt4pairIKlSt6vectorIaSaIaEEEEED2Ev
FN:89,_ZN9__gnu_cxx13new_allocatorIaED2Ev
FNDA:0,_ZN9__gnu_cxx13new_allocatorIaED2Ev
FN:89,_ZN9__gnu_cxx13new_allocatorISt13_Rb_tree_nodeISt4pairIKiiEEED2Ev
FNDA:0,_ZN9__gnu_cxx13new_allocatorISt13_Rb_tree_nodeISt4pairIKiiEEED2Ev
FN:89,_ZN9__gnu_cxx13new_allocatorINSt8__detail10_Hash_nodeIP9nnode_t_tLb0EEEED2Ev
FNDA:0,_ZN9__gnu_cxx13new_allocatorINSt8__detail10_Hash_nodeIP9nnode_t_tLb0EEEED2Ev
FN:89,_ZN9__gnu_cxx13new_allocatorISt6threadED2Ev
FNDA:0,_ZN9__gnu_cxx13new_allocatorISt6threadED2Ev
FN:89,_ZN9__gnu_cxx13new_allocatorINSt8__detail10_Hash_nodeIlLb0EEEED2Ev
FNDA:0,_ZN9__gnu_cxx13new_allocatorINSt8__detail10_Hash_nodeIlLb0EEEED2Ev
FN:89,_ZN9__gnu_cxx13new_allocatorIP9nnode_t_tED2Ev
FNDA:0,_ZN9__gnu_cxx13new_allocatorIP9nnode_t_tED2Ev
FN:89,_ZN9__gnu_cxx13new_allocatorISt23_Sp_counted_ptr_inplaceI12AtomicBufferSaIS2_ELNS_12_Lock_policyE2EEED2Ev
FNDA:0,_ZN9__gnu_cxx13new_allocatorISt23_Sp_counted_ptr_inplaceI12AtomicBufferSaIS2_ELNS_12_Lock_policyE2EEED2Ev
FN:89,_ZN9__gnu_cxx13new_allocatorINSt7__cxx1112basic_stringIcSt11char_traitsIcESaIcEEEED2Ev
FNDA:0,_ZN9__gnu_cxx13new_allocatorINSt7__cxx1112basic_stringIcSt11char_traitsIcESaIcEEEED2Ev
FN:89,_ZN9__gnu_cxx13new_allocatorIcED2Ev
FNDA:0,_ZN9__gnu_cxx13new_allocatorIcED2Ev
FN:102,_ZN9__gnu_cxx13new_allocatorIP9nnode_t_tE8allocateEmPKv
FNDA:0,_ZN9__gnu_cxx13new_allocatorIP9nnode_t_tE8allocateEmPKv
FN:102,_ZN9__gnu_cxx13new_allocatorINSt8__detail10_Hash_nodeIlLb0EEEE8allocateEmPKv
FNDA:0,_ZN9__gnu_cxx13new_allocatorINSt8__detail10_Hash_nodeIlLb0EEEE8allocateEmPKv
FN:102,_ZN9__gnu_cxx13new_allocatorIPP9nnode_t_tE8allocateEmPKv
FNDA:0,_ZN9__gnu_cxx13new_allocatorIPP9nnode_t_tE8allocateEmPKv
FN:102,_ZN9__gnu_cxx13new_allocatorISt13_Rb_tree_nodeISt4pairIKiiEEE8allocateEmPKv
FNDA:0,_ZN9__gnu_cxx13new_allocatorISt13_Rb_tree_nodeISt4pairIKiiEEE8allocateEmPKv
FN:102,_ZN9__gnu_cxx13new_allocatorISt13_Rb_tree_nodeISt4pairIKiSt3mapIlSt6vectorIaSaIaEESt4lessIlESaIS2_IKlS7_EEEEEE8allocateEmPKv
FNDA:0,_ZN9__gnu_cxx13new_allocatorISt13_Rb_tree_nodeISt4pairIKiSt3mapIlSt6vectorIaSaIaEESt4lessIlESaIS2_IKlS7_EEEEEE8allocateEmPKv
FN:102,_ZN9__gnu_cxx13new_allocatorISt6threadE8allocateEmPKv
FNDA:0,_ZN9__gnu_cxx13new_allocatorISt6threadE8allocateEmPKv
FN:102,_ZN9__gnu_cxx13new_allocatorISt13_Rb_tree_nodeISt4pairIKlSt6vectorIaSaIaEEEEE8allocateEmPKv
FNDA:0,_ZN9__gnu_cxx13new_allocatorISt13_Rb_tree_nodeISt4pairIKlSt6vectorIaSaIaEEEEE8allocateEmPKv
FN:102,_ZN9__gnu_cxx13new_allocatorIPNSt8__detail15_Hash_node_baseEE8allocateEmPKv
FNDA:0,_ZN9__gnu_cxx13new_allocatorIPNSt8__detail15_Hash_node_baseEE8allocateEmPKv
FN:102,_ZN9__gnu_cxx13new_allocatorINSt8__detail10_Hash_nodeIP9nnode_t_tLb0EEEE8allocateEmPKv
FNDA:0,_ZN9__gnu_cxx13new_allocatorINSt8__detail10_Hash_nodeIP9nnode_t_tLb0EEEE8allocateEmPKv
FN:102,_ZN9__gnu_cxx13new_allocatorISt6vectorIaSaIaEEE8allocateEmPKv
FNDA:0,_ZN9__gnu_cxx13new_allocatorISt6vectorIaSaIaEEE8allocateEmPKv
FN:102,_ZN9__gnu_cxx13new_allocatorIaE8allocateEmPKv
FNDA:0,_ZN9__gnu_cxx13new_allocatorIaE8allocateEmPKv
FN:102,_ZN9__gnu_cxx13new_allocatorINSt8__detail10_Hash_nodeISt4pairIKNSt7__cxx1112basic_stringIcSt11char_traitsIcESaIcEEES9_ELb1EEEE8allocateEmPKv
FNDA:0,_ZN9__gnu_cxx13new_allocatorINSt8__detail10_Hash_nodeISt4pairIKNSt7__cxx1112basic_stringIcSt11char_traitsIcESaIcEEES9_ELb1EEEE8allocateEmPKv
FN:102,_ZN9__gnu_cxx13new_allocatorISt23_Sp_counted_ptr_inplaceI12AtomicBufferSaIS2_ELNS_12_Lock_policyE2EEE8allocateEmPKv
FNDA:0,_ZN9__gnu_cxx13new_allocatorISt23_Sp_counted_ptr_inplaceI12AtomicBufferSaIS2_ELNS_12_Lock_policyE2EEE8allocateEmPKv
FN:102,_ZN9__gnu_cxx13new_allocatorINSt7__cxx1112basic_stringIcSt11char_traitsIcESaIcEEEE8allocateEmPKv
FNDA:0,_ZN9__gnu_cxx13new_allocatorINSt7__cxx1112basic_stringIcSt11char_traitsIcESaIcEEEE8allocateEmPKv
FN:119,_ZN9__gnu_cxx13new_allocatorINSt7__cxx1112basic_stringIcSt11char_traitsIcESaIcEEEE10deallocateEPS6_m
FNDA:0,_ZN9__gnu_cxx13new_allocatorINSt7__cxx1112basic_stringIcSt11char_traitsIcESaIcEEEE10deallocateEPS6_m
FN:119,_ZN9__gnu_cxx13new_allocatorISt6vectorIaSaIaEEE10deallocateEPS3_m
FNDA:0,_ZN9__gnu_cxx13new_allocatorISt6vectorIaSaIaEEE10deallocateEPS3_m
FN:119,_ZN9__gnu_cxx13new_allocatorIP9nnode_t_tE10deallocateEPS2_m
FNDA:0,_ZN9__gnu_cxx13new_allocatorIP9nnode_t_tE10deallocateEPS2_m
FN:119,_ZN9__gnu_cxx13new_allocatorIPP9nnode_t_tE10deallocateEPS3_m
FNDA:0,_ZN9__gnu_cxx13new_allocatorIPP9nnode_t_tE10deallocateEPS3_m
FN:119,_ZN9__gnu_cxx13new_allocatorISt13_Rb_tree_nodeISt4pairIKiiEEE10deallocateEPS5_m
FNDA:0,_ZN9__gnu_cxx13new_allocatorISt13_Rb_tree_nodeISt4pairIKiiEEE10deallocateEPS5_m
FN:119,_ZN9__gnu_cxx13new_allocatorISt23_Sp_counted_ptr_inplaceI12AtomicBufferSaIS2_ELNS_12_Lock_policyE2EEE10deallocateEPS5_m
FNDA:0,_ZN9__gnu_cxx13new_allocatorISt23_Sp_counted_ptr_inplaceI12AtomicBufferSaIS2_ELNS_12_Lock_policyE2EEE10deallocateEPS5_m
FN:119,_ZN9__gnu_cxx13new_allocatorINSt8__detail10_Hash_nodeIlLb0EEEE10deallocateEPS3_m
FNDA:0,_ZN9__gnu_cxx13new_allocatorINSt8__detail10_Hash_nodeIlLb0EEEE10deallocateEPS3_m
FN:119,_ZN9__gnu_cxx13new_allocatorIPNSt8__detail15_Hash_node_baseEE10deallocateEPS3_m
FNDA:0,_ZN9__gnu_cxx13new_allocatorIPNSt8__detail15_Hash_node_baseEE10deallocateEPS3_m
FN:119,_ZN9__gnu_cxx13new_allocatorIaE10deallocateEPam
FNDA:0,_ZN9__gnu_cxx13new_allocatorIaE10deallocateEPam
FN:119,_ZN9__gnu_cxx13new_allocatorISt6threadE10deallocateEPS1_m
FNDA:0,_ZN9__gnu_cxx13new_allocatorISt6threadE10deallocateEPS1_m
FN:119,_ZN9__gnu_cxx13new_allocatorISt13_Rb_tree_nodeISt4pairIKiSt3mapIlSt6vectorIaSaIaEESt4lessIlESaIS2_IKlS7_EEEEEE10deallocateEPSF_m
FNDA:0,_ZN9__gnu_cxx13new_allocatorISt13_Rb_tree_nodeISt4pairIKiSt3mapIlSt6vectorIaSaIaEESt4lessIlESaIS2_IKlS7_EEEEEE10deallocateEPSF_m
FN:119,_ZN9__gnu_cxx13new_allocatorISt13_Rb_tree_nodeISt4pairIKlSt6vectorIaSaIaEEEEE10deallocateEPS8_m
FNDA:0,_ZN9__gnu_cxx13new_allocatorISt13_Rb_tree_nodeISt4pairIKlSt6vectorIaSaIaEEEEE10deallocateEPS8_m
FN:119,_ZN9__gnu_cxx13new_allocatorINSt8__detail10_Hash_nodeIP9nnode_t_tLb0EEEE10deallocateEPS5_m
FNDA:0,_ZN9__gnu_cxx13new_allocatorINSt8__detail10_Hash_nodeIP9nnode_t_tLb0EEEE10deallocateEPS5_m
FN:119,_ZN9__gnu_cxx13new_allocatorINSt8__detail10_Hash_nodeISt4pairIKNSt7__cxx1112basic_stringIcSt11char_traitsIcESaIcEEES9_ELb1EEEE10deallocateEPSC_m
FNDA:0,_ZN9__gnu_cxx13new_allocatorINSt8__detail10_Hash_nodeISt4pairIKNSt7__cxx1112basic_stringIcSt11char_traitsIcESaIcEEES9_ELb1EEEE10deallocateEPSC_m
FN:132,_ZNK9__gnu_cxx13new_allocatorINSt8__detail10_Hash_nodeIP9nnode_t_tLb0EEEE8max_sizeEv
FNDA:0,_ZNK9__gnu_cxx13new_allocatorINSt8__detail10_Hash_nodeIP9nnode_t_tLb0EEEE8max_sizeEv
FN:132,_ZNK9__gnu_cxx13new_allocatorIPP9nnode_t_tE8max_sizeEv
FNDA:0,_ZNK9__gnu_cxx13new_allocatorIPP9nnode_t_tE8max_sizeEv
FN:132,_ZNK9__gnu_cxx13new_allocatorINSt8__detail10_Hash_nodeIlLb0EEEE8max_sizeEv
FNDA:0,_ZNK9__gnu_cxx13new_allocatorINSt8__detail10_Hash_nodeIlLb0EEEE8max_sizeEv
FN:132,_ZNK9__gnu_cxx13new_allocatorISt23_Sp_counted_ptr_inplaceI12AtomicBufferSaIS2_ELNS_12_Lock_policyE2EEE8max_sizeEv
FNDA:0,_ZNK9__gnu_cxx13new_allocatorISt23_Sp_counted_ptr_inplaceI12AtomicBufferSaIS2_ELNS_12_Lock_policyE2EEE8max_sizeEv
FN:132,_ZNK9__gnu_cxx13new_allocatorIaE8max_sizeEv
FNDA:0,_ZNK9__gnu_cxx13new_allocatorIaE8max_sizeEv
FN:132,_ZNK9__gnu_cxx13new_allocatorISt6vectorIaSaIaEEE8max_sizeEv
FNDA:0,_ZNK9__gnu_cxx13new_allocatorISt6vectorIaSaIaEEE8max_sizeEv
FN:132,_ZNK9__gnu_cxx13new_allocatorISt13_Rb_tree_nodeISt4pairIKlSt6vectorIaSaIaEEEEE8max_sizeEv
FNDA:0,_ZNK9__gnu_cxx13new_allocatorISt13_Rb_tree_nodeISt4pairIKlSt6vectorIaSaIaEEEEE8max_sizeEv
FN:132,_ZNK9__gnu_cxx13new_allocatorIPNSt8__detail15_Hash_node_baseEE8max_sizeEv
FNDA:0,_ZNK9__gnu_cxx13new_allocatorIPNSt8__detail15_Hash_node_baseEE8max_sizeEv
FN:132,_ZNK9__gnu_cxx13new_allocatorISt6threadE8max_sizeEv
FNDA:0,_ZNK9__gnu_cxx13new_allocatorISt6threadE8max_sizeEv
FN:132,_ZNK9__gnu_cxx13new_allocatorIP9nnode_t_tE8max_sizeEv
FNDA:0,_ZNK9__gnu_cxx13new_allocatorIP9nnode_t_tE8max_sizeEv
FN:132,_ZNK9__gnu_cxx13new_allocatorISt13_Rb_tree_nodeISt4pairIKiiEEE8max_sizeEv
FNDA:0,_ZNK9__gnu_cxx13new_allocatorISt13_Rb_tree_nodeISt4pairIKiiEEE8max_sizeEv
FN:132,_ZNK9__gnu_cxx13new_allocatorINSt7__cxx1112basic_stringIcSt11char_traitsIcESaIcEEEE8max_sizeEv
FNDA:0,_ZNK9__gnu_cxx13new_allocatorINSt7__cxx1112basic_stringIcSt11char_traitsIcESaIcEEEE8max_sizeEv
FN:132,_ZNK9__gnu_cxx13new_allocatorINSt8__detail10_Hash_nodeISt4pairIKNSt7__cxx1112basic_stringIcSt11char_traitsIcESaIcEEES9_ELb1EEEE8max_sizeEv
FNDA:0,_ZNK9__gnu_cxx13new_allocatorINSt8__detail10_Hash_nodeISt4pairIKNSt7__cxx1112basic_stringIcSt11char_traitsIcESaIcEEES9_ELb1EEEE8max_sizeEv
FN:132,_ZNK9__gnu_cxx13new_allocatorISt13_Rb_tree_nodeISt4pairIKiSt3mapIlSt6vectorIaSaIaEESt4lessIlESaIS2_IKlS7_EEEEEE8max_sizeEv
FNDA:0,_ZNK9__gnu_cxx13new_allocatorISt13_Rb_tree_nodeISt4pairIKiSt3mapIlSt6vectorIaSaIaEESt4lessIlESaIS2_IKlS7_EEEEEE8max_sizeEv
FN:144,_ZN9__gnu_cxx13new_allocatorINSt8__detail10_Hash_nodeIlLb0EEEE9constructIlJRKlEEEvPT_DpOT0_
FNDA:0,_ZN9__gnu_cxx13new_allocatorINSt8__detail10_Hash_nodeIlLb0EEEE9constructIlJRKlEEEvPT_DpOT0_
FN:144,_ZN9__gnu_cxx13new_allocatorISt13_Rb_tree_nodeISt4pairIKiSt3mapIlSt6vectorIaSaIaEESt4lessIlESaIS2_IKlS7_EEEEEE9constructISE_JRKSE_EEEvPT_DpOT0_
FNDA:0,_ZN9__gnu_cxx13new_allocatorISt13_Rb_tree_nodeISt4pairIKiSt3mapIlSt6vectorIaSaIaEESt4lessIlESaIS2_IKlS7_EEEEEE9constructISE_JRKSE_EEEvPT_DpOT0_
FN:144,_ZN9__gnu_cxx13new_allocatorISt13_Rb_tree_nodeISt4pairIKlSt6vectorIaSaIaEEEEE9constructIS7_JRKS7_EEEvPT_DpOT0_
FNDA:0,_ZN9__gnu_cxx13new_allocatorISt13_Rb_tree_nodeISt4pairIKlSt6vectorIaSaIaEEEEE9constructIS7_JRKS7_EEEvPT_DpOT0_
FN:144,_ZN9__gnu_cxx13new_allocatorISt6threadE9constructIS1_JS1_EEEvPT_DpOT0_
FNDA:0,_ZN9__gnu_cxx13new_allocatorISt6threadE9constructIS1_JS1_EEEvPT_DpOT0_
FN:144,_ZN9__gnu_cxx13new_allocatorINSt8__detail10_Hash_nodeIP9nnode_t_tLb0EEEE9constructIS4_JRKS4_EEEvPT_DpOT0_
FNDA:0,_ZN9__gnu_cxx13new_allocatorINSt8__detail10_Hash_nodeIP9nnode_t_tLb0EEEE9constructIS4_JRKS4_EEEvPT_DpOT0_
FN:144,_ZN9__gnu_cxx13new_allocatorINSt8__detail10_Hash_nodeISt4pairIKNSt7__cxx1112basic_stringIcSt11char_traitsIcESaIcEEES9_ELb1EEEE9constructISB_JSB_EEEvPT_DpOT0_
FNDA:0,_ZN9__gnu_cxx13new_allocatorINSt8__detail10_Hash_nodeISt4pairIKNSt7__cxx1112basic_stringIcSt11char_traitsIcESaIcEEES9_ELb1EEEE9constructISB_JSB_EEEvPT_DpOT0_
FN:144,_ZN9__gnu_cxx13new_allocatorISt13_Rb_tree_nodeISt4pairIKlSt6vectorIaSaIaEEEEE9constructIS7_JRKSt21piecewise_construct_tSt5tupleIJRS3_EESE_IJEEEEEvPT_DpOT0_
FNDA:0,_ZN9__gnu_cxx13new_allocatorISt13_Rb_tree_nodeISt4pairIKlSt6vectorIaSaIaEEEEE9constructIS7_JRKSt21piecewise_construct_tSt5tupleIJRS3_EESE_IJEEEEEvPT_DpOT0_
FN:144,_ZN9__gnu_cxx13new_allocatorISt13_Rb_tree_nodeISt4pairIKiSt3mapIlSt6vectorIaSaIaEESt4lessIlESaIS2_IKlS7_EEEEEE9constructISE_JRKSt21piecewise_construct_tSt5tupleIJRS3_EESL_IJEEEEEvPT_DpOT0_
FNDA:0,_ZN9__gnu_cxx13new_allocatorISt13_Rb_tree_nodeISt4pairIKiSt3mapIlSt6vectorIaSaIaEESt4lessIlESaIS2_IKlS7_EEEEEE9constructISE_JRKSt21piecewise_construct_tSt5tupleIJRS3_EESL_IJEEEEEvPT_DpOT0_
FN:144,_ZN9__gnu_cxx13new_allocatorISt13_Rb_tree_nodeISt4pairIKiiEEE9constructIS4_JRKSt21piecewise_construct_tSt5tupleIJOiEESB_IJEEEEEvPT_DpOT0_
FNDA:0,_ZN9__gnu_cxx13new_allocatorISt13_Rb_tree_nodeISt4pairIKiiEEE9constructIS4_JRKSt21piecewise_construct_tSt5tupleIJOiEESB_IJEEEEEvPT_DpOT0_
FN:144,_ZN9__gnu_cxx13new_allocatorIP9nnode_t_tE9constructIS2_JRKS2_EEEvPT_DpOT0_
FNDA:0,_ZN9__gnu_cxx13new_allocatorIP9nnode_t_tE9constructIS2_JRKS2_EEEvPT_DpOT0_
FN:144,_ZN9__gnu_cxx13new_allocatorI12AtomicBufferE9constructIS1_JaEEEvPT_DpOT0_
FNDA:0,_ZN9__gnu_cxx13new_allocatorI12AtomicBufferE9constructIS1_JaEEEvPT_DpOT0_
FN:151,_ZN9__gnu_cxx13new_allocatorISt13_Rb_tree_nodeISt4pairIKiiEEE7destroyIS4_EEvPT_
FNDA:0,_ZN9__gnu_cxx13new_allocatorISt13_Rb_tree_nodeISt4pairIKiiEEE7destroyIS4_EEvPT_
FN:151,_ZN9__gnu_cxx13new_allocatorINSt8__detail10_Hash_nodeIP9nnode_t_tLb0EEEE7destroyIS4_EEvPT_
FNDA:0,_ZN9__gnu_cxx13new_allocatorINSt8__detail10_Hash_nodeIP9nnode_t_tLb0EEEE7destroyIS4_EEvPT_
FN:151,_ZN9__gnu_cxx13new_allocatorISt6threadE7destroyIS1_EEvPT_
FNDA:0,_ZN9__gnu_cxx13new_allocatorISt6threadE7destroyIS1_EEvPT_
FN:151,_ZN9__gnu_cxx13new_allocatorISt13_Rb_tree_nodeISt4pairIKiSt3mapIlSt6vectorIaSaIaEESt4lessIlESaIS2_IKlS7_EEEEEE7destroyISE_EEvPT_
FNDA:0,_ZN9__gnu_cxx13new_allocatorISt13_Rb_tree_nodeISt4pairIKiSt3mapIlSt6vectorIaSaIaEESt4lessIlESaIS2_IKlS7_EEEEEE7destroyISE_EEvPT_
FN:151,_ZN9__gnu_cxx13new_allocatorIP9nnode_t_tE7destroyIS2_EEvPT_
FNDA:0,_ZN9__gnu_cxx13new_allocatorIP9nnode_t_tE7destroyIS2_EEvPT_
FN:151,_ZN9__gnu_cxx13new_allocatorISt13_Rb_tree_nodeISt4pairIKlSt6vectorIaSaIaEEEEE7destroyIS7_EEvPT_
FNDA:0,_ZN9__gnu_cxx13new_allocatorISt13_Rb_tree_nodeISt4pairIKlSt6vectorIaSaIaEEEEE7destroyIS7_EEvPT_
FN:151,_ZN9__gnu_cxx13new_allocatorINSt8__detail10_Hash_nodeISt4pairIKNSt7__cxx1112basic_stringIcSt11char_traitsIcESaIcEEES9_ELb1EEEE7destroyISB_EEvPT_
FNDA:0,_ZN9__gnu_cxx13new_allocatorINSt8__detail10_Hash_nodeISt4pairIKNSt7__cxx1112basic_stringIcSt11char_traitsIcESaIcEEES9_ELb1EEEE7destroyISB_EEvPT_
FN:151,_ZN9__gnu_cxx13new_allocatorINSt8__detail10_Hash_nodeIlLb0EEEE7destroyIlEEvPT_
FNDA:0,_ZN9__gnu_cxx13new_allocatorINSt8__detail10_Hash_nodeIlLb0EEEE7destroyIlEEvPT_
FN:151,_ZN9__gnu_cxx13new_allocatorI12AtomicBufferE7destroyIS1_EEvPT_
FNDA:0,_ZN9__gnu_cxx13new_allocatorI12AtomicBufferE7destroyIS1_EEvPT_
DA:80,0
DA:80,0
DA:80,0
DA:80,0
DA:80,0
DA:80,0
DA:80,0
DA:80,0
DA:80,0
DA:80,0
DA:80,0
DA:80,0
DA:80,0
DA:80,0
DA:83,0
DA:83,0
DA:83,0
DA:83,0
DA:83,0
DA:83,0
DA:89,0
DA:89,0
DA:89,0
DA:89,0
DA:89,0
DA:89,0
DA:89,0
DA:89,0
DA:89,0
DA:89,0
DA:89,0
DA:89,0
DA:89,0
DA:89,0
DA:89,0
DA:102,0
DA:104,0
DA:105,0
DA:114,0
DA:102,0
DA:104,0
DA:105,0
DA:114,0
DA:102,0
DA:104,0
DA:105,0
DA:114,0
DA:102,0
DA:104,0
DA:105,0
DA:114,0
DA:102,0
DA:104,0
DA:105,0
DA:114,0
DA:102,0
DA:104,0
DA:105,0
DA:114,0
DA:102,0
DA:104,0
DA:105,0
DA:114,0
DA:102,0
DA:104,0
DA:105,0
DA:114,0
DA:102,0
DA:104,0
DA:105,0
DA:114,0
DA:102,0
DA:104,0
DA:105,0
DA:114,0
DA:102,0
DA:104,0
DA:105,0
DA:114,0
DA:102,0
DA:104,0
DA:105,0
DA:114,0
DA:102,0
DA:104,0
DA:105,0
DA:114,0
DA:102,0
DA:104,0
DA:105,0
DA:114,0
DA:119,0
DA:128,0
DA:129,0
DA:119,0
DA:128,0
DA:129,0
DA:119,0
DA:128,0
DA:129,0
DA:119,0
DA:128,0
DA:129,0
DA:119,0
DA:128,0
DA:129,0
DA:119,0
DA:128,0
DA:129,0
DA:119,0
DA:128,0
DA:129,0
DA:119,0
DA:128,0
DA:129,0
DA:119,0
DA:128,0
DA:129,0
DA:119,0
DA:128,0
DA:129,0
DA:119,0
DA:128,0
DA:129,0
DA:119,0
DA:128,0
DA:129,0
DA:119,0
DA:128,0
DA:129,0
DA:119,0
DA:128,0
DA:129,0
DA:132,0
DA:135,0
DA:132,0
DA:135,0
DA:132,0
DA:135,0
DA:132,0
DA:135,0
DA:132,0
DA:135,0
DA:132,0
DA:135,0
DA:132,0
DA:135,0
DA:132,0
DA:135,0
DA:132,0
DA:135,0
DA:132,0
DA:135,0
DA:132,0
DA:135,0
DA:132,0
DA:135,0
DA:132,0
DA:135,0
DA:132,0
DA:135,0
DA:144,0
DA:147,0
DA:144,0
DA:147,0
DA:144,0
DA:147,0
DA:144,0
DA:147,0
DA:144,0
DA:147,0
DA:144,0
DA:147,0
DA:144,0
DA:147,0
DA:144,0
DA:147,0
DA:144,0
DA:147,0
DA:144,0
DA:147,0
DA:144,0
DA:147,0
DA:151,0
DA:153,0
DA:151,0
DA:153,0
DA:151,0
DA:153,0
DA:151,0
DA:153,0
DA:151,0
DA:153,0
DA:151,0
DA:153,0
DA:151,0
DA:153,0
DA:151,0
DA:153,0
DA:151,0
DA:153,0
end_of_record
SF:/usr/include/c++/9/bits/unique_ptr.h
FN:75,_ZNKSt14default_deleteINSt6thread6_StateEEclEPS1_
FNDA:0,_ZNKSt14default_deleteINSt6thread6_StateEEclEPS1_
FN:147,_ZNSt15__uniq_ptr_implINSt6thread6_StateESt14default_deleteIS1_EEC2EPS1_
FNDA:0,_ZNSt15__uniq_ptr_implINSt6thread6_StateESt14default_deleteIS1_EEC2EPS1_
FN:153,_ZNSt15__uniq_ptr_implINSt6thread6_StateESt14default_deleteIS1_EE6_M_ptrEv
FNDA:0,_ZNSt15__uniq_ptr_implINSt6thread6_StateESt14default_deleteIS1_EE6_M_ptrEv
FN:155,_ZNSt15__uniq_ptr_implINSt6thread6_StateESt14default_deleteIS1_EE10_M_deleterEv
FNDA:0,_ZNSt15__uniq_ptr_implINSt6thread6_StateESt14default_deleteIS1_EE10_M_deleterEv
FN:211,_ZNSt10unique_ptrINSt6thread6_StateESt14default_deleteIS1_EEC2IS3_vEEPS1_
FNDA:0,_ZNSt10unique_ptrINSt6thread6_StateESt14default_deleteIS1_EEC2IS3_vEEPS1_
FN:286,_ZNSt10unique_ptrINSt6thread6_StateESt14default_deleteIS1_EED2Ev
FNDA:0,_ZNSt10unique_ptrINSt6thread6_StateESt14default_deleteIS1_EED2Ev
FN:365,_ZNSt10unique_ptrINSt6thread6_StateESt14default_deleteIS1_EE11get_deleterEv
FNDA:0,_ZNSt10unique_ptrINSt6thread6_StateESt14default_deleteIS1_EE11get_deleterEv
DA:75,0
DA:81,0
DA:82,0
DA:147,0
DA:153,0
DA:155,0
DA:211,0
DA:212,0
DA:213,0
DA:286,0
DA:290,0
DA:291,0
DA:292,0
DA:293,0
DA:294,0
DA:365,0
DA:366,0
end_of_record
SF:/usr/include/c++/9/bits/atomic_base.h
FN:99,_ZStanSt12memory_orderSt23__memory_order_modifier
FNDA:0,_ZStanSt12memory_orderSt23__memory_order_modifier
FN:288,_ZNSt13__atomic_baseIbEaSEb
FNDA:0,_ZNSt13__atomic_baseIbEaSEb
DA:99,0
DA:101,0
DA:121,0
DA:288,0
DA:290,0
DA:291,0
DA:392,0
DA:397,0
DA:398,0
DA:436,0
end_of_record
SF:/usr/include/c++/9/bits/unordered_map.h
FN:141,_ZNSt13unordered_mapINSt7__cxx1112basic_stringIcSt11char_traitsIcESaIcEEES5_St4hashIS5_ESt8equal_toIS5_ESaISt4pairIKS5_S5_EEEC2Ev
FNDA:0,_ZNSt13unordered_mapINSt7__cxx1112basic_stringIcSt11char_traitsIcESaIcEEES5_St4hashIS5_ESt8equal_toIS5_ESaISt4pairIKS5_S5_EEEC2Ev
FN:346,_ZNSt13unordered_mapINSt7__cxx1112basic_stringIcSt11char_traitsIcESaIcEEES5_St4hashIS5_ESt8equal_toIS5_ESaISt4pairIKS5_S5_EEE3endEv
FNDA:0,_ZNSt13unordered_mapINSt7__cxx1112basic_stringIcSt11char_traitsIcESaIcEEES5_St4hashIS5_ESt8equal_toIS5_ESaISt4pairIKS5_S5_EEE3endEv
FN:585,_ZNSt13unordered_mapINSt7__cxx1112basic_stringIcSt11char_traitsIcESaIcEEES5_St4hashIS5_ESt8equal_toIS5_ESaISt4pairIKS5_S5_EEE6insertEOSC_
FNDA:0,_ZNSt13unordered_mapINSt7__cxx1112basic_stringIcSt11char_traitsIcESaIcEEES5_St4hashIS5_ESt8equal_toIS5_ESaISt4pairIKS5_S5_EEE6insertEOSC_
FN:920,_ZNSt13unordered_mapINSt7__cxx1112basic_stringIcSt11char_traitsIcESaIcEEES5_St4hashIS5_ESt8equal_toIS5_ESaISt4pairIKS5_S5_EEE4findERSB_
FNDA:0,_ZNSt13unordered_mapINSt7__cxx1112basic_stringIcSt11char_traitsIcESaIcEEES5_St4hashIS5_ESt8equal_toIS5_ESaISt4pairIKS5_S5_EEE4findERSB_
DA:141,0
DA:346,0
DA:347,0
DA:585,0
DA:586,0
DA:920,0
DA:921,0
end_of_record
SF:/usr/include/c++/9/bits/hashtable_policy.h
FN:84,_ZNKSt8__detail9_IdentityclIRKP9nnode_t_tEEOT_S7_
FNDA:0,_ZNKSt8__detail9_IdentityclIRKP9nnode_t_tEEOT_S7_
FN:84,_ZNKSt8__detail9_IdentityclIRKlEEOT_S5_
FNDA:0,_ZNKSt8__detail9_IdentityclIRKlEEOT_S5_
FN:84,_ZNKSt8__detail9_IdentityclIRP9nnode_t_tEEOT_S6_
FNDA:0,_ZNKSt8__detail9_IdentityclIRP9nnode_t_tEEOT_S6_
FN:84,_ZNKSt8__detail9_IdentityclIRlEEOT_S4_
FNDA:0,_ZNKSt8__detail9_IdentityclIRlEEOT_S4_
FN:92,_ZNKSt8__detail10_Select1stclIRSt4pairIKNSt7__cxx1112basic_stringIcSt11char_traitsIcESaIcEEES8_EEEDTcl3getILi0EEcl7forwardIT_Efp_EEEOSC_
FNDA:0,_ZNKSt8__detail10_Select1stclIRSt4pairIKNSt7__cxx1112basic_stringIcSt11char_traitsIcESaIcEEES8_EEEDTcl3getILi0EEcl7forwardIT_Efp_EEEOSC_
FN:161,_ZNSt8__detail10_AllocNodeISaINS_10_Hash_nodeIP9nnode_t_tLb0EEEEEC2ERNS_16_Hashtable_allocIS5_EE
FNDA:0,_ZNSt8__detail10_AllocNodeISaINS_10_Hash_nodeIP9nnode_t_tLb0EEEEEC2ERNS_16_Hashtable_allocIS5_EE
FN:161,_ZNSt8__detail10_AllocNodeISaINS_10_Hash_nodeIlLb0EEEEEC2ERNS_16_Hashtable_allocIS3_EE
FNDA:0,_ZNSt8__detail10_AllocNodeISaINS_10_Hash_nodeIlLb0EEEEEC2ERNS_16_Hashtable_allocIS3_EE
FN:166,_ZNKSt8__detail10_AllocNodeISaINS_10_Hash_nodeIP9nnode_t_tLb0EEEEEclIRKS3_EEPS4_OT_
FNDA:0,_ZNKSt8__detail10_AllocNodeISaINS_10_Hash_nodeIP9nnode_t_tLb0EEEEEclIRKS3_EEPS4_OT_
FN:166,_ZNKSt8__detail10_AllocNodeISaINS_10_Hash_nodeIlLb0EEEEEclIRKlEEPS2_OT_
FNDA:0,_ZNKSt8__detail10_AllocNodeISaINS_10_Hash_nodeIlLb0EEEEEclIRKlEEPS2_OT_
FN:218,_ZNSt8__detail15_Hash_node_baseC2Ev
FNDA:0,_ZNSt8__detail15_Hash_node_baseC2Ev
FN:236,_ZNSt8__detail21_Hash_node_value_baseISt4pairIKNSt7__cxx1112basic_stringIcSt11char_traitsIcESaIcEEES7_EE9_M_valptrEv
FNDA:0,_ZNSt8__detail21_Hash_node_value_baseISt4pairIKNSt7__cxx1112basic_stringIcSt11char_traitsIcESaIcEEES7_EE9_M_valptrEv
FN:236,_ZNSt8__detail21_Hash_node_value_baseIP9nnode_t_tE9_M_valptrEv
FNDA:0,_ZNSt8__detail21_Hash_node_value_baseIP9nnode_t_tE9_M_valptrEv
FN:236,_ZNSt8__detail21_Hash_node_value_baseIlE9_M_valptrEv
FNDA:0,_ZNSt8__detail21_Hash_node_value_baseIlE9_M_valptrEv
FN:240,_ZNKSt8__detail21_Hash_node_value_baseIlE9_M_valptrEv
FNDA:0,_ZNKSt8__detail21_Hash_node_value_baseIlE9_M_valptrEv
FN:240,_ZNKSt8__detail21_Hash_node_value_baseIP9nnode_t_tE9_M_valptrEv
FNDA:0,_ZNKSt8__detail21_Hash_node_value_baseIP9nnode_t_tE9_M_valptrEv
FN:244,_ZNSt8__detail21_Hash_node_value_baseIlE4_M_vEv
FNDA:0,_ZNSt8__detail21_Hash_node_value_baseIlE4_M_vEv
FN:244,_ZNSt8__detail21_Hash_node_value_baseISt4pairIKNSt7__cxx1112basic_stringIcSt11char_traitsIcESaIcEEES7_EE4_M_vEv
FNDA:0,_ZNSt8__detail21_Hash_node_value_baseISt4pairIKNSt7__cxx1112basic_stringIcSt11char_traitsIcESaIcEEES7_EE4_M_vEv
FN:244,_ZNSt8__detail21_Hash_node_value_baseIP9nnode_t_tE4_M_vEv
FNDA:0,_ZNSt8__detail21_Hash_node_value_baseIP9nnode_t_tE4_M_vEv
FN:248,_ZNKSt8__detail21_Hash_node_value_baseIlE4_M_vEv
FNDA:0,_ZNKSt8__detail21_Hash_node_value_baseIlE4_M_vEv
FN:248,_ZNKSt8__detail21_Hash_node_value_baseIP9nnode_t_tE4_M_vEv
FNDA:0,_ZNKSt8__detail21_Hash_node_value_baseIP9nnode_t_tE4_M_vEv
FN:269,_ZNKSt8__detail10_Hash_nodeISt4pairIKNSt7__cxx1112basic_stringIcSt11char_traitsIcESaIcEEES7_ELb1EE7_M_nextEv
FNDA:0,_ZNKSt8__detail10_Hash_nodeISt4pairIKNSt7__cxx1112basic_stringIcSt11char_traitsIcESaIcEEES7_ELb1EE7_M_nextEv
FN:282,_ZNKSt8__detail10_Hash_nodeIP9nnode_t_tLb0EE7_M_nextEv
FNDA:0,_ZNKSt8__detail10_Hash_nodeIP9nnode_t_tLb0EE7_M_nextEv
FN:282,_ZNKSt8__detail10_Hash_nodeIlLb0EE7_M_nextEv
FNDA:0,_ZNKSt8__detail10_Hash_nodeIlLb0EE7_M_nextEv
FN:294,_ZNSt8__detail19_Node_iterator_baseIP9nnode_t_tLb0EEC2EPNS_10_Hash_nodeIS2_Lb0EEE
FNDA:0,_ZNSt8__detail19_Node_iterator_baseIP9nnode_t_tLb0EEC2EPNS_10_Hash_nodeIS2_Lb0EEE
FN:294,_ZNSt8__detail19_Node_iterator_baseIlLb0EEC2EPNS_10_Hash_nodeIlLb0EEE
FNDA:0,_ZNSt8__detail19_Node_iterator_baseIlLb0EEC2EPNS_10_Hash_nodeIlLb0EEE
FN:294,_ZNSt8__detail19_Node_iterator_baseISt4pairIKNSt7__cxx1112basic_stringIcSt11char_traitsIcESaIcEEES7_ELb1EEC2EPNS_10_Hash_nodeIS9_Lb1EEE
FNDA:0,_ZNSt8__detail19_Node_iterator_baseISt4pairIKNSt7__cxx1112basic_stringIcSt11char_traitsIcESaIcEEES7_ELb1EEC2EPNS_10_Hash_nodeIS9_Lb1EEE
FN:304,_ZNSt8__detaileqISt4pairIKNSt7__cxx1112basic_stringIcSt11char_traitsIcESaIcEEES7_ELb1EEEbRKNS_19_Node_iterator_baseIT_XT0_EEESE_
FNDA:0,_ZNSt8__detaileqISt4pairIKNSt7__cxx1112basic_stringIcSt11char_traitsIcESaIcEEES7_ELb1EEEbRKNS_19_Node_iterator_baseIT_XT0_EEESE_
FN:304,_ZNSt8__detaileqIlLb0EEEbRKNS_19_Node_iterator_baseIT_XT0_EEES5_
FNDA:0,_ZNSt8__detaileqIlLb0EEEbRKNS_19_Node_iterator_baseIT_XT0_EEES5_
FN:311,_ZNSt8__detailneIP9nnode_t_tLb0EEEbRKNS_19_Node_iterator_baseIT_XT0_EEES7_
FNDA:0,_ZNSt8__detailneIP9nnode_t_tLb0EEEbRKNS_19_Node_iterator_baseIT_XT0_EEES7_
FN:340,_ZNSt8__detail14_Node_iteratorIlLb1ELb0EEC2EPNS_10_Hash_nodeIlLb0EEE
FNDA:0,_ZNSt8__detail14_Node_iteratorIlLb1ELb0EEC2EPNS_10_Hash_nodeIlLb0EEE
FN:340,_ZNSt8__detail14_Node_iteratorISt4pairIKNSt7__cxx1112basic_stringIcSt11char_traitsIcESaIcEEES7_ELb0ELb1EEC2EPNS_10_Hash_nodeIS9_Lb1EEE
FNDA:0,_ZNSt8__detail14_Node_iteratorISt4pairIKNSt7__cxx1112basic_stringIcSt11char_traitsIcESaIcEEES7_ELb0ELb1EEC2EPNS_10_Hash_nodeIS9_Lb1EEE
FN:340,_ZNSt8__detail14_Node_iteratorIP9nnode_t_tLb1ELb0EEC2EPNS_10_Hash_nodeIS2_Lb0EEE
FNDA:0,_ZNSt8__detail14_Node_iteratorIP9nnode_t_tLb1ELb0EEC2EPNS_10_Hash_nodeIS2_Lb0EEE
FN:384,_ZNSt8__detail20_Node_const_iteratorISt4pairIKNSt7__cxx1112basic_stringIcSt11char_traitsIcESaIcEEES7_ELb0ELb1EEC2Ev
FNDA:0,_ZNSt8__detail20_Node_const_iteratorISt4pairIKNSt7__cxx1112basic_stringIcSt11char_traitsIcESaIcEEES7_ELb0ELb1EEC2Ev
FN:391,_ZNSt8__detail20_Node_const_iteratorISt4pairIKNSt7__cxx1112basic_stringIcSt11char_traitsIcESaIcEEES7_ELb0ELb1EEC2ERKNS_14_Node_iteratorIS9_Lb0ELb1EEE
FNDA:0,_ZNSt8__detail20_Node_const_iteratorISt4pairIKNSt7__cxx1112basic_stringIcSt11char_traitsIcESaIcEEES7_ELb0ELb1EEC2ERKNS_14_Node_iteratorIS9_Lb0ELb1EEE
FN:400,_ZNKSt8__detail20_Node_const_iteratorISt4pairIKNSt7__cxx1112basic_stringIcSt11char_traitsIcESaIcEEES7_ELb0ELb1EEptEv
FNDA:0,_ZNKSt8__detail20_Node_const_iteratorISt4pairIKNSt7__cxx1112basic_stringIcSt11char_traitsIcESaIcEEES7_ELb0ELb1EEptEv
FN:431,_ZNKSt8__detail18_Mod_range_hashingclEmm
FNDA:0,_ZNKSt8__detail18_Mod_range_hashingclEmm
FN:449,_ZNSt8__detail20_Prime_rehash_policyC2Ef
FNDA:0,_ZNSt8__detail20_Prime_rehash_policyC2Ef
FN:476,_ZNKSt8__detail20_Prime_rehash_policy8_M_stateEv
FNDA:0,_ZNKSt8__detail20_Prime_rehash_policy8_M_stateEv
FN:484,_ZNSt8__detail20_Prime_rehash_policy8_M_resetEm
FNDA:0,_ZNSt8__detail20_Prime_rehash_policy8_M_resetEm
FN:805,_ZNSt8__detail12_Insert_baseINSt7__cxx1112basic_stringIcSt11char_traitsIcESaIcEEESt4pairIKS6_S6_ESaIS9_ENS_10_Select1stESt8equal_toIS6_ESt4hashIS6_ENS_18_Mod_range_hashingENS_20_Default_ranged_hashENS_20_Prime_rehash_policyENS_17_Hashtable_traitsILb1ELb0ELb1EEEE20_M_conjure_hashtableEv
FNDA:0,_ZNSt8__detail12_Insert_baseINSt7__cxx1112basic_stringIcSt11char_traitsIcESaIcEEESt4pairIKS6_S6_ESaIS9_ENS_10_Select1stESt8equal_toIS6_ESt4hashIS6_ENS_18_Mod_range_hashingENS_20_Default_ranged_hashENS_20_Prime_rehash_policyENS_17_Hashtable_traitsILb1ELb0ELb1EEEE20_M_conjure_hashtableEv
FN:805,_ZNSt8__detail12_Insert_baseIllSaIlENS_9_IdentityESt8equal_toIlESt4hashIlENS_18_Mod_range_hashingENS_20_Default_ranged_hashENS_20_Prime_rehash_policyENS_17_Hashtable_traitsILb0ELb1ELb1EEEE20_M_conjure_hashtableEv
FNDA:0,_ZNSt8__detail12_Insert_baseIllSaIlENS_9_IdentityESt8equal_toIlESt4hashIlENS_18_Mod_range_hashingENS_20_Default_ranged_hashENS_20_Prime_rehash_policyENS_17_Hashtable_traitsILb0ELb1ELb1EEEE20_M_conjure_hashtableEv
FN:805,_ZNSt8__detail12_Insert_baseIP9nnode_t_tS2_SaIS2_ENS_9_IdentityESt8equal_toIS2_ESt4hashIS2_ENS_18_Mod_range_hashingENS_20_Default_ranged_hashENS_20_Prime_rehash_policyENS_17_Hashtable_traitsILb0ELb1ELb1EEEE20_M_conjure_hashtableEv
FNDA:0,_ZNSt8__detail12_Insert_baseIP9nnode_t_tS2_SaIS2_ENS_9_IdentityESt8equal_toIS2_ESt4hashIS2_ENS_18_Mod_range_hashingENS_20_Default_ranged_hashENS_20_Prime_rehash_policyENS_17_Hashtable_traitsILb0ELb1ELb1EEEE20_M_conjure_hashtableEv
FN:820,_ZNSt8__detail12_Insert_baseIllSaIlENS_9_IdentityESt8equal_toIlESt4hashIlENS_18_Mod_range_hashingENS_20_Default_ranged_hashENS_20_Prime_rehash_policyENS_17_Hashtable_traitsILb0ELb1ELb1EEEE6insertERKl
FNDA:0,_ZNSt8__detail12_Insert_baseIllSaIlENS_9_IdentityESt8equal_toIlESt4hashIlENS_18_Mod_range_hashingENS_20_Default_ranged_hashENS_20_Prime_rehash_policyENS_17_Hashtable_traitsILb0ELb1ELb1EEEE6insertERKl
FN:820,_ZNSt8__detail12_Insert_baseIP9nnode_t_tS2_SaIS2_ENS_9_IdentityESt8equal_toIS2_ESt4hashIS2_ENS_18_Mod_range_hashingENS_20_Default_ranged_hashENS_20_Prime_rehash_policyENS_17_Hashtable_traitsILb0ELb1ELb1EEEE6insertERKS2_
FNDA:0,_ZNSt8__detail12_Insert_baseIP9nnode_t_tS2_SaIS2_ENS_9_IdentityESt8equal_toIS2_ESt4hashIS2_ENS_18_Mod_range_hashingENS_20_Default_ranged_hashENS_20_Prime_rehash_policyENS_17_Hashtable_traitsILb0ELb1ELb1EEEE6insertERKS2_
FN:1002,_ZNSt8__detail7_InsertINSt7__cxx1112basic_stringIcSt11char_traitsIcESaIcEEESt4pairIKS6_S6_ESaIS9_ENS_10_Select1stESt8equal_toIS6_ESt4hashIS6_ENS_18_Mod_range_hashingENS_20_Default_ranged_hashENS_20_Prime_rehash_policyENS_17_Hashtable_traitsILb1ELb0ELb1EEELb0EE6insertIS9_vEES7_INS_14_Node_iteratorIS9_Lb0ELb1EEEbEOT_
FNDA:0,_ZNSt8__detail7_InsertINSt7__cxx1112basic_stringIcSt11char_traitsIcESaIcEEESt4pairIKS6_S6_ESaIS9_ENS_10_Select1stESt8equal_toIS6_ESt4hashIS6_ENS_18_Mod_range_hashingENS_20_Default_ranged_hashENS_20_Prime_rehash_policyENS_17_Hashtable_traitsILb1ELb0ELb1EEELb0EE6insertIS9_vEES7_INS_14_Node_iteratorIS9_Lb0ELb1EEEbEOT_
FN:1096,_ZNSt8__detail21_Hashtable_ebo_helperILi0ESaINS_10_Hash_nodeIP9nnode_t_tLb0EEEELb1EEC2Ev
FNDA:0,_ZNSt8__detail21_Hashtable_ebo_helperILi0ESaINS_10_Hash_nodeIP9nnode_t_tLb0EEEELb1EEC2Ev
FN:1096,_ZNSt8__detail21_Hashtable_ebo_helperILi0ESaINS_10_Hash_nodeIlLb0EEEELb1EEC2Ev
FNDA:0,_ZNSt8__detail21_Hashtable_ebo_helperILi0ESaINS_10_Hash_nodeIlLb0EEEELb1EEC2Ev
FN:1096,_ZNSt8__detail21_Hashtable_ebo_helperILi0ESaINS_10_Hash_nodeISt4pairIKNSt7__cxx1112basic_stringIcSt11char_traitsIcESaIcEEES8_ELb1EEEELb1EEC2Ev
FNDA:0,_ZNSt8__detail21_Hashtable_ebo_helperILi0ESaINS_10_Hash_nodeISt4pairIKNSt7__cxx1112basic_stringIcSt11char_traitsIcESaIcEEES8_ELb1EEEELb1EEC2Ev
FN:1104,_ZNSt8__detail21_Hashtable_ebo_helperILi1ESt4hashIP9nnode_t_tELb1EE7_S_cgetERKS5_
FNDA:0,_ZNSt8__detail21_Hashtable_ebo_helperILi1ESt4hashIP9nnode_t_tELb1EE7_S_cgetERKS5_
FN:1104,_ZNSt8__detail21_Hashtable_ebo_helperILi1ESt4hashIlELb1EE7_S_cgetERKS3_
FNDA:0,_ZNSt8__detail21_Hashtable_ebo_helperILi1ESt4hashIlELb1EE7_S_cgetERKS3_
FN:1104,_ZNSt8__detail21_Hashtable_ebo_helperILi0ESt8equal_toIP9nnode_t_tELb1EE7_S_cgetERKS5_
FNDA:0,_ZNSt8__detail21_Hashtable_ebo_helperILi0ESt8equal_toIP9nnode_t_tELb1EE7_S_cgetERKS5_
FN:1104,_ZNSt8__detail21_Hashtable_ebo_helperILi0ENS_9_IdentityELb1EE7_S_cgetERKS2_
FNDA:0,_ZNSt8__detail21_Hashtable_ebo_helperILi0ENS_9_IdentityELb1EE7_S_cgetERKS2_
FN:1104,_ZNSt8__detail21_Hashtable_ebo_helperILi0ESt8equal_toIlELb1EE7_S_cgetERKS3_
FNDA:0,_ZNSt8__detail21_Hashtable_ebo_helperILi0ESt8equal_toIlELb1EE7_S_cgetERKS3_
FN:1104,_ZNSt8__detail21_Hashtable_ebo_helperILi1ESt4hashINSt7__cxx1112basic_stringIcSt11char_traitsIcESaIcEEEELb1EE7_S_cgetERKS9_
FNDA:0,_ZNSt8__detail21_Hashtable_ebo_helperILi1ESt4hashINSt7__cxx1112basic_stringIcSt11char_traitsIcESaIcEEEELb1EE7_S_cgetERKS9_
FN:1104,_ZNSt8__detail21_Hashtable_ebo_helperILi0ESt8equal_toINSt7__cxx1112basic_stringIcSt11char_traitsIcESaIcEEEELb1EE7_S_cgetERKS9_
FNDA:0,_ZNSt8__detail21_Hashtable_ebo_helperILi0ESt8equal_toINSt7__cxx1112basic_stringIcSt11char_traitsIcESaIcEEEELb1EE7_S_cgetERKS9_
FN:1104,_ZNSt8__detail21_Hashtable_ebo_helperILi0ENS_10_Select1stELb1EE7_S_cgetERKS2_
FNDA:0,_ZNSt8__detail21_Hashtable_ebo_helperILi0ENS_10_Select1stELb1EE7_S_cgetERKS2_
FN:1104,_ZNSt8__detail21_Hashtable_ebo_helperILi2ENS_18_Mod_range_hashingELb1EE7_S_cgetERKS2_
FNDA:0,_ZNSt8__detail21_Hashtable_ebo_helperILi2ENS_18_Mod_range_hashingELb1EE7_S_cgetERKS2_
FN:1108,_ZNSt8__detail21_Hashtable_ebo_helperILi0ESaINS_10_Hash_nodeIlLb0EEEELb1EE6_S_getERS4_
FNDA:0,_ZNSt8__detail21_Hashtable_ebo_helperILi0ESaINS_10_Hash_nodeIlLb0EEEELb1EE6_S_getERS4_
FN:1108,_ZNSt8__detail21_Hashtable_ebo_helperILi0ESaINS_10_Hash_nodeIP9nnode_t_tLb0EEEELb1EE6_S_getERS6_
FNDA:0,_ZNSt8__detail21_Hashtable_ebo_helperILi0ESaINS_10_Hash_nodeIP9nnode_t_tLb0EEEELb1EE6_S_getERS6_
FN:1108,_ZNSt8__detail21_Hashtable_ebo_helperILi0ENS_10_Select1stELb1EE6_S_getERS2_
FNDA:0,_ZNSt8__detail21_Hashtable_ebo_helperILi0ENS_10_Select1stELb1EE6_S_getERS2_
FN:1108,_ZNSt8__detail21_Hashtable_ebo_helperILi0ESaINS_10_Hash_nodeISt4pairIKNSt7__cxx1112basic_stringIcSt11char_traitsIcESaIcEEES8_ELb1EEEELb1EE6_S_getERSD_
FNDA:0,_ZNSt8__detail21_Hashtable_ebo_helperILi0ESaINS_10_Hash_nodeISt4pairIKNSt7__cxx1112basic_stringIcSt11char_traitsIcESaIcEEES8_ELb1EEEELb1EE6_S_getERSD_
FN:1108,_ZNSt8__detail21_Hashtable_ebo_helperILi0ENS_9_IdentityELb1EE6_S_getERS2_
FNDA:0,_ZNSt8__detail21_Hashtable_ebo_helperILi0ENS_9_IdentityELb1EE6_S_getERS2_
FN:1288,_ZNKSt8__detail15_Hash_code_baseIllNS_9_IdentityESt4hashIlENS_18_Mod_range_hashingENS_20_Default_ranged_hashELb0EE12_M_hash_codeERKl
FNDA:0,_ZNKSt8__detail15_Hash_code_baseIllNS_9_IdentityESt4hashIlENS_18_Mod_range_hashingENS_20_Default_ranged_hashELb0EE12_M_hash_codeERKl
FN:1288,_ZNKSt8__detail15_Hash_code_baseIP9nnode_t_tS2_NS_9_IdentityESt4hashIS2_ENS_18_Mod_range_hashingENS_20_Default_ranged_hashELb0EE12_M_hash_codeERKS2_
FNDA:0,_ZNKSt8__detail15_Hash_code_baseIP9nnode_t_tS2_NS_9_IdentityESt4hashIS2_ENS_18_Mod_range_hashingENS_20_Default_ranged_hashELb0EE12_M_hash_codeERKS2_
FN:1296,_ZNKSt8__detail15_Hash_code_baseIllNS_9_IdentityESt4hashIlENS_18_Mod_range_hashingENS_20_Default_ranged_hashELb0EE15_M_bucket_indexERKlmm
FNDA:0,_ZNKSt8__detail15_Hash_code_baseIllNS_9_IdentityESt4hashIlENS_18_Mod_range_hashingENS_20_Default_ranged_hashELb0EE15_M_bucket_indexERKlmm
FN:1296,_ZNKSt8__detail15_Hash_code_baseIP9nnode_t_tS2_NS_9_IdentityESt4hashIS2_ENS_18_Mod_range_hashingENS_20_Default_ranged_hashELb0EE15_M_bucket_indexERKS2_mm
FNDA:0,_ZNKSt8__detail15_Hash_code_baseIP9nnode_t_tS2_NS_9_IdentityESt4hashIS2_ENS_18_Mod_range_hashingENS_20_Default_ranged_hashELb0EE15_M_bucket_indexERKS2_mm
FN:1300,_ZNKSt8__detail15_Hash_code_baseIP9nnode_t_tS2_NS_9_IdentityESt4hashIS2_ENS_18_Mod_range_hashingENS_20_Default_ranged_hashELb0EE15_M_bucket_indexEPKNS_10_Hash_nodeIS2_Lb0EEEm
FNDA:0,_ZNKSt8__detail15_Hash_code_baseIP9nnode_t_tS2_NS_9_IdentityESt4hashIS2_ENS_18_Mod_range_hashingENS_20_Default_ranged_hashELb0EE15_M_bucket_indexEPKNS_10_Hash_nodeIS2_Lb0EEEm
FN:1300,_ZNKSt8__detail15_Hash_code_baseIllNS_9_IdentityESt4hashIlENS_18_Mod_range_hashingENS_20_Default_ranged_hashELb0EE15_M_bucket_indexEPKNS_10_Hash_nodeIlLb0EEEm
FNDA:0,_ZNKSt8__detail15_Hash_code_baseIllNS_9_IdentityESt4hashIlENS_18_Mod_range_hashingENS_20_Default_ranged_hashELb0EE15_M_bucket_indexEPKNS_10_Hash_nodeIlLb0EEEm
FN:1307,_ZNKSt8__detail15_Hash_code_baseIP9nnode_t_tS2_NS_9_IdentityESt4hashIS2_ENS_18_Mod_range_hashingENS_20_Default_ranged_hashELb0EE13_M_store_codeEPNS_10_Hash_nodeIS2_Lb0EEEm
FNDA:0,_ZNKSt8__detail15_Hash_code_baseIP9nnode_t_tS2_NS_9_IdentityESt4hashIS2_ENS_18_Mod_range_hashingENS_20_Default_ranged_hashELb0EE13_M_store_codeEPNS_10_Hash_nodeIS2_Lb0EEEm
FN:1307,_ZNKSt8__detail15_Hash_code_baseIllNS_9_IdentityESt4hashIlENS_18_Mod_range_hashingENS_20_Default_ranged_hashELb0EE13_M_store_codeEPNS_10_Hash_nodeIlLb0EEEm
FNDA:0,_ZNKSt8__detail15_Hash_code_baseIllNS_9_IdentityESt4hashIlENS_18_Mod_range_hashingENS_20_Default_ranged_hashELb0EE13_M_store_codeEPNS_10_Hash_nodeIlLb0EEEm
FN:1323,_ZNKSt8__detail15_Hash_code_baseIllNS_9_IdentityESt4hashIlENS_18_Mod_range_hashingENS_20_Default_ranged_hashELb0EE10_M_extractEv
FNDA:0,_ZNKSt8__detail15_Hash_code_baseIllNS_9_IdentityESt4hashIlENS_18_Mod_range_hashingENS_20_Default_ranged_hashELb0EE10_M_extractEv
FN:1323,_ZNKSt8__detail15_Hash_code_baseIP9nnode_t_tS2_NS_9_IdentityESt4hashIS2_ENS_18_Mod_range_hashingENS_20_Default_ranged_hashELb0EE10_M_extractEv
FNDA:0,_ZNKSt8__detail15_Hash_code_baseIP9nnode_t_tS2_NS_9_IdentityESt4hashIS2_ENS_18_Mod_range_hashingENS_20_Default_ranged_hashELb0EE10_M_extractEv
FN:1326,_ZNSt8__detail15_Hash_code_baseIP9nnode_t_tS2_NS_9_IdentityESt4hashIS2_ENS_18_Mod_range_hashingENS_20_Default_ranged_hashELb0EE10_M_extractEv
FNDA:0,_ZNSt8__detail15_Hash_code_baseIP9nnode_t_tS2_NS_9_IdentityESt4hashIS2_ENS_18_Mod_range_hashingENS_20_Default_ranged_hashELb0EE10_M_extractEv
FN:1326,_ZNSt8__detail15_Hash_code_baseIllNS_9_IdentityESt4hashIlENS_18_Mod_range_hashingENS_20_Default_ranged_hashELb0EE10_M_extractEv
FNDA:0,_ZNSt8__detail15_Hash_code_baseIllNS_9_IdentityESt4hashIlENS_18_Mod_range_hashingENS_20_Default_ranged_hashELb0EE10_M_extractEv
FN:1329,_ZNKSt8__detail15_Hash_code_baseIllNS_9_IdentityESt4hashIlENS_18_Mod_range_hashingENS_20_Default_ranged_hashELb0EE5_M_h1Ev
FNDA:0,_ZNKSt8__detail15_Hash_code_baseIllNS_9_IdentityESt4hashIlENS_18_Mod_range_hashingENS_20_Default_ranged_hashELb0EE5_M_h1Ev
FN:1329,_ZNKSt8__detail15_Hash_code_baseIP9nnode_t_tS2_NS_9_IdentityESt4hashIS2_ENS_18_Mod_range_hashingENS_20_Default_ranged_hashELb0EE5_M_h1Ev
FNDA:0,_ZNKSt8__detail15_Hash_code_baseIP9nnode_t_tS2_NS_9_IdentityESt4hashIS2_ENS_18_Mod_range_hashingENS_20_Default_ranged_hashELb0EE5_M_h1Ev
FN:1335,_ZNKSt8__detail15_Hash_code_baseIllNS_9_IdentityESt4hashIlENS_18_Mod_range_hashingENS_20_Default_ranged_hashELb0EE5_M_h2Ev
FNDA:0,_ZNKSt8__detail15_Hash_code_baseIllNS_9_IdentityESt4hashIlENS_18_Mod_range_hashingENS_20_Default_ranged_hashELb0EE5_M_h2Ev
FN:1335,_ZNKSt8__detail15_Hash_code_baseIP9nnode_t_tS2_NS_9_IdentityESt4hashIS2_ENS_18_Mod_range_hashingENS_20_Default_ranged_hashELb0EE5_M_h2Ev
FNDA:0,_ZNKSt8__detail15_Hash_code_baseIP9nnode_t_tS2_NS_9_IdentityESt4hashIS2_ENS_18_Mod_range_hashingENS_20_Default_ranged_hashELb0EE5_M_h2Ev
FN:1380,_ZNKSt8__detail15_Hash_code_baseINSt7__cxx1112basic_stringIcSt11char_traitsIcESaIcEEESt4pairIKS6_S6_ENS_10_Select1stESt4hashIS6_ENS_18_Mod_range_hashingENS_20_Default_ranged_hashELb1EE12_M_hash_codeERS8_
FNDA:0,_ZNKSt8__detail15_Hash_code_baseINSt7__cxx1112basic_stringIcSt11char_traitsIcESaIcEEESt4pairIKS6_S6_ENS_10_Select1stESt4hashIS6_ENS_18_Mod_range_hashingENS_20_Default_ranged_hashELb1EE12_M_hash_codeERS8_
FN:1388,_ZNKSt8__detail15_Hash_code_baseINSt7__cxx1112basic_stringIcSt11char_traitsIcESaIcEEESt4pairIKS6_S6_ENS_10_Select1stESt4hashIS6_ENS_18_Mod_range_hashingENS_20_Default_ranged_hashELb1EE15_M_bucket_indexERS8_mm
FNDA:0,_ZNKSt8__detail15_Hash_code_baseINSt7__cxx1112basic_stringIcSt11char_traitsIcESaIcEEESt4pairIKS6_S6_ENS_10_Select1stESt4hashIS6_ENS_18_Mod_range_hashingENS_20_Default_ranged_hashELb1EE15_M_bucket_indexERS8_mm
FN:1393,_ZNKSt8__detail15_Hash_code_baseINSt7__cxx1112basic_stringIcSt11char_traitsIcESaIcEEESt4pairIKS6_S6_ENS_10_Select1stESt4hashIS6_ENS_18_Mod_range_hashingENS_20_Default_ranged_hashELb1EE15_M_bucket_indexEPKNS_10_Hash_nodeIS9_Lb1EEEm
FNDA:0,_ZNKSt8__detail15_Hash_code_baseINSt7__cxx1112basic_stringIcSt11char_traitsIcESaIcEEESt4pairIKS6_S6_ENS_10_Select1stESt4hashIS6_ENS_18_Mod_range_hashingENS_20_Default_ranged_hashELb1EE15_M_bucket_indexEPKNS_10_Hash_nodeIS9_Lb1EEEm
FN:1399,_ZNKSt8__detail15_Hash_code_baseINSt7__cxx1112basic_stringIcSt11char_traitsIcESaIcEEESt4pairIKS6_S6_ENS_10_Select1stESt4hashIS6_ENS_18_Mod_range_hashingENS_20_Default_ranged_hashELb1EE13_M_store_codeEPNS_10_Hash_nodeIS9_Lb1EEEm
FNDA:0,_ZNKSt8__detail15_Hash_code_baseINSt7__cxx1112basic_stringIcSt11char_traitsIcESaIcEEESt4pairIKS6_S6_ENS_10_Select1stESt4hashIS6_ENS_18_Mod_range_hashingENS_20_Default_ranged_hashELb1EE13_M_store_codeEPNS_10_Hash_nodeIS9_Lb1EEEm
FN:1415,_ZNKSt8__detail15_Hash_code_baseINSt7__cxx1112basic_stringIcSt11char_traitsIcESaIcEEESt4pairIKS6_S6_ENS_10_Select1stESt4hashIS6_ENS_18_Mod_range_hashingENS_20_Default_ranged_hashELb1EE10_M_extractEv
FNDA:0,_ZNKSt8__detail15_Hash_code_baseINSt7__cxx1112basic_stringIcSt11char_traitsIcESaIcEEESt4pairIKS6_S6_ENS_10_Select1stESt4hashIS6_ENS_18_Mod_range_hashingENS_20_Default_ranged_hashELb1EE10_M_extractEv
FN:1418,_ZNSt8__detail15_Hash_code_baseINSt7__cxx1112basic_stringIcSt11char_traitsIcESaIcEEESt4pairIKS6_S6_ENS_10_Select1stESt4hashIS6_ENS_18_Mod_range_hashingENS_20_Default_ranged_hashELb1EE10_M_extractEv
FNDA:0,_ZNSt8__detail15_Hash_code_baseINSt7__cxx1112basic_stringIcSt11char_traitsIcESaIcEEESt4pairIKS6_S6_ENS_10_Select1stESt4hashIS6_ENS_18_Mod_range_hashingENS_20_Default_ranged_hashELb1EE10_M_extractEv
FN:1421,_ZNKSt8__detail15_Hash_code_baseINSt7__cxx1112basic_stringIcSt11char_traitsIcESaIcEEESt4pairIKS6_S6_ENS_10_Select1stESt4hashIS6_ENS_18_Mod_range_hashingENS_20_Default_ranged_hashELb1EE5_M_h1Ev
FNDA:0,_ZNKSt8__detail15_Hash_code_baseINSt7__cxx1112basic_stringIcSt11char_traitsIcESaIcEEESt4pairIKS6_S6_ENS_10_Select1stESt4hashIS6_ENS_18_Mod_range_hashingENS_20_Default_ranged_hashELb1EE5_M_h1Ev
FN:1427,_ZNKSt8__detail15_Hash_code_baseINSt7__cxx1112basic_stringIcSt11char_traitsIcESaIcEEESt4pairIKS6_S6_ENS_10_Select1stESt4hashIS6_ENS_18_Mod_range_hashingENS_20_Default_ranged_hashELb1EE5_M_h2Ev
FNDA:0,_ZNKSt8__detail15_Hash_code_baseINSt7__cxx1112basic_stringIcSt11char_traitsIcESaIcEEESt4pairIKS6_S6_ENS_10_Select1stESt4hashIS6_ENS_18_Mod_range_hashingENS_20_Default_ranged_hashELb1EE5_M_h2Ev
FN:1448,_ZNSt8__detail13_Equal_helperINSt7__cxx1112basic_stringIcSt11char_traitsIcESaIcEEESt4pairIKS6_S6_ENS_10_Select1stESt8equal_toIS6_EmLb1EE9_S_equalsERKSC_RKSA_RS8_mPNS_10_Hash_nodeIS9_Lb1EEE
FNDA:0,_ZNSt8__detail13_Equal_helperINSt7__cxx1112basic_stringIcSt11char_traitsIcESaIcEEESt4pairIKS6_S6_ENS_10_Select1stESt8equal_toIS6_EmLb1EE9_S_equalsERKSC_RKSA_RS8_mPNS_10_Hash_nodeIS9_Lb1EEE
FN:1459,_ZNSt8__detail13_Equal_helperIP9nnode_t_tS2_NS_9_IdentityESt8equal_toIS2_EmLb0EE9_S_equalsERKS5_RKS3_RKS2_mPNS_10_Hash_nodeIS2_Lb0EEE
FNDA:0,_ZNSt8__detail13_Equal_helperIP9nnode_t_tS2_NS_9_IdentityESt8equal_toIS2_EmLb0EE9_S_equalsERKS5_RKS3_RKS2_mPNS_10_Hash_nodeIS2_Lb0EEE
FN:1459,_ZNSt8__detail13_Equal_helperIllNS_9_IdentityESt8equal_toIlEmLb0EE9_S_equalsERKS3_RKS1_RKlmPNS_10_Hash_nodeIlLb0EEE
FNDA:0,_ZNSt8__detail13_Equal_helperIllNS_9_IdentityESt8equal_toIlEmLb0EE9_S_equalsERKS3_RKS1_RKlmPNS_10_Hash_nodeIlLb0EEE
FN:1829,_ZNKSt8__detail15_Hashtable_baseIllNS_9_IdentityESt8equal_toIlESt4hashIlENS_18_Mod_range_hashingENS_20_Default_ranged_hashENS_17_Hashtable_traitsILb0ELb1ELb1EEEE9_M_equalsERKlmPNS_10_Hash_nodeIlLb0EEE
FNDA:0,_ZNKSt8__detail15_Hashtable_baseIllNS_9_IdentityESt8equal_toIlESt4hashIlENS_18_Mod_range_hashingENS_20_Default_ranged_hashENS_17_Hashtable_traitsILb0ELb1ELb1EEEE9_M_equalsERKlmPNS_10_Hash_nodeIlLb0EEE
FN:1829,_ZNKSt8__detail15_Hashtable_baseIP9nnode_t_tS2_NS_9_IdentityESt8equal_toIS2_ESt4hashIS2_ENS_18_Mod_range_hashingENS_20_Default_ranged_hashENS_17_Hashtable_traitsILb0ELb1ELb1EEEE9_M_equalsERKS2_mPNS_10_Hash_nodeIS2_Lb0EEE
FNDA:0,_ZNKSt8__detail15_Hashtable_baseIP9nnode_t_tS2_NS_9_IdentityESt8equal_toIS2_ESt4hashIS2_ENS_18_Mod_range_hashingENS_20_Default_ranged_hashENS_17_Hashtable_traitsILb0ELb1ELb1EEEE9_M_equalsERKS2_mPNS_10_Hash_nodeIS2_Lb0EEE
FN:1829,_ZNKSt8__detail15_Hashtable_baseINSt7__cxx1112basic_stringIcSt11char_traitsIcESaIcEEESt4pairIKS6_S6_ENS_10_Select1stESt8equal_toIS6_ESt4hashIS6_ENS_18_Mod_range_hashingENS_20_Default_ranged_hashENS_17_Hashtable_traitsILb1ELb0ELb1EEEE9_M_equalsERS8_mPNS_10_Hash_nodeIS9_Lb1EEE
FNDA:0,_ZNKSt8__detail15_Hashtable_baseINSt7__cxx1112basic_stringIcSt11char_traitsIcESaIcEEESt4pairIKS6_S6_ENS_10_Select1stESt8equal_toIS6_ESt4hashIS6_ENS_18_Mod_range_hashingENS_20_Default_ranged_hashENS_17_Hashtable_traitsILb1ELb0ELb1EEEE9_M_equalsERS8_mPNS_10_Hash_nodeIS9_Lb1EEE
FN:1846,_ZNKSt8__detail15_Hashtable_baseIP9nnode_t_tS2_NS_9_IdentityESt8equal_toIS2_ESt4hashIS2_ENS_18_Mod_range_hashingENS_20_Default_ranged_hashENS_17_Hashtable_traitsILb0ELb1ELb1EEEE5_M_eqEv
FNDA:0,_ZNKSt8__detail15_Hashtable_baseIP9nnode_t_tS2_NS_9_IdentityESt8equal_toIS2_ESt4hashIS2_ENS_18_Mod_range_hashingENS_20_Default_ranged_hashENS_17_Hashtable_traitsILb0ELb1ELb1EEEE5_M_eqEv
FN:1846,_ZNKSt8__detail15_Hashtable_baseIllNS_9_IdentityESt8equal_toIlESt4hashIlENS_18_Mod_range_hashingENS_20_Default_ranged_hashENS_17_Hashtable_traitsILb0ELb1ELb1EEEE5_M_eqEv
FNDA:0,_ZNKSt8__detail15_Hashtable_baseIllNS_9_IdentityESt8equal_toIlESt4hashIlENS_18_Mod_range_hashingENS_20_Default_ranged_hashENS_17_Hashtable_traitsILb0ELb1ELb1EEEE5_M_eqEv
FN:1846,_ZNKSt8__detail15_Hashtable_baseINSt7__cxx1112basic_stringIcSt11char_traitsIcESaIcEEESt4pairIKS6_S6_ENS_10_Select1stESt8equal_toIS6_ESt4hashIS6_ENS_18_Mod_range_hashingENS_20_Default_ranged_hashENS_17_Hashtable_traitsILb1ELb0ELb1EEEE5_M_eqEv
FNDA:0,_ZNKSt8__detail15_Hashtable_baseINSt7__cxx1112basic_stringIcSt11char_traitsIcESaIcEEESt4pairIKS6_S6_ENS_10_Select1stESt8equal_toIS6_ESt4hashIS6_ENS_18_Mod_range_hashingENS_20_Default_ranged_hashENS_17_Hashtable_traitsILb1ELb0ELb1EEEE5_M_eqEv
FN:2036,_ZNSt8__detail16_Hashtable_allocISaINS_10_Hash_nodeIP9nnode_t_tLb0EEEEEC2Ev
FNDA:0,_ZNSt8__detail16_Hashtable_allocISaINS_10_Hash_nodeIP9nnode_t_tLb0EEEEEC2Ev
FN:2036,_ZNSt8__detail16_Hashtable_allocISaINS_10_Hash_nodeIlLb0EEEEEC2Ev
FNDA:0,_ZNSt8__detail16_Hashtable_allocISaINS_10_Hash_nodeIlLb0EEEEEC2Ev
FN:2036,_ZNSt8__detail16_Hashtable_allocISaINS_10_Hash_nodeISt4pairIKNSt7__cxx1112basic_stringIcSt11char_traitsIcESaIcEEES8_ELb1EEEEEC2Ev
FNDA:0,_ZNSt8__detail16_Hashtable_allocISaINS_10_Hash_nodeISt4pairIKNSt7__cxx1112basic_stringIcSt11char_traitsIcESaIcEEES8_ELb1EEEEEC2Ev
FN:2046,_ZNSt8__detail16_Hashtable_allocISaINS_10_Hash_nodeISt4pairIKNSt7__cxx1112basic_stringIcSt11char_traitsIcESaIcEEES8_ELb1EEEEE17_M_node_allocatorEv
FNDA:0,_ZNSt8__detail16_Hashtable_allocISaINS_10_Hash_nodeISt4pairIKNSt7__cxx1112basic_stringIcSt11char_traitsIcESaIcEEES8_ELb1EEEEE17_M_node_allocatorEv
FN:2046,_ZNSt8__detail16_Hashtable_allocISaINS_10_Hash_nodeIlLb0EEEEE17_M_node_allocatorEv
FNDA:0,_ZNSt8__detail16_Hashtable_allocISaINS_10_Hash_nodeIlLb0EEEEE17_M_node_allocatorEv
FN:2046,_ZNSt8__detail16_Hashtable_allocISaINS_10_Hash_nodeIP9nnode_t_tLb0EEEEE17_M_node_allocatorEv
FNDA:0,_ZNSt8__detail16_Hashtable_allocISaINS_10_Hash_nodeIP9nnode_t_tLb0EEEEE17_M_node_allocatorEv
FN:2079,_ZNSt8__detail16_Hashtable_allocISaINS_10_Hash_nodeIP9nnode_t_tLb0EEEEE16_M_allocate_nodeIJRKS3_EEEPS4_DpOT_
FNDA:0,_ZNSt8__detail16_Hashtable_allocISaINS_10_Hash_nodeIP9nnode_t_tLb0EEEEE16_M_allocate_nodeIJRKS3_EEEPS4_DpOT_
FN:2079,_ZNSt8__detail16_Hashtable_allocISaINS_10_Hash_nodeIlLb0EEEEE16_M_allocate_nodeIJRKlEEEPS2_DpOT_
FNDA:0,_ZNSt8__detail16_Hashtable_allocISaINS_10_Hash_nodeIlLb0EEEEE16_M_allocate_nodeIJRKlEEEPS2_DpOT_
FN:2079,_ZNSt8__detail16_Hashtable_allocISaINS_10_Hash_nodeISt4pairIKNSt7__cxx1112basic_stringIcSt11char_traitsIcESaIcEEES8_ELb1EEEEE16_M_allocate_nodeIJSA_EEEPSB_DpOT_
FNDA:0,_ZNSt8__detail16_Hashtable_allocISaINS_10_Hash_nodeISt4pairIKNSt7__cxx1112basic_stringIcSt11char_traitsIcESaIcEEES8_ELb1EEEEE16_M_allocate_nodeIJSA_EEEPSB_DpOT_
FN:2100,_ZNSt8__detail16_Hashtable_allocISaINS_10_Hash_nodeISt4pairIKNSt7__cxx1112basic_stringIcSt11char_traitsIcESaIcEEES8_ELb1EEEEE18_M_deallocate_nodeEPSB_
FNDA:0,_ZNSt8__detail16_Hashtable_allocISaINS_10_Hash_nodeISt4pairIKNSt7__cxx1112basic_stringIcSt11char_traitsIcESaIcEEES8_ELb1EEEEE18_M_deallocate_nodeEPSB_
FN:2100,_ZNSt8__detail16_Hashtable_allocISaINS_10_Hash_nodeIP9nnode_t_tLb0EEEEE18_M_deallocate_nodeEPS4_
FNDA:0,_ZNSt8__detail16_Hashtable_allocISaINS_10_Hash_nodeIP9nnode_t_tLb0EEEEE18_M_deallocate_nodeEPS4_
FN:2100,_ZNSt8__detail16_Hashtable_allocISaINS_10_Hash_nodeIlLb0EEEEE18_M_deallocate_nodeEPS2_
FNDA:0,_ZNSt8__detail16_Hashtable_allocISaINS_10_Hash_nodeIlLb0EEEEE18_M_deallocate_nodeEPS2_
FN:2108,_ZNSt8__detail16_Hashtable_allocISaINS_10_Hash_nodeIP9nnode_t_tLb0EEEEE22_M_deallocate_node_ptrEPS4_
FNDA:0,_ZNSt8__detail16_Hashtable_allocISaINS_10_Hash_nodeIP9nnode_t_tLb0EEEEE22_M_deallocate_node_ptrEPS4_
FN:2108,_ZNSt8__detail16_Hashtable_allocISaINS_10_Hash_nodeISt4pairIKNSt7__cxx1112basic_stringIcSt11char_traitsIcESaIcEEES8_ELb1EEEEE22_M_deallocate_node_ptrEPSB_
FNDA:0,_ZNSt8__detail16_Hashtable_allocISaINS_10_Hash_nodeISt4pairIKNSt7__cxx1112basic_stringIcSt11char_traitsIcESaIcEEES8_ELb1EEEEE22_M_deallocate_node_ptrEPSB_
FN:2108,_ZNSt8__detail16_Hashtable_allocISaINS_10_Hash_nodeIlLb0EEEEE22_M_deallocate_node_ptrEPS2_
FNDA:0,_ZNSt8__detail16_Hashtable_allocISaINS_10_Hash_nodeIlLb0EEEEE22_M_deallocate_node_ptrEPS2_
FN:2118,_ZNSt8__detail16_Hashtable_allocISaINS_10_Hash_nodeIP9nnode_t_tLb0EEEEE19_M_deallocate_nodesEPS4_
FNDA:0,_ZNSt8__detail16_Hashtable_allocISaINS_10_Hash_nodeIP9nnode_t_tLb0EEEEE19_M_deallocate_nodesEPS4_
FN:2118,_ZNSt8__detail16_Hashtable_allocISaINS_10_Hash_nodeISt4pairIKNSt7__cxx1112basic_stringIcSt11char_traitsIcESaIcEEES8_ELb1EEEEE19_M_deallocate_nodesEPSB_
FNDA:0,_ZNSt8__detail16_Hashtable_allocISaINS_10_Hash_nodeISt4pairIKNSt7__cxx1112basic_stringIcSt11char_traitsIcESaIcEEES8_ELb1EEEEE19_M_deallocate_nodesEPSB_
FN:2118,_ZNSt8__detail16_Hashtable_allocISaINS_10_Hash_nodeIlLb0EEEEE19_M_deallocate_nodesEPS2_
FNDA:0,_ZNSt8__detail16_Hashtable_allocISaINS_10_Hash_nodeIlLb0EEEEE19_M_deallocate_nodesEPS2_
FN:2130,_ZNSt8__detail16_Hashtable_allocISaINS_10_Hash_nodeISt4pairIKNSt7__cxx1112basic_stringIcSt11char_traitsIcESaIcEEES8_ELb1EEEEE19_M_allocate_bucketsEm
FNDA:0,_ZNSt8__detail16_Hashtable_allocISaINS_10_Hash_nodeISt4pairIKNSt7__cxx1112basic_stringIcSt11char_traitsIcESaIcEEES8_ELb1EEEEE19_M_allocate_bucketsEm
FN:2130,_ZNSt8__detail16_Hashtable_allocISaINS_10_Hash_nodeIP9nnode_t_tLb0EEEEE19_M_allocate_bucketsEm
FNDA:0,_ZNSt8__detail16_Hashtable_allocISaINS_10_Hash_nodeIP9nnode_t_tLb0EEEEE19_M_allocate_bucketsEm
FN:2130,_ZNSt8__detail16_Hashtable_allocISaINS_10_Hash_nodeIlLb0EEEEE19_M_allocate_bucketsEm
FNDA:0,_ZNSt8__detail16_Hashtable_allocISaINS_10_Hash_nodeIlLb0EEEEE19_M_allocate_bucketsEm
FN:2142,_ZNSt8__detail16_Hashtable_allocISaINS_10_Hash_nodeIP9nnode_t_tLb0EEEEE21_M_deallocate_bucketsEPPNS_15_Hash_node_baseEm
FNDA:0,_ZNSt8__detail16_Hashtable_allocISaINS_10_Hash_nodeIP9nnode_t_tLb0EEEEE21_M_deallocate_bucketsEPPNS_15_Hash_node_baseEm
FN:2142,_ZNSt8__detail16_Hashtable_allocISaINS_10_Hash_nodeISt4pairIKNSt7__cxx1112basic_stringIcSt11char_traitsIcESaIcEEES8_ELb1EEEEE21_M_deallocate_bucketsEPPNS_15_Hash_node_baseEm
FNDA:0,_ZNSt8__detail16_Hashtable_allocISaINS_10_Hash_nodeISt4pairIKNSt7__cxx1112basic_stringIcSt11char_traitsIcESaIcEEES8_ELb1EEEEE21_M_deallocate_bucketsEPPNS_15_Hash_node_baseEm
FN:2142,_ZNSt8__detail16_Hashtable_allocISaINS_10_Hash_nodeIlLb0EEEEE21_M_deallocate_bucketsEPPNS_15_Hash_node_baseEm
FNDA:0,_ZNSt8__detail16_Hashtable_allocISaINS_10_Hash_nodeIlLb0EEEEE21_M_deallocate_bucketsEPPNS_15_Hash_node_baseEm
DA:84,0
DA:85,0
DA:84,0
DA:85,0
DA:84,0
DA:85,0
DA:84,0
DA:85,0
DA:92,0
DA:94,0
DA:161,0
DA:162,0
DA:161,0
DA:162,0
DA:166,0
DA:167,0
DA:166,0
DA:167,0
DA:218,0
DA:236,0
DA:237,0
DA:236,0
DA:237,0
DA:236,0
DA:237,0
DA:240,0
DA:241,0
DA:240,0
DA:241,0
DA:244,0
DA:245,0
DA:244,0
DA:245,0
DA:244,0
DA:245,0
DA:248,0
DA:249,0
DA:248,0
DA:249,0
DA:269,0
DA:270,0
DA:282,0
DA:283,0
DA:282,0
DA:283,0
DA:294,0
DA:295,0
DA:294,0
DA:295,0
DA:294,0
DA:295,0
DA:304,0
DA:307,0
DA:304,0
DA:307,0
DA:311,0
DA:314,0
DA:340,0
DA:341,0
DA:340,0
DA:341,0
DA:340,0
DA:341,0
DA:384,0
DA:385,0
DA:391,0
DA:393,0
DA:400,0
DA:401,0
DA:431,0
DA:433,0
DA:449,0
DA:450,0
DA:476,0
DA:477,0
DA:484,0
DA:485,0
DA:805,0
DA:806,0
DA:805,0
DA:806,0
DA:805,0
DA:806,0
DA:820,0
DA:822,0
DA:823,0
DA:824,0
DA:820,0
DA:822,0
DA:823,0
DA:824,0
DA:1002,0
DA:1004,0
DA:1005,0
DA:1096,0
DA:1096,0
DA:1096,0
DA:1104,0
DA:1105,0
DA:1104,0
DA:1105,0
DA:1104,0
DA:1105,0
DA:1104,0
DA:1105,0
DA:1104,0
DA:1105,0
DA:1104,0
DA:1105,0
DA:1104,0
DA:1105,0
DA:1104,0
DA:1105,0
DA:1104,0
DA:1105,0
DA:1108,0
DA:1109,0
DA:1108,0
DA:1109,0
DA:1108,0
DA:1109,0
DA:1108,0
DA:1109,0
DA:1108,0
DA:1109,0
DA:1288,0
DA:1292,0
DA:1288,0
DA:1292,0
DA:1296,0
DA:1297,0
DA:1296,0
DA:1297,0
DA:1300,0
DA:1304,0
DA:1300,0
DA:1304,0
DA:1307,0
DA:1308,0
DA:1307,0
DA:1308,0
DA:1323,0
DA:1323,0
DA:1326,0
DA:1326,0
DA:1329,0
DA:1329,0
DA:1335,0
DA:1335,0
DA:1380,0
DA:1384,0
DA:1388,0
DA:1390,0
DA:1393,0
DA:1396,0
DA:1399,0
DA:1400,0
DA:1415,0
DA:1418,0
DA:1421,0
DA:1427,0
DA:1448,0
DA:1450,0
DA:1459,0
DA:1461,0
DA:1459,0
DA:1461,0
DA:1829,0
DA:1834,0
DA:1835,0
DA:1829,0
DA:1834,0
DA:1835,0
DA:1829,0
DA:1834,0
DA:1835,0
DA:1846,0
DA:1846,0
DA:1846,0
DA:2036,0
DA:2036,0
DA:2036,0
DA:2046,0
DA:2047,0
DA:2046,0
DA:2047,0
DA:2046,0
DA:2047,0
DA:2079,0
DA:2081,0
DA:2082,0
DA:2085,0
DA:2086,0
DA:2089,0
DA:2091,0
DA:2093,0
DA:2094,0
DA:2079,0
DA:2081,0
DA:2082,0
DA:2085,0
DA:2086,0
DA:2089,0
DA:2091,0
DA:2093,0
DA:2094,0
DA:2079,0
DA:2081,0
DA:2082,0
DA:2085,0
DA:2086,0
DA:2089,0
DA:2091,0
DA:2093,0
DA:2094,0
DA:2100,0
DA:2102,0
DA:2103,0
DA:2104,0
DA:2100,0
DA:2102,0
DA:2103,0
DA:2104,0
DA:2100,0
DA:2102,0
DA:2103,0
DA:2104,0
DA:2108,0
DA:2111,0
DA:2112,0
DA:2113,0
DA:2114,0
DA:2108,0
DA:2111,0
DA:2112,0
DA:2113,0
DA:2114,0
DA:2108,0
DA:2111,0
DA:2112,0
DA:2113,0
DA:2114,0
DA:2118,0
DA:2120,0
DA:2122,0
DA:2123,0
DA:2124,0
DA:2126,0
DA:2118,0
DA:2120,0
DA:2122,0
DA:2123,0
DA:2124,0
DA:2126,0
DA:2118,0
DA:2120,0
DA:2122,0
DA:2123,0
DA:2124,0
DA:2126,0
DA:2130,0
DA:2132,0
DA:2134,0
DA:2135,0
DA:2136,0
DA:2137,0
DA:2130,0
DA:2132,0
DA:2134,0
DA:2135,0
DA:2136,0
DA:2137,0
DA:2130,0
DA:2132,0
DA:2134,0
DA:2135,0
DA:2136,0
DA:2137,0
DA:2142,0
DA:2146,0
DA:2147,0
DA:2148,0
DA:2149,0
DA:2142,0
DA:2146,0
DA:2147,0
DA:2148,0
DA:2149,0
DA:2142,0
DA:2146,0
DA:2147,0
DA:2148,0
DA:2149,0
end_of_record
SF:/usr/include/c++/9/ext/aligned_buffer.h
FN:64,_ZN9__gnu_cxx16__aligned_membufISt4pairIKiiEE7_M_addrEv
FNDA:0,_ZN9__gnu_cxx16__aligned_membufISt4pairIKiiEE7_M_addrEv
FN:64,_ZN9__gnu_cxx16__aligned_membufISt4pairIKiSt3mapIlSt6vectorIaSaIaEESt4lessIlESaIS1_IKlS6_EEEEE7_M_addrEv
FNDA:0,_ZN9__gnu_cxx16__aligned_membufISt4pairIKiSt3mapIlSt6vectorIaSaIaEESt4lessIlESaIS1_IKlS6_EEEEE7_M_addrEv
FN:64,_ZN9__gnu_cxx16__aligned_membufISt4pairIKlSt6vectorIaSaIaEEEE7_M_addrEv
FNDA:0,_ZN9__gnu_cxx16__aligned_membufISt4pairIKlSt6vectorIaSaIaEEEE7_M_addrEv
FN:68,_ZNK9__gnu_cxx16__aligned_membufISt4pairIKiiEE7_M_addrEv
FNDA:0,_ZNK9__gnu_cxx16__aligned_membufISt4pairIKiiEE7_M_addrEv
FN:68,_ZNK9__gnu_cxx16__aligned_membufISt4pairIKiSt3mapIlSt6vectorIaSaIaEESt4lessIlESaIS1_IKlS6_EEEEE7_M_addrEv
FNDA:0,_ZNK9__gnu_cxx16__aligned_membufISt4pairIKiSt3mapIlSt6vectorIaSaIaEESt4lessIlESaIS1_IKlS6_EEEEE7_M_addrEv
FN:68,_ZNK9__gnu_cxx16__aligned_membufISt4pairIKlSt6vectorIaSaIaEEEE7_M_addrEv
FNDA:0,_ZNK9__gnu_cxx16__aligned_membufISt4pairIKlSt6vectorIaSaIaEEEE7_M_addrEv
FN:72,_ZN9__gnu_cxx16__aligned_membufISt4pairIKlSt6vectorIaSaIaEEEE6_M_ptrEv
FNDA:0,_ZN9__gnu_cxx16__aligned_membufISt4pairIKlSt6vectorIaSaIaEEEE6_M_ptrEv
FN:72,_ZN9__gnu_cxx16__aligned_membufISt4pairIKiSt3mapIlSt6vectorIaSaIaEESt4lessIlESaIS1_IKlS6_EEEEE6_M_ptrEv
FNDA:0,_ZN9__gnu_cxx16__aligned_membufISt4pairIKiSt3mapIlSt6vectorIaSaIaEESt4lessIlESaIS1_IKlS6_EEEEE6_M_ptrEv
FN:72,_ZN9__gnu_cxx16__aligned_membufISt4pairIKiiEE6_M_ptrEv
FNDA:0,_ZN9__gnu_cxx16__aligned_membufISt4pairIKiiEE6_M_ptrEv
FN:76,_ZNK9__gnu_cxx16__aligned_membufISt4pairIKlSt6vectorIaSaIaEEEE6_M_ptrEv
FNDA:0,_ZNK9__gnu_cxx16__aligned_membufISt4pairIKlSt6vectorIaSaIaEEEE6_M_ptrEv
FN:76,_ZNK9__gnu_cxx16__aligned_membufISt4pairIKiSt3mapIlSt6vectorIaSaIaEESt4lessIlESaIS1_IKlS6_EEEEE6_M_ptrEv
FNDA:0,_ZNK9__gnu_cxx16__aligned_membufISt4pairIKiSt3mapIlSt6vectorIaSaIaEESt4lessIlESaIS1_IKlS6_EEEEE6_M_ptrEv
FN:76,_ZNK9__gnu_cxx16__aligned_membufISt4pairIKiiEE6_M_ptrEv
FNDA:0,_ZNK9__gnu_cxx16__aligned_membufISt4pairIKiiEE6_M_ptrEv
FN:102,_ZN9__gnu_cxx16__aligned_bufferIP9nnode_t_tE7_M_addrEv
FNDA:0,_ZN9__gnu_cxx16__aligned_bufferIP9nnode_t_tE7_M_addrEv
FN:102,_ZN9__gnu_cxx16__aligned_bufferISt4pairIKNSt7__cxx1112basic_stringIcSt11char_traitsIcESaIcEEES7_EE7_M_addrEv
FNDA:0,_ZN9__gnu_cxx16__aligned_bufferISt4pairIKNSt7__cxx1112basic_stringIcSt11char_traitsIcESaIcEEES7_EE7_M_addrEv
FN:102,_ZN9__gnu_cxx16__aligned_bufferIlE7_M_addrEv
FNDA:0,_ZN9__gnu_cxx16__aligned_bufferIlE7_M_addrEv
FN:102,_ZN9__gnu_cxx16__aligned_bufferI12AtomicBufferE7_M_addrEv
FNDA:0,_ZN9__gnu_cxx16__aligned_bufferI12AtomicBufferE7_M_addrEv
FN:108,_ZNK9__gnu_cxx16__aligned_bufferIP9nnode_t_tE7_M_addrEv
FNDA:0,_ZNK9__gnu_cxx16__aligned_bufferIP9nnode_t_tE7_M_addrEv
FN:108,_ZNK9__gnu_cxx16__aligned_bufferIlE7_M_addrEv
FNDA:0,_ZNK9__gnu_cxx16__aligned_bufferIlE7_M_addrEv
FN:114,_ZN9__gnu_cxx16__aligned_bufferIP9nnode_t_tE6_M_ptrEv
FNDA:0,_ZN9__gnu_cxx16__aligned_bufferIP9nnode_t_tE6_M_ptrEv
FN:114,_ZN9__gnu_cxx16__aligned_bufferISt4pairIKNSt7__cxx1112basic_stringIcSt11char_traitsIcESaIcEEES7_EE6_M_ptrEv
FNDA:0,_ZN9__gnu_cxx16__aligned_bufferISt4pairIKNSt7__cxx1112basic_stringIcSt11char_traitsIcESaIcEEES7_EE6_M_ptrEv
FN:114,_ZN9__gnu_cxx16__aligned_bufferIlE6_M_ptrEv
FNDA:0,_ZN9__gnu_cxx16__aligned_bufferIlE6_M_ptrEv
FN:114,_ZN9__gnu_cxx16__aligned_bufferI12AtomicBufferE6_M_ptrEv
FNDA:0,_ZN9__gnu_cxx16__aligned_bufferI12AtomicBufferE6_M_ptrEv
FN:118,_ZNK9__gnu_cxx16__aligned_bufferIP9nnode_t_tE6_M_ptrEv
FNDA:0,_ZNK9__gnu_cxx16__aligned_bufferIP9nnode_t_tE6_M_ptrEv
FN:118,_ZNK9__gnu_cxx16__aligned_bufferIlE6_M_ptrEv
FNDA:0,_ZNK9__gnu_cxx16__aligned_bufferIlE6_M_ptrEv
DA:64,0
DA:65,0
DA:64,0
DA:65,0
DA:64,0
DA:65,0
DA:68,0
DA:69,0
DA:68,0
DA:69,0
DA:68,0
DA:69,0
DA:72,0
DA:73,0
DA:72,0
DA:73,0
DA:72,0
DA:73,0
DA:76,0
DA:77,0
DA:76,0
DA:77,0
DA:76,0
DA:77,0
DA:102,0
DA:104,0
DA:102,0
DA:104,0
DA:102,0
DA:104,0
DA:102,0
DA:104,0
DA:108,0
DA:110,0
DA:108,0
DA:110,0
DA:114,0
DA:115,0
DA:114,0
DA:115,0
DA:114,0
DA:115,0
DA:114,0
DA:115,0
DA:118,0
DA:119,0
DA:118,0
DA:119,0
end_of_record
SF:/usr/include/c++/9/bits/basic_string.tcc
FN:206,_ZNSt7__cxx1112basic_stringIcSt11char_traitsIcESaIcEE12_M_constructIPcEEvT_S7_St20forward_iterator_tag
FNDA:0,_ZNSt7__cxx1112basic_stringIcSt11char_traitsIcESaIcEE12_M_constructIPcEEvT_S7_St20forward_iterator_tag
FN:206,_ZNSt7__cxx1112basic_stringIcSt11char_traitsIcESaIcEE12_M_constructIPKcEEvT_S8_St20forward_iterator_tag
FNDA:0,_ZNSt7__cxx1112basic_stringIcSt11char_traitsIcESaIcEE12_M_constructIPKcEEvT_S8_St20forward_iterator_tag
DA:206,0
DA:211,0
DA:212,0
DA:215,0
DA:217,0
DA:219,0
DA:220,0
DA:225,0
DA:226,0
DA:228,0
DA:229,0
DA:232,0
DA:233,0
DA:206,0
DA:211,0
DA:212,0
DA:215,0
DA:217,0
DA:219,0
DA:220,0
DA:225,0
DA:226,0
DA:228,0
DA:229,0
DA:232,0
DA:233,0
end_of_record
SF:/usr/include/c++/9/bits/ios_base.h
FN:83,_ZStanSt13_Ios_FmtflagsS_
FNDA:0,_ZStanSt13_Ios_FmtflagsS_
FN:87,_ZStorSt13_Ios_FmtflagsS_
FNDA:0,_ZStorSt13_Ios_FmtflagsS_
FN:95,_ZStcoSt13_Ios_Fmtflags
FNDA:0,_ZStcoSt13_Ios_Fmtflags
FN:99,_ZStoRRSt13_Ios_FmtflagsS_
FNDA:0,_ZStoRRSt13_Ios_FmtflagsS_
FN:103,_ZStaNRSt13_Ios_FmtflagsS_
FNDA:0,_ZStaNRSt13_Ios_FmtflagsS_
FN:670,_ZNSt8ios_base4setfESt13_Ios_FmtflagsS0_
FNDA:0,_ZNSt8ios_base4setfESt13_Ios_FmtflagsS0_
FN:1023,_ZSt3decRSt8ios_base
FNDA:0,_ZSt3decRSt8ios_base
FN:1031,_ZSt3hexRSt8ios_base
FNDA:0,_ZSt3hexRSt8ios_base
DA:83,0
DA:84,0
DA:87,0
DA:88,0
DA:95,0
DA:96,0
DA:99,0
DA:100,0
DA:103,0
DA:104,0
DA:670,0
DA:672,0
DA:673,0
DA:674,0
DA:675,0
DA:1023,0
DA:1025,0
DA:1026,0
DA:1031,0
DA:1033,0
DA:1034,0
end_of_record
SF:/usr/include/c++/9/bits/stl_iterator_base_funcs.h
FN:98,_ZSt10__distanceIPcENSt15iterator_traitsIT_E15difference_typeES2_S2_St26random_access_iterator_tag
FNDA:0,_ZSt10__distanceIPcENSt15iterator_traitsIT_E15difference_typeES2_S2_St26random_access_iterator_tag
FN:98,_ZSt10__distanceIPKcENSt15iterator_traitsIT_E15difference_typeES3_S3_St26random_access_iterator_tag
FNDA:0,_ZSt10__distanceIPKcENSt15iterator_traitsIT_E15difference_typeES3_S3_St26random_access_iterator_tag
FN:138,_ZSt8distanceIPcENSt15iterator_traitsIT_E15difference_typeES2_S2_
FNDA:0,_ZSt8distanceIPcENSt15iterator_traitsIT_E15difference_typeES2_S2_
FN:138,_ZSt8distanceIPKcENSt15iterator_traitsIT_E15difference_typeES3_S3_
FNDA:0,_ZSt8distanceIPKcENSt15iterator_traitsIT_E15difference_typeES3_S3_
DA:98,0
DA:104,0
DA:98,0
DA:104,0
DA:138,0
DA:141,0
DA:142,0
DA:138,0
DA:141,0
DA:142,0
end_of_record
SF:/usr/include/c++/9/limits
FN:1743,_ZNSt14numeric_limitsIdE3maxEv
FNDA:0,_ZNSt14numeric_limitsIdE3maxEv
DA:1743,0
end_of_record
SF:/usr/include/c++/9/iostream
end_of_record
SF:/usr/include/c++/9/bits/unordered_set.h
FN:135,_ZNSt13unordered_setIlSt4hashIlESt8equal_toIlESaIlEEC2Ev
FNDA:0,_ZNSt13unordered_setIlSt4hashIlESt8equal_toIlESaIlEEC2Ev
FN:135,_ZNSt13unordered_setIP9nnode_t_tSt4hashIS1_ESt8equal_toIS1_ESaIS1_EEC2Ev
FNDA:0,_ZNSt13unordered_setIP9nnode_t_tSt4hashIS1_ESt8equal_toIS1_ESaIS1_EEC2Ev
FN:333,_ZNSt13unordered_setIlSt4hashIlESt8equal_toIlESaIlEE3endEv
FNDA:0,_ZNSt13unordered_setIlSt4hashIlESt8equal_toIlESaIlEE3endEv
FN:333,_ZNSt13unordered_setIP9nnode_t_tSt4hashIS1_ESt8equal_toIS1_ESaIS1_EE3endEv
FNDA:0,_ZNSt13unordered_setIP9nnode_t_tSt4hashIS1_ESt8equal_toIS1_ESaIS1_EE3endEv
FN:420,_ZNSt13unordered_setIlSt4hashIlESt8equal_toIlESaIlEE6insertERKl
FNDA:0,_ZNSt13unordered_setIlSt4hashIlESt8equal_toIlESaIlEE6insertERKl
FN:420,_ZNSt13unordered_setIP9nnode_t_tSt4hashIS1_ESt8equal_toIS1_ESaIS1_EE6insertERKS1_
FNDA:0,_ZNSt13unordered_setIP9nnode_t_tSt4hashIS1_ESt8equal_toIS1_ESaIS1_EE6insertERKS1_
FN:572,_ZNSt13unordered_setIP9nnode_t_tSt4hashIS1_ESt8equal_toIS1_ESaIS1_EE5clearEv
FNDA:0,_ZNSt13unordered_setIP9nnode_t_tSt4hashIS1_ESt8equal_toIS1_ESaIS1_EE5clearEv
FN:649,_ZNSt13unordered_setIlSt4hashIlESt8equal_toIlESaIlEE4findERKl
FNDA:0,_ZNSt13unordered_setIlSt4hashIlESt8equal_toIlESaIlEE4findERKl
FN:649,_ZNSt13unordered_setIP9nnode_t_tSt4hashIS1_ESt8equal_toIS1_ESaIS1_EE4findERKS1_
FNDA:0,_ZNSt13unordered_setIP9nnode_t_tSt4hashIS1_ESt8equal_toIS1_ESaIS1_EE4findERKS1_
DA:135,0
DA:135,0
DA:333,0
DA:334,0
DA:333,0
DA:334,0
DA:420,0
DA:421,0
DA:420,0
DA:421,0
DA:572,0
DA:573,0
DA:649,0
DA:650,0
DA:649,0
DA:650,0
end_of_record
SF:/usr/include/c++/9/typeinfo
FN:120,_ZNKSt9type_infoeqERKS_
FNDA:0,_ZNKSt9type_infoeqERKS_
DA:120,0
DA:122,0
DA:123,0
DA:124,0
end_of_record
SF:/usr/include/c++/9/bits/stl_tree.h
FN:112,_ZNSt18_Rb_tree_node_base10_S_minimumEPS_
FNDA:0,_ZNSt18_Rb_tree_node_base10_S_minimumEPS_
FN:126,_ZNSt18_Rb_tree_node_base10_S_maximumEPS_
FNDA:0,_ZNSt18_Rb_tree_node_base10_S_maximumEPS_
FN:146,_ZNSt20_Rb_tree_key_compareISt4lessIlEEC2Ev
FNDA:0,_ZNSt20_Rb_tree_key_compareISt4lessIlEEC2Ev
FN:146,_ZNSt20_Rb_tree_key_compareISt4lessIiEEC2Ev
FNDA:0,_ZNSt20_Rb_tree_key_compareISt4lessIiEEC2Ev
FN:152,_ZNSt20_Rb_tree_key_compareISt4lessIlEEC2ERKS1_
FNDA:0,_ZNSt20_Rb_tree_key_compareISt4lessIlEEC2ERKS1_
FN:173,_ZNSt15_Rb_tree_headerC2Ev
FNDA:0,_ZNSt15_Rb_tree_headerC2Ev
FN:206,_ZNSt15_Rb_tree_header8_M_resetEv
FNDA:0,_ZNSt15_Rb_tree_header8_M_resetEv
FN:234,_ZNSt13_Rb_tree_nodeISt4pairIKiiEE9_M_valptrEv
FNDA:0,_ZNSt13_Rb_tree_nodeISt4pairIKiiEE9_M_valptrEv
FN:234,_ZNSt13_Rb_tree_nodeISt4pairIKiSt3mapIlSt6vectorIaSaIaEESt4lessIlESaIS0_IKlS5_EEEEE9_M_valptrEv
FNDA:0,_ZNSt13_Rb_tree_nodeISt4pairIKiSt3mapIlSt6vectorIaSaIaEESt4lessIlESaIS0_IKlS5_EEEEE9_M_valptrEv
FN:234,_ZNSt13_Rb_tree_nodeISt4pairIKlSt6vectorIaSaIaEEEE9_M_valptrEv
FNDA:0,_ZNSt13_Rb_tree_nodeISt4pairIKlSt6vectorIaSaIaEEEE9_M_valptrEv
FN:238,_ZNKSt13_Rb_tree_nodeISt4pairIKiiEE9_M_valptrEv
FNDA:0,_ZNKSt13_Rb_tree_nodeISt4pairIKiiEE9_M_valptrEv
FN:238,_ZNKSt13_Rb_tree_nodeISt4pairIKlSt6vectorIaSaIaEEEE9_M_valptrEv
FNDA:0,_ZNKSt13_Rb_tree_nodeISt4pairIKlSt6vectorIaSaIaEEEE9_M_valptrEv
FN:238,_ZNKSt13_Rb_tree_nodeISt4pairIKiSt3mapIlSt6vectorIaSaIaEESt4lessIlESaIS0_IKlS5_EEEEE9_M_valptrEv
FNDA:0,_ZNKSt13_Rb_tree_nodeISt4pairIKiSt3mapIlSt6vectorIaSaIaEESt4lessIlESaIS0_IKlS5_EEEEE9_M_valptrEv
FN:269,_ZNSt17_Rb_tree_iteratorISt4pairIKiSt3mapIlSt6vectorIaSaIaEESt4lessIlESaIS0_IKlS5_EEEEEC2Ev
FNDA:0,_ZNSt17_Rb_tree_iteratorISt4pairIKiSt3mapIlSt6vectorIaSaIaEESt4lessIlESaIS0_IKlS5_EEEEEC2Ev
FN:269,_ZNSt17_Rb_tree_iteratorISt4pairIKlSt6vectorIaSaIaEEEEC2Ev
FNDA:0,_ZNSt17_Rb_tree_iteratorISt4pairIKlSt6vectorIaSaIaEEEEC2Ev
FN:273,_ZNSt17_Rb_tree_iteratorISt4pairIKiSt3mapIlSt6vectorIaSaIaEESt4lessIlESaIS0_IKlS5_EEEEEC2EPSt18_Rb_tree_node_base
FNDA:0,_ZNSt17_Rb_tree_iteratorISt4pairIKiSt3mapIlSt6vectorIaSaIaEESt4lessIlESaIS0_IKlS5_EEEEEC2EPSt18_Rb_tree_node_base
FN:273,_ZNSt17_Rb_tree_iteratorISt4pairIKiiEEC2EPSt18_Rb_tree_node_base
FNDA:0,_ZNSt17_Rb_tree_iteratorISt4pairIKiiEEC2EPSt18_Rb_tree_node_base
FN:273,_ZNSt17_Rb_tree_iteratorISt4pairIKlSt6vectorIaSaIaEEEEC2EPSt18_Rb_tree_node_base
FNDA:0,_ZNSt17_Rb_tree_iteratorISt4pairIKlSt6vectorIaSaIaEEEEC2EPSt18_Rb_tree_node_base
FN:277,_ZNKSt17_Rb_tree_iteratorISt4pairIKlSt6vectorIaSaIaEEEEdeEv
FNDA:0,_ZNKSt17_Rb_tree_iteratorISt4pairIKlSt6vectorIaSaIaEEEEdeEv
FN:277,_ZNKSt17_Rb_tree_iteratorISt4pairIKiSt3mapIlSt6vectorIaSaIaEESt4lessIlESaIS0_IKlS5_EEEEEdeEv
FNDA:0,_ZNKSt17_Rb_tree_iteratorISt4pairIKiSt3mapIlSt6vectorIaSaIaEESt4lessIlESaIS0_IKlS5_EEEEEdeEv
FN:277,_ZNKSt17_Rb_tree_iteratorISt4pairIKiiEEdeEv
FNDA:0,_ZNKSt17_Rb_tree_iteratorISt4pairIKiiEEdeEv
FN:281,_ZNKSt17_Rb_tree_iteratorISt4pairIKiiEEptEv
FNDA:0,_ZNKSt17_Rb_tree_iteratorISt4pairIKiiEEptEv
FN:281,_ZNKSt17_Rb_tree_iteratorISt4pairIKiSt3mapIlSt6vectorIaSaIaEESt4lessIlESaIS0_IKlS5_EEEEEptEv
FNDA:0,_ZNKSt17_Rb_tree_iteratorISt4pairIKiSt3mapIlSt6vectorIaSaIaEESt4lessIlESaIS0_IKlS5_EEEEEptEv
FN:281,_ZNKSt17_Rb_tree_iteratorISt4pairIKlSt6vectorIaSaIaEEEEptEv
FNDA:0,_ZNKSt17_Rb_tree_iteratorISt4pairIKlSt6vectorIaSaIaEEEEptEv
FN:285,_ZNSt17_Rb_tree_iteratorISt4pairIKiiEEppEv
FNDA:0,_ZNSt17_Rb_tree_iteratorISt4pairIKiiEEppEv
FN:285,_ZNSt17_Rb_tree_iteratorISt4pairIKlSt6vectorIaSaIaEEEEppEv
FNDA:0,_ZNSt17_Rb_tree_iteratorISt4pairIKlSt6vectorIaSaIaEEEEppEv
FN:285,_ZNSt17_Rb_tree_iteratorISt4pairIKiSt3mapIlSt6vectorIaSaIaEESt4lessIlESaIS0_IKlS5_EEEEEppEv
FNDA:0,_ZNSt17_Rb_tree_iteratorISt4pairIKiSt3mapIlSt6vectorIaSaIaEESt4lessIlESaIS0_IKlS5_EEEEEppEv
FN:292,_ZNSt17_Rb_tree_iteratorISt4pairIKlSt6vectorIaSaIaEEEEppEi
FNDA:0,_ZNSt17_Rb_tree_iteratorISt4pairIKlSt6vectorIaSaIaEEEEppEi
FN:292,_ZNSt17_Rb_tree_iteratorISt4pairIKiiEEppEi
FNDA:0,_ZNSt17_Rb_tree_iteratorISt4pairIKiiEEppEi
FN:292,_ZNSt17_Rb_tree_iteratorISt4pairIKiSt3mapIlSt6vectorIaSaIaEESt4lessIlESaIS0_IKlS5_EEEEEppEi
FNDA:0,_ZNSt17_Rb_tree_iteratorISt4pairIKiSt3mapIlSt6vectorIaSaIaEESt4lessIlESaIS0_IKlS5_EEEEEppEi
FN:300,_ZNSt17_Rb_tree_iteratorISt4pairIKiSt3mapIlSt6vectorIaSaIaEESt4lessIlESaIS0_IKlS5_EEEEEmmEv
FNDA:0,_ZNSt17_Rb_tree_iteratorISt4pairIKiSt3mapIlSt6vectorIaSaIaEESt4lessIlESaIS0_IKlS5_EEEEEmmEv
FN:300,_ZNSt17_Rb_tree_iteratorISt4pairIKiiEEmmEv
FNDA:0,_ZNSt17_Rb_tree_iteratorISt4pairIKiiEEmmEv
FN:300,_ZNSt17_Rb_tree_iteratorISt4pairIKlSt6vectorIaSaIaEEEEmmEv
FNDA:0,_ZNSt17_Rb_tree_iteratorISt4pairIKlSt6vectorIaSaIaEEEEmmEv
FN:315,_ZSteqRKSt17_Rb_tree_iteratorISt4pairIKiSt3mapIlSt6vectorIaSaIaEESt4lessIlESaIS0_IKlS5_EEEEESF_
FNDA:0,_ZSteqRKSt17_Rb_tree_iteratorISt4pairIKiSt3mapIlSt6vectorIaSaIaEESt4lessIlESaIS0_IKlS5_EEEEESF_
FN:315,_ZSteqRKSt17_Rb_tree_iteratorISt4pairIKlSt6vectorIaSaIaEEEES8_
FNDA:0,_ZSteqRKSt17_Rb_tree_iteratorISt4pairIKlSt6vectorIaSaIaEEEES8_
FN:315,_ZSteqRKSt17_Rb_tree_iteratorISt4pairIKiiEES5_
FNDA:0,_ZSteqRKSt17_Rb_tree_iteratorISt4pairIKiiEES5_
FN:319,_ZStneRKSt17_Rb_tree_iteratorISt4pairIKiiEES5_
FNDA:0,_ZStneRKSt17_Rb_tree_iteratorISt4pairIKiiEES5_
FN:319,_ZStneRKSt17_Rb_tree_iteratorISt4pairIKiSt3mapIlSt6vectorIaSaIaEESt4lessIlESaIS0_IKlS5_EEEEESF_
FNDA:0,_ZStneRKSt17_Rb_tree_iteratorISt4pairIKiSt3mapIlSt6vectorIaSaIaEESt4lessIlESaIS0_IKlS5_EEEEESF_
FN:319,_ZStneRKSt17_Rb_tree_iteratorISt4pairIKlSt6vectorIaSaIaEEEES8_
FNDA:0,_ZStneRKSt17_Rb_tree_iteratorISt4pairIKlSt6vectorIaSaIaEEEES8_
FN:348,_ZNSt23_Rb_tree_const_iteratorISt4pairIKiiEEC2ERKSt17_Rb_tree_iteratorIS2_E
FNDA:0,_ZNSt23_Rb_tree_const_iteratorISt4pairIKiiEEC2ERKSt17_Rb_tree_iteratorIS2_E
FN:348,_ZNSt23_Rb_tree_const_iteratorISt4pairIKlSt6vectorIaSaIaEEEEC2ERKSt17_Rb_tree_iteratorIS5_E
FNDA:0,_ZNSt23_Rb_tree_const_iteratorISt4pairIKlSt6vectorIaSaIaEEEEC2ERKSt17_Rb_tree_iteratorIS5_E
FN:348,_ZNSt23_Rb_tree_const_iteratorISt4pairIKiSt3mapIlSt6vectorIaSaIaEESt4lessIlESaIS0_IKlS5_EEEEEC2ERKSt17_Rb_tree_iteratorISC_E
FNDA:0,_ZNSt23_Rb_tree_const_iteratorISt4pairIKiSt3mapIlSt6vectorIaSaIaEESt4lessIlESaIS0_IKlS5_EEEEEC2ERKSt17_Rb_tree_iteratorISC_E
FN:352,_ZNKSt23_Rb_tree_const_iteratorISt4pairIKlSt6vectorIaSaIaEEEE13_M_const_castEv
FNDA:0,_ZNKSt23_Rb_tree_const_iteratorISt4pairIKlSt6vectorIaSaIaEEEE13_M_const_castEv
FN:352,_ZNKSt23_Rb_tree_const_iteratorISt4pairIKiSt3mapIlSt6vectorIaSaIaEESt4lessIlESaIS0_IKlS5_EEEEE13_M_const_castEv
FNDA:0,_ZNKSt23_Rb_tree_const_iteratorISt4pairIKiSt3mapIlSt6vectorIaSaIaEESt4lessIlESaIS0_IKlS5_EEEEE13_M_const_castEv
FN:352,_ZNKSt23_Rb_tree_const_iteratorISt4pairIKiiEE13_M_const_castEv
FNDA:0,_ZNKSt23_Rb_tree_const_iteratorISt4pairIKiiEE13_M_const_castEv
FN:454,_ZNSt8_Rb_treeIiSt4pairIKiSt3mapIlSt6vectorIaSaIaEESt4lessIlESaIS0_IKlS5_EEEESt10_Select1stISC_ES6_IiESaISC_EE20_Reuse_or_alloc_nodeC2ERSH_
FNDA:0,_ZNSt8_Rb_treeIiSt4pairIKiSt3mapIlSt6vectorIaSaIaEESt4lessIlESaIS0_IKlS5_EEEESt10_Select1stISC_ES6_IiESaISC_EE20_Reuse_or_alloc_nodeC2ERSH_
FN:454,_ZNSt8_Rb_treeIlSt4pairIKlSt6vectorIaSaIaEEESt10_Select1stIS5_ESt4lessIlESaIS5_EE20_Reuse_or_alloc_nodeC2ERSB_
FNDA:0,_ZNSt8_Rb_treeIlSt4pairIKlSt6vectorIaSaIaEEESt10_Select1stIS5_ESt4lessIlESaIS5_EE20_Reuse_or_alloc_nodeC2ERSB_
FN:472,_ZNSt8_Rb_treeIiSt4pairIKiSt3mapIlSt6vectorIaSaIaEESt4lessIlESaIS0_IKlS5_EEEESt10_Select1stISC_ES6_IiESaISC_EE20_Reuse_or_alloc_nodeD2Ev
FNDA:0,_ZNSt8_Rb_treeIiSt4pairIKiSt3mapIlSt6vectorIaSaIaEESt4lessIlESaIS0_IKlS5_EEEESt10_Select1stISC_ES6_IiESaISC_EE20_Reuse_or_alloc_nodeD2Ev
FN:472,_ZNSt8_Rb_treeIlSt4pairIKlSt6vectorIaSaIaEEESt10_Select1stIS5_ESt4lessIlESaIS5_EE20_Reuse_or_alloc_nodeD2Ev
FNDA:0,_ZNSt8_Rb_treeIlSt4pairIKlSt6vectorIaSaIaEEESt10_Select1stIS5_ESt4lessIlESaIS5_EE20_Reuse_or_alloc_nodeD2Ev
FN:480,_ZNSt8_Rb_treeIiSt4pairIKiSt3mapIlSt6vectorIaSaIaEESt4lessIlESaIS0_IKlS5_EEEESt10_Select1stISC_ES6_IiESaISC_EE20_Reuse_or_alloc_nodeclIRKSC_EEPSt13_Rb_tree_nodeISC_EOT_
FNDA:0,_ZNSt8_Rb_treeIiSt4pairIKiSt3mapIlSt6vectorIaSaIaEESt4lessIlESaIS0_IKlS5_EEEESt10_Select1stISC_ES6_IiESaISC_EE20_Reuse_or_alloc_nodeclIRKSC_EEPSt13_Rb_tree_nodeISC_EOT_
FN:480,_ZNSt8_Rb_treeIlSt4pairIKlSt6vectorIaSaIaEEESt10_Select1stIS5_ESt4lessIlESaIS5_EE20_Reuse_or_alloc_nodeclIRKS5_EEPSt13_Rb_tree_nodeIS5_EOT_
FNDA:0,_ZNSt8_Rb_treeIlSt4pairIKlSt6vectorIaSaIaEEESt10_Select1stIS5_ESt4lessIlESaIS5_EE20_Reuse_or_alloc_nodeclIRKS5_EEPSt13_Rb_tree_nodeIS5_EOT_
FN:496,_ZNSt8_Rb_treeIlSt4pairIKlSt6vectorIaSaIaEEESt10_Select1stIS5_ESt4lessIlESaIS5_EE20_Reuse_or_alloc_node10_M_extractEv
FNDA:0,_ZNSt8_Rb_treeIlSt4pairIKlSt6vectorIaSaIaEEESt10_Select1stIS5_ESt4lessIlESaIS5_EE20_Reuse_or_alloc_node10_M_extractEv
FN:496,_ZNSt8_Rb_treeIiSt4pairIKiSt3mapIlSt6vectorIaSaIaEESt4lessIlESaIS0_IKlS5_EEEESt10_Select1stISC_ES6_IiESaISC_EE20_Reuse_or_alloc_node10_M_extractEv
FNDA:0,_ZNSt8_Rb_treeIiSt4pairIKiSt3mapIlSt6vectorIaSaIaEESt4lessIlESaIS0_IKlS5_EEEESt10_Select1stISC_ES6_IiESaISC_EE20_Reuse_or_alloc_node10_M_extractEv
FN:538,_ZNSt8_Rb_treeIlSt4pairIKlSt6vectorIaSaIaEEESt10_Select1stIS5_ESt4lessIlESaIS5_EE11_Alloc_nodeC2ERSB_
FNDA:0,_ZNSt8_Rb_treeIlSt4pairIKlSt6vectorIaSaIaEEESt10_Select1stIS5_ESt4lessIlESaIS5_EE11_Alloc_nodeC2ERSB_
FN:546,_ZNKSt8_Rb_treeIlSt4pairIKlSt6vectorIaSaIaEEESt10_Select1stIS5_ESt4lessIlESaIS5_EE11_Alloc_nodeclIRKS5_EEPSt13_Rb_tree_nodeIS5_EOT_
FNDA:0,_ZNKSt8_Rb_treeIlSt4pairIKlSt6vectorIaSaIaEEESt10_Select1stIS5_ESt4lessIlESaIS5_EE11_Alloc_nodeclIRKS5_EEPSt13_Rb_tree_nodeIS5_EOT_
FN:566,_ZNSt8_Rb_treeIiSt4pairIKiiESt10_Select1stIS2_ESt4lessIiESaIS2_EE21_M_get_Node_allocatorEv
FNDA:0,_ZNSt8_Rb_treeIiSt4pairIKiiESt10_Select1stIS2_ESt4lessIiESaIS2_EE21_M_get_Node_allocatorEv
FN:566,_ZNSt8_Rb_treeIiSt4pairIKiSt3mapIlSt6vectorIaSaIaEESt4lessIlESaIS0_IKlS5_EEEESt10_Select1stISC_ES6_IiESaISC_EE21_M_get_Node_allocatorEv
FNDA:0,_ZNSt8_Rb_treeIiSt4pairIKiSt3mapIlSt6vectorIaSaIaEESt4lessIlESaIS0_IKlS5_EEEESt10_Select1stISC_ES6_IiESaISC_EE21_M_get_Node_allocatorEv
FN:566,_ZNSt8_Rb_treeIlSt4pairIKlSt6vectorIaSaIaEEESt10_Select1stIS5_ESt4lessIlESaIS5_EE21_M_get_Node_allocatorEv
FNDA:0,_ZNSt8_Rb_treeIlSt4pairIKlSt6vectorIaSaIaEEESt10_Select1stIS5_ESt4lessIlESaIS5_EE21_M_get_Node_allocatorEv
FN:579,_ZNSt8_Rb_treeIiSt4pairIKiiESt10_Select1stIS2_ESt4lessIiESaIS2_EE11_M_get_nodeEv
FNDA:0,_ZNSt8_Rb_treeIiSt4pairIKiiESt10_Select1stIS2_ESt4lessIiESaIS2_EE11_M_get_nodeEv
FN:579,_ZNSt8_Rb_treeIiSt4pairIKiSt3mapIlSt6vectorIaSaIaEESt4lessIlESaIS0_IKlS5_EEEESt10_Select1stISC_ES6_IiESaISC_EE11_M_get_nodeEv
FNDA:0,_ZNSt8_Rb_treeIiSt4pairIKiSt3mapIlSt6vectorIaSaIaEESt4lessIlESaIS0_IKlS5_EEEESt10_Select1stISC_ES6_IiESaISC_EE11_M_get_nodeEv
FN:579,_ZNSt8_Rb_treeIlSt4pairIKlSt6vectorIaSaIaEEESt10_Select1stIS5_ESt4lessIlESaIS5_EE11_M_get_nodeEv
FNDA:0,_ZNSt8_Rb_treeIlSt4pairIKlSt6vectorIaSaIaEEESt10_Select1stIS5_ESt4lessIlESaIS5_EE11_M_get_nodeEv
FN:583,_ZNSt8_Rb_treeIiSt4pairIKiiESt10_Select1stIS2_ESt4lessIiESaIS2_EE11_M_put_nodeEPSt13_Rb_tree_nodeIS2_E
FNDA:0,_ZNSt8_Rb_treeIiSt4pairIKiiESt10_Select1stIS2_ESt4lessIiESaIS2_EE11_M_put_nodeEPSt13_Rb_tree_nodeIS2_E
FN:583,_ZNSt8_Rb_treeIlSt4pairIKlSt6vectorIaSaIaEEESt10_Select1stIS5_ESt4lessIlESaIS5_EE11_M_put_nodeEPSt13_Rb_tree_nodeIS5_E
FNDA:0,_ZNSt8_Rb_treeIlSt4pairIKlSt6vectorIaSaIaEEESt10_Select1stIS5_ESt4lessIlESaIS5_EE11_M_put_nodeEPSt13_Rb_tree_nodeIS5_E
FN:583,_ZNSt8_Rb_treeIiSt4pairIKiSt3mapIlSt6vectorIaSaIaEESt4lessIlESaIS0_IKlS5_EEEESt10_Select1stISC_ES6_IiESaISC_EE11_M_put_nodeEPSt13_Rb_tree_nodeISC_E
FNDA:0,_ZNSt8_Rb_treeIiSt4pairIKiSt3mapIlSt6vectorIaSaIaEESt4lessIlESaIS0_IKlS5_EEEESt10_Select1stISC_ES6_IiESaISC_EE11_M_put_nodeEPSt13_Rb_tree_nodeISC_E
FN:609,_ZNSt8_Rb_treeIiSt4pairIKiSt3mapIlSt6vectorIaSaIaEESt4lessIlESaIS0_IKlS5_EEEESt10_Select1stISC_ES6_IiESaISC_EE17_M_construct_nodeIJRKSC_EEEvPSt13_Rb_tree_nodeISC_EDpOT_
FNDA:0,_ZNSt8_Rb_treeIiSt4pairIKiSt3mapIlSt6vectorIaSaIaEESt4lessIlESaIS0_IKlS5_EEEESt10_Select1stISC_ES6_IiESaISC_EE17_M_construct_nodeIJRKSC_EEEvPSt13_Rb_tree_nodeISC_EDpOT_
FN:609,_ZNSt8_Rb_treeIlSt4pairIKlSt6vectorIaSaIaEEESt10_Select1stIS5_ESt4lessIlESaIS5_EE17_M_construct_nodeIJRKSt21piecewise_construct_tSt5tupleIJRS1_EESG_IJEEEEEvPSt13_Rb_tree_nodeIS5_EDpOT_
FNDA:0,_ZNSt8_Rb_treeIlSt4pairIKlSt6vectorIaSaIaEEESt10_Select1stIS5_ESt4lessIlESaIS5_EE17_M_construct_nodeIJRKSt21piecewise_construct_tSt5tupleIJRS1_EESG_IJEEEEEvPSt13_Rb_tree_nodeIS5_EDpOT_
FN:609,_ZNSt8_Rb_treeIlSt4pairIKlSt6vectorIaSaIaEEESt10_Select1stIS5_ESt4lessIlESaIS5_EE17_M_construct_nodeIJRKS5_EEEvPSt13_Rb_tree_nodeIS5_EDpOT_
FNDA:0,_ZNSt8_Rb_treeIlSt4pairIKlSt6vectorIaSaIaEEESt10_Select1stIS5_ESt4lessIlESaIS5_EE17_M_construct_nodeIJRKS5_EEEvPSt13_Rb_tree_nodeIS5_EDpOT_
FN:609,_ZNSt8_Rb_treeIiSt4pairIKiSt3mapIlSt6vectorIaSaIaEESt4lessIlESaIS0_IKlS5_EEEESt10_Select1stISC_ES6_IiESaISC_EE17_M_construct_nodeIJRKSt21piecewise_construct_tSt5tupleIJRS1_EESM_IJEEEEEvPSt13_Rb_tree_nodeISC_EDpOT_
FNDA:0,_ZNSt8_Rb_treeIiSt4pairIKiSt3mapIlSt6vectorIaSaIaEESt4lessIlESaIS0_IKlS5_EEEESt10_Select1stISC_ES6_IiESaISC_EE17_M_construct_nodeIJRKSt21piecewise_construct_tSt5tupleIJRS1_EESM_IJEEEEEvPSt13_Rb_tree_nodeISC_EDpOT_
FN:609,_ZNSt8_Rb_treeIiSt4pairIKiiESt10_Select1stIS2_ESt4lessIiESaIS2_EE17_M_construct_nodeIJRKSt21piecewise_construct_tSt5tupleIJOiEESD_IJEEEEEvPSt13_Rb_tree_nodeIS2_EDpOT_
FNDA:0,_ZNSt8_Rb_treeIiSt4pairIKiiESt10_Select1stIS2_ESt4lessIiESaIS2_EE17_M_construct_nodeIJRKSt21piecewise_construct_tSt5tupleIJOiEESD_IJEEEEEvPSt13_Rb_tree_nodeIS2_EDpOT_
FN:628,_ZNSt8_Rb_treeIlSt4pairIKlSt6vectorIaSaIaEEESt10_Select1stIS5_ESt4lessIlESaIS5_EE14_M_create_nodeIJRKS5_EEEPSt13_Rb_tree_nodeIS5_EDpOT_
FNDA:0,_ZNSt8_Rb_treeIlSt4pairIKlSt6vectorIaSaIaEEESt10_Select1stIS5_ESt4lessIlESaIS5_EE14_M_create_nodeIJRKS5_EEEPSt13_Rb_tree_nodeIS5_EDpOT_
FN:628,_ZNSt8_Rb_treeIiSt4pairIKiSt3mapIlSt6vectorIaSaIaEESt4lessIlESaIS0_IKlS5_EEEESt10_Select1stISC_ES6_IiESaISC_EE14_M_create_nodeIJRKSC_EEEPSt13_Rb_tree_nodeISC_EDpOT_
FNDA:0,_ZNSt8_Rb_treeIiSt4pairIKiSt3mapIlSt6vectorIaSaIaEESt4lessIlESaIS0_IKlS5_EEEESt10_Select1stISC_ES6_IiESaISC_EE14_M_create_nodeIJRKSC_EEEPSt13_Rb_tree_nodeISC_EDpOT_
FN:628,_ZNSt8_Rb_treeIlSt4pairIKlSt6vectorIaSaIaEEESt10_Select1stIS5_ESt4lessIlESaIS5_EE14_M_create_nodeIJRKSt21piecewise_construct_tSt5tupleIJRS1_EESG_IJEEEEEPSt13_Rb_tree_nodeIS5_EDpOT_
FNDA:0,_ZNSt8_Rb_treeIlSt4pairIKlSt6vectorIaSaIaEEESt10_Select1stIS5_ESt4lessIlESaIS5_EE14_M_create_nodeIJRKSt21piecewise_construct_tSt5tupleIJRS1_EESG_IJEEEEEPSt13_Rb_tree_nodeIS5_EDpOT_
FN:628,_ZNSt8_Rb_treeIiSt4pairIKiiESt10_Select1stIS2_ESt4lessIiESaIS2_EE14_M_create_nodeIJRKSt21piecewise_construct_tSt5tupleIJOiEESD_IJEEEEEPSt13_Rb_tree_nodeIS2_EDpOT_
FNDA:0,_ZNSt8_Rb_treeIiSt4pairIKiiESt10_Select1stIS2_ESt4lessIiESaIS2_EE14_M_create_nodeIJRKSt21piecewise_construct_tSt5tupleIJOiEESD_IJEEEEEPSt13_Rb_tree_nodeIS2_EDpOT_
FN:628,_ZNSt8_Rb_treeIiSt4pairIKiSt3mapIlSt6vectorIaSaIaEESt4lessIlESaIS0_IKlS5_EEEESt10_Select1stISC_ES6_IiESaISC_EE14_M_create_nodeIJRKSt21piecewise_construct_tSt5tupleIJRS1_EESM_IJEEEEEPSt13_Rb_tree_nodeISC_EDpOT_
FNDA:0,_ZNSt8_Rb_treeIiSt4pairIKiSt3mapIlSt6vectorIaSaIaEESt4lessIlESaIS0_IKlS5_EEEESt10_Select1stISC_ES6_IiESaISC_EE14_M_create_nodeIJRKSt21piecewise_construct_tSt5tupleIJRS1_EESM_IJEEEEEPSt13_Rb_tree_nodeISC_EDpOT_
FN:637,_ZNSt8_Rb_treeIiSt4pairIKiiESt10_Select1stIS2_ESt4lessIiESaIS2_EE15_M_destroy_nodeEPSt13_Rb_tree_nodeIS2_E
FNDA:0,_ZNSt8_Rb_treeIiSt4pairIKiiESt10_Select1stIS2_ESt4lessIiESaIS2_EE15_M_destroy_nodeEPSt13_Rb_tree_nodeIS2_E
FN:637,_ZNSt8_Rb_treeIiSt4pairIKiSt3mapIlSt6vectorIaSaIaEESt4lessIlESaIS0_IKlS5_EEEESt10_Select1stISC_ES6_IiESaISC_EE15_M_destroy_nodeEPSt13_Rb_tree_nodeISC_E
FNDA:0,_ZNSt8_Rb_treeIiSt4pairIKiSt3mapIlSt6vectorIaSaIaEESt4lessIlESaIS0_IKlS5_EEEESt10_Select1stISC_ES6_IiESaISC_EE15_M_destroy_nodeEPSt13_Rb_tree_nodeISC_E
FN:637,_ZNSt8_Rb_treeIlSt4pairIKlSt6vectorIaSaIaEEESt10_Select1stIS5_ESt4lessIlESaIS5_EE15_M_destroy_nodeEPSt13_Rb_tree_nodeIS5_E
FNDA:0,_ZNSt8_Rb_treeIlSt4pairIKlSt6vectorIaSaIaEEESt10_Select1stIS5_ESt4lessIlESaIS5_EE15_M_destroy_nodeEPSt13_Rb_tree_nodeIS5_E
FN:648,_ZNSt8_Rb_treeIiSt4pairIKiiESt10_Select1stIS2_ESt4lessIiESaIS2_EE12_M_drop_nodeEPSt13_Rb_tree_nodeIS2_E
FNDA:0,_ZNSt8_Rb_treeIiSt4pairIKiiESt10_Select1stIS2_ESt4lessIiESaIS2_EE12_M_drop_nodeEPSt13_Rb_tree_nodeIS2_E
FN:648,_ZNSt8_Rb_treeIiSt4pairIKiSt3mapIlSt6vectorIaSaIaEESt4lessIlESaIS0_IKlS5_EEEESt10_Select1stISC_ES6_IiESaISC_EE12_M_drop_nodeEPSt13_Rb_tree_nodeISC_E
FNDA:0,_ZNSt8_Rb_treeIiSt4pairIKiSt3mapIlSt6vectorIaSaIaEESt4lessIlESaIS0_IKlS5_EEEESt10_Select1stISC_ES6_IiESaISC_EE12_M_drop_nodeEPSt13_Rb_tree_nodeISC_E
FN:648,_ZNSt8_Rb_treeIlSt4pairIKlSt6vectorIaSaIaEEESt10_Select1stIS5_ESt4lessIlESaIS5_EE12_M_drop_nodeEPSt13_Rb_tree_nodeIS5_E
FNDA:0,_ZNSt8_Rb_treeIlSt4pairIKlSt6vectorIaSaIaEEESt10_Select1stIS5_ESt4lessIlESaIS5_EE12_M_drop_nodeEPSt13_Rb_tree_nodeIS5_E
FN:656,_ZNSt8_Rb_treeIlSt4pairIKlSt6vectorIaSaIaEEESt10_Select1stIS5_ESt4lessIlESaIS5_EE13_M_clone_nodeINSB_11_Alloc_nodeEEEPSt13_Rb_tree_nodeIS5_EPKSF_RT_
FNDA:0,_ZNSt8_Rb_treeIlSt4pairIKlSt6vectorIaSaIaEEESt10_Select1stIS5_ESt4lessIlESaIS5_EE13_M_clone_nodeINSB_11_Alloc_nodeEEEPSt13_Rb_tree_nodeIS5_EPKSF_RT_
FN:680,_ZNSt8_Rb_treeIiSt4pairIKiiESt10_Select1stIS2_ESt4lessIiESaIS2_EE13_Rb_tree_implIS6_Lb1EEC2Ev
FNDA:0,_ZNSt8_Rb_treeIiSt4pairIKiiESt10_Select1stIS2_ESt4lessIiESaIS2_EE13_Rb_tree_implIS6_Lb1EEC2Ev
FN:680,_ZNSt8_Rb_treeIlSt4pairIKlSt6vectorIaSaIaEEESt10_Select1stIS5_ESt4lessIlESaIS5_EE13_Rb_tree_implIS9_Lb1EEC2Ev
FNDA:0,_ZNSt8_Rb_treeIlSt4pairIKlSt6vectorIaSaIaEEESt10_Select1stIS5_ESt4lessIlESaIS5_EE13_Rb_tree_implIS9_Lb1EEC2Ev
FN:687,_ZNSt8_Rb_treeIlSt4pairIKlSt6vectorIaSaIaEEESt10_Select1stIS5_ESt4lessIlESaIS5_EE13_Rb_tree_implIS9_Lb1EEC2ERKSD_
FNDA:0,_ZNSt8_Rb_treeIlSt4pairIKlSt6vectorIaSaIaEEESt10_Select1stIS5_ESt4lessIlESaIS5_EE13_Rb_tree_implIS9_Lb1EEC2ERKSD_
FN:720,_ZNSt8_Rb_treeIiSt4pairIKiSt3mapIlSt6vectorIaSaIaEESt4lessIlESaIS0_IKlS5_EEEESt10_Select1stISC_ES6_IiESaISC_EE7_M_rootEv
FNDA:0,_ZNSt8_Rb_treeIiSt4pairIKiSt3mapIlSt6vectorIaSaIaEESt4lessIlESaIS0_IKlS5_EEEESt10_Select1stISC_ES6_IiESaISC_EE7_M_rootEv
FN:720,_ZNSt8_Rb_treeIlSt4pairIKlSt6vectorIaSaIaEEESt10_Select1stIS5_ESt4lessIlESaIS5_EE7_M_rootEv
FNDA:0,_ZNSt8_Rb_treeIlSt4pairIKlSt6vectorIaSaIaEEESt10_Select1stIS5_ESt4lessIlESaIS5_EE7_M_rootEv
FN:724,_ZNKSt8_Rb_treeIlSt4pairIKlSt6vectorIaSaIaEEESt10_Select1stIS5_ESt4lessIlESaIS5_EE7_M_rootEv
FNDA:0,_ZNKSt8_Rb_treeIlSt4pairIKlSt6vectorIaSaIaEEESt10_Select1stIS5_ESt4lessIlESaIS5_EE7_M_rootEv
FN:728,_ZNSt8_Rb_treeIiSt4pairIKiSt3mapIlSt6vectorIaSaIaEESt4lessIlESaIS0_IKlS5_EEEESt10_Select1stISC_ES6_IiESaISC_EE11_M_leftmostEv
FNDA:0,_ZNSt8_Rb_treeIiSt4pairIKiSt3mapIlSt6vectorIaSaIaEESt4lessIlESaIS0_IKlS5_EEEESt10_Select1stISC_ES6_IiESaISC_EE11_M_leftmostEv
FN:728,_ZNSt8_Rb_treeIiSt4pairIKiiESt10_Select1stIS2_ESt4lessIiESaIS2_EE11_M_leftmostEv
FNDA:0,_ZNSt8_Rb_treeIiSt4pairIKiiESt10_Select1stIS2_ESt4lessIiESaIS2_EE11_M_leftmostEv
FN:728,_ZNSt8_Rb_treeIlSt4pairIKlSt6vectorIaSaIaEEESt10_Select1stIS5_ESt4lessIlESaIS5_EE11_M_leftmostEv
FNDA:0,_ZNSt8_Rb_treeIlSt4pairIKlSt6vectorIaSaIaEEESt10_Select1stIS5_ESt4lessIlESaIS5_EE11_M_leftmostEv
FN:736,_ZNSt8_Rb_treeIlSt4pairIKlSt6vectorIaSaIaEEESt10_Select1stIS5_ESt4lessIlESaIS5_EE12_M_rightmostEv
FNDA:0,_ZNSt8_Rb_treeIlSt4pairIKlSt6vectorIaSaIaEEESt10_Select1stIS5_ESt4lessIlESaIS5_EE12_M_rightmostEv
FN:736,_ZNSt8_Rb_treeIiSt4pairIKiSt3mapIlSt6vectorIaSaIaEESt4lessIlESaIS0_IKlS5_EEEESt10_Select1stISC_ES6_IiESaISC_EE12_M_rightmostEv
FNDA:0,_ZNSt8_Rb_treeIiSt4pairIKiSt3mapIlSt6vectorIaSaIaEESt4lessIlESaIS0_IKlS5_EEEESt10_Select1stISC_ES6_IiESaISC_EE12_M_rightmostEv
FN:736,_ZNSt8_Rb_treeIiSt4pairIKiiESt10_Select1stIS2_ESt4lessIiESaIS2_EE12_M_rightmostEv
FNDA:0,_ZNSt8_Rb_treeIiSt4pairIKiiESt10_Select1stIS2_ESt4lessIiESaIS2_EE12_M_rightmostEv
FN:744,_ZNSt8_Rb_treeIlSt4pairIKlSt6vectorIaSaIaEEESt10_Select1stIS5_ESt4lessIlESaIS5_EE8_M_beginEv
FNDA:0,_ZNSt8_Rb_treeIlSt4pairIKlSt6vectorIaSaIaEEESt10_Select1stIS5_ESt4lessIlESaIS5_EE8_M_beginEv
FN:744,_ZNSt8_Rb_treeIiSt4pairIKiiESt10_Select1stIS2_ESt4lessIiESaIS2_EE8_M_beginEv
FNDA:0,_ZNSt8_Rb_treeIiSt4pairIKiiESt10_Select1stIS2_ESt4lessIiESaIS2_EE8_M_beginEv
FN:744,_ZNSt8_Rb_treeIiSt4pairIKiSt3mapIlSt6vectorIaSaIaEESt4lessIlESaIS0_IKlS5_EEEESt10_Select1stISC_ES6_IiESaISC_EE8_M_beginEv
FNDA:0,_ZNSt8_Rb_treeIiSt4pairIKiSt3mapIlSt6vectorIaSaIaEESt4lessIlESaIS0_IKlS5_EEEESt10_Select1stISC_ES6_IiESaISC_EE8_M_beginEv
FN:748,_ZNKSt8_Rb_treeIlSt4pairIKlSt6vectorIaSaIaEEESt10_Select1stIS5_ESt4lessIlESaIS5_EE8_M_beginEv
FNDA:0,_ZNKSt8_Rb_treeIlSt4pairIKlSt6vectorIaSaIaEEESt10_Select1stIS5_ESt4lessIlESaIS5_EE8_M_beginEv
FN:755,_ZNSt8_Rb_treeIlSt4pairIKlSt6vectorIaSaIaEEESt10_Select1stIS5_ESt4lessIlESaIS5_EE6_M_endEv
FNDA:0,_ZNSt8_Rb_treeIlSt4pairIKlSt6vectorIaSaIaEEESt10_Select1stIS5_ESt4lessIlESaIS5_EE6_M_endEv
FN:755,_ZNSt8_Rb_treeIiSt4pairIKiiESt10_Select1stIS2_ESt4lessIiESaIS2_EE6_M_endEv
FNDA:0,_ZNSt8_Rb_treeIiSt4pairIKiiESt10_Select1stIS2_ESt4lessIiESaIS2_EE6_M_endEv
FN:755,_ZNSt8_Rb_treeIiSt4pairIKiSt3mapIlSt6vectorIaSaIaEESt4lessIlESaIS0_IKlS5_EEEESt10_Select1stISC_ES6_IiESaISC_EE6_M_endEv
FNDA:0,_ZNSt8_Rb_treeIiSt4pairIKiSt3mapIlSt6vectorIaSaIaEESt4lessIlESaIS0_IKlS5_EEEESt10_Select1stISC_ES6_IiESaISC_EE6_M_endEv
FN:767,_ZNSt8_Rb_treeIiSt4pairIKiSt3mapIlSt6vectorIaSaIaEESt4lessIlESaIS0_IKlS5_EEEESt10_Select1stISC_ES6_IiESaISC_EE6_S_keyEPKSt13_Rb_tree_nodeISC_E
FNDA:0,_ZNSt8_Rb_treeIiSt4pairIKiSt3mapIlSt6vectorIaSaIaEESt4lessIlESaIS0_IKlS5_EEEESt10_Select1stISC_ES6_IiESaISC_EE6_S_keyEPKSt13_Rb_tree_nodeISC_E
FN:767,_ZNSt8_Rb_treeIiSt4pairIKiiESt10_Select1stIS2_ESt4lessIiESaIS2_EE6_S_keyEPKSt13_Rb_tree_nodeIS2_E
FNDA:0,_ZNSt8_Rb_treeIiSt4pairIKiiESt10_Select1stIS2_ESt4lessIiESaIS2_EE6_S_keyEPKSt13_Rb_tree_nodeIS2_E
FN:767,_ZNSt8_Rb_treeIlSt4pairIKlSt6vectorIaSaIaEEESt10_Select1stIS5_ESt4lessIlESaIS5_EE6_S_keyEPKSt13_Rb_tree_nodeIS5_E
FNDA:0,_ZNSt8_Rb_treeIlSt4pairIKlSt6vectorIaSaIaEEESt10_Select1stIS5_ESt4lessIlESaIS5_EE6_S_keyEPKSt13_Rb_tree_nodeIS5_E
FN:789,_ZNSt8_Rb_treeIiSt4pairIKiSt3mapIlSt6vectorIaSaIaEESt4lessIlESaIS0_IKlS5_EEEESt10_Select1stISC_ES6_IiESaISC_EE7_S_leftEPSt18_Rb_tree_node_base
FNDA:0,_ZNSt8_Rb_treeIiSt4pairIKiSt3mapIlSt6vectorIaSaIaEESt4lessIlESaIS0_IKlS5_EEEESt10_Select1stISC_ES6_IiESaISC_EE7_S_leftEPSt18_Rb_tree_node_base
FN:789,_ZNSt8_Rb_treeIlSt4pairIKlSt6vectorIaSaIaEEESt10_Select1stIS5_ESt4lessIlESaIS5_EE7_S_leftEPSt18_Rb_tree_node_base
FNDA:0,_ZNSt8_Rb_treeIlSt4pairIKlSt6vectorIaSaIaEEESt10_Select1stIS5_ESt4lessIlESaIS5_EE7_S_leftEPSt18_Rb_tree_node_base
FN:789,_ZNSt8_Rb_treeIiSt4pairIKiiESt10_Select1stIS2_ESt4lessIiESaIS2_EE7_S_leftEPSt18_Rb_tree_node_base
FNDA:0,_ZNSt8_Rb_treeIiSt4pairIKiiESt10_Select1stIS2_ESt4lessIiESaIS2_EE7_S_leftEPSt18_Rb_tree_node_base
FN:793,_ZNSt8_Rb_treeIlSt4pairIKlSt6vectorIaSaIaEEESt10_Select1stIS5_ESt4lessIlESaIS5_EE7_S_leftEPKSt18_Rb_tree_node_base
FNDA:0,_ZNSt8_Rb_treeIlSt4pairIKlSt6vectorIaSaIaEEESt10_Select1stIS5_ESt4lessIlESaIS5_EE7_S_leftEPKSt18_Rb_tree_node_base
FN:797,_ZNSt8_Rb_treeIlSt4pairIKlSt6vectorIaSaIaEEESt10_Select1stIS5_ESt4lessIlESaIS5_EE8_S_rightEPSt18_Rb_tree_node_base
FNDA:0,_ZNSt8_Rb_treeIlSt4pairIKlSt6vectorIaSaIaEEESt10_Select1stIS5_ESt4lessIlESaIS5_EE8_S_rightEPSt18_Rb_tree_node_base
FN:797,_ZNSt8_Rb_treeIiSt4pairIKiSt3mapIlSt6vectorIaSaIaEESt4lessIlESaIS0_IKlS5_EEEESt10_Select1stISC_ES6_IiESaISC_EE8_S_rightEPSt18_Rb_tree_node_base
FNDA:0,_ZNSt8_Rb_treeIiSt4pairIKiSt3mapIlSt6vectorIaSaIaEESt4lessIlESaIS0_IKlS5_EEEESt10_Select1stISC_ES6_IiESaISC_EE8_S_rightEPSt18_Rb_tree_node_base
FN:797,_ZNSt8_Rb_treeIiSt4pairIKiiESt10_Select1stIS2_ESt4lessIiESaIS2_EE8_S_rightEPSt18_Rb_tree_node_base
FNDA:0,_ZNSt8_Rb_treeIiSt4pairIKiiESt10_Select1stIS2_ESt4lessIiESaIS2_EE8_S_rightEPSt18_Rb_tree_node_base
FN:801,_ZNSt8_Rb_treeIlSt4pairIKlSt6vectorIaSaIaEEESt10_Select1stIS5_ESt4lessIlESaIS5_EE8_S_rightEPKSt18_Rb_tree_node_base
FNDA:0,_ZNSt8_Rb_treeIlSt4pairIKlSt6vectorIaSaIaEEESt10_Select1stIS5_ESt4lessIlESaIS5_EE8_S_rightEPKSt18_Rb_tree_node_base
FN:809,_ZNSt8_Rb_treeIiSt4pairIKiSt3mapIlSt6vectorIaSaIaEESt4lessIlESaIS0_IKlS5_EEEESt10_Select1stISC_ES6_IiESaISC_EE6_S_keyEPKSt18_Rb_tree_node_base
FNDA:0,_ZNSt8_Rb_treeIiSt4pairIKiSt3mapIlSt6vectorIaSaIaEESt4lessIlESaIS0_IKlS5_EEEESt10_Select1stISC_ES6_IiESaISC_EE6_S_keyEPKSt18_Rb_tree_node_base
FN:809,_ZNSt8_Rb_treeIiSt4pairIKiiESt10_Select1stIS2_ESt4lessIiESaIS2_EE6_S_keyEPKSt18_Rb_tree_node_base
FNDA:0,_ZNSt8_Rb_treeIiSt4pairIKiiESt10_Select1stIS2_ESt4lessIiESaIS2_EE6_S_keyEPKSt18_Rb_tree_node_base
FN:809,_ZNSt8_Rb_treeIlSt4pairIKlSt6vectorIaSaIaEEESt10_Select1stIS5_ESt4lessIlESaIS5_EE6_S_keyEPKSt18_Rb_tree_node_base
FNDA:0,_ZNSt8_Rb_treeIlSt4pairIKlSt6vectorIaSaIaEEESt10_Select1stIS5_ESt4lessIlESaIS5_EE6_S_keyEPKSt18_Rb_tree_node_base
FN:813,_ZNSt8_Rb_treeIlSt4pairIKlSt6vectorIaSaIaEEESt10_Select1stIS5_ESt4lessIlESaIS5_EE10_S_minimumEPSt18_Rb_tree_node_base
FNDA:0,_ZNSt8_Rb_treeIlSt4pairIKlSt6vectorIaSaIaEEESt10_Select1stIS5_ESt4lessIlESaIS5_EE10_S_minimumEPSt18_Rb_tree_node_base
FN:821,_ZNSt8_Rb_treeIlSt4pairIKlSt6vectorIaSaIaEEESt10_Select1stIS5_ESt4lessIlESaIS5_EE10_S_maximumEPSt18_Rb_tree_node_base
FNDA:0,_ZNSt8_Rb_treeIlSt4pairIKlSt6vectorIaSaIaEEESt10_Select1stIS5_ESt4lessIlESaIS5_EE10_S_maximumEPSt18_Rb_tree_node_base
FN:899,_ZNSt8_Rb_treeIlSt4pairIKlSt6vectorIaSaIaEEESt10_Select1stIS5_ESt4lessIlESaIS5_EE7_M_copyINSB_11_Alloc_nodeEEEPSt13_Rb_tree_nodeIS5_ERKSB_RT_
FNDA:0,_ZNSt8_Rb_treeIlSt4pairIKlSt6vectorIaSaIaEEESt10_Select1stIS5_ESt4lessIlESaIS5_EE7_M_copyINSB_11_Alloc_nodeEEEPSt13_Rb_tree_nodeIS5_ERKSB_RT_
FN:909,_ZNSt8_Rb_treeIlSt4pairIKlSt6vectorIaSaIaEEESt10_Select1stIS5_ESt4lessIlESaIS5_EE7_M_copyERKSB_
FNDA:0,_ZNSt8_Rb_treeIlSt4pairIKlSt6vectorIaSaIaEEESt10_Select1stIS5_ESt4lessIlESaIS5_EE7_M_copyERKSB_
FN:939,_ZNSt8_Rb_treeIlSt4pairIKlSt6vectorIaSaIaEEESt10_Select1stIS5_ESt4lessIlESaIS5_EEC2Ev
FNDA:0,_ZNSt8_Rb_treeIlSt4pairIKlSt6vectorIaSaIaEEESt10_Select1stIS5_ESt4lessIlESaIS5_EEC2Ev
FN:939,_ZNSt8_Rb_treeIiSt4pairIKiiESt10_Select1stIS2_ESt4lessIiESaIS2_EEC2Ev
FNDA:0,_ZNSt8_Rb_treeIiSt4pairIKiiESt10_Select1stIS2_ESt4lessIiESaIS2_EEC2Ev
FN:946,_ZNSt8_Rb_treeIlSt4pairIKlSt6vectorIaSaIaEEESt10_Select1stIS5_ESt4lessIlESaIS5_EEC2ERKSB_
FNDA:0,_ZNSt8_Rb_treeIlSt4pairIKlSt6vectorIaSaIaEEESt10_Select1stIS5_ESt4lessIlESaIS5_EEC2ERKSB_
FN:994,_ZNSt8_Rb_treeIlSt4pairIKlSt6vectorIaSaIaEEESt10_Select1stIS5_ESt4lessIlESaIS5_EED2Ev
FNDA:0,_ZNSt8_Rb_treeIlSt4pairIKlSt6vectorIaSaIaEEESt10_Select1stIS5_ESt4lessIlESaIS5_EED2Ev
FN:994,_ZNSt8_Rb_treeIiSt4pairIKiiESt10_Select1stIS2_ESt4lessIiESaIS2_EED2Ev
FNDA:0,_ZNSt8_Rb_treeIiSt4pairIKiiESt10_Select1stIS2_ESt4lessIiESaIS2_EED2Ev
FN:1002,_ZNKSt8_Rb_treeIiSt4pairIKiiESt10_Select1stIS2_ESt4lessIiESaIS2_EE8key_compEv
FNDA:0,_ZNKSt8_Rb_treeIiSt4pairIKiiESt10_Select1stIS2_ESt4lessIiESaIS2_EE8key_compEv
FN:1002,_ZNKSt8_Rb_treeIiSt4pairIKiSt3mapIlSt6vectorIaSaIaEESt4lessIlESaIS0_IKlS5_EEEESt10_Select1stISC_ES6_IiESaISC_EE8key_compEv
FNDA:0,_ZNKSt8_Rb_treeIiSt4pairIKiSt3mapIlSt6vectorIaSaIaEESt4lessIlESaIS0_IKlS5_EEEESt10_Select1stISC_ES6_IiESaISC_EE8key_compEv
FN:1002,_ZNKSt8_Rb_treeIlSt4pairIKlSt6vectorIaSaIaEEESt10_Select1stIS5_ESt4lessIlESaIS5_EE8key_compEv
FNDA:0,_ZNKSt8_Rb_treeIlSt4pairIKlSt6vectorIaSaIaEEESt10_Select1stIS5_ESt4lessIlESaIS5_EE8key_compEv
FN:1006,_ZNSt8_Rb_treeIiSt4pairIKiiESt10_Select1stIS2_ESt4lessIiESaIS2_EE5beginEv
FNDA:0,_ZNSt8_Rb_treeIiSt4pairIKiiESt10_Select1stIS2_ESt4lessIiESaIS2_EE5beginEv
FN:1006,_ZNSt8_Rb_treeIiSt4pairIKiSt3mapIlSt6vectorIaSaIaEESt4lessIlESaIS0_IKlS5_EEEESt10_Select1stISC_ES6_IiESaISC_EE5beginEv
FNDA:0,_ZNSt8_Rb_treeIiSt4pairIKiSt3mapIlSt6vectorIaSaIaEESt4lessIlESaIS0_IKlS5_EEEESt10_Select1stISC_ES6_IiESaISC_EE5beginEv
FN:1006,_ZNSt8_Rb_treeIlSt4pairIKlSt6vectorIaSaIaEEESt10_Select1stIS5_ESt4lessIlESaIS5_EE5beginEv
FNDA:0,_ZNSt8_Rb_treeIlSt4pairIKlSt6vectorIaSaIaEEESt10_Select1stIS5_ESt4lessIlESaIS5_EE5beginEv
FN:1014,_ZNSt8_Rb_treeIlSt4pairIKlSt6vectorIaSaIaEEESt10_Select1stIS5_ESt4lessIlESaIS5_EE3endEv
FNDA:0,_ZNSt8_Rb_treeIlSt4pairIKlSt6vectorIaSaIaEEESt10_Select1stIS5_ESt4lessIlESaIS5_EE3endEv
FN:1014,_ZNSt8_Rb_treeIiSt4pairIKiSt3mapIlSt6vectorIaSaIaEESt4lessIlESaIS0_IKlS5_EEEESt10_Select1stISC_ES6_IiESaISC_EE3endEv
FNDA:0,_ZNSt8_Rb_treeIiSt4pairIKiSt3mapIlSt6vectorIaSaIaEESt4lessIlESaIS0_IKlS5_EEEESt10_Select1stISC_ES6_IiESaISC_EE3endEv
FN:1014,_ZNSt8_Rb_treeIiSt4pairIKiiESt10_Select1stIS2_ESt4lessIiESaIS2_EE3endEv
FNDA:0,_ZNSt8_Rb_treeIiSt4pairIKiiESt10_Select1stIS2_ESt4lessIiESaIS2_EE3endEv
FN:1038,_ZNKSt8_Rb_treeIiSt4pairIKiSt3mapIlSt6vectorIaSaIaEESt4lessIlESaIS0_IKlS5_EEEESt10_Select1stISC_ES6_IiESaISC_EE5emptyEv
FNDA:0,_ZNKSt8_Rb_treeIiSt4pairIKiSt3mapIlSt6vectorIaSaIaEESt4lessIlESaIS0_IKlS5_EEEESt10_Select1stISC_ES6_IiESaISC_EE5emptyEv
FN:1042,_ZNKSt8_Rb_treeIlSt4pairIKlSt6vectorIaSaIaEEESt10_Select1stIS5_ESt4lessIlESaIS5_EE4sizeEv
FNDA:0,_ZNKSt8_Rb_treeIlSt4pairIKlSt6vectorIaSaIaEEESt10_Select1stIS5_ESt4lessIlESaIS5_EE4sizeEv
FN:1042,_ZNKSt8_Rb_treeIiSt4pairIKiSt3mapIlSt6vectorIaSaIaEESt4lessIlESaIS0_IKlS5_EEEESt10_Select1stISC_ES6_IiESaISC_EE4sizeEv
FNDA:0,_ZNKSt8_Rb_treeIiSt4pairIKiSt3mapIlSt6vectorIaSaIaEESt4lessIlESaIS0_IKlS5_EEEESt10_Select1stISC_ES6_IiESaISC_EE4sizeEv
FN:1042,_ZNKSt8_Rb_treeIiSt4pairIKiiESt10_Select1stIS2_ESt4lessIiESaIS2_EE4sizeEv
FNDA:0,_ZNKSt8_Rb_treeIiSt4pairIKiiESt10_Select1stIS2_ESt4lessIiESaIS2_EE4sizeEv
FN:1281,_ZNSt8_Rb_treeIlSt4pairIKlSt6vectorIaSaIaEEESt10_Select1stIS5_ESt4lessIlESaIS5_EE11lower_boundERS1_
FNDA:0,_ZNSt8_Rb_treeIlSt4pairIKlSt6vectorIaSaIaEEESt10_Select1stIS5_ESt4lessIlESaIS5_EE11lower_boundERS1_
FN:1281,_ZNSt8_Rb_treeIiSt4pairIKiiESt10_Select1stIS2_ESt4lessIiESaIS2_EE11lower_boundERS1_
FNDA:0,_ZNSt8_Rb_treeIiSt4pairIKiiESt10_Select1stIS2_ESt4lessIiESaIS2_EE11lower_boundERS1_
FN:1281,_ZNSt8_Rb_treeIiSt4pairIKiSt3mapIlSt6vectorIaSaIaEESt4lessIlESaIS0_IKlS5_EEEESt10_Select1stISC_ES6_IiESaISC_EE11lower_boundERS1_
FNDA:0,_ZNSt8_Rb_treeIiSt4pairIKiSt3mapIlSt6vectorIaSaIaEESt4lessIlESaIS0_IKlS5_EEEESt10_Select1stISC_ES6_IiESaISC_EE11lower_boundERS1_
FN:1731,_ZNSt8_Rb_treeIlSt4pairIKlSt6vectorIaSaIaEEESt10_Select1stIS5_ESt4lessIlESaIS5_EE16_M_assign_uniqueIPKS5_EEvT_SF_
FNDA:0,_ZNSt8_Rb_treeIlSt4pairIKlSt6vectorIaSaIaEEESt10_Select1stIS5_ESt4lessIlESaIS5_EE16_M_assign_uniqueIPKS5_EEvT_SF_
FN:1731,_ZNSt8_Rb_treeIiSt4pairIKiSt3mapIlSt6vectorIaSaIaEESt4lessIlESaIS0_IKlS5_EEEESt10_Select1stISC_ES6_IiESaISC_EE16_M_assign_uniqueIPKSC_EEvT_SL_
FNDA:0,_ZNSt8_Rb_treeIiSt4pairIKiSt3mapIlSt6vectorIaSaIaEESt4lessIlESaIS0_IKlS5_EEEESt10_Select1stISC_ES6_IiESaISC_EE16_M_assign_uniqueIPKSC_EEvT_SL_
FN:1797,_ZNSt8_Rb_treeIiSt4pairIKiSt3mapIlSt6vectorIaSaIaEESt4lessIlESaIS0_IKlS5_EEEESt10_Select1stISC_ES6_IiESaISC_EE10_M_insert_IRKSC_NSH_20_Reuse_or_alloc_nodeEEESt17_Rb_tree_iteratorISC_EPSt18_Rb_tree_node_baseSP_OT_RT0_
FNDA:0,_ZNSt8_Rb_treeIiSt4pairIKiSt3mapIlSt6vectorIaSaIaEESt4lessIlESaIS0_IKlS5_EEEESt10_Select1stISC_ES6_IiESaISC_EE10_M_insert_IRKSC_NSH_20_Reuse_or_alloc_nodeEEESt17_Rb_tree_iteratorISC_EPSt18_Rb_tree_node_baseSP_OT_RT0_
FN:1797,_ZNSt8_Rb_treeIlSt4pairIKlSt6vectorIaSaIaEEESt10_Select1stIS5_ESt4lessIlESaIS5_EE10_M_insert_IRKS5_NSB_20_Reuse_or_alloc_nodeEEESt17_Rb_tree_iteratorIS5_EPSt18_Rb_tree_node_baseSJ_OT_RT0_
FNDA:0,_ZNSt8_Rb_treeIlSt4pairIKlSt6vectorIaSaIaEEESt10_Select1stIS5_ESt4lessIlESaIS5_EE10_M_insert_IRKS5_NSB_20_Reuse_or_alloc_nodeEEESt17_Rb_tree_iteratorIS5_EPSt18_Rb_tree_node_baseSJ_OT_RT0_
FN:1871,_ZNSt8_Rb_treeIlSt4pairIKlSt6vectorIaSaIaEEESt10_Select1stIS5_ESt4lessIlESaIS5_EE7_M_copyINSB_11_Alloc_nodeEEEPSt13_Rb_tree_nodeIS5_EPKSF_PSt18_Rb_tree_node_baseRT_
FNDA:0,_ZNSt8_Rb_treeIlSt4pairIKlSt6vectorIaSaIaEEESt10_Select1stIS5_ESt4lessIlESaIS5_EE7_M_copyINSB_11_Alloc_nodeEEEPSt13_Rb_tree_nodeIS5_EPKSF_PSt18_Rb_tree_node_baseRT_
FN:1907,_ZNSt8_Rb_treeIiSt4pairIKiSt3mapIlSt6vectorIaSaIaEESt4lessIlESaIS0_IKlS5_EEEESt10_Select1stISC_ES6_IiESaISC_EE8_M_eraseEPSt13_Rb_tree_nodeISC_E
FNDA:0,_ZNSt8_Rb_treeIiSt4pairIKiSt3mapIlSt6vectorIaSaIaEESt4lessIlESaIS0_IKlS5_EEEESt10_Select1stISC_ES6_IiESaISC_EE8_M_eraseEPSt13_Rb_tree_nodeISC_E
FN:1907,_ZNSt8_Rb_treeIiSt4pairIKiiESt10_Select1stIS2_ESt4lessIiESaIS2_EE8_M_eraseEPSt13_Rb_tree_nodeIS2_E
FNDA:0,_ZNSt8_Rb_treeIiSt4pairIKiiESt10_Select1stIS2_ESt4lessIiESaIS2_EE8_M_eraseEPSt13_Rb_tree_nodeIS2_E
FN:1907,_ZNSt8_Rb_treeIlSt4pairIKlSt6vectorIaSaIaEEESt10_Select1stIS5_ESt4lessIlESaIS5_EE8_M_eraseEPSt13_Rb_tree_nodeIS5_E
FNDA:0,_ZNSt8_Rb_treeIlSt4pairIKlSt6vectorIaSaIaEEESt10_Select1stIS5_ESt4lessIlESaIS5_EE8_M_eraseEPSt13_Rb_tree_nodeIS5_E
FN:1924,_ZNSt8_Rb_treeIiSt4pairIKiSt3mapIlSt6vectorIaSaIaEESt4lessIlESaIS0_IKlS5_EEEESt10_Select1stISC_ES6_IiESaISC_EE14_M_lower_boundEPSt13_Rb_tree_nodeISC_EPSt18_Rb_tree_node_baseRS1_
FNDA:0,_ZNSt8_Rb_treeIiSt4pairIKiSt3mapIlSt6vectorIaSaIaEESt4lessIlESaIS0_IKlS5_EEEESt10_Select1stISC_ES6_IiESaISC_EE14_M_lower_boundEPSt13_Rb_tree_nodeISC_EPSt18_Rb_tree_node_baseRS1_
FN:1924,_ZNSt8_Rb_treeIiSt4pairIKiiESt10_Select1stIS2_ESt4lessIiESaIS2_EE14_M_lower_boundEPSt13_Rb_tree_nodeIS2_EPSt18_Rb_tree_node_baseRS1_
FNDA:0,_ZNSt8_Rb_treeIiSt4pairIKiiESt10_Select1stIS2_ESt4lessIiESaIS2_EE14_M_lower_boundEPSt13_Rb_tree_nodeIS2_EPSt18_Rb_tree_node_baseRS1_
FN:1924,_ZNSt8_Rb_treeIlSt4pairIKlSt6vectorIaSaIaEEESt10_Select1stIS5_ESt4lessIlESaIS5_EE14_M_lower_boundEPSt13_Rb_tree_nodeIS5_EPSt18_Rb_tree_node_baseRS1_
FNDA:0,_ZNSt8_Rb_treeIlSt4pairIKlSt6vectorIaSaIaEEESt10_Select1stIS5_ESt4lessIlESaIS5_EE14_M_lower_boundEPSt13_Rb_tree_nodeIS5_EPSt18_Rb_tree_node_baseRS1_
FN:2085,_ZNSt8_Rb_treeIiSt4pairIKiSt3mapIlSt6vectorIaSaIaEESt4lessIlESaIS0_IKlS5_EEEESt10_Select1stISC_ES6_IiESaISC_EE24_M_get_insert_unique_posERS1_
FNDA:0,_ZNSt8_Rb_treeIiSt4pairIKiSt3mapIlSt6vectorIaSaIaEESt4lessIlESaIS0_IKlS5_EEEESt10_Select1stISC_ES6_IiESaISC_EE24_M_get_insert_unique_posERS1_
FN:2085,_ZNSt8_Rb_treeIiSt4pairIKiiESt10_Select1stIS2_ESt4lessIiESaIS2_EE24_M_get_insert_unique_posERS1_
FNDA:0,_ZNSt8_Rb_treeIiSt4pairIKiiESt10_Select1stIS2_ESt4lessIiESaIS2_EE24_M_get_insert_unique_posERS1_
FN:2085,_ZNSt8_Rb_treeIlSt4pairIKlSt6vectorIaSaIaEEESt10_Select1stIS5_ESt4lessIlESaIS5_EE24_M_get_insert_unique_posERS1_
FNDA:0,_ZNSt8_Rb_treeIlSt4pairIKlSt6vectorIaSaIaEEESt10_Select1stIS5_ESt4lessIlESaIS5_EE24_M_get_insert_unique_posERS1_
FN:2187,_ZNSt8_Rb_treeIiSt4pairIKiiESt10_Select1stIS2_ESt4lessIiESaIS2_EE29_M_get_insert_hint_unique_posESt23_Rb_tree_const_iteratorIS2_ERS1_
FNDA:0,_ZNSt8_Rb_treeIiSt4pairIKiiESt10_Select1stIS2_ESt4lessIiESaIS2_EE29_M_get_insert_hint_unique_posESt23_Rb_tree_const_iteratorIS2_ERS1_
FN:2187,_ZNSt8_Rb_treeIiSt4pairIKiSt3mapIlSt6vectorIaSaIaEESt4lessIlESaIS0_IKlS5_EEEESt10_Select1stISC_ES6_IiESaISC_EE29_M_get_insert_hint_unique_posESt23_Rb_tree_const_iteratorISC_ERS1_
FNDA:0,_ZNSt8_Rb_treeIiSt4pairIKiSt3mapIlSt6vectorIaSaIaEESt4lessIlESaIS0_IKlS5_EEEESt10_Select1stISC_ES6_IiESaISC_EE29_M_get_insert_hint_unique_posESt23_Rb_tree_const_iteratorISC_ERS1_
FN:2187,_ZNSt8_Rb_treeIlSt4pairIKlSt6vectorIaSaIaEEESt10_Select1stIS5_ESt4lessIlESaIS5_EE29_M_get_insert_hint_unique_posESt23_Rb_tree_const_iteratorIS5_ERS1_
FNDA:0,_ZNSt8_Rb_treeIlSt4pairIKlSt6vectorIaSaIaEEESt10_Select1stIS5_ESt4lessIlESaIS5_EE29_M_get_insert_hint_unique_posESt23_Rb_tree_const_iteratorIS5_ERS1_
FN:2248,_ZNSt8_Rb_treeIlSt4pairIKlSt6vectorIaSaIaEEESt10_Select1stIS5_ESt4lessIlESaIS5_EE17_M_insert_unique_IRKS5_NSB_20_Reuse_or_alloc_nodeEEESt17_Rb_tree_iteratorIS5_ESt23_Rb_tree_const_iteratorIS5_EOT_RT0_
FNDA:0,_ZNSt8_Rb_treeIlSt4pairIKlSt6vectorIaSaIaEEESt10_Select1stIS5_ESt4lessIlESaIS5_EE17_M_insert_unique_IRKS5_NSB_20_Reuse_or_alloc_nodeEEESt17_Rb_tree_iteratorIS5_ESt23_Rb_tree_const_iteratorIS5_EOT_RT0_
FN:2248,_ZNSt8_Rb_treeIiSt4pairIKiSt3mapIlSt6vectorIaSaIaEESt4lessIlESaIS0_IKlS5_EEEESt10_Select1stISC_ES6_IiESaISC_EE17_M_insert_unique_IRKSC_NSH_20_Reuse_or_alloc_nodeEEESt17_Rb_tree_iteratorISC_ESt23_Rb_tree_const_iteratorISC_EOT_RT0_
FNDA:0,_ZNSt8_Rb_treeIiSt4pairIKiSt3mapIlSt6vectorIaSaIaEESt4lessIlESaIS0_IKlS5_EEEESt10_Select1stISC_ES6_IiESaISC_EE17_M_insert_unique_IRKSC_NSH_20_Reuse_or_alloc_nodeEEESt17_Rb_tree_iteratorISC_ESt23_Rb_tree_const_iteratorISC_EOT_RT0_
FN:2354,_ZNSt8_Rb_treeIiSt4pairIKiiESt10_Select1stIS2_ESt4lessIiESaIS2_EE14_M_insert_nodeEPSt18_Rb_tree_node_baseSA_PSt13_Rb_tree_nodeIS2_E
FNDA:0,_ZNSt8_Rb_treeIiSt4pairIKiiESt10_Select1stIS2_ESt4lessIiESaIS2_EE14_M_insert_nodeEPSt18_Rb_tree_node_baseSA_PSt13_Rb_tree_nodeIS2_E
FN:2354,_ZNSt8_Rb_treeIiSt4pairIKiSt3mapIlSt6vectorIaSaIaEESt4lessIlESaIS0_IKlS5_EEEESt10_Select1stISC_ES6_IiESaISC_EE14_M_insert_nodeEPSt18_Rb_tree_node_baseSJ_PSt13_Rb_tree_nodeISC_E
FNDA:0,_ZNSt8_Rb_treeIiSt4pairIKiSt3mapIlSt6vectorIaSaIaEESt4lessIlESaIS0_IKlS5_EEEESt10_Select1stISC_ES6_IiESaISC_EE14_M_insert_nodeEPSt18_Rb_tree_node_baseSJ_PSt13_Rb_tree_nodeISC_E
FN:2354,_ZNSt8_Rb_treeIlSt4pairIKlSt6vectorIaSaIaEEESt10_Select1stIS5_ESt4lessIlESaIS5_EE14_M_insert_nodeEPSt18_Rb_tree_node_baseSD_PSt13_Rb_tree_nodeIS5_E
FNDA:0,_ZNSt8_Rb_treeIlSt4pairIKlSt6vectorIaSaIaEEESt10_Select1stIS5_ESt4lessIlESaIS5_EE14_M_insert_nodeEPSt18_Rb_tree_node_baseSD_PSt13_Rb_tree_nodeIS5_E
FN:2452,_ZNSt8_Rb_treeIlSt4pairIKlSt6vectorIaSaIaEEESt10_Select1stIS5_ESt4lessIlESaIS5_EE22_M_emplace_hint_uniqueIJRKSt21piecewise_construct_tSt5tupleIJRS1_EESG_IJEEEEESt17_Rb_tree_iteratorIS5_ESt23_Rb_tree_const_iteratorIS5_EDpOT_
FNDA:0,_ZNSt8_Rb_treeIlSt4pairIKlSt6vectorIaSaIaEEESt10_Select1stIS5_ESt4lessIlESaIS5_EE22_M_emplace_hint_uniqueIJRKSt21piecewise_construct_tSt5tupleIJRS1_EESG_IJEEEEESt17_Rb_tree_iteratorIS5_ESt23_Rb_tree_const_iteratorIS5_EDpOT_
FN:2452,_ZNSt8_Rb_treeIiSt4pairIKiSt3mapIlSt6vectorIaSaIaEESt4lessIlESaIS0_IKlS5_EEEESt10_Select1stISC_ES6_IiESaISC_EE22_M_emplace_hint_uniqueIJRKSt21piecewise_construct_tSt5tupleIJRS1_EESM_IJEEEEESt17_Rb_tree_iteratorISC_ESt23_Rb_tree_const_iteratorISC_EDpOT_
FNDA:0,_ZNSt8_Rb_treeIiSt4pairIKiSt3mapIlSt6vectorIaSaIaEESt4lessIlESaIS0_IKlS5_EEEESt10_Select1stISC_ES6_IiESaISC_EE22_M_emplace_hint_uniqueIJRKSt21piecewise_construct_tSt5tupleIJRS1_EESM_IJEEEEESt17_Rb_tree_iteratorISC_ESt23_Rb_tree_const_iteratorISC_EDpOT_
FN:2452,_ZNSt8_Rb_treeIiSt4pairIKiiESt10_Select1stIS2_ESt4lessIiESaIS2_EE22_M_emplace_hint_uniqueIJRKSt21piecewise_construct_tSt5tupleIJOiEESD_IJEEEEESt17_Rb_tree_iteratorIS2_ESt23_Rb_tree_const_iteratorIS2_EDpOT_
FNDA:0,_ZNSt8_Rb_treeIiSt4pairIKiiESt10_Select1stIS2_ESt4lessIiESaIS2_EE22_M_emplace_hint_uniqueIJRKSt21piecewise_construct_tSt5tupleIJOiEESD_IJEEEEESt17_Rb_tree_iteratorIS2_ESt23_Rb_tree_const_iteratorIS2_EDpOT_
FN:2554,_ZNSt8_Rb_treeIlSt4pairIKlSt6vectorIaSaIaEEESt10_Select1stIS5_ESt4lessIlESaIS5_EE4findERS1_
FNDA:0,_ZNSt8_Rb_treeIlSt4pairIKlSt6vectorIaSaIaEEESt10_Select1stIS5_ESt4lessIlESaIS5_EE4findERS1_
FN:2554,_ZNSt8_Rb_treeIiSt4pairIKiSt3mapIlSt6vectorIaSaIaEESt4lessIlESaIS0_IKlS5_EEEESt10_Select1stISC_ES6_IiESaISC_EE4findERS1_
FNDA:0,_ZNSt8_Rb_treeIiSt4pairIKiSt3mapIlSt6vectorIaSaIaEESt4lessIlESaIS0_IKlS5_EEEESt10_Select1stISC_ES6_IiESaISC_EE4findERS1_
DA:112,0
DA:114,0
DA:115,0
DA:126,0
DA:128,0
DA:129,0
DA:146,0
DA:150,0
DA:146,0
DA:150,0
DA:152,0
DA:154,0
DA:173,0
DA:174,0
DA:175,0
DA:176,0
DA:177,0
DA:206,0
DA:208,0
DA:209,0
DA:210,0
DA:211,0
DA:212,0
DA:234,0
DA:235,0
DA:234,0
DA:235,0
DA:234,0
DA:235,0
DA:238,0
DA:239,0
DA:238,0
DA:239,0
DA:238,0
DA:239,0
DA:269,0
DA:270,0
DA:269,0
DA:270,0
DA:273,0
DA:274,0
DA:273,0
DA:274,0
DA:273,0
DA:274,0
DA:277,0
DA:278,0
DA:277,0
DA:278,0
DA:277,0
DA:278,0
DA:281,0
DA:282,0
DA:281,0
DA:282,0
DA:281,0
DA:282,0
DA:285,0
DA:287,0
DA:288,0
DA:285,0
DA:287,0
DA:288,0
DA:285,0
DA:287,0
DA:288,0
DA:292,0
DA:294,0
DA:295,0
DA:296,0
DA:292,0
DA:294,0
DA:295,0
DA:296,0
DA:292,0
DA:294,0
DA:295,0
DA:296,0
DA:300,0
DA:302,0
DA:303,0
DA:300,0
DA:302,0
DA:303,0
DA:300,0
DA:302,0
DA:303,0
DA:315,0
DA:316,0
DA:315,0
DA:316,0
DA:315,0
DA:316,0
DA:319,0
DA:320,0
DA:319,0
DA:320,0
DA:319,0
DA:320,0
DA:348,0
DA:349,0
DA:348,0
DA:349,0
DA:348,0
DA:349,0
DA:352,0
DA:353,0
DA:352,0
DA:353,0
DA:352,0
DA:353,0
DA:454,0
DA:455,0
DA:457,0
DA:459,0
DA:461,0
DA:462,0
DA:465,0
DA:466,0
DA:454,0
DA:455,0
DA:457,0
DA:459,0
DA:461,0
DA:462,0
DA:465,0
DA:466,0
DA:472,0
DA:473,0
DA:472,0
DA:473,0
DA:480,0
DA:483,0
DA:484,0
DA:486,0
DA:487,0
DA:488,0
DA:491,0
DA:480,0
DA:483,0
DA:484,0
DA:486,0
DA:487,0
DA:488,0
DA:491,0
DA:496,0
DA:498,0
DA:499,0
DA:501,0
DA:502,0
DA:503,0
DA:505,0
DA:507,0
DA:509,0
DA:511,0
DA:513,0
DA:514,0
DA:516,0
DA:517,0
DA:521,0
DA:524,0
DA:526,0
DA:496,0
DA:498,0
DA:499,0
DA:501,0
DA:502,0
DA:503,0
DA:505,0
DA:507,0
DA:509,0
DA:511,0
DA:513,0
DA:514,0
DA:516,0
DA:517,0
DA:521,0
DA:524,0
DA:526,0
DA:538,0
DA:539,0
DA:546,0
DA:548,0
DA:566,0
DA:567,0
DA:566,0
DA:567,0
DA:566,0
DA:567,0
DA:579,0
DA:580,0
DA:579,0
DA:580,0
DA:579,0
DA:580,0
DA:583,0
DA:584,0
DA:583,0
DA:584,0
DA:583,0
DA:584,0
DA:609,0
DA:613,0
DA:614,0
DA:618,0
DA:620,0
DA:621,0
DA:622,0
DA:624,0
DA:609,0
DA:613,0
DA:614,0
DA:618,0
DA:620,0
DA:621,0
DA:622,0
DA:624,0
DA:609,0
DA:613,0
DA:614,0
DA:618,0
DA:620,0
DA:621,0
DA:622,0
DA:624,0
DA:609,0
DA:613,0
DA:614,0
DA:618,0
DA:620,0
DA:621,0
DA:622,0
DA:624,0
DA:609,0
DA:613,0
DA:614,0
DA:618,0
DA:620,0
DA:621,0
DA:622,0
DA:624,0
DA:628,0
DA:630,0
DA:631,0
DA:632,0
DA:628,0
DA:630,0
DA:631,0
DA:632,0
DA:628,0
DA:630,0
DA:631,0
DA:632,0
DA:628,0
DA:630,0
DA:631,0
DA:632,0
DA:628,0
DA:630,0
DA:631,0
DA:632,0
DA:637,0
DA:642,0
DA:643,0
DA:645,0
DA:637,0
DA:642,0
DA:643,0
DA:645,0
DA:637,0
DA:642,0
DA:643,0
DA:645,0
DA:648,0
DA:650,0
DA:651,0
DA:652,0
DA:648,0
DA:650,0
DA:651,0
DA:652,0
DA:648,0
DA:650,0
DA:651,0
DA:652,0
DA:656,0
DA:658,0
DA:659,0
DA:660,0
DA:661,0
DA:662,0
DA:680,0
DA:684,0
DA:685,0
DA:680,0
DA:684,0
DA:685,0
DA:687,0
DA:689,0
DA:690,0
DA:720,0
DA:721,0
DA:720,0
DA:721,0
DA:724,0
DA:725,0
DA:728,0
DA:729,0
DA:728,0
DA:729,0
DA:728,0
DA:729,0
DA:736,0
DA:737,0
DA:736,0
DA:737,0
DA:736,0
DA:737,0
DA:744,0
DA:745,0
DA:744,0
DA:745,0
DA:744,0
DA:745,0
DA:748,0
DA:751,0
DA:755,0
DA:756,0
DA:755,0
DA:756,0
DA:755,0
DA:756,0
DA:767,0
DA:785,0
DA:767,0
DA:785,0
DA:767,0
DA:785,0
DA:789,0
DA:790,0
DA:789,0
DA:790,0
DA:789,0
DA:790,0
DA:793,0
DA:794,0
DA:797,0
DA:798,0
DA:797,0
DA:798,0
DA:797,0
DA:798,0
DA:801,0
DA:802,0
DA:809,0
DA:810,0
DA:809,0
DA:810,0
DA:809,0
DA:810,0
DA:813,0
DA:814,0
DA:821,0
DA:822,0
DA:899,0
DA:901,0
DA:902,0
DA:903,0
DA:904,0
DA:905,0
DA:909,0
DA:911,0
DA:912,0
DA:939,0
DA:939,0
DA:946,0
DA:947,0
DA:949,0
DA:950,0
DA:951,0
DA:994,0
DA:995,0
DA:994,0
DA:995,0
DA:1002,0
DA:1003,0
DA:1002,0
DA:1003,0
DA:1002,0
DA:1003,0
DA:1006,0
DA:1007,0
DA:1006,0
DA:1007,0
DA:1006,0
DA:1007,0
DA:1014,0
DA:1015,0
DA:1014,0
DA:1015,0
DA:1014,0
DA:1015,0
DA:1038,0
DA:1039,0
DA:1042,0
DA:1043,0
DA:1042,0
DA:1043,0
DA:1042,0
DA:1043,0
DA:1281,0
DA:1282,0
DA:1281,0
DA:1282,0
DA:1281,0
DA:1282,0
DA:1731,0
DA:1734,0
DA:1735,0
DA:1736,0
DA:1737,0
DA:1738,0
DA:1731,0
DA:1734,0
DA:1735,0
DA:1736,0
DA:1737,0
DA:1738,0
DA:1797,0
DA:1806,0
DA:1807,0
DA:1810,0
DA:1812,0
DA:1813,0
DA:1814,0
DA:1815,0
DA:1797,0
DA:1806,0
DA:1807,0
DA:1810,0
DA:1812,0
DA:1813,0
DA:1814,0
DA:1815,0
DA:1871,0
DA:1875,0
DA:1876,0
DA:1880,0
DA:1881,0
DA:1882,0
DA:1883,0
DA:1885,0
DA:1887,0
DA:1888,0
DA:1889,0
DA:1890,0
DA:1891,0
DA:1892,0
DA:1893,0
DA:1896,0
DA:1898,0
DA:1899,0
DA:1901,0
DA:1907,0
DA:1911,0
DA:1913,0
DA:1914,0
DA:1915,0
DA:1916,0
DA:1918,0
DA:1907,0
DA:1911,0
DA:1913,0
DA:1914,0
DA:1915,0
DA:1916,0
DA:1918,0
DA:1907,0
DA:1911,0
DA:1913,0
DA:1914,0
DA:1915,0
DA:1916,0
DA:1918,0
DA:1924,0
DA:1928,0
DA:1929,0
DA:1930,0
DA:1932,0
DA:1933,0
DA:1924,0
DA:1928,0
DA:1929,0
DA:1930,0
DA:1932,0
DA:1933,0
DA:1924,0
DA:1928,0
DA:1929,0
DA:1930,0
DA:1932,0
DA:1933,0
DA:2085,0
DA:2089,0
DA:2090,0
DA:2091,0
DA:2092,0
DA:2094,0
DA:2095,0
DA:2096,0
DA:2098,0
DA:2099,0
DA:2101,0
DA:2102,0
DA:2104,0
DA:2106,0
DA:2107,0
DA:2108,0
DA:2085,0
DA:2089,0
DA:2090,0
DA:2091,0
DA:2092,0
DA:2094,0
DA:2095,0
DA:2096,0
DA:2098,0
DA:2099,0
DA:2101,0
DA:2102,0
DA:2104,0
DA:2106,0
DA:2107,0
DA:2108,0
DA:2085,0
DA:2089,0
DA:2090,0
DA:2091,0
DA:2092,0
DA:2094,0
DA:2095,0
DA:2096,0
DA:2098,0
DA:2099,0
DA:2101,0
DA:2102,0
DA:2104,0
DA:2106,0
DA:2107,0
DA:2108,0
DA:2187,0
DA:2191,0
DA:2195,0
DA:2197,0
DA:2198,0
DA:2199,0
DA:2201,0
DA:2203,0
DA:2206,0
DA:2207,0
DA:2208,0
DA:2209,0
DA:2211,0
DA:2212,0
DA:2214,0
DA:2217,0
DA:2219,0
DA:2222,0
DA:2223,0
DA:2224,0
DA:2225,0
DA:2227,0
DA:2228,0
DA:2230,0
DA:2233,0
DA:2237,0
DA:2187,0
DA:2191,0
DA:2195,0
DA:2197,0
DA:2198,0
DA:2199,0
DA:2201,0
DA:2203,0
DA:2206,0
DA:2207,0
DA:2208,0
DA:2209,0
DA:2211,0
DA:2212,0
DA:2214,0
DA:2217,0
DA:2219,0
DA:2222,0
DA:2223,0
DA:2224,0
DA:2225,0
DA:2227,0
DA:2228,0
DA:2230,0
DA:2233,0
DA:2237,0
DA:2187,0
DA:2191,0
DA:2195,0
DA:2197,0
DA:2198,0
DA:2199,0
DA:2201,0
DA:2203,0
DA:2206,0
DA:2207,0
DA:2208,0
DA:2209,0
DA:2211,0
DA:2212,0
DA:2214,0
DA:2217,0
DA:2219,0
DA:2222,0
DA:2223,0
DA:2224,0
DA:2225,0
DA:2227,0
DA:2228,0
DA:2230,0
DA:2233,0
DA:2237,0
DA:2248,0
DA:2257,0
DA:2258,0
DA:2260,0
DA:2263,0
DA:2264,0
DA:2248,0
DA:2257,0
DA:2258,0
DA:2260,0
DA:2263,0
DA:2264,0
DA:2354,0
DA:2357,0
DA:2358,0
DA:2361,0
DA:2362,0
DA:2363,0
DA:2364,0
DA:2354,0
DA:2357,0
DA:2358,0
DA:2361,0
DA:2362,0
DA:2363,0
DA:2364,0
DA:2354,0
DA:2357,0
DA:2358,0
DA:2361,0
DA:2362,0
DA:2363,0
DA:2364,0
DA:2452,0
DA:2455,0
DA:2459,0
DA:2461,0
DA:2462,0
DA:2464,0
DA:2465,0
DA:2467,0
DA:2469,0
DA:2470,0
DA:2452,0
DA:2455,0
DA:2459,0
DA:2461,0
DA:2462,0
DA:2464,0
DA:2465,0
DA:2467,0
DA:2469,0
DA:2470,0
DA:2452,0
DA:2455,0
DA:2459,0
DA:2461,0
DA:2462,0
DA:2464,0
DA:2465,0
DA:2467,0
DA:2469,0
DA:2470,0
DA:2554,0
DA:2557,0
DA:2558,0
DA:2559,0
DA:2560,0
DA:2554,0
DA:2557,0
DA:2558,0
DA:2559,0
DA:2560,0
end_of_record
SF:/usr/include/c++/9/bits/alloc_traits.h
FN:443,_ZNSt16allocator_traitsISaISt6threadEE8allocateERS1_m
FNDA:0,_ZNSt16allocator_traitsISaISt6threadEE8allocateERS1_m
FN:443,_ZNSt16allocator_traitsISaIPP9nnode_t_tEE8allocateERS3_m
FNDA:0,_ZNSt16allocator_traitsISaIPP9nnode_t_tEE8allocateERS3_m
FN:443,_ZNSt16allocator_traitsISaISt13_Rb_tree_nodeISt4pairIKiiEEEE8allocateERS5_m
FNDA:0,_ZNSt16allocator_traitsISaISt13_Rb_tree_nodeISt4pairIKiiEEEE8allocateERS5_m
FN:443,_ZNSt16allocator_traitsISaISt13_Rb_tree_nodeISt4pairIKiSt3mapIlSt6vectorIaSaIaEESt4lessIlESaIS1_IKlS6_EEEEEEE8allocateERSF_m
FNDA:0,_ZNSt16allocator_traitsISaISt13_Rb_tree_nodeISt4pairIKiSt3mapIlSt6vectorIaSaIaEESt4lessIlESaIS1_IKlS6_EEEEEEE8allocateERSF_m
FN:443,_ZNSt16allocator_traitsISaINSt8__detail10_Hash_nodeIP9nnode_t_tLb0EEEEE8allocateERS5_m
FNDA:0,_ZNSt16allocator_traitsISaINSt8__detail10_Hash_nodeIP9nnode_t_tLb0EEEEE8allocateERS5_m
FN:443,_ZNSt16allocator_traitsISaINSt7__cxx1112basic_stringIcSt11char_traitsIcESaIcEEEEE8allocateERS6_m
FNDA:0,_ZNSt16allocator_traitsISaINSt7__cxx1112basic_stringIcSt11char_traitsIcESaIcEEEEE8allocateERS6_m
FN:443,_ZNSt16allocator_traitsISaIP9nnode_t_tEE8allocateERS2_m
FNDA:0,_ZNSt16allocator_traitsISaIP9nnode_t_tEE8allocateERS2_m
FN:443,_ZNSt16allocator_traitsISaINSt8__detail10_Hash_nodeIlLb0EEEEE8allocateERS3_m
FNDA:0,_ZNSt16allocator_traitsISaINSt8__detail10_Hash_nodeIlLb0EEEEE8allocateERS3_m
FN:443,_ZNSt16allocator_traitsISaISt23_Sp_counted_ptr_inplaceI12AtomicBufferSaIS1_ELN9__gnu_cxx12_Lock_policyE2EEEE8allocateERS6_m
FNDA:0,_ZNSt16allocator_traitsISaISt23_Sp_counted_ptr_inplaceI12AtomicBufferSaIS1_ELN9__gnu_cxx12_Lock_policyE2EEEE8allocateERS6_m
FN:443,_ZNSt16allocator_traitsISaISt13_Rb_tree_nodeISt4pairIKlSt6vectorIaSaIaEEEEEE8allocateERS8_m
FNDA:0,_ZNSt16allocator_traitsISaISt13_Rb_tree_nodeISt4pairIKlSt6vectorIaSaIaEEEEEE8allocateERS8_m
FN:443,_ZNSt16allocator_traitsISaINSt8__detail10_Hash_nodeISt4pairIKNSt7__cxx1112basic_stringIcSt11char_traitsIcESaIcEEES8_ELb1EEEEE8allocateERSC_m
FNDA:0,_ZNSt16allocator_traitsISaINSt8__detail10_Hash_nodeISt4pairIKNSt7__cxx1112basic_stringIcSt11char_traitsIcESaIcEEES8_ELb1EEEEE8allocateERSC_m
FN:443,_ZNSt16allocator_traitsISaIaEE8allocateERS0_m
FNDA:0,_ZNSt16allocator_traitsISaIaEE8allocateERS0_m
FN:443,_ZNSt16allocator_traitsISaIPNSt8__detail15_Hash_node_baseEEE8allocateERS3_m
FNDA:0,_ZNSt16allocator_traitsISaIPNSt8__detail15_Hash_node_baseEEE8allocateERS3_m
FN:443,_ZNSt16allocator_traitsISaISt6vectorIaSaIaEEEE8allocateERS3_m
FNDA:0,_ZNSt16allocator_traitsISaISt6vectorIaSaIaEEEE8allocateERS3_m
FN:469,_ZNSt16allocator_traitsISaIPNSt8__detail15_Hash_node_baseEEE10deallocateERS3_PS2_m
FNDA:0,_ZNSt16allocator_traitsISaIPNSt8__detail15_Hash_node_baseEEE10deallocateERS3_PS2_m
FN:469,_ZNSt16allocator_traitsISaISt13_Rb_tree_nodeISt4pairIKiSt3mapIlSt6vectorIaSaIaEESt4lessIlESaIS1_IKlS6_EEEEEEE10deallocateERSF_PSE_m
FNDA:0,_ZNSt16allocator_traitsISaISt13_Rb_tree_nodeISt4pairIKiSt3mapIlSt6vectorIaSaIaEESt4lessIlESaIS1_IKlS6_EEEEEEE10deallocateERSF_PSE_m
FN:469,_ZNSt16allocator_traitsISaISt13_Rb_tree_nodeISt4pairIKlSt6vectorIaSaIaEEEEEE10deallocateERS8_PS7_m
FNDA:0,_ZNSt16allocator_traitsISaISt13_Rb_tree_nodeISt4pairIKlSt6vectorIaSaIaEEEEEE10deallocateERS8_PS7_m
FN:469,_ZNSt16allocator_traitsISaISt13_Rb_tree_nodeISt4pairIKiiEEEE10deallocateERS5_PS4_m
FNDA:0,_ZNSt16allocator_traitsISaISt13_Rb_tree_nodeISt4pairIKiiEEEE10deallocateERS5_PS4_m
FN:469,_ZNSt16allocator_traitsISaIaEE10deallocateERS0_Pam
FNDA:0,_ZNSt16allocator_traitsISaIaEE10deallocateERS0_Pam
FN:469,_ZNSt16allocator_traitsISaIP9nnode_t_tEE10deallocateERS2_PS1_m
FNDA:0,_ZNSt16allocator_traitsISaIP9nnode_t_tEE10deallocateERS2_PS1_m
FN:469,_ZNSt16allocator_traitsISaINSt7__cxx1112basic_stringIcSt11char_traitsIcESaIcEEEEE10deallocateERS6_PS5_m
FNDA:0,_ZNSt16allocator_traitsISaINSt7__cxx1112basic_stringIcSt11char_traitsIcESaIcEEEEE10deallocateERS6_PS5_m
FN:469,_ZNSt16allocator_traitsISaISt6vectorIaSaIaEEEE10deallocateERS3_PS2_m
FNDA:0,_ZNSt16allocator_traitsISaISt6vectorIaSaIaEEEE10deallocateERS3_PS2_m
FN:469,_ZNSt16allocator_traitsISaIPP9nnode_t_tEE10deallocateERS3_PS2_m
FNDA:0,_ZNSt16allocator_traitsISaIPP9nnode_t_tEE10deallocateERS3_PS2_m
FN:469,_ZNSt16allocator_traitsISaISt6threadEE10deallocateERS1_PS0_m
FNDA:0,_ZNSt16allocator_traitsISaISt6threadEE10deallocateERS1_PS0_m
FN:469,_ZNSt16allocator_traitsISaINSt8__detail10_Hash_nodeISt4pairIKNSt7__cxx1112basic_stringIcSt11char_traitsIcESaIcEEES8_ELb1EEEEE10deallocateERSC_PSB_m
FNDA:0,_ZNSt16allocator_traitsISaINSt8__detail10_Hash_nodeISt4pairIKNSt7__cxx1112basic_stringIcSt11char_traitsIcESaIcEEES8_ELb1EEEEE10deallocateERSC_PSB_m
FN:469,_ZNSt16allocator_traitsISaISt23_Sp_counted_ptr_inplaceI12AtomicBufferSaIS1_ELN9__gnu_cxx12_Lock_policyE2EEEE10deallocateERS6_PS5_m
FNDA:0,_ZNSt16allocator_traitsISaISt23_Sp_counted_ptr_inplaceI12AtomicBufferSaIS1_ELN9__gnu_cxx12_Lock_policyE2EEEE10deallocateERS6_PS5_m
FN:469,_ZNSt16allocator_traitsISaINSt8__detail10_Hash_nodeIP9nnode_t_tLb0EEEEE10deallocateERS5_PS4_m
FNDA:0,_ZNSt16allocator_traitsISaINSt8__detail10_Hash_nodeIP9nnode_t_tLb0EEEEE10deallocateERS5_PS4_m
FN:469,_ZNSt16allocator_traitsISaINSt8__detail10_Hash_nodeIlLb0EEEEE10deallocateERS3_PS2_m
FNDA:0,_ZNSt16allocator_traitsISaINSt8__detail10_Hash_nodeIlLb0EEEEE10deallocateERS3_PS2_m
FN:482,_ZNSt16allocator_traitsISaI12AtomicBufferEE9constructIS0_JaEEEvRS1_PT_DpOT0_
FNDA:0,_ZNSt16allocator_traitsISaI12AtomicBufferEE9constructIS0_JaEEEvRS1_PT_DpOT0_
FN:482,_ZNSt16allocator_traitsISaISt13_Rb_tree_nodeISt4pairIKlSt6vectorIaSaIaEEEEEE9constructIS6_JRKSt21piecewise_construct_tSt5tupleIJRS2_EESE_IJEEEEEvRS8_PT_DpOT0_
FNDA:0,_ZNSt16allocator_traitsISaISt13_Rb_tree_nodeISt4pairIKlSt6vectorIaSaIaEEEEEE9constructIS6_JRKSt21piecewise_construct_tSt5tupleIJRS2_EESE_IJEEEEEvRS8_PT_DpOT0_
FN:482,_ZNSt16allocator_traitsISaINSt8__detail10_Hash_nodeISt4pairIKNSt7__cxx1112basic_stringIcSt11char_traitsIcESaIcEEES8_ELb1EEEEE9constructISA_JSA_EEEvRSC_PT_DpOT0_
FNDA:0,_ZNSt16allocator_traitsISaINSt8__detail10_Hash_nodeISt4pairIKNSt7__cxx1112basic_stringIcSt11char_traitsIcESaIcEEES8_ELb1EEEEE9constructISA_JSA_EEEvRSC_PT_DpOT0_
FN:482,_ZNSt16allocator_traitsISaIP9nnode_t_tEE9constructIS1_JRKS1_EEEvRS2_PT_DpOT0_
FNDA:0,_ZNSt16allocator_traitsISaIP9nnode_t_tEE9constructIS1_JRKS1_EEEvRS2_PT_DpOT0_
FN:482,_ZNSt16allocator_traitsISaISt13_Rb_tree_nodeISt4pairIKiSt3mapIlSt6vectorIaSaIaEESt4lessIlESaIS1_IKlS6_EEEEEEE9constructISD_JRKSt21piecewise_construct_tSt5tupleIJRS2_EESL_IJEEEEEvRSF_PT_DpOT0_
FNDA:0,_ZNSt16allocator_traitsISaISt13_Rb_tree_nodeISt4pairIKiSt3mapIlSt6vectorIaSaIaEESt4lessIlESaIS1_IKlS6_EEEEEEE9constructISD_JRKSt21piecewise_construct_tSt5tupleIJRS2_EESL_IJEEEEEvRSF_PT_DpOT0_
FN:482,_ZNSt16allocator_traitsISaISt6threadEE9constructIS0_JS0_EEEvRS1_PT_DpOT0_
FNDA:0,_ZNSt16allocator_traitsISaISt6threadEE9constructIS0_JS0_EEEvRS1_PT_DpOT0_
FN:482,_ZNSt16allocator_traitsISaISt13_Rb_tree_nodeISt4pairIKiiEEEE9constructIS3_JRKSt21piecewise_construct_tSt5tupleIJOiEESB_IJEEEEEvRS5_PT_DpOT0_
FNDA:0,_ZNSt16allocator_traitsISaISt13_Rb_tree_nodeISt4pairIKiiEEEE9constructIS3_JRKSt21piecewise_construct_tSt5tupleIJOiEESB_IJEEEEEvRS5_PT_DpOT0_
FN:482,_ZNSt16allocator_traitsISaISt13_Rb_tree_nodeISt4pairIKlSt6vectorIaSaIaEEEEEE9constructIS6_JRKS6_EEEvRS8_PT_DpOT0_
FNDA:0,_ZNSt16allocator_traitsISaISt13_Rb_tree_nodeISt4pairIKlSt6vectorIaSaIaEEEEEE9constructIS6_JRKS6_EEEvRS8_PT_DpOT0_
FN:482,_ZNSt16allocator_traitsISaINSt8__detail10_Hash_nodeIP9nnode_t_tLb0EEEEE9constructIS3_JRKS3_EEEvRS5_PT_DpOT0_
FNDA:0,_ZNSt16allocator_traitsISaINSt8__detail10_Hash_nodeIP9nnode_t_tLb0EEEEE9constructIS3_JRKS3_EEEvRS5_PT_DpOT0_
FN:482,_ZNSt16allocator_traitsISaISt13_Rb_tree_nodeISt4pairIKiSt3mapIlSt6vectorIaSaIaEESt4lessIlESaIS1_IKlS6_EEEEEEE9constructISD_JRKSD_EEEvRSF_PT_DpOT0_
FNDA:0,_ZNSt16allocator_traitsISaISt13_Rb_tree_nodeISt4pairIKiSt3mapIlSt6vectorIaSaIaEESt4lessIlESaIS1_IKlS6_EEEEEEE9constructISD_JRKSD_EEEvRSF_PT_DpOT0_
FN:482,_ZNSt16allocator_traitsISaINSt8__detail10_Hash_nodeIlLb0EEEEE9constructIlJRKlEEEvRS3_PT_DpOT0_
FNDA:0,_ZNSt16allocator_traitsISaINSt8__detail10_Hash_nodeIlLb0EEEEE9constructIlJRKlEEEvRS3_PT_DpOT0_
FN:495,_ZNSt16allocator_traitsISaI12AtomicBufferEE7destroyIS0_EEvRS1_PT_
FNDA:0,_ZNSt16allocator_traitsISaI12AtomicBufferEE7destroyIS0_EEvRS1_PT_
FN:495,_ZNSt16allocator_traitsISaISt6threadEE7destroyIS0_EEvRS1_PT_
FNDA:0,_ZNSt16allocator_traitsISaISt6threadEE7destroyIS0_EEvRS1_PT_
FN:495,_ZNSt16allocator_traitsISaISt13_Rb_tree_nodeISt4pairIKlSt6vectorIaSaIaEEEEEE7destroyIS6_EEvRS8_PT_
FNDA:0,_ZNSt16allocator_traitsISaISt13_Rb_tree_nodeISt4pairIKlSt6vectorIaSaIaEEEEEE7destroyIS6_EEvRS8_PT_
FN:495,_ZNSt16allocator_traitsISaIP9nnode_t_tEE7destroyIS1_EEvRS2_PT_
FNDA:0,_ZNSt16allocator_traitsISaIP9nnode_t_tEE7destroyIS1_EEvRS2_PT_
FN:495,_ZNSt16allocator_traitsISaINSt8__detail10_Hash_nodeIP9nnode_t_tLb0EEEEE7destroyIS3_EEvRS5_PT_
FNDA:0,_ZNSt16allocator_traitsISaINSt8__detail10_Hash_nodeIP9nnode_t_tLb0EEEEE7destroyIS3_EEvRS5_PT_
FN:495,_ZNSt16allocator_traitsISaISt13_Rb_tree_nodeISt4pairIKiiEEEE7destroyIS3_EEvRS5_PT_
FNDA:0,_ZNSt16allocator_traitsISaISt13_Rb_tree_nodeISt4pairIKiiEEEE7destroyIS3_EEvRS5_PT_
FN:495,_ZNSt16allocator_traitsISaINSt8__detail10_Hash_nodeIlLb0EEEEE7destroyIlEEvRS3_PT_
FNDA:0,_ZNSt16allocator_traitsISaINSt8__detail10_Hash_nodeIlLb0EEEEE7destroyIlEEvRS3_PT_
FN:495,_ZNSt16allocator_traitsISaISt13_Rb_tree_nodeISt4pairIKiSt3mapIlSt6vectorIaSaIaEESt4lessIlESaIS1_IKlS6_EEEEEEE7destroyISD_EEvRSF_PT_
FNDA:0,_ZNSt16allocator_traitsISaISt13_Rb_tree_nodeISt4pairIKiSt3mapIlSt6vectorIaSaIaEESt4lessIlESaIS1_IKlS6_EEEEEEE7destroyISD_EEvRSF_PT_
FN:495,_ZNSt16allocator_traitsISaINSt8__detail10_Hash_nodeISt4pairIKNSt7__cxx1112basic_stringIcSt11char_traitsIcESaIcEEES8_ELb1EEEEE7destroyISA_EEvRSC_PT_
FNDA:0,_ZNSt16allocator_traitsISaINSt8__detail10_Hash_nodeISt4pairIKNSt7__cxx1112basic_stringIcSt11char_traitsIcESaIcEEES8_ELb1EEEEE7destroyISA_EEvRSC_PT_
FN:505,_ZNSt16allocator_traitsISaISt6vectorIaSaIaEEEE8max_sizeERKS3_
FNDA:0,_ZNSt16allocator_traitsISaISt6vectorIaSaIaEEEE8max_sizeERKS3_
FN:505,_ZNSt16allocator_traitsISaISt6threadEE8max_sizeERKS1_
FNDA:0,_ZNSt16allocator_traitsISaISt6threadEE8max_sizeERKS1_
FN:505,_ZNSt16allocator_traitsISaIaEE8max_sizeERKS0_
FNDA:0,_ZNSt16allocator_traitsISaIaEE8max_sizeERKS0_
FN:505,_ZNSt16allocator_traitsISaIP9nnode_t_tEE8max_sizeERKS2_
FNDA:0,_ZNSt16allocator_traitsISaIP9nnode_t_tEE8max_sizeERKS2_
FN:514,_ZNSt16allocator_traitsISaIcEE37select_on_container_copy_constructionERKS0_
FNDA:0,_ZNSt16allocator_traitsISaIcEE37select_on_container_copy_constructionERKS0_
FN:514,_ZNSt16allocator_traitsISaISt13_Rb_tree_nodeISt4pairIKlSt6vectorIaSaIaEEEEEE37select_on_container_copy_constructionERKS8_
FNDA:0,_ZNSt16allocator_traitsISaISt13_Rb_tree_nodeISt4pairIKlSt6vectorIaSaIaEEEEEE37select_on_container_copy_constructionERKS8_
FN:514,_ZNSt16allocator_traitsISaIaEE37select_on_container_copy_constructionERKS0_
FNDA:0,_ZNSt16allocator_traitsISaIaEE37select_on_container_copy_constructionERKS0_
FN:514,_ZNSt16allocator_traitsISaINSt7__cxx1112basic_stringIcSt11char_traitsIcESaIcEEEEE37select_on_container_copy_constructionERKS6_
FNDA:0,_ZNSt16allocator_traitsISaINSt7__cxx1112basic_stringIcSt11char_traitsIcESaIcEEEEE37select_on_container_copy_constructionERKS6_
FN:526,_ZSt18__do_alloc_on_copyISaIaEEvRT_RKS1_St17integral_constantIbLb0EE
FNDA:0,_ZSt18__do_alloc_on_copyISaIaEEvRT_RKS1_St17integral_constantIbLb0EE
FN:530,_ZSt15__alloc_on_copyISaIaEEvRT_RKS1_
FNDA:0,_ZSt15__alloc_on_copyISaIaEEvRT_RKS1_
FN:545,_ZSt18__do_alloc_on_moveISaISt6vectorIaSaIaEEEEvRT_S5_St17integral_constantIbLb1EE
FNDA:0,_ZSt18__do_alloc_on_moveISaISt6vectorIaSaIaEEEEvRT_S5_St17integral_constantIbLb1EE
FN:553,_ZSt15__alloc_on_moveISaISt6vectorIaSaIaEEEEvRT_S5_
FNDA:0,_ZSt15__alloc_on_moveISaISt6vectorIaSaIaEEEEvRT_S5_
DA:443,0
DA:444,0
DA:443,0
DA:444,0
DA:443,0
DA:444,0
DA:443,0
DA:444,0
DA:443,0
DA:444,0
DA:443,0
DA:444,0
DA:443,0
DA:444,0
DA:443,0
DA:444,0
DA:443,0
DA:444,0
DA:443,0
DA:444,0
DA:443,0
DA:444,0
DA:443,0
DA:444,0
DA:443,0
DA:444,0
DA:443,0
DA:444,0
DA:469,0
DA:470,0
DA:469,0
DA:470,0
DA:469,0
DA:470,0
DA:469,0
DA:470,0
DA:469,0
DA:470,0
DA:469,0
DA:470,0
DA:469,0
DA:470,0
DA:469,0
DA:470,0
DA:469,0
DA:470,0
DA:469,0
DA:470,0
DA:469,0
DA:470,0
DA:469,0
DA:470,0
DA:469,0
DA:470,0
DA:469,0
DA:470,0
DA:482,0
DA:484,0
DA:482,0
DA:484,0
DA:482,0
DA:484,0
DA:482,0
DA:484,0
DA:482,0
DA:484,0
DA:482,0
DA:484,0
DA:482,0
DA:484,0
DA:482,0
DA:484,0
DA:482,0
DA:484,0
DA:482,0
DA:484,0
DA:482,0
DA:484,0
DA:495,0
DA:497,0
DA:495,0
DA:497,0
DA:495,0
DA:497,0
DA:495,0
DA:497,0
DA:495,0
DA:497,0
DA:495,0
DA:497,0
DA:495,0
DA:497,0
DA:495,0
DA:497,0
DA:495,0
DA:497,0
DA:505,0
DA:506,0
DA:505,0
DA:506,0
DA:505,0
DA:506,0
DA:505,0
DA:506,0
DA:514,0
DA:515,0
DA:514,0
DA:515,0
DA:514,0
DA:515,0
DA:514,0
DA:515,0
DA:526,0
DA:527,0
DA:530,0
DA:534,0
DA:535,0
DA:545,0
DA:546,0
DA:553,0
DA:557,0
DA:558,0
end_of_record
SF:/usr/include/c++/9/bits/stl_map.h
FN:183,_ZNSt3mapIlSt6vectorIaSaIaEESt4lessIlESaISt4pairIKlS2_EEEC2Ev
FNDA:0,_ZNSt3mapIlSt6vectorIaSaIaEESt4lessIlESaISt4pairIKlS2_EEEC2Ev
FN:183,_ZNSt3mapIiiSt4lessIiESaISt4pairIKiiEEEC2Ev
FNDA:0,_ZNSt3mapIiiSt4lessIiESaISt4pairIKiiEEEC2Ev
FN:205,_ZNSt3mapIlSt6vectorIaSaIaEESt4lessIlESaISt4pairIKlS2_EEEC2ERKS9_
FNDA:0,_ZNSt3mapIlSt6vectorIaSaIaEESt4lessIlESaISt4pairIKlS2_EEEC2ERKS9_
FN:300,_ZNSt3mapIlSt6vectorIaSaIaEESt4lessIlESaISt4pairIKlS2_EEED2Ev
FNDA:0,_ZNSt3mapIlSt6vectorIaSaIaEESt4lessIlESaISt4pairIKlS2_EEED2Ev
FN:300,_ZNSt3mapIiiSt4lessIiESaISt4pairIKiiEEED2Ev
FNDA:0,_ZNSt3mapIiiSt4lessIiESaISt4pairIKiiEEED2Ev
FN:335,_ZNSt3mapIiS_IlSt6vectorIaSaIaEESt4lessIlESaISt4pairIKlS2_EEES3_IiESaIS5_IKiS9_EEEaSESt16initializer_listISC_E
FNDA:0,_ZNSt3mapIiS_IlSt6vectorIaSaIaEESt4lessIlESaISt4pairIKlS2_EEES3_IiESaIS5_IKiS9_EEEaSESt16initializer_listISC_E
FN:335,_ZNSt3mapIlSt6vectorIaSaIaEESt4lessIlESaISt4pairIKlS2_EEEaSESt16initializer_listIS7_E
FNDA:0,_ZNSt3mapIlSt6vectorIaSaIaEESt4lessIlESaISt4pairIKlS2_EEEaSESt16initializer_listIS7_E
FN:354,_ZNSt3mapIiiSt4lessIiESaISt4pairIKiiEEE5beginEv
FNDA:0,_ZNSt3mapIiiSt4lessIiESaISt4pairIKiiEEE5beginEv
FN:354,_ZNSt3mapIlSt6vectorIaSaIaEESt4lessIlESaISt4pairIKlS2_EEE5beginEv
FNDA:0,_ZNSt3mapIlSt6vectorIaSaIaEESt4lessIlESaISt4pairIKlS2_EEE5beginEv
FN:354,_ZNSt3mapIiS_IlSt6vectorIaSaIaEESt4lessIlESaISt4pairIKlS2_EEES3_IiESaIS5_IKiS9_EEE5beginEv
FNDA:0,_ZNSt3mapIiS_IlSt6vectorIaSaIaEESt4lessIlESaISt4pairIKlS2_EEES3_IiESaIS5_IKiS9_EEE5beginEv
FN:372,_ZNSt3mapIiiSt4lessIiESaISt4pairIKiiEEE3endEv
FNDA:0,_ZNSt3mapIiiSt4lessIiESaISt4pairIKiiEEE3endEv
FN:372,_ZNSt3mapIlSt6vectorIaSaIaEESt4lessIlESaISt4pairIKlS2_EEE3endEv
FNDA:0,_ZNSt3mapIlSt6vectorIaSaIaEESt4lessIlESaISt4pairIKlS2_EEE3endEv
FN:372,_ZNSt3mapIiS_IlSt6vectorIaSaIaEESt4lessIlESaISt4pairIKlS2_EEES3_IiESaIS5_IKiS9_EEE3endEv
FNDA:0,_ZNSt3mapIiS_IlSt6vectorIaSaIaEESt4lessIlESaISt4pairIKlS2_EEES3_IiESaIS5_IKiS9_EEE3endEv
FN:463,_ZNKSt3mapIiS_IlSt6vectorIaSaIaEESt4lessIlESaISt4pairIKlS2_EEES3_IiESaIS5_IKiS9_EEE5emptyEv
FNDA:0,_ZNKSt3mapIiS_IlSt6vectorIaSaIaEESt4lessIlESaISt4pairIKlS2_EEES3_IiESaIS5_IKiS9_EEE5emptyEv
FN:490,_ZNSt3mapIlSt6vectorIaSaIaEESt4lessIlESaISt4pairIKlS2_EEEixERS6_
FNDA:0,_ZNSt3mapIlSt6vectorIaSaIaEESt4lessIlESaISt4pairIKlS2_EEEixERS6_
FN:490,_ZNSt3mapIiS_IlSt6vectorIaSaIaEESt4lessIlESaISt4pairIKlS2_EEES3_IiESaIS5_IKiS9_EEEixERSB_
FNDA:0,_ZNSt3mapIiS_IlSt6vectorIaSaIaEESt4lessIlESaISt4pairIKlS2_EEES3_IiESaIS5_IKiS9_EEEixERSB_
FN:510,_ZNSt3mapIiiSt4lessIiESaISt4pairIKiiEEEixEOi
FNDA:0,_ZNSt3mapIiiSt4lessIiESaISt4pairIKiiEEEixEOi
FN:1141,_ZNKSt3mapIlSt6vectorIaSaIaEESt4lessIlESaISt4pairIKlS2_EEE8key_compEv
FNDA:0,_ZNKSt3mapIlSt6vectorIaSaIaEESt4lessIlESaISt4pairIKlS2_EEE8key_compEv
FN:1141,_ZNKSt3mapIiiSt4lessIiESaISt4pairIKiiEEE8key_compEv
FNDA:0,_ZNKSt3mapIiiSt4lessIiESaISt4pairIKiiEEE8key_compEv
FN:1141,_ZNKSt3mapIiS_IlSt6vectorIaSaIaEESt4lessIlESaISt4pairIKlS2_EEES3_IiESaIS5_IKiS9_EEE8key_compEv
FNDA:0,_ZNKSt3mapIiS_IlSt6vectorIaSaIaEESt4lessIlESaISt4pairIKlS2_EEES3_IiESaIS5_IKiS9_EEE8key_compEv
FN:1168,_ZNSt3mapIlSt6vectorIaSaIaEESt4lessIlESaISt4pairIKlS2_EEE4findERS6_
FNDA:0,_ZNSt3mapIlSt6vectorIaSaIaEESt4lessIlESaISt4pairIKlS2_EEE4findERS6_
FN:1168,_ZNSt3mapIiS_IlSt6vectorIaSaIaEESt4lessIlESaISt4pairIKlS2_EEES3_IiESaIS5_IKiS9_EEE4findERSB_
FNDA:0,_ZNSt3mapIiS_IlSt6vectorIaSaIaEESt4lessIlESaISt4pairIKlS2_EEES3_IiESaIS5_IKiS9_EEE4findERSB_
FN:1257,_ZNSt3mapIiiSt4lessIiESaISt4pairIKiiEEE11lower_boundERS3_
FNDA:0,_ZNSt3mapIiiSt4lessIiESaISt4pairIKiiEEE11lower_boundERS3_
FN:1257,_ZNSt3mapIiS_IlSt6vectorIaSaIaEESt4lessIlESaISt4pairIKlS2_EEES3_IiESaIS5_IKiS9_EEE11lower_boundERSB_
FNDA:0,_ZNSt3mapIiS_IlSt6vectorIaSaIaEESt4lessIlESaISt4pairIKlS2_EEES3_IiESaIS5_IKiS9_EEE11lower_boundERSB_
FN:1257,_ZNSt3mapIlSt6vectorIaSaIaEESt4lessIlESaISt4pairIKlS2_EEE11lower_boundERS6_
FNDA:0,_ZNSt3mapIlSt6vectorIaSaIaEESt4lessIlESaISt4pairIKlS2_EEE11lower_boundERS6_
DA:183,0
DA:183,0
DA:205,0
DA:300,0
DA:300,0
DA:335,0
DA:337,0
DA:338,0
DA:335,0
DA:337,0
DA:338,0
DA:354,0
DA:355,0
DA:354,0
DA:355,0
DA:354,0
DA:355,0
DA:372,0
DA:373,0
DA:372,0
DA:373,0
DA:372,0
DA:373,0
DA:463,0
DA:464,0
DA:490,0
DA:495,0
DA:497,0
DA:499,0
DA:505,0
DA:490,0
DA:495,0
DA:497,0
DA:499,0
DA:505,0
DA:510,0
DA:515,0
DA:517,0
DA:518,0
DA:519,0
DA:521,0
DA:1141,0
DA:1142,0
DA:1141,0
DA:1142,0
DA:1141,0
DA:1142,0
DA:1168,0
DA:1169,0
DA:1168,0
DA:1169,0
DA:1257,0
DA:1258,0
DA:1257,0
DA:1258,0
DA:1257,0
DA:1258,0
end_of_record
SF:/usr/include/c++/9/bits/stl_uninitialized.h
FN:76,_ZNSt20__uninitialized_copyILb0EE13__uninit_copyISt13move_iteratorIPSt6threadES4_EET0_T_S7_S6_
FNDA:0,_ZNSt20__uninitialized_copyILb0EE13__uninit_copyISt13move_iteratorIPSt6threadES4_EET0_T_S7_S6_
FN:76,_ZNSt20__uninitialized_copyILb0EE13__uninit_copyIN9__gnu_cxx17__normal_iteratorIPKNSt7__cxx1112basic_stringIcSt11char_traitsIcESaIcEEESt6vectorIS9_SaIS9_EEEEPS9_EET0_T_SI_SH_
FNDA:0,_ZNSt20__uninitialized_copyILb0EE13__uninit_copyIN9__gnu_cxx17__normal_iteratorIPKNSt7__cxx1112basic_stringIcSt11char_traitsIcESaIcEEESt6vectorIS9_SaIS9_EEEEPS9_EET0_T_SI_SH_
FN:99,_ZNSt20__uninitialized_copyILb1EE13__uninit_copyIPaS2_EET0_T_S4_S3_
FNDA:0,_ZNSt20__uninitialized_copyILb1EE13__uninit_copyIPaS2_EET0_T_S4_S3_
FN:99,_ZNSt20__uninitialized_copyILb1EE13__uninit_copyIN9__gnu_cxx17__normal_iteratorIPKaSt6vectorIaSaIaEEEEPaEET0_T_SC_SB_
FNDA:0,_ZNSt20__uninitialized_copyILb1EE13__uninit_copyIN9__gnu_cxx17__normal_iteratorIPKaSt6vectorIaSaIaEEEEPaEET0_T_SC_SB_
FN:115,_ZSt18uninitialized_copyISt13move_iteratorIPSt6threadES2_ET0_T_S5_S4_
FNDA:0,_ZSt18uninitialized_copyISt13move_iteratorIPSt6threadES2_ET0_T_S5_S4_
FN:115,_ZSt18uninitialized_copyIPaS0_ET0_T_S2_S1_
FNDA:0,_ZSt18uninitialized_copyIPaS0_ET0_T_S2_S1_
FN:115,_ZSt18uninitialized_copyIN9__gnu_cxx17__normal_iteratorIPKaSt6vectorIaSaIaEEEEPaET0_T_SA_S9_
FNDA:0,_ZSt18uninitialized_copyIN9__gnu_cxx17__normal_iteratorIPKaSt6vectorIaSaIaEEEEPaET0_T_SA_S9_
FN:115,_ZSt18uninitialized_copyIN9__gnu_cxx17__normal_iteratorIPKNSt7__cxx1112basic_stringIcSt11char_traitsIcESaIcEEESt6vectorIS7_SaIS7_EEEEPS7_ET0_T_SG_SF_
FNDA:0,_ZSt18uninitialized_copyIN9__gnu_cxx17__normal_iteratorIPKNSt7__cxx1112basic_stringIcSt11char_traitsIcESaIcEEESt6vectorIS7_SaIS7_EEEEPS7_ET0_T_SG_SF_
FN:215,_ZNSt22__uninitialized_fill_nILb0EE15__uninit_fill_nIPSt6vectorIaSaIaEEmS4_EET_S6_T0_RKT1_
FNDA:0,_ZNSt22__uninitialized_fill_nILb0EE15__uninit_fill_nIPSt6vectorIaSaIaEEmS4_EET_S6_T0_RKT1_
FN:238,_ZNSt22__uninitialized_fill_nILb1EE15__uninit_fill_nIPamaEET_S3_T0_RKT1_
FNDA:0,_ZNSt22__uninitialized_fill_nILb1EE15__uninit_fill_nIPamaEET_S3_T0_RKT1_
FN:256,_ZSt20uninitialized_fill_nIPSt6vectorIaSaIaEEmS2_ET_S4_T0_RKT1_
FNDA:0,_ZSt20uninitialized_fill_nIPSt6vectorIaSaIaEEmS2_ET_S4_T0_RKT1_
FN:256,_ZSt20uninitialized_fill_nIPamaET_S1_T0_RKT1_
FNDA:0,_ZSt20uninitialized_fill_nIPamaET_S1_T0_RKT1_
FN:305,_ZSt22__uninitialized_copy_aIPaS0_aET0_T_S2_S1_RSaIT1_E
FNDA:0,_ZSt22__uninitialized_copy_aIPaS0_aET0_T_S2_S1_RSaIT1_E
FN:305,_ZSt22__uninitialized_copy_aIN9__gnu_cxx17__normal_iteratorIPKaSt6vectorIaSaIaEEEEPaaET0_T_SA_S9_RSaIT1_E
FNDA:0,_ZSt22__uninitialized_copy_aIN9__gnu_cxx17__normal_iteratorIPKaSt6vectorIaSaIaEEEEPaaET0_T_SA_S9_RSaIT1_E
FN:305,_ZSt22__uninitialized_copy_aIN9__gnu_cxx17__normal_iteratorIPKNSt7__cxx1112basic_stringIcSt11char_traitsIcESaIcEEESt6vectorIS7_SaIS7_EEEEPS7_S7_ET0_T_SG_SF_RSaIT1_E
FNDA:0,_ZSt22__uninitialized_copy_aIN9__gnu_cxx17__normal_iteratorIPKNSt7__cxx1112basic_stringIcSt11char_traitsIcESaIcEEESt6vectorIS7_SaIS7_EEEEPS7_S7_ET0_T_SG_SF_RSaIT1_E
FN:305,_ZSt22__uninitialized_copy_aISt13move_iteratorIPSt6threadES2_S1_ET0_T_S5_S4_RSaIT1_E
FNDA:0,_ZSt22__uninitialized_copy_aISt13move_iteratorIPSt6threadES2_S1_ET0_T_S5_S4_RSaIT1_E
FN:323,_ZSt34__uninitialized_move_if_noexcept_aIPSt6threadS1_SaIS0_EET0_T_S4_S3_RT1_
FNDA:0,_ZSt34__uninitialized_move_if_noexcept_aIPSt6threadS1_SaIS0_EET0_T_S4_S3_RT1_
FN:382,_ZSt24__uninitialized_fill_n_aIPSt6vectorIaSaIaEEmS2_S2_ET_S4_T0_RKT1_RSaIT2_E
FNDA:0,_ZSt24__uninitialized_fill_n_aIPSt6vectorIaSaIaEEmS2_S2_ET_S4_T0_RKT1_RSaIT2_E
FN:382,_ZSt24__uninitialized_fill_n_aIPamaaET_S1_T0_RKT1_RSaIT2_E
FNDA:0,_ZSt24__uninitialized_fill_n_aIPamaaET_S1_T0_RKT1_RSaIT2_E
FN:905,_ZSt19__relocate_object_aISt6threadS0_SaIS0_EEvPT_PT0_RT1_
FNDA:0,_ZSt19__relocate_object_aISt6threadS0_SaIS0_EEvPT_PT0_RT1_
FN:936,_ZSt14__relocate_a_1IPSt6threadS1_SaIS0_EET0_T_S4_S3_RT1_
FNDA:0,_ZSt14__relocate_a_1IPSt6threadS1_SaIS0_EET0_T_S4_S3_RT1_
FN:958,_ZSt12__relocate_aIPSt6threadS1_SaIS0_EET0_T_S4_S3_RT1_
FNDA:0,_ZSt12__relocate_aIPSt6threadS1_SaIS0_EET0_T_S4_S3_RT1_
DA:76,0
DA:79,0
DA:82,0
DA:83,0
DA:84,0
DA:86,0
DA:88,0
DA:89,0
DA:76,0
DA:79,0
DA:82,0
DA:83,0
DA:84,0
DA:86,0
DA:88,0
DA:89,0
DA:99,0
DA:101,0
DA:99,0
DA:101,0
DA:115,0
DA:134,0
DA:140,0
DA:115,0
DA:134,0
DA:140,0
DA:115,0
DA:134,0
DA:140,0
DA:115,0
DA:134,0
DA:140,0
DA:215,0
DA:218,0
DA:221,0
DA:222,0
DA:223,0
DA:225,0
DA:227,0
DA:228,0
DA:238,0
DA:240,0
DA:256,0
DA:270,0
DA:273,0
DA:256,0
DA:270,0
DA:273,0
DA:305,0
DA:307,0
DA:305,0
DA:307,0
DA:305,0
DA:307,0
DA:305,0
DA:307,0
DA:323,0
DA:329,0
DA:330,0
DA:382,0
DA:384,0
DA:382,0
DA:384,0
DA:905,0
DA:912,0
DA:913,0
DA:914,0
DA:936,0
DA:948,0
DA:949,0
DA:950,0
DA:952,0
DA:958,0
DA:964,0
DA:966,0
end_of_record
SF:/usr/include/c++/9/atomic
FN:80,_ZNSt6atomicIbEaSEb
FNDA:0,_ZNSt6atomicIbEaSEb
FN:120,_ZNSt6atomicIbE8exchangeEbSt12memory_order
FNDA:0,_ZNSt6atomicIbE8exchangeEbSt12memory_order
DA:80,0
DA:81,0
DA:120,0
DA:121,0
end_of_record
SF:/usr/include/c++/9/bits/hashtable.h
FN:342,_ZNKSt10_HashtableIP9nnode_t_tS1_SaIS1_ENSt8__detail9_IdentityESt8equal_toIS1_ESt4hashIS1_ENS3_18_Mod_range_hashingENS3_20_Default_ranged_hashENS3_20_Prime_rehash_policyENS3_17_Hashtable_traitsILb0ELb1ELb1EEEE21_M_uses_single_bucketEPPNS3_15_Hash_node_baseE
FNDA:0,_ZNKSt10_HashtableIP9nnode_t_tS1_SaIS1_ENSt8__detail9_IdentityESt8equal_toIS1_ESt4hashIS1_ENS3_18_Mod_range_hashingENS3_20_Default_ranged_hashENS3_20_Prime_rehash_policyENS3_17_Hashtable_traitsILb0ELb1ELb1EEEE21_M_uses_single_bucketEPPNS3_15_Hash_node_baseE
FN:342,_ZNKSt10_HashtableINSt7__cxx1112basic_stringIcSt11char_traitsIcESaIcEEESt4pairIKS5_S5_ESaIS8_ENSt8__detail10_Select1stESt8equal_toIS5_ESt4hashIS5_ENSA_18_Mod_range_hashingENSA_20_Default_ranged_hashENSA_20_Prime_rehash_policyENSA_17_Hashtable_traitsILb1ELb0ELb1EEEE21_M_uses_single_bucketEPPNSA_15_Hash_node_baseE
FNDA:0,_ZNKSt10_HashtableINSt7__cxx1112basic_stringIcSt11char_traitsIcESaIcEEESt4pairIKS5_S5_ESaIS8_ENSt8__detail10_Select1stESt8equal_toIS5_ESt4hashIS5_ENSA_18_Mod_range_hashingENSA_20_Default_ranged_hashENSA_20_Prime_rehash_policyENSA_17_Hashtable_traitsILb1ELb0ELb1EEEE21_M_uses_single_bucketEPPNSA_15_Hash_node_baseE
FN:342,_ZNKSt10_HashtableIllSaIlENSt8__detail9_IdentityESt8equal_toIlESt4hashIlENS1_18_Mod_range_hashingENS1_20_Default_ranged_hashENS1_20_Prime_rehash_policyENS1_17_Hashtable_traitsILb0ELb1ELb1EEEE21_M_uses_single_bucketEPPNS1_15_Hash_node_baseE
FNDA:0,_ZNKSt10_HashtableIllSaIlENSt8__detail9_IdentityESt8equal_toIlESt4hashIlENS1_18_Mod_range_hashingENS1_20_Default_ranged_hashENS1_20_Prime_rehash_policyENS1_17_Hashtable_traitsILb0ELb1ELb1EEEE21_M_uses_single_bucketEPPNS1_15_Hash_node_baseE
FN:353,_ZNSt10_HashtableINSt7__cxx1112basic_stringIcSt11char_traitsIcESaIcEEESt4pairIKS5_S5_ESaIS8_ENSt8__detail10_Select1stESt8equal_toIS5_ESt4hashIS5_ENSA_18_Mod_range_hashingENSA_20_Default_ranged_hashENSA_20_Prime_rehash_policyENSA_17_Hashtable_traitsILb1ELb0ELb1EEEE19_M_allocate_bucketsEm
FNDA:0,_ZNSt10_HashtableINSt7__cxx1112basic_stringIcSt11char_traitsIcESaIcEEESt4pairIKS5_S5_ESaIS8_ENSt8__detail10_Select1stESt8equal_toIS5_ESt4hashIS5_ENSA_18_Mod_range_hashingENSA_20_Default_ranged_hashENSA_20_Prime_rehash_policyENSA_17_Hashtable_traitsILb1ELb0ELb1EEEE19_M_allocate_bucketsEm
FN:353,_ZNSt10_HashtableIP9nnode_t_tS1_SaIS1_ENSt8__detail9_IdentityESt8equal_toIS1_ESt4hashIS1_ENS3_18_Mod_range_hashingENS3_20_Default_ranged_hashENS3_20_Prime_rehash_policyENS3_17_Hashtable_traitsILb0ELb1ELb1EEEE19_M_allocate_bucketsEm
FNDA:0,_ZNSt10_HashtableIP9nnode_t_tS1_SaIS1_ENSt8__detail9_IdentityESt8equal_toIS1_ESt4hashIS1_ENS3_18_Mod_range_hashingENS3_20_Default_ranged_hashENS3_20_Prime_rehash_policyENS3_17_Hashtable_traitsILb0ELb1ELb1EEEE19_M_allocate_bucketsEm
FN:353,_ZNSt10_HashtableIllSaIlENSt8__detail9_IdentityESt8equal_toIlESt4hashIlENS1_18_Mod_range_hashingENS1_20_Default_ranged_hashENS1_20_Prime_rehash_policyENS1_17_Hashtable_traitsILb0ELb1ELb1EEEE19_M_allocate_bucketsEm
FNDA:0,_ZNSt10_HashtableIllSaIlENSt8__detail9_IdentityESt8equal_toIlESt4hashIlENS1_18_Mod_range_hashingENS1_20_Default_ranged_hashENS1_20_Prime_rehash_policyENS1_17_Hashtable_traitsILb0ELb1ELb1EEEE19_M_allocate_bucketsEm
FN:365,_ZNSt10_HashtableINSt7__cxx1112basic_stringIcSt11char_traitsIcESaIcEEESt4pairIKS5_S5_ESaIS8_ENSt8__detail10_Select1stESt8equal_toIS5_ESt4hashIS5_ENSA_18_Mod_range_hashingENSA_20_Default_ranged_hashENSA_20_Prime_rehash_policyENSA_17_Hashtable_traitsILb1ELb0ELb1EEEE21_M_deallocate_bucketsEPPNSA_15_Hash_node_baseEm
FNDA:0,_ZNSt10_HashtableINSt7__cxx1112basic_stringIcSt11char_traitsIcESaIcEEESt4pairIKS5_S5_ESaIS8_ENSt8__detail10_Select1stESt8equal_toIS5_ESt4hashIS5_ENSA_18_Mod_range_hashingENSA_20_Default_ranged_hashENSA_20_Prime_rehash_policyENSA_17_Hashtable_traitsILb1ELb0ELb1EEEE21_M_deallocate_bucketsEPPNSA_15_Hash_node_baseEm
FN:365,_ZNSt10_HashtableIllSaIlENSt8__detail9_IdentityESt8equal_toIlESt4hashIlENS1_18_Mod_range_hashingENS1_20_Default_ranged_hashENS1_20_Prime_rehash_policyENS1_17_Hashtable_traitsILb0ELb1ELb1EEEE21_M_deallocate_bucketsEPPNS1_15_Hash_node_baseEm
FNDA:0,_ZNSt10_HashtableIllSaIlENSt8__detail9_IdentityESt8equal_toIlESt4hashIlENS1_18_Mod_range_hashingENS1_20_Default_ranged_hashENS1_20_Prime_rehash_policyENS1_17_Hashtable_traitsILb0ELb1ELb1EEEE21_M_deallocate_bucketsEPPNS1_15_Hash_node_baseEm
FN:365,_ZNSt10_HashtableIP9nnode_t_tS1_SaIS1_ENSt8__detail9_IdentityESt8equal_toIS1_ESt4hashIS1_ENS3_18_Mod_range_hashingENS3_20_Default_ranged_hashENS3_20_Prime_rehash_policyENS3_17_Hashtable_traitsILb0ELb1ELb1EEEE21_M_deallocate_bucketsEPPNS3_15_Hash_node_baseEm
FNDA:0,_ZNSt10_HashtableIP9nnode_t_tS1_SaIS1_ENSt8__detail9_IdentityESt8equal_toIS1_ESt4hashIS1_ENS3_18_Mod_range_hashingENS3_20_Default_ranged_hashENS3_20_Prime_rehash_policyENS3_17_Hashtable_traitsILb0ELb1ELb1EEEE21_M_deallocate_bucketsEPPNS3_15_Hash_node_baseEm
FN:374,_ZNSt10_HashtableIllSaIlENSt8__detail9_IdentityESt8equal_toIlESt4hashIlENS1_18_Mod_range_hashingENS1_20_Default_ranged_hashENS1_20_Prime_rehash_policyENS1_17_Hashtable_traitsILb0ELb1ELb1EEEE21_M_deallocate_bucketsEv
FNDA:0,_ZNSt10_HashtableIllSaIlENSt8__detail9_IdentityESt8equal_toIlESt4hashIlENS1_18_Mod_range_hashingENS1_20_Default_ranged_hashENS1_20_Prime_rehash_policyENS1_17_Hashtable_traitsILb0ELb1ELb1EEEE21_M_deallocate_bucketsEv
FN:374,_ZNSt10_HashtableIP9nnode_t_tS1_SaIS1_ENSt8__detail9_IdentityESt8equal_toIS1_ESt4hashIS1_ENS3_18_Mod_range_hashingENS3_20_Default_ranged_hashENS3_20_Prime_rehash_policyENS3_17_Hashtable_traitsILb0ELb1ELb1EEEE21_M_deallocate_bucketsEv
FNDA:0,_ZNSt10_HashtableIP9nnode_t_tS1_SaIS1_ENSt8__detail9_IdentityESt8equal_toIS1_ESt4hashIS1_ENS3_18_Mod_range_hashingENS3_20_Default_ranged_hashENS3_20_Prime_rehash_policyENS3_17_Hashtable_traitsILb0ELb1ELb1EEEE21_M_deallocate_bucketsEv
FN:374,_ZNSt10_HashtableINSt7__cxx1112basic_stringIcSt11char_traitsIcESaIcEEESt4pairIKS5_S5_ESaIS8_ENSt8__detail10_Select1stESt8equal_toIS5_ESt4hashIS5_ENSA_18_Mod_range_hashingENSA_20_Default_ranged_hashENSA_20_Prime_rehash_policyENSA_17_Hashtable_traitsILb1ELb0ELb1EEEE21_M_deallocate_bucketsEv
FNDA:0,_ZNSt10_HashtableINSt7__cxx1112basic_stringIcSt11char_traitsIcESaIcEEESt4pairIKS5_S5_ESaIS8_ENSt8__detail10_Select1stESt8equal_toIS5_ESt4hashIS5_ENSA_18_Mod_range_hashingENSA_20_Default_ranged_hashENSA_20_Prime_rehash_policyENSA_17_Hashtable_traitsILb1ELb0ELb1EEEE21_M_deallocate_bucketsEv
FN:383,_ZNKSt10_HashtableINSt7__cxx1112basic_stringIcSt11char_traitsIcESaIcEEESt4pairIKS5_S5_ESaIS8_ENSt8__detail10_Select1stESt8equal_toIS5_ESt4hashIS5_ENSA_18_Mod_range_hashingENSA_20_Default_ranged_hashENSA_20_Prime_rehash_policyENSA_17_Hashtable_traitsILb1ELb0ELb1EEEE8_M_beginEv
FNDA:0,_ZNKSt10_HashtableINSt7__cxx1112basic_stringIcSt11char_traitsIcESaIcEEESt4pairIKS5_S5_ESaIS8_ENSt8__detail10_Select1stESt8equal_toIS5_ESt4hashIS5_ENSA_18_Mod_range_hashingENSA_20_Default_ranged_hashENSA_20_Prime_rehash_policyENSA_17_Hashtable_traitsILb1ELb0ELb1EEEE8_M_beginEv
FN:383,_ZNKSt10_HashtableIP9nnode_t_tS1_SaIS1_ENSt8__detail9_IdentityESt8equal_toIS1_ESt4hashIS1_ENS3_18_Mod_range_hashingENS3_20_Default_ranged_hashENS3_20_Prime_rehash_policyENS3_17_Hashtable_traitsILb0ELb1ELb1EEEE8_M_beginEv
FNDA:0,_ZNKSt10_HashtableIP9nnode_t_tS1_SaIS1_ENSt8__detail9_IdentityESt8equal_toIS1_ESt4hashIS1_ENS3_18_Mod_range_hashingENS3_20_Default_ranged_hashENS3_20_Prime_rehash_policyENS3_17_Hashtable_traitsILb0ELb1ELb1EEEE8_M_beginEv
FN:383,_ZNKSt10_HashtableIllSaIlENSt8__detail9_IdentityESt8equal_toIlESt4hashIlENS1_18_Mod_range_hashingENS1_20_Default_ranged_hashENS1_20_Prime_rehash_policyENS1_17_Hashtable_traitsILb0ELb1ELb1EEEE8_M_beginEv
FNDA:0,_ZNKSt10_HashtableIllSaIlENSt8__detail9_IdentityESt8equal_toIlESt4hashIlENS1_18_Mod_range_hashingENS1_20_Default_ranged_hashENS1_20_Prime_rehash_policyENS1_17_Hashtable_traitsILb0ELb1ELb1EEEE8_M_beginEv
FN:414,_ZNSt10_HashtableIP9nnode_t_tS1_SaIS1_ENSt8__detail9_IdentityESt8equal_toIS1_ESt4hashIS1_ENS3_18_Mod_range_hashingENS3_20_Default_ranged_hashENS3_20_Prime_rehash_policyENS3_17_Hashtable_traitsILb0ELb1ELb1EEEEC2Ev
FNDA:0,_ZNSt10_HashtableIP9nnode_t_tS1_SaIS1_ENSt8__detail9_IdentityESt8equal_toIS1_ESt4hashIS1_ENS3_18_Mod_range_hashingENS3_20_Default_ranged_hashENS3_20_Prime_rehash_policyENS3_17_Hashtable_traitsILb0ELb1ELb1EEEEC2Ev
FN:414,_ZNSt10_HashtableINSt7__cxx1112basic_stringIcSt11char_traitsIcESaIcEEESt4pairIKS5_S5_ESaIS8_ENSt8__detail10_Select1stESt8equal_toIS5_ESt4hashIS5_ENSA_18_Mod_range_hashingENSA_20_Default_ranged_hashENSA_20_Prime_rehash_policyENSA_17_Hashtable_traitsILb1ELb0ELb1EEEEC2Ev
FNDA:0,_ZNSt10_HashtableINSt7__cxx1112basic_stringIcSt11char_traitsIcESaIcEEESt4pairIKS5_S5_ESaIS8_ENSt8__detail10_Select1stESt8equal_toIS5_ESt4hashIS5_ENSA_18_Mod_range_hashingENSA_20_Default_ranged_hashENSA_20_Prime_rehash_policyENSA_17_Hashtable_traitsILb1ELb0ELb1EEEEC2Ev
FN:414,_ZNSt10_HashtableIllSaIlENSt8__detail9_IdentityESt8equal_toIlESt4hashIlENS1_18_Mod_range_hashingENS1_20_Default_ranged_hashENS1_20_Prime_rehash_policyENS1_17_Hashtable_traitsILb0ELb1ELb1EEEEC2Ev
FNDA:0,_ZNSt10_HashtableIllSaIlENSt8__detail9_IdentityESt8equal_toIlESt4hashIlENS1_18_Mod_range_hashingENS1_20_Default_ranged_hashENS1_20_Prime_rehash_policyENS1_17_Hashtable_traitsILb0ELb1ELb1EEEEC2Ev
FN:512,_ZNSt10_HashtableIllSaIlENSt8__detail9_IdentityESt8equal_toIlESt4hashIlENS1_18_Mod_range_hashingENS1_20_Default_ranged_hashENS1_20_Prime_rehash_policyENS1_17_Hashtable_traitsILb0ELb1ELb1EEEE3endEv
FNDA:0,_ZNSt10_HashtableIllSaIlENSt8__detail9_IdentityESt8equal_toIlESt4hashIlENS1_18_Mod_range_hashingENS1_20_Default_ranged_hashENS1_20_Prime_rehash_policyENS1_17_Hashtable_traitsILb0ELb1ELb1EEEE3endEv
FN:512,_ZNSt10_HashtableINSt7__cxx1112basic_stringIcSt11char_traitsIcESaIcEEESt4pairIKS5_S5_ESaIS8_ENSt8__detail10_Select1stESt8equal_toIS5_ESt4hashIS5_ENSA_18_Mod_range_hashingENSA_20_Default_ranged_hashENSA_20_Prime_rehash_policyENSA_17_Hashtable_traitsILb1ELb0ELb1EEEE3endEv
FNDA:0,_ZNSt10_HashtableINSt7__cxx1112basic_stringIcSt11char_traitsIcESaIcEEESt4pairIKS5_S5_ESaIS8_ENSt8__detail10_Select1stESt8equal_toIS5_ESt4hashIS5_ENSA_18_Mod_range_hashingENSA_20_Default_ranged_hashENSA_20_Prime_rehash_policyENSA_17_Hashtable_traitsILb1ELb0ELb1EEEE3endEv
FN:512,_ZNSt10_HashtableIP9nnode_t_tS1_SaIS1_ENSt8__detail9_IdentityESt8equal_toIS1_ESt4hashIS1_ENS3_18_Mod_range_hashingENS3_20_Default_ranged_hashENS3_20_Prime_rehash_policyENS3_17_Hashtable_traitsILb0ELb1ELb1EEEE3endEv
FNDA:0,_ZNSt10_HashtableIP9nnode_t_tS1_SaIS1_ENSt8__detail9_IdentityESt8equal_toIS1_ESt4hashIS1_ENS3_18_Mod_range_hashingENS3_20_Default_ranged_hashENS3_20_Prime_rehash_policyENS3_17_Hashtable_traitsILb0ELb1ELb1EEEE3endEv
FN:639,_ZNKSt10_HashtableIP9nnode_t_tS1_SaIS1_ENSt8__detail9_IdentityESt8equal_toIS1_ESt4hashIS1_ENS3_18_Mod_range_hashingENS3_20_Default_ranged_hashENS3_20_Prime_rehash_policyENS3_17_Hashtable_traitsILb0ELb1ELb1EEEE15_M_bucket_indexEPNS3_10_Hash_nodeIS1_Lb0EEE
FNDA:0,_ZNKSt10_HashtableIP9nnode_t_tS1_SaIS1_ENSt8__detail9_IdentityESt8equal_toIS1_ESt4hashIS1_ENS3_18_Mod_range_hashingENS3_20_Default_ranged_hashENS3_20_Prime_rehash_policyENS3_17_Hashtable_traitsILb0ELb1ELb1EEEE15_M_bucket_indexEPNS3_10_Hash_nodeIS1_Lb0EEE
FN:639,_ZNKSt10_HashtableIllSaIlENSt8__detail9_IdentityESt8equal_toIlESt4hashIlENS1_18_Mod_range_hashingENS1_20_Default_ranged_hashENS1_20_Prime_rehash_policyENS1_17_Hashtable_traitsILb0ELb1ELb1EEEE15_M_bucket_indexEPNS1_10_Hash_nodeIlLb0EEE
FNDA:0,_ZNKSt10_HashtableIllSaIlENSt8__detail9_IdentityESt8equal_toIlESt4hashIlENS1_18_Mod_range_hashingENS1_20_Default_ranged_hashENS1_20_Prime_rehash_policyENS1_17_Hashtable_traitsILb0ELb1ELb1EEEE15_M_bucket_indexEPNS1_10_Hash_nodeIlLb0EEE
FN:639,_ZNKSt10_HashtableINSt7__cxx1112basic_stringIcSt11char_traitsIcESaIcEEESt4pairIKS5_S5_ESaIS8_ENSt8__detail10_Select1stESt8equal_toIS5_ESt4hashIS5_ENSA_18_Mod_range_hashingENSA_20_Default_ranged_hashENSA_20_Prime_rehash_policyENSA_17_Hashtable_traitsILb1ELb0ELb1EEEE15_M_bucket_indexEPNSA_10_Hash_nodeIS8_Lb1EEE
FNDA:0,_ZNKSt10_HashtableINSt7__cxx1112basic_stringIcSt11char_traitsIcESaIcEEESt4pairIKS5_S5_ESaIS8_ENSt8__detail10_Select1stESt8equal_toIS5_ESt4hashIS5_ENSA_18_Mod_range_hashingENSA_20_Default_ranged_hashENSA_20_Prime_rehash_policyENSA_17_Hashtable_traitsILb1ELb0ELb1EEEE15_M_bucket_indexEPNSA_10_Hash_nodeIS8_Lb1EEE
FN:643,_ZNKSt10_HashtableIP9nnode_t_tS1_SaIS1_ENSt8__detail9_IdentityESt8equal_toIS1_ESt4hashIS1_ENS3_18_Mod_range_hashingENS3_20_Default_ranged_hashENS3_20_Prime_rehash_policyENS3_17_Hashtable_traitsILb0ELb1ELb1EEEE15_M_bucket_indexERKS1_m
FNDA:0,_ZNKSt10_HashtableIP9nnode_t_tS1_SaIS1_ENSt8__detail9_IdentityESt8equal_toIS1_ESt4hashIS1_ENS3_18_Mod_range_hashingENS3_20_Default_ranged_hashENS3_20_Prime_rehash_policyENS3_17_Hashtable_traitsILb0ELb1ELb1EEEE15_M_bucket_indexERKS1_m
FN:643,_ZNKSt10_HashtableIllSaIlENSt8__detail9_IdentityESt8equal_toIlESt4hashIlENS1_18_Mod_range_hashingENS1_20_Default_ranged_hashENS1_20_Prime_rehash_policyENS1_17_Hashtable_traitsILb0ELb1ELb1EEEE15_M_bucket_indexERKlm
FNDA:0,_ZNKSt10_HashtableIllSaIlENSt8__detail9_IdentityESt8equal_toIlESt4hashIlENS1_18_Mod_range_hashingENS1_20_Default_ranged_hashENS1_20_Prime_rehash_policyENS1_17_Hashtable_traitsILb0ELb1ELb1EEEE15_M_bucket_indexERKlm
FN:643,_ZNKSt10_HashtableINSt7__cxx1112basic_stringIcSt11char_traitsIcESaIcEEESt4pairIKS5_S5_ESaIS8_ENSt8__detail10_Select1stESt8equal_toIS5_ESt4hashIS5_ENSA_18_Mod_range_hashingENSA_20_Default_ranged_hashENSA_20_Prime_rehash_policyENSA_17_Hashtable_traitsILb1ELb0ELb1EEEE15_M_bucket_indexERS7_m
FNDA:0,_ZNKSt10_HashtableINSt7__cxx1112basic_stringIcSt11char_traitsIcESaIcEEESt4pairIKS5_S5_ESaIS8_ENSt8__detail10_Select1stESt8equal_toIS5_ESt4hashIS5_ENSA_18_Mod_range_hashingENSA_20_Default_ranged_hashENSA_20_Prime_rehash_policyENSA_17_Hashtable_traitsILb1ELb0ELb1EEEE15_M_bucket_indexERS7_m
FN:652,_ZNKSt10_HashtableIP9nnode_t_tS1_SaIS1_ENSt8__detail9_IdentityESt8equal_toIS1_ESt4hashIS1_ENS3_18_Mod_range_hashingENS3_20_Default_ranged_hashENS3_20_Prime_rehash_policyENS3_17_Hashtable_traitsILb0ELb1ELb1EEEE12_M_find_nodeEmRKS1_m
FNDA:0,_ZNKSt10_HashtableIP9nnode_t_tS1_SaIS1_ENSt8__detail9_IdentityESt8equal_toIS1_ESt4hashIS1_ENS3_18_Mod_range_hashingENS3_20_Default_ranged_hashENS3_20_Prime_rehash_policyENS3_17_Hashtable_traitsILb0ELb1ELb1EEEE12_M_find_nodeEmRKS1_m
FN:652,_ZNKSt10_HashtableINSt7__cxx1112basic_stringIcSt11char_traitsIcESaIcEEESt4pairIKS5_S5_ESaIS8_ENSt8__detail10_Select1stESt8equal_toIS5_ESt4hashIS5_ENSA_18_Mod_range_hashingENSA_20_Default_ranged_hashENSA_20_Prime_rehash_policyENSA_17_Hashtable_traitsILb1ELb0ELb1EEEE12_M_find_nodeEmRS7_m
FNDA:0,_ZNKSt10_HashtableINSt7__cxx1112basic_stringIcSt11char_traitsIcESaIcEEESt4pairIKS5_S5_ESaIS8_ENSt8__detail10_Select1stESt8equal_toIS5_ESt4hashIS5_ENSA_18_Mod_range_hashingENSA_20_Default_ranged_hashENSA_20_Prime_rehash_policyENSA_17_Hashtable_traitsILb1ELb0ELb1EEEE12_M_find_nodeEmRS7_m
FN:652,_ZNKSt10_HashtableIllSaIlENSt8__detail9_IdentityESt8equal_toIlESt4hashIlENS1_18_Mod_range_hashingENS1_20_Default_ranged_hashENS1_20_Prime_rehash_policyENS1_17_Hashtable_traitsILb0ELb1ELb1EEEE12_M_find_nodeEmRKlm
FNDA:0,_ZNKSt10_HashtableIllSaIlENSt8__detail9_IdentityESt8equal_toIlESt4hashIlENS1_18_Mod_range_hashingENS1_20_Default_ranged_hashENS1_20_Prime_rehash_policyENS1_17_Hashtable_traitsILb0ELb1ELb1EEEE12_M_find_nodeEmRKlm
FN:1348,_ZNSt10_HashtableIP9nnode_t_tS1_SaIS1_ENSt8__detail9_IdentityESt8equal_toIS1_ESt4hashIS1_ENS3_18_Mod_range_hashingENS3_20_Default_ranged_hashENS3_20_Prime_rehash_policyENS3_17_Hashtable_traitsILb0ELb1ELb1EEEED2Ev
FNDA:0,_ZNSt10_HashtableIP9nnode_t_tS1_SaIS1_ENSt8__detail9_IdentityESt8equal_toIS1_ESt4hashIS1_ENS3_18_Mod_range_hashingENS3_20_Default_ranged_hashENS3_20_Prime_rehash_policyENS3_17_Hashtable_traitsILb0ELb1ELb1EEEED2Ev
FN:1348,_ZNSt10_HashtableIllSaIlENSt8__detail9_IdentityESt8equal_toIlESt4hashIlENS1_18_Mod_range_hashingENS1_20_Default_ranged_hashENS1_20_Prime_rehash_policyENS1_17_Hashtable_traitsILb0ELb1ELb1EEEED2Ev
FNDA:0,_ZNSt10_HashtableIllSaIlENSt8__detail9_IdentityESt8equal_toIlESt4hashIlENS1_18_Mod_range_hashingENS1_20_Default_ranged_hashENS1_20_Prime_rehash_policyENS1_17_Hashtable_traitsILb0ELb1ELb1EEEED2Ev
FN:1348,_ZNSt10_HashtableINSt7__cxx1112basic_stringIcSt11char_traitsIcESaIcEEESt4pairIKS5_S5_ESaIS8_ENSt8__detail10_Select1stESt8equal_toIS5_ESt4hashIS5_ENSA_18_Mod_range_hashingENSA_20_Default_ranged_hashENSA_20_Prime_rehash_policyENSA_17_Hashtable_traitsILb1ELb0ELb1EEEED2Ev
FNDA:0,_ZNSt10_HashtableINSt7__cxx1112basic_stringIcSt11char_traitsIcESaIcEEESt4pairIKS5_S5_ESaIS8_ENSt8__detail10_Select1stESt8equal_toIS5_ESt4hashIS5_ENSA_18_Mod_range_hashingENSA_20_Default_ranged_hashENSA_20_Prime_rehash_policyENSA_17_Hashtable_traitsILb1ELb0ELb1EEEED2Ev
FN:1412,_ZNSt10_HashtableIP9nnode_t_tS1_SaIS1_ENSt8__detail9_IdentityESt8equal_toIS1_ESt4hashIS1_ENS3_18_Mod_range_hashingENS3_20_Default_ranged_hashENS3_20_Prime_rehash_policyENS3_17_Hashtable_traitsILb0ELb1ELb1EEEE4findERKS1_
FNDA:0,_ZNSt10_HashtableIP9nnode_t_tS1_SaIS1_ENSt8__detail9_IdentityESt8equal_toIS1_ESt4hashIS1_ENS3_18_Mod_range_hashingENS3_20_Default_ranged_hashENS3_20_Prime_rehash_policyENS3_17_Hashtable_traitsILb0ELb1ELb1EEEE4findERKS1_
FN:1412,_ZNSt10_HashtableINSt7__cxx1112basic_stringIcSt11char_traitsIcESaIcEEESt4pairIKS5_S5_ESaIS8_ENSt8__detail10_Select1stESt8equal_toIS5_ESt4hashIS5_ENSA_18_Mod_range_hashingENSA_20_Default_ranged_hashENSA_20_Prime_rehash_policyENSA_17_Hashtable_traitsILb1ELb0ELb1EEEE4findERS7_
FNDA:0,_ZNSt10_HashtableINSt7__cxx1112basic_stringIcSt11char_traitsIcESaIcEEESt4pairIKS5_S5_ESaIS8_ENSt8__detail10_Select1stESt8equal_toIS5_ESt4hashIS5_ENSA_18_Mod_range_hashingENSA_20_Default_ranged_hashENSA_20_Prime_rehash_policyENSA_17_Hashtable_traitsILb1ELb0ELb1EEEE4findERS7_
FN:1412,_ZNSt10_HashtableIllSaIlENSt8__detail9_IdentityESt8equal_toIlESt4hashIlENS1_18_Mod_range_hashingENS1_20_Default_ranged_hashENS1_20_Prime_rehash_policyENS1_17_Hashtable_traitsILb0ELb1ELb1EEEE4findERKl
FNDA:0,_ZNSt10_HashtableIllSaIlENSt8__detail9_IdentityESt8equal_toIlESt4hashIlENS1_18_Mod_range_hashingENS1_20_Default_ranged_hashENS1_20_Prime_rehash_policyENS1_17_Hashtable_traitsILb0ELb1ELb1EEEE4findERKl
FN:1532,_ZNKSt10_HashtableINSt7__cxx1112basic_stringIcSt11char_traitsIcESaIcEEESt4pairIKS5_S5_ESaIS8_ENSt8__detail10_Select1stESt8equal_toIS5_ESt4hashIS5_ENSA_18_Mod_range_hashingENSA_20_Default_ranged_hashENSA_20_Prime_rehash_policyENSA_17_Hashtable_traitsILb1ELb0ELb1EEEE19_M_find_before_nodeEmRS7_m
FNDA:0,_ZNKSt10_HashtableINSt7__cxx1112basic_stringIcSt11char_traitsIcESaIcEEESt4pairIKS5_S5_ESaIS8_ENSt8__detail10_Select1stESt8equal_toIS5_ESt4hashIS5_ENSA_18_Mod_range_hashingENSA_20_Default_ranged_hashENSA_20_Prime_rehash_policyENSA_17_Hashtable_traitsILb1ELb0ELb1EEEE19_M_find_before_nodeEmRS7_m
FN:1532,_ZNKSt10_HashtableIllSaIlENSt8__detail9_IdentityESt8equal_toIlESt4hashIlENS1_18_Mod_range_hashingENS1_20_Default_ranged_hashENS1_20_Prime_rehash_policyENS1_17_Hashtable_traitsILb0ELb1ELb1EEEE19_M_find_before_nodeEmRKlm
FNDA:0,_ZNKSt10_HashtableIllSaIlENSt8__detail9_IdentityESt8equal_toIlESt4hashIlENS1_18_Mod_range_hashingENS1_20_Default_ranged_hashENS1_20_Prime_rehash_policyENS1_17_Hashtable_traitsILb0ELb1ELb1EEEE19_M_find_before_nodeEmRKlm
FN:1532,_ZNKSt10_HashtableIP9nnode_t_tS1_SaIS1_ENSt8__detail9_IdentityESt8equal_toIS1_ESt4hashIS1_ENS3_18_Mod_range_hashingENS3_20_Default_ranged_hashENS3_20_Prime_rehash_policyENS3_17_Hashtable_traitsILb0ELb1ELb1EEEE19_M_find_before_nodeEmRKS1_m
FNDA:0,_ZNKSt10_HashtableIP9nnode_t_tS1_SaIS1_ENSt8__detail9_IdentityESt8equal_toIS1_ESt4hashIS1_ENS3_18_Mod_range_hashingENS3_20_Default_ranged_hashENS3_20_Prime_rehash_policyENS3_17_Hashtable_traitsILb0ELb1ELb1EEEE19_M_find_before_nodeEmRKS1_m
FN:1560,_ZNSt10_HashtableIP9nnode_t_tS1_SaIS1_ENSt8__detail9_IdentityESt8equal_toIS1_ESt4hashIS1_ENS3_18_Mod_range_hashingENS3_20_Default_ranged_hashENS3_20_Prime_rehash_policyENS3_17_Hashtable_traitsILb0ELb1ELb1EEEE22_M_insert_bucket_beginEmPNS3_10_Hash_nodeIS1_Lb0EEE
FNDA:0,_ZNSt10_HashtableIP9nnode_t_tS1_SaIS1_ENSt8__detail9_IdentityESt8equal_toIS1_ESt4hashIS1_ENS3_18_Mod_range_hashingENS3_20_Default_ranged_hashENS3_20_Prime_rehash_policyENS3_17_Hashtable_traitsILb0ELb1ELb1EEEE22_M_insert_bucket_beginEmPNS3_10_Hash_nodeIS1_Lb0EEE
FN:1560,_ZNSt10_HashtableINSt7__cxx1112basic_stringIcSt11char_traitsIcESaIcEEESt4pairIKS5_S5_ESaIS8_ENSt8__detail10_Select1stESt8equal_toIS5_ESt4hashIS5_ENSA_18_Mod_range_hashingENSA_20_Default_ranged_hashENSA_20_Prime_rehash_policyENSA_17_Hashtable_traitsILb1ELb0ELb1EEEE22_M_insert_bucket_beginEmPNSA_10_Hash_nodeIS8_Lb1EEE
FNDA:0,_ZNSt10_HashtableINSt7__cxx1112basic_stringIcSt11char_traitsIcESaIcEEESt4pairIKS5_S5_ESaIS8_ENSt8__detail10_Select1stESt8equal_toIS5_ESt4hashIS5_ENSA_18_Mod_range_hashingENSA_20_Default_ranged_hashENSA_20_Prime_rehash_policyENSA_17_Hashtable_traitsILb1ELb0ELb1EEEE22_M_insert_bucket_beginEmPNSA_10_Hash_nodeIS8_Lb1EEE
FN:1560,_ZNSt10_HashtableIllSaIlENSt8__detail9_IdentityESt8equal_toIlESt4hashIlENS1_18_Mod_range_hashingENS1_20_Default_ranged_hashENS1_20_Prime_rehash_policyENS1_17_Hashtable_traitsILb0ELb1ELb1EEEE22_M_insert_bucket_beginEmPNS1_10_Hash_nodeIlLb0EEE
FNDA:0,_ZNSt10_HashtableIllSaIlENSt8__detail9_IdentityESt8equal_toIlESt4hashIlENS1_18_Mod_range_hashingENS1_20_Default_ranged_hashENS1_20_Prime_rehash_policyENS1_17_Hashtable_traitsILb0ELb1ELb1EEEE22_M_insert_bucket_beginEmPNS1_10_Hash_nodeIlLb0EEE
FN:1632,_ZNSt10_HashtableINSt7__cxx1112basic_stringIcSt11char_traitsIcESaIcEEESt4pairIKS5_S5_ESaIS8_ENSt8__detail10_Select1stESt8equal_toIS5_ESt4hashIS5_ENSA_18_Mod_range_hashingENSA_20_Default_ranged_hashENSA_20_Prime_rehash_policyENSA_17_Hashtable_traitsILb1ELb0ELb1EEEE10_M_emplaceIJS8_EEES6_INSA_14_Node_iteratorIS8_Lb0ELb1EEEbESt17integral_constantIbLb1EEDpOT_
FNDA:0,_ZNSt10_HashtableINSt7__cxx1112basic_stringIcSt11char_traitsIcESaIcEEESt4pairIKS5_S5_ESaIS8_ENSt8__detail10_Select1stESt8equal_toIS5_ESt4hashIS5_ENSA_18_Mod_range_hashingENSA_20_Default_ranged_hashENSA_20_Prime_rehash_policyENSA_17_Hashtable_traitsILb1ELb0ELb1EEEE10_M_emplaceIJS8_EEES6_INSA_14_Node_iteratorIS8_Lb0ELb1EEEbESt17integral_constantIbLb1EEDpOT_
FN:1698,_ZNSt10_HashtableINSt7__cxx1112basic_stringIcSt11char_traitsIcESaIcEEESt4pairIKS5_S5_ESaIS8_ENSt8__detail10_Select1stESt8equal_toIS5_ESt4hashIS5_ENSA_18_Mod_range_hashingENSA_20_Default_ranged_hashENSA_20_Prime_rehash_policyENSA_17_Hashtable_traitsILb1ELb0ELb1EEEE21_M_insert_unique_nodeEmmPNSA_10_Hash_nodeIS8_Lb1EEEm
FNDA:0,_ZNSt10_HashtableINSt7__cxx1112basic_stringIcSt11char_traitsIcESaIcEEESt4pairIKS5_S5_ESaIS8_ENSt8__detail10_Select1stESt8equal_toIS5_ESt4hashIS5_ENSA_18_Mod_range_hashingENSA_20_Default_ranged_hashENSA_20_Prime_rehash_policyENSA_17_Hashtable_traitsILb1ELb0ELb1EEEE21_M_insert_unique_nodeEmmPNSA_10_Hash_nodeIS8_Lb1EEEm
FN:1698,_ZNSt10_HashtableIP9nnode_t_tS1_SaIS1_ENSt8__detail9_IdentityESt8equal_toIS1_ESt4hashIS1_ENS3_18_Mod_range_hashingENS3_20_Default_ranged_hashENS3_20_Prime_rehash_policyENS3_17_Hashtable_traitsILb0ELb1ELb1EEEE21_M_insert_unique_nodeEmmPNS3_10_Hash_nodeIS1_Lb0EEEm
FNDA:0,_ZNSt10_HashtableIP9nnode_t_tS1_SaIS1_ENSt8__detail9_IdentityESt8equal_toIS1_ESt4hashIS1_ENS3_18_Mod_range_hashingENS3_20_Default_ranged_hashENS3_20_Prime_rehash_policyENS3_17_Hashtable_traitsILb0ELb1ELb1EEEE21_M_insert_unique_nodeEmmPNS3_10_Hash_nodeIS1_Lb0EEEm
FN:1698,_ZNSt10_HashtableIllSaIlENSt8__detail9_IdentityESt8equal_toIlESt4hashIlENS1_18_Mod_range_hashingENS1_20_Default_ranged_hashENS1_20_Prime_rehash_policyENS1_17_Hashtable_traitsILb0ELb1ELb1EEEE21_M_insert_unique_nodeEmmPNS1_10_Hash_nodeIlLb0EEEm
FNDA:0,_ZNSt10_HashtableIllSaIlENSt8__detail9_IdentityESt8equal_toIlESt4hashIlENS1_18_Mod_range_hashingENS1_20_Default_ranged_hashENS1_20_Prime_rehash_policyENS1_17_Hashtable_traitsILb0ELb1ELb1EEEE21_M_insert_unique_nodeEmmPNS1_10_Hash_nodeIlLb0EEEm
FN:1803,_ZNSt10_HashtableIP9nnode_t_tS1_SaIS1_ENSt8__detail9_IdentityESt8equal_toIS1_ESt4hashIS1_ENS3_18_Mod_range_hashingENS3_20_Default_ranged_hashENS3_20_Prime_rehash_policyENS3_17_Hashtable_traitsILb0ELb1ELb1EEEE9_M_insertIRKS1_NS3_10_AllocNodeISaINS3_10_Hash_nodeIS1_Lb0EEEEEEEESt4pairINS3_14_Node_iteratorIS1_Lb1ELb0EEEbEOT_RKT0_St17integral_constantIbLb1EEm
FNDA:0,_ZNSt10_HashtableIP9nnode_t_tS1_SaIS1_ENSt8__detail9_IdentityESt8equal_toIS1_ESt4hashIS1_ENS3_18_Mod_range_hashingENS3_20_Default_ranged_hashENS3_20_Prime_rehash_policyENS3_17_Hashtable_traitsILb0ELb1ELb1EEEE9_M_insertIRKS1_NS3_10_AllocNodeISaINS3_10_Hash_nodeIS1_Lb0EEEEEEEESt4pairINS3_14_Node_iteratorIS1_Lb1ELb0EEEbEOT_RKT0_St17integral_constantIbLb1EEm
FN:1803,_ZNSt10_HashtableIllSaIlENSt8__detail9_IdentityESt8equal_toIlESt4hashIlENS1_18_Mod_range_hashingENS1_20_Default_ranged_hashENS1_20_Prime_rehash_policyENS1_17_Hashtable_traitsILb0ELb1ELb1EEEE9_M_insertIRKlNS1_10_AllocNodeISaINS1_10_Hash_nodeIlLb0EEEEEEEESt4pairINS1_14_Node_iteratorIlLb1ELb0EEEbEOT_RKT0_St17integral_constantIbLb1EEm
FNDA:0,_ZNSt10_HashtableIllSaIlENSt8__detail9_IdentityESt8equal_toIlESt4hashIlENS1_18_Mod_range_hashingENS1_20_Default_ranged_hashENS1_20_Prime_rehash_policyENS1_17_Hashtable_traitsILb0ELb1ELb1EEEE9_M_insertIRKlNS1_10_AllocNodeISaINS1_10_Hash_nodeIlLb0EEEEEEEESt4pairINS1_14_Node_iteratorIlLb1ELb0EEEbEOT_RKT0_St17integral_constantIbLb1EEm
FN:2024,_ZNSt10_HashtableINSt7__cxx1112basic_stringIcSt11char_traitsIcESaIcEEESt4pairIKS5_S5_ESaIS8_ENSt8__detail10_Select1stESt8equal_toIS5_ESt4hashIS5_ENSA_18_Mod_range_hashingENSA_20_Default_ranged_hashENSA_20_Prime_rehash_policyENSA_17_Hashtable_traitsILb1ELb0ELb1EEEE5clearEv
FNDA:0,_ZNSt10_HashtableINSt7__cxx1112basic_stringIcSt11char_traitsIcESaIcEEESt4pairIKS5_S5_ESaIS8_ENSt8__detail10_Select1stESt8equal_toIS5_ESt4hashIS5_ENSA_18_Mod_range_hashingENSA_20_Default_ranged_hashENSA_20_Prime_rehash_policyENSA_17_Hashtable_traitsILb1ELb0ELb1EEEE5clearEv
FN:2024,_ZNSt10_HashtableIllSaIlENSt8__detail9_IdentityESt8equal_toIlESt4hashIlENS1_18_Mod_range_hashingENS1_20_Default_ranged_hashENS1_20_Prime_rehash_policyENS1_17_Hashtable_traitsILb0ELb1ELb1EEEE5clearEv
FNDA:0,_ZNSt10_HashtableIllSaIlENSt8__detail9_IdentityESt8equal_toIlESt4hashIlENS1_18_Mod_range_hashingENS1_20_Default_ranged_hashENS1_20_Prime_rehash_policyENS1_17_Hashtable_traitsILb0ELb1ELb1EEEE5clearEv
FN:2024,_ZNSt10_HashtableIP9nnode_t_tS1_SaIS1_ENSt8__detail9_IdentityESt8equal_toIS1_ESt4hashIS1_ENS3_18_Mod_range_hashingENS3_20_Default_ranged_hashENS3_20_Prime_rehash_policyENS3_17_Hashtable_traitsILb0ELb1ELb1EEEE5clearEv
FNDA:0,_ZNSt10_HashtableIP9nnode_t_tS1_SaIS1_ENSt8__detail9_IdentityESt8equal_toIS1_ESt4hashIS1_ENS3_18_Mod_range_hashingENS3_20_Default_ranged_hashENS3_20_Prime_rehash_policyENS3_17_Hashtable_traitsILb0ELb1ELb1EEEE5clearEv
FN:2061,_ZNSt10_HashtableIP9nnode_t_tS1_SaIS1_ENSt8__detail9_IdentityESt8equal_toIS1_ESt4hashIS1_ENS3_18_Mod_range_hashingENS3_20_Default_ranged_hashENS3_20_Prime_rehash_policyENS3_17_Hashtable_traitsILb0ELb1ELb1EEEE9_M_rehashEmRKm
FNDA:0,_ZNSt10_HashtableIP9nnode_t_tS1_SaIS1_ENSt8__detail9_IdentityESt8equal_toIS1_ESt4hashIS1_ENS3_18_Mod_range_hashingENS3_20_Default_ranged_hashENS3_20_Prime_rehash_policyENS3_17_Hashtable_traitsILb0ELb1ELb1EEEE9_M_rehashEmRKm
FN:2061,_ZNSt10_HashtableINSt7__cxx1112basic_stringIcSt11char_traitsIcESaIcEEESt4pairIKS5_S5_ESaIS8_ENSt8__detail10_Select1stESt8equal_toIS5_ESt4hashIS5_ENSA_18_Mod_range_hashingENSA_20_Default_ranged_hashENSA_20_Prime_rehash_policyENSA_17_Hashtable_traitsILb1ELb0ELb1EEEE9_M_rehashEmRKm
FNDA:0,_ZNSt10_HashtableINSt7__cxx1112basic_stringIcSt11char_traitsIcESaIcEEESt4pairIKS5_S5_ESaIS8_ENSt8__detail10_Select1stESt8equal_toIS5_ESt4hashIS5_ENSA_18_Mod_range_hashingENSA_20_Default_ranged_hashENSA_20_Prime_rehash_policyENSA_17_Hashtable_traitsILb1ELb0ELb1EEEE9_M_rehashEmRKm
FN:2061,_ZNSt10_HashtableIllSaIlENSt8__detail9_IdentityESt8equal_toIlESt4hashIlENS1_18_Mod_range_hashingENS1_20_Default_ranged_hashENS1_20_Prime_rehash_policyENS1_17_Hashtable_traitsILb0ELb1ELb1EEEE9_M_rehashEmRKm
FNDA:0,_ZNSt10_HashtableIllSaIlENSt8__detail9_IdentityESt8equal_toIlESt4hashIlENS1_18_Mod_range_hashingENS1_20_Default_ranged_hashENS1_20_Prime_rehash_policyENS1_17_Hashtable_traitsILb0ELb1ELb1EEEE9_M_rehashEmRKm
FN:2084,_ZNSt10_HashtableINSt7__cxx1112basic_stringIcSt11char_traitsIcESaIcEEESt4pairIKS5_S5_ESaIS8_ENSt8__detail10_Select1stESt8equal_toIS5_ESt4hashIS5_ENSA_18_Mod_range_hashingENSA_20_Default_ranged_hashENSA_20_Prime_rehash_policyENSA_17_Hashtable_traitsILb1ELb0ELb1EEEE13_M_rehash_auxEmSt17integral_constantIbLb1EE
FNDA:0,_ZNSt10_HashtableINSt7__cxx1112basic_stringIcSt11char_traitsIcESaIcEEESt4pairIKS5_S5_ESaIS8_ENSt8__detail10_Select1stESt8equal_toIS5_ESt4hashIS5_ENSA_18_Mod_range_hashingENSA_20_Default_ranged_hashENSA_20_Prime_rehash_policyENSA_17_Hashtable_traitsILb1ELb0ELb1EEEE13_M_rehash_auxEmSt17integral_constantIbLb1EE
FN:2084,_ZNSt10_HashtableIllSaIlENSt8__detail9_IdentityESt8equal_toIlESt4hashIlENS1_18_Mod_range_hashingENS1_20_Default_ranged_hashENS1_20_Prime_rehash_policyENS1_17_Hashtable_traitsILb0ELb1ELb1EEEE13_M_rehash_auxEmSt17integral_constantIbLb1EE
FNDA:0,_ZNSt10_HashtableIllSaIlENSt8__detail9_IdentityESt8equal_toIlESt4hashIlENS1_18_Mod_range_hashingENS1_20_Default_ranged_hashENS1_20_Prime_rehash_policyENS1_17_Hashtable_traitsILb0ELb1ELb1EEEE13_M_rehash_auxEmSt17integral_constantIbLb1EE
FN:2084,_ZNSt10_HashtableIP9nnode_t_tS1_SaIS1_ENSt8__detail9_IdentityESt8equal_toIS1_ESt4hashIS1_ENS3_18_Mod_range_hashingENS3_20_Default_ranged_hashENS3_20_Prime_rehash_policyENS3_17_Hashtable_traitsILb0ELb1ELb1EEEE13_M_rehash_auxEmSt17integral_constantIbLb1EE
FNDA:0,_ZNSt10_HashtableIP9nnode_t_tS1_SaIS1_ENSt8__detail9_IdentityESt8equal_toIS1_ESt4hashIS1_ENS3_18_Mod_range_hashingENS3_20_Default_ranged_hashENS3_20_Prime_rehash_policyENS3_17_Hashtable_traitsILb0ELb1ELb1EEEE13_M_rehash_auxEmSt17integral_constantIbLb1EE
DA:342,0
DA:343,0
DA:342,0
DA:343,0
DA:342,0
DA:343,0
DA:353,0
DA:355,0
DA:357,0
DA:358,0
DA:361,0
DA:353,0
DA:355,0
DA:357,0
DA:358,0
DA:361,0
DA:353,0
DA:355,0
DA:357,0
DA:358,0
DA:361,0
DA:365,0
DA:367,0
DA:368,0
DA:370,0
DA:365,0
DA:367,0
DA:368,0
DA:370,0
DA:365,0
DA:367,0
DA:368,0
DA:370,0
DA:374,0
DA:375,0
DA:374,0
DA:375,0
DA:374,0
DA:375,0
DA:383,0
DA:384,0
DA:383,0
DA:384,0
DA:383,0
DA:384,0
DA:414,0
DA:414,0
DA:414,0
DA:512,0
DA:513,0
DA:512,0
DA:513,0
DA:512,0
DA:513,0
DA:639,0
DA:640,0
DA:639,0
DA:640,0
DA:639,0
DA:640,0
DA:643,0
DA:644,0
DA:643,0
DA:644,0
DA:643,0
DA:644,0
DA:652,0
DA:655,0
DA:656,0
DA:657,0
DA:658,0
DA:652,0
DA:655,0
DA:656,0
DA:657,0
DA:658,0
DA:652,0
DA:655,0
DA:656,0
DA:657,0
DA:658,0
DA:1348,0
DA:1352,0
DA:1353,0
DA:1354,0
DA:1348,0
DA:1352,0
DA:1353,0
DA:1354,0
DA:1348,0
DA:1352,0
DA:1353,0
DA:1354,0
DA:1412,0
DA:1417,0
DA:1418,0
DA:1419,0
DA:1420,0
DA:1412,0
DA:1417,0
DA:1418,0
DA:1419,0
DA:1420,0
DA:1412,0
DA:1417,0
DA:1418,0
DA:1419,0
DA:1420,0
DA:1532,0
DA:1538,0
DA:1539,0
DA:1540,0
DA:1542,0
DA:1543,0
DA:1545,0
DA:1546,0
DA:1548,0
DA:1549,0
DA:1550,0
DA:1552,0
DA:1532,0
DA:1538,0
DA:1539,0
DA:1540,0
DA:1542,0
DA:1543,0
DA:1545,0
DA:1546,0
DA:1548,0
DA:1549,0
DA:1550,0
DA:1552,0
DA:1532,0
DA:1538,0
DA:1539,0
DA:1540,0
DA:1542,0
DA:1543,0
DA:1545,0
DA:1546,0
DA:1548,0
DA:1549,0
DA:1550,0
DA:1552,0
DA:1560,0
DA:1564,0
DA:1568,0
DA:1569,0
DA:1576,0
DA:1577,0
DA:1578,0
DA:1581,0
DA:1582,0
DA:1584,0
DA:1560,0
DA:1564,0
DA:1568,0
DA:1569,0
DA:1576,0
DA:1577,0
DA:1578,0
DA:1581,0
DA:1582,0
DA:1584,0
DA:1560,0
DA:1564,0
DA:1568,0
DA:1569,0
DA:1576,0
DA:1577,0
DA:1578,0
DA:1581,0
DA:1582,0
DA:1584,0
DA:1632,0
DA:1638,0
DA:1639,0
DA:1643,0
DA:1645,0
DA:1647,0
DA:1648,0
DA:1651,0
DA:1652,0
DA:1655,0
DA:1656,0
DA:1660,0
DA:1661,0
DA:1698,0
DA:1704,0
DA:1705,0
DA:1711,0
DA:1713,0
DA:1714,0
DA:1717,0
DA:1720,0
DA:1721,0
DA:1722,0
DA:1724,0
DA:1726,0
DA:1727,0
DA:1698,0
DA:1704,0
DA:1705,0
DA:1711,0
DA:1713,0
DA:1714,0
DA:1717,0
DA:1720,0
DA:1721,0
DA:1722,0
DA:1724,0
DA:1726,0
DA:1727,0
DA:1698,0
DA:1704,0
DA:1705,0
DA:1711,0
DA:1713,0
DA:1714,0
DA:1717,0
DA:1720,0
DA:1721,0
DA:1722,0
DA:1724,0
DA:1726,0
DA:1727,0
DA:1803,0
DA:1809,0
DA:1810,0
DA:1811,0
DA:1813,0
DA:1814,0
DA:1815,0
DA:1817,0
DA:1818,0
DA:1803,0
DA:1809,0
DA:1810,0
DA:1811,0
DA:1813,0
DA:1814,0
DA:1815,0
DA:1817,0
DA:1818,0
DA:2024,0
DA:2028,0
DA:2029,0
DA:2030,0
DA:2031,0
DA:2032,0
DA:2024,0
DA:2028,0
DA:2029,0
DA:2030,0
DA:2031,0
DA:2032,0
DA:2024,0
DA:2028,0
DA:2029,0
DA:2030,0
DA:2031,0
DA:2032,0
DA:2061,0
DA:2067,0
DA:2069,0
DA:2073,0
DA:2074,0
DA:2076,0
DA:2061,0
DA:2067,0
DA:2069,0
DA:2073,0
DA:2074,0
DA:2076,0
DA:2061,0
DA:2067,0
DA:2069,0
DA:2073,0
DA:2074,0
DA:2076,0
DA:2084,0
DA:2088,0
DA:2089,0
DA:2090,0
DA:2091,0
DA:2092,0
DA:2094,0
DA:2095,0
DA:2096,0
DA:2098,0
DA:2099,0
DA:2100,0
DA:2101,0
DA:2102,0
DA:2103,0
DA:2107,0
DA:2108,0
DA:2110,0
DA:2113,0
DA:2114,0
DA:2115,0
DA:2116,0
DA:2084,0
DA:2088,0
DA:2089,0
DA:2090,0
DA:2091,0
DA:2092,0
DA:2094,0
DA:2095,0
DA:2096,0
DA:2098,0
DA:2099,0
DA:2100,0
DA:2101,0
DA:2102,0
DA:2103,0
DA:2107,0
DA:2108,0
DA:2110,0
DA:2113,0
DA:2114,0
DA:2115,0
DA:2116,0
DA:2084,0
DA:2088,0
DA:2089,0
DA:2090,0
DA:2091,0
DA:2092,0
DA:2094,0
DA:2095,0
DA:2096,0
DA:2098,0
DA:2099,0
DA:2100,0
DA:2101,0
DA:2102,0
DA:2103,0
DA:2107,0
DA:2108,0
DA:2110,0
DA:2113,0
DA:2114,0
DA:2115,0
DA:2116,0
end_of_record
SF:/usr/include/c++/9/bits/stl_construct.h
FN:74,_ZSt10_ConstructISt6vectorIaSaIaEEJRKS2_EEvPT_DpOT0_
FNDA:0,_ZSt10_ConstructISt6vectorIaSaIaEEJRKS2_EEvPT_DpOT0_
FN:74,_ZSt10_ConstructINSt7__cxx1112basic_stringIcSt11char_traitsIcESaIcEEEJRKS5_EEvPT_DpOT0_
FNDA:0,_ZSt10_ConstructINSt7__cxx1112basic_stringIcSt11char_traitsIcESaIcEEEJRKS5_EEvPT_DpOT0_
FN:74,_ZSt10_ConstructISt6threadJS0_EEvPT_DpOT0_
FNDA:0,_ZSt10_ConstructISt6threadJS0_EEvPT_DpOT0_
FN:97,_ZSt8_DestroyINSt7__cxx1112basic_stringIcSt11char_traitsIcESaIcEEEEvPT_
FNDA:0,_ZSt8_DestroyINSt7__cxx1112basic_stringIcSt11char_traitsIcESaIcEEEEvPT_
FN:97,_ZSt8_DestroyISt6vectorIaSaIaEEEvPT_
FNDA:0,_ZSt8_DestroyISt6vectorIaSaIaEEEvPT_
FN:97,_ZSt8_DestroyISt6threadEvPT_
FNDA:0,_ZSt8_DestroyISt6threadEvPT_
FN:105,_ZNSt12_Destroy_auxILb0EE9__destroyIPSt6threadEEvT_S4_
FNDA:0,_ZNSt12_Destroy_auxILb0EE9__destroyIPSt6threadEEvT_S4_
FN:105,_ZNSt12_Destroy_auxILb0EE9__destroyIPSt6vectorIaSaIaEEEEvT_S6_
FNDA:0,_ZNSt12_Destroy_auxILb0EE9__destroyIPSt6vectorIaSaIaEEEEvT_S6_
FN:105,_ZNSt12_Destroy_auxILb0EE9__destroyIPNSt7__cxx1112basic_stringIcSt11char_traitsIcESaIcEEEEEvT_S9_
FNDA:0,_ZNSt12_Destroy_auxILb0EE9__destroyIPNSt7__cxx1112basic_stringIcSt11char_traitsIcESaIcEEEEEvT_S9_
FN:117,_ZNSt12_Destroy_auxILb1EE9__destroyIN9__gnu_cxx17__normal_iteratorIPaSt6vectorIaSaIaEEEEEEvT_S9_
FNDA:0,_ZNSt12_Destroy_auxILb1EE9__destroyIN9__gnu_cxx17__normal_iteratorIPaSt6vectorIaSaIaEEEEEEvT_S9_
FN:117,_ZNSt12_Destroy_auxILb1EE9__destroyIPaEEvT_S3_
FNDA:0,_ZNSt12_Destroy_auxILb1EE9__destroyIPaEEvT_S3_
FN:127,_ZSt8_DestroyIPNSt7__cxx1112basic_stringIcSt11char_traitsIcESaIcEEEEvT_S7_
FNDA:0,_ZSt8_DestroyIPNSt7__cxx1112basic_stringIcSt11char_traitsIcESaIcEEEEvT_S7_
FN:127,_ZSt8_DestroyIPSt6vectorIaSaIaEEEvT_S4_
FNDA:0,_ZSt8_DestroyIPSt6vectorIaSaIaEEEvT_S4_
FN:127,_ZSt8_DestroyIN9__gnu_cxx17__normal_iteratorIPaSt6vectorIaSaIaEEEEEvT_S7_
FNDA:0,_ZSt8_DestroyIN9__gnu_cxx17__normal_iteratorIPaSt6vectorIaSaIaEEEEEvT_S7_
FN:127,_ZSt8_DestroyIPaEvT_S1_
FNDA:0,_ZSt8_DestroyIPaEvT_S1_
FN:127,_ZSt8_DestroyIPSt6threadEvT_S2_
FNDA:0,_ZSt8_DestroyIPSt6threadEvT_S2_
FN:203,_ZSt8_DestroyIPNSt7__cxx1112basic_stringIcSt11char_traitsIcESaIcEEES5_EvT_S7_RSaIT0_E
FNDA:0,_ZSt8_DestroyIPNSt7__cxx1112basic_stringIcSt11char_traitsIcESaIcEEES5_EvT_S7_RSaIT0_E
FN:203,_ZSt8_DestroyIPSt6vectorIaSaIaEES2_EvT_S4_RSaIT0_E
FNDA:0,_ZSt8_DestroyIPSt6vectorIaSaIaEES2_EvT_S4_RSaIT0_E
FN:203,_ZSt8_DestroyIN9__gnu_cxx17__normal_iteratorIPaSt6vectorIaSaIaEEEEaEvT_S7_RSaIT0_E
FNDA:0,_ZSt8_DestroyIN9__gnu_cxx17__normal_iteratorIPaSt6vectorIaSaIaEEEEaEvT_S7_RSaIT0_E
FN:203,_ZSt8_DestroyIPaaEvT_S1_RSaIT0_E
FNDA:0,_ZSt8_DestroyIPaaEvT_S1_RSaIT0_E
FN:203,_ZSt8_DestroyIPSt6threadS0_EvT_S2_RSaIT0_E
FNDA:0,_ZSt8_DestroyIPSt6threadS0_EvT_S2_RSaIT0_E
DA:74,0
DA:75,0
DA:74,0
DA:75,0
DA:74,0
DA:75,0
DA:97,0
DA:98,0
DA:97,0
DA:98,0
DA:97,0
DA:98,0
DA:105,0
DA:107,0
DA:108,0
DA:109,0
DA:105,0
DA:107,0
DA:108,0
DA:109,0
DA:105,0
DA:107,0
DA:108,0
DA:109,0
DA:117,0
DA:117,0
DA:127,0
DA:137,0
DA:138,0
DA:127,0
DA:137,0
DA:138,0
DA:127,0
DA:137,0
DA:138,0
DA:127,0
DA:137,0
DA:138,0
DA:127,0
DA:137,0
DA:138,0
DA:203,0
DA:206,0
DA:207,0
DA:203,0
DA:206,0
DA:207,0
DA:203,0
DA:206,0
DA:207,0
DA:203,0
DA:206,0
DA:207,0
DA:203,0
DA:206,0
DA:207,0
end_of_record
SF:/workspace/vtr-verilog-to-routing/ODIN_II/SRC/include/odin_error.h
FN:31,_ZL15_verbose_assertbPKcS0_lS0_
FNDA:0,_ZL15_verbose_assertbPKcS0_lS0_
DA:31,0
DA:33,0
DA:35,0
DA:36,0
DA:37,0
DA:39,0
end_of_record
SF:/workspace/vtr-verilog-to-routing/ODIN_II/SRC/include/AtomicBuffer.hpp
FN:32,_ZN12AtomicBuffer7lock_itEv
FNDA:0,_ZN12AtomicBuffer7lock_itEv
FN:41,_ZN12AtomicBuffer9unlock_itEv
FNDA:0,_ZN12AtomicBuffer9unlock_itEv
FN:49,_ZN12AtomicBuffer3valEh
FNDA:0,_ZN12AtomicBuffer3valEh
FN:54,_ZN12AtomicBuffer8get_bitsEh
FNDA:0,_ZN12AtomicBuffer8get_bitsEh
FN:69,_ZN12AtomicBuffer8set_bitsEhh
FNDA:0,_ZN12AtomicBuffer8set_bitsEhh
FN:88,_ZN12AtomicBufferC2Ea
FNDA:0,_ZN12AtomicBufferC2Ea
FN:105,_ZN12AtomicBuffer15init_all_valuesEa
FNDA:0,_ZN12AtomicBuffer15init_all_valuesEa
FN:112,_ZN12AtomicBuffer19lock_free_get_cycleEv
FNDA:0,_ZN12AtomicBuffer19lock_free_get_cycleEv
FN:117,_ZN12AtomicBuffer22lock_free_update_cycleEl
FNDA:0,_ZN12AtomicBuffer22lock_free_update_cycleEl
FN:123,_ZN12AtomicBuffer19lock_free_get_valueEl
FNDA:0,_ZN12AtomicBuffer19lock_free_get_valueEl
FN:128,_ZN12AtomicBuffer22lock_free_update_valueEal
FNDA:0,_ZN12AtomicBuffer22lock_free_update_valueEal
FN:143,_ZN12AtomicBuffer9get_cycleEv
FNDA:0,_ZN12AtomicBuffer9get_cycleEv
FN:158,_ZN12AtomicBuffer9get_valueEl
FNDA:0,_ZN12AtomicBuffer9get_valueEl
FN:166,_ZN12AtomicBuffer12update_valueEal
FNDA:0,_ZN12AtomicBuffer12update_valueEal
DA:32,0
DA:35,0
DA:37,0
DA:39,0
DA:41,0
DA:43,0
DA:45,0
DA:49,0
DA:51,0
DA:54,0
DA:56,0
DA:57,0
DA:58,0
DA:59,0
DA:61,0
DA:62,0
DA:63,0
DA:64,0
DA:65,0
DA:69,0
DA:71,0
DA:72,0
DA:73,0
DA:75,0
DA:77,0
DA:79,0
DA:80,0
DA:81,0
DA:82,0
DA:83,0
DA:85,0
DA:88,0
DA:89,0
DA:90,0
DA:91,0
DA:92,0
DA:93,0
DA:105,0
DA:107,0
DA:108,0
DA:109,0
DA:110,0
DA:112,0
DA:114,0
DA:117,0
DA:120,0
DA:121,0
DA:123,0
DA:125,0
DA:128,0
DA:130,0
DA:132,0
DA:133,0
DA:135,0
DA:143,0
DA:145,0
DA:146,0
DA:147,0
DA:148,0
DA:158,0
DA:160,0
DA:161,0
DA:162,0
DA:163,0
DA:166,0
DA:168,0
DA:169,0
DA:170,0
DA:172,0
end_of_record
SF:/usr/include/c++/9/utility
FN:174,_ZNSt10__pair_getILm0EE5__getIKNSt7__cxx1112basic_stringIcSt11char_traitsIcESaIcEEES7_EERT_RSt4pairIS9_T0_E
FNDA:0,_ZNSt10__pair_getILm0EE5__getIKNSt7__cxx1112basic_stringIcSt11char_traitsIcESaIcEEES7_EERT_RSt4pairIS9_T0_E
FN:219,_ZSt3getILm0EKNSt7__cxx1112basic_stringIcSt11char_traitsIcESaIcEEES5_ERNSt13tuple_elementIXT_ESt4pairIT0_T1_EE4typeERSB_
FNDA:0,_ZSt3getILm0EKNSt7__cxx1112basic_stringIcSt11char_traitsIcESaIcEEES5_ERNSt13tuple_elementIXT_ESt4pairIT0_T1_EE4typeERSB_
DA:174,0
DA:175,0
DA:219,0
DA:220,0
end_of_record
TN:
SF:/workspace/vtr-verilog-to-routing/ODIN_II/SRC/verilog_preprocessor.cpp
FN:25,_Z17init_veri_preprocv
FNDA:0,_Z17init_veri_preprocv
FN:50,_Z20cleanup_veri_preprocv
FNDA:0,_Z20cleanup_veri_preprocv
FN:84,_Z17clean_veri_defineP11veri_define
FNDA:0,_Z17clean_veri_defineP11veri_define
FN:104,_Z18clean_veri_includeP12veri_include
FNDA:0,_Z18clean_veri_includeP12veri_include
FN:121,_Z15add_veri_definePcS_iP12veri_include
FNDA:0,_Z15add_veri_definePcS_iP12veri_include
FN:190,_Z16add_veri_includePKciP12veri_include
FNDA:0,_Z16add_veri_includePKciP12veri_include
FN:229,_Z19ret_veri_definedvalPKc
FNDA:0,_Z19ret_veri_definedvalPKc
FN:243,_Z15veri_is_definedPKc
FNDA:0,_Z15veri_is_definedPKc
FN:265,_Z16open_source_filePcNSt7__cxx1112basic_stringIcSt11char_traitsIcESaIcEEE
FNDA:0,_Z16open_source_filePcNSt7__cxx1112basic_stringIcSt11char_traitsIcESaIcEEE
FN:295,_Z12veri_preprocP8_IO_FILE
FNDA:0,_Z12veri_preprocP8_IO_FILE
FN:332,_Z15remove_commentsP8_IO_FILE
FNDA:0,_Z15remove_commentsP8_IO_FILE
FN:382,_Z24veri_preproc_bootstrapedP8_IO_FILES0_P12veri_include
FNDA:0,_Z24veri_preproc_bootstrapedP8_IO_FILES0_P12veri_include
FN:595,_Z13is_whitespacec
FNDA:0,_Z13is_whitespacec
FN:603,_Z4trimPc
FNDA:0,_Z4trimPc
FN:608,_Z4trimPcm
FNDA:0,_Z4trimPcm
FN:659,_Z8get_linePcPlP8_IO_FILE
FNDA:0,_Z8get_linePcPlP8_IO_FILE
FN:697,_Z3topP15veri_flag_stack
FNDA:0,_Z3topP15veri_flag_stack
FN:707,_Z3popP15veri_flag_stack
FNDA:0,_Z3popP15veri_flag_stack
FN:722,_Z4pushP15veri_flag_stacki
FNDA:0,_Z4pushP15veri_flag_stacki
DA:25,0
DA:27,0
DA:28,0
DA:30,0
DA:31,0
DA:33,0
DA:34,0
DA:36,0
DA:37,0
DA:39,0
DA:40,0
DA:42,0
DA:43,0
DA:44,0
DA:50,0
DA:54,0
DA:55,0
DA:58,0
DA:60,0
DA:62,0
DA:63,0
DA:64,0
DA:65,0
DA:67,0
DA:69,0
DA:71,0
DA:72,0
DA:73,0
DA:74,0
DA:78,0
DA:84,0
DA:86,0
DA:89,0
DA:91,0
DA:93,0
DA:95,0
DA:96,0
DA:99,0
DA:104,0
DA:106,0
DA:109,0
DA:111,0
DA:112,0
DA:115,0
DA:121,0
DA:124,0
DA:125,0
DA:126,0
DA:128,0
DA:129,0
DA:133,0
DA:135,0
DA:137,0
DA:141,0
DA:143,0
DA:145,0
DA:148,0
DA:151,0
DA:152,0
DA:153,0
DA:161,0
DA:163,0
DA:165,0
DA:166,0
DA:169,0
DA:170,0
DA:175,0
DA:176,0
DA:177,0
DA:178,0
DA:180,0
DA:181,0
DA:183,0
DA:190,0
DA:193,0
DA:194,0
DA:195,0
DA:197,0
DA:198,0
DA:202,0
DA:204,0
DA:206,0
DA:210,0
DA:211,0
DA:212,0
DA:215,0
DA:216,0
DA:217,0
DA:219,0
DA:220,0
DA:222,0
DA:229,0
DA:231,0
DA:232,0
DA:234,0
DA:236,0
DA:243,0
DA:246,0
DA:248,0
DA:250,0
DA:251,0
DA:253,0
DA:256,0
DA:265,0
DA:267,0
DA:268,0
DA:269,0
DA:271,0
DA:274,0
DA:275,0
DA:276,0
DA:279,0
DA:280,0
DA:282,0
DA:284,0
DA:289,0
DA:295,0
DA:300,0
DA:303,0
DA:304,0
DA:306,0
DA:307,0
DA:310,0
DA:311,0
DA:313,0
DA:315,0
DA:316,0
DA:321,0
DA:323,0
DA:324,0
DA:325,0
DA:332,0
DA:334,0
DA:335,0
DA:336,0
DA:338,0
DA:339,0
DA:340,0
DA:341,0
DA:344,0
DA:346,0
DA:349,0
DA:354,0
DA:356,0
DA:357,0
DA:361,0
DA:362,0
DA:368,0
DA:370,0
DA:371,0
DA:375,0
DA:376,0
DA:378,0
DA:379,0
DA:382,0
DA:385,0
DA:387,0
DA:388,0
DA:389,0
DA:390,0
DA:392,0
DA:394,0
DA:399,0
DA:401,0
DA:404,0
DA:406,0
DA:408,0
DA:409,0
DA:411,0
DA:414,0
DA:415,0
DA:417,0
DA:418,0
DA:423,0
DA:427,0
DA:430,0
DA:431,0
DA:432,0
DA:438,0
DA:440,0
DA:444,0
DA:446,0
DA:447,0
DA:450,0
DA:452,0
DA:454,0
DA:457,0
DA:459,0
DA:460,0
DA:462,0
DA:468,0
DA:470,0
DA:475,0
DA:476,0
DA:477,0
DA:481,0
DA:486,0
DA:488,0
DA:492,0
DA:494,0
DA:496,0
DA:498,0
DA:499,0
DA:500,0
DA:503,0
DA:506,0
DA:507,0
DA:509,0
DA:510,0
DA:511,0
DA:513,0
DA:517,0
DA:522,0
DA:525,0
DA:528,0
DA:529,0
DA:531,0
DA:532,0
DA:533,0
DA:535,0
DA:539,0
DA:544,0
DA:547,0
DA:550,0
DA:553,0
DA:554,0
DA:557,0
DA:559,0
DA:560,0
DA:567,0
DA:569,0
DA:572,0
DA:574,0
DA:577,0
DA:579,0
DA:584,0
DA:585,0
DA:586,0
DA:587,0
DA:589,0
DA:590,0
DA:591,0
DA:595,0
DA:597,0
DA:603,0
DA:605,0
DA:608,0
DA:610,0
DA:611,0
DA:612,0
DA:614,0
DA:615,0
DA:616,0
DA:617,0
DA:620,0
DA:622,0
DA:623,0
DA:624,0
DA:626,0
DA:628,0
DA:630,0
DA:632,0
DA:633,0
DA:638,0
DA:639,0
DA:642,0
DA:645,0
DA:646,0
DA:648,0
DA:649,0
DA:652,0
DA:659,0
DA:661,0
DA:662,0
DA:663,0
DA:665,0
DA:667,0
DA:668,0
DA:670,0
DA:671,0
DA:672,0
DA:676,0
DA:680,0
DA:682,0
DA:683,0
DA:686,0
DA:688,0
DA:689,0
DA:697,0
DA:699,0
DA:701,0
DA:703,0
DA:707,0
DA:709,0
DA:711,0
DA:712,0
DA:714,0
DA:715,0
DA:717,0
DA:719,0
DA:722,0
DA:724,0
DA:726,0
DA:727,0
DA:728,0
DA:730,0
DA:732,0
end_of_record
SF:/usr/include/c++/9/ext/type_traits.h
FN:152,_ZN9__gnu_cxx17__is_null_pointerIKcEEbPT_
FNDA:0,_ZN9__gnu_cxx17__is_null_pointerIKcEEbPT_
DA:152,0
DA:153,0
end_of_record
SF:/usr/include/c++/9/ext/new_allocator.h
FN:80,_ZN9__gnu_cxx13new_allocatorIcEC2Ev
FNDA:0,_ZN9__gnu_cxx13new_allocatorIcEC2Ev
FN:89,_ZN9__gnu_cxx13new_allocatorIcED2Ev
FNDA:0,_ZN9__gnu_cxx13new_allocatorIcED2Ev
DA:80,0
DA:89,0
end_of_record
SF:/usr/include/c++/9/bits/basic_string.tcc
FN:206,_ZNSt7__cxx1112basic_stringIcSt11char_traitsIcESaIcEE12_M_constructIPKcEEvT_S8_St20forward_iterator_tag
FNDA:0,_ZNSt7__cxx1112basic_stringIcSt11char_traitsIcESaIcEE12_M_constructIPKcEEvT_S8_St20forward_iterator_tag
DA:206,0
DA:211,0
DA:212,0
DA:215,0
DA:217,0
DA:219,0
DA:220,0
DA:225,0
DA:226,0
DA:228,0
DA:229,0
DA:232,0
DA:233,0
end_of_record
SF:/usr/include/c++/9/bits/stl_iterator_base_funcs.h
FN:98,_ZSt10__distanceIPKcENSt15iterator_traitsIT_E15difference_typeES3_S3_St26random_access_iterator_tag
FNDA:0,_ZSt10__distanceIPKcENSt15iterator_traitsIT_E15difference_typeES3_S3_St26random_access_iterator_tag
FN:138,_ZSt8distanceIPKcENSt15iterator_traitsIT_E15difference_typeES3_S3_
FNDA:0,_ZSt8distanceIPKcENSt15iterator_traitsIT_E15difference_typeES3_S3_
DA:98,0
DA:104,0
DA:138,0
DA:141,0
DA:142,0
end_of_record
SF:/usr/include/c++/9/iostream
end_of_record
SF:/usr/include/c++/9/bits/basic_string.h
FN:243,_ZNSt7__cxx1112basic_stringIcSt11char_traitsIcESaIcEE16_M_construct_auxIPKcEEvT_S8_St12__false_type
FNDA:0,_ZNSt7__cxx1112basic_stringIcSt11char_traitsIcESaIcEE16_M_construct_auxIPKcEEvT_S8_St12__false_type
FN:263,_ZNSt7__cxx1112basic_stringIcSt11char_traitsIcESaIcEE12_M_constructIPKcEEvT_S8_
FNDA:0,_ZNSt7__cxx1112basic_stringIcSt11char_traitsIcESaIcEE12_M_constructIPKcEEvT_S8_
DA:243,0
DA:247,0
DA:248,0
DA:263,0
DA:266,0
DA:267,0
end_of_record
SF:/usr/include/c++/9/bits/stl_vector.h
FN:1040,_ZNSt6vectorINSt7__cxx1112basic_stringIcSt11char_traitsIcESaIcEEESaIS5_EEixEm
FNDA:0,_ZNSt6vectorINSt7__cxx1112basic_stringIcSt11char_traitsIcESaIcEEESaIS5_EEixEm
DA:1040,0
DA:1043,0
end_of_record
SF:/usr/include/c++/9/bits/stl_iterator_base_types.h
FN:205,_ZSt19__iterator_categoryIPKcENSt15iterator_traitsIT_E17iterator_categoryERKS3_
FNDA:0,_ZSt19__iterator_categoryIPKcENSt15iterator_traitsIT_E17iterator_categoryERKS3_
DA:205,0
DA:206,0
end_of_record
SF:/usr/include/c++/9/bits/char_traits.h
FN:329,_ZNSt11char_traitsIcE6lengthEPKc
FNDA:0,_ZNSt11char_traitsIcE6lengthEPKc
DA:329,0
DA:335,0
end_of_record
TN:
SF:/workspace/vtr-verilog-to-routing/ODIN_II/SRC/include/odin_error.h
FN:31,_ZL15_verbose_assertbPKcS0_lS0_
FNDA:0,_ZL15_verbose_assertbPKcS0_lS0_
DA:31,0
DA:33,0
DA:35,0
DA:36,0
DA:37,0
DA:39,0
end_of_record
SF:/usr/include/c++/9/iostream
end_of_record
SF:/workspace/vtr-verilog-to-routing/ODIN_II/SRC/partial_map.cpp
FN:70,_Z15partial_map_topP11netlist_t_t
FNDA:0,_Z15partial_map_topP11netlist_t_t
FN:83,_Z36depth_first_traversal_to_partial_mapsP11netlist_t_t
FNDA:0,_Z36depth_first_traversal_to_partial_mapsP11netlist_t_t
FN:104,_Z32depth_first_traverse_parital_mapP9nnode_t_tiP11netlist_t_t
FNDA:0,_Z32depth_first_traverse_parital_mapP9nnode_t_tiP11netlist_t_t
FN:145,_Z16partial_map_nodeP9nnode_t_tsP11netlist_t_t
FNDA:0,_Z16partial_map_nodeP9nnode_t_tsP11netlist_t_t
FN:318,_Z26instantiate_soft_logic_ramP9nnode_t_tsP11netlist_t_t
FNDA:0,_Z26instantiate_soft_logic_ramP9nnode_t_tsP11netlist_t_t
FN:333,_Z26instantiate_multi_port_muxP9nnode_t_tsP11netlist_t_t
FNDA:0,_Z26instantiate_multi_port_muxP9nnode_t_tsP11netlist_t_t
FN:376,_Z21instantiate_not_logicP9nnode_t_tsP11netlist_t_t
FNDA:0,_Z21instantiate_not_logicP9nnode_t_tsP11netlist_t_t
FN:405,_Z18instantiate_bufferP9nnode_t_tsP11netlist_t_t
FNDA:0,_Z18instantiate_bufferP9nnode_t_tsP11netlist_t_t
FN:426,_Z25instantiate_logical_logicP9nnode_t_t14operation_listsP11netlist_t_t
FNDA:0,_Z25instantiate_logical_logicP9nnode_t_t14operation_listsP11netlist_t_t
FN:490,_Z29instantiate_bitwise_reductionP9nnode_t_t14operation_listsP11netlist_t_t
FNDA:0,_Z29instantiate_bitwise_reductionP9nnode_t_t14operation_listsP11netlist_t_t
FN:560,_Z25instantiate_bitwise_logicP9nnode_t_t14operation_listsP11netlist_t_t
FNDA:0,_Z25instantiate_bitwise_logicP9nnode_t_t14operation_listsP11netlist_t_t
FN:626,_Z23instantiate_add_w_carryP9nnode_t_tsP11netlist_t_t
FNDA:0,_Z23instantiate_add_w_carryP9nnode_t_tsP11netlist_t_t
FN:653,_Z23instantiate_sub_w_carryP9nnode_t_tsP11netlist_t_t
FNDA:0,_Z23instantiate_sub_w_carryP9nnode_t_tsP11netlist_t_t
FN:683,_Z21instantiate_unary_subP9nnode_t_tsP11netlist_t_t
FNDA:0,_Z21instantiate_unary_subP9nnode_t_tsP11netlist_t_t
FN:694,_Z17instantiate_EQUALP9nnode_t_t14operation_listsP11netlist_t_t
FNDA:0,_Z17instantiate_EQUALP9nnode_t_t14operation_listsP11netlist_t_t
FN:782,_Z14instantiate_GTP9nnode_t_t14operation_listsP11netlist_t_t
FNDA:0,_Z14instantiate_GTP9nnode_t_t14operation_listsP11netlist_t_t
FN:943,_Z14instantiate_GEP9nnode_t_t14operation_listsP11netlist_t_t
FNDA:0,_Z14instantiate_GEP9nnode_t_t14operation_listsP11netlist_t_t
FN:1026,_Z31instantiate_shift_left_or_rightP9nnode_t_t14operation_listsP11netlist_t_t
FNDA:0,_Z31instantiate_shift_left_or_rightP9nnode_t_t14operation_listsP11netlist_t_t
FN:1119,_Z34instantiate_arithmetic_shift_rightP9nnode_t_tsP11netlist_t_t
FNDA:0,_Z34instantiate_arithmetic_shift_rightP9nnode_t_tsP11netlist_t_t
DA:70,0
DA:73,0
DA:76,0
DA:78,0
DA:83,0
DA:88,0
DA:90,0
DA:92,0
DA:96,0
DA:97,0
DA:98,0
DA:99,0
DA:104,0
DA:110,0
DA:115,0
DA:117,0
DA:119,0
DA:120,0
DA:122,0
DA:123,0
DA:125,0
DA:126,0
DA:128,0
DA:129,0
DA:130,0
DA:133,0
DA:138,0
DA:140,0
DA:145,0
DA:147,0
DA:149,0
DA:150,0
DA:151,0
DA:152,0
DA:153,0
DA:154,0
DA:156,0
DA:162,0
DA:164,0
DA:166,0
DA:168,0
DA:171,0
DA:172,0
DA:174,0
DA:180,0
DA:182,0
DA:184,0
DA:186,0
DA:188,0
DA:190,0
DA:191,0
DA:193,0
DA:195,0
DA:197,0
DA:198,0
DA:199,0
DA:201,0
DA:203,0
DA:204,0
DA:205,0
DA:207,0
DA:209,0
DA:211,0
DA:213,0
DA:215,0
DA:218,0
DA:221,0
DA:223,0
DA:225,0
DA:227,0
DA:230,0
DA:233,0
DA:234,0
DA:236,0
DA:237,0
DA:238,0
DA:240,0
DA:241,0
DA:242,0
DA:244,0
DA:245,0
DA:246,0
DA:248,0
DA:249,0
DA:250,0
DA:251,0
DA:252,0
DA:253,0
DA:254,0
DA:255,0
DA:256,0
DA:258,0
DA:259,0
DA:260,0
DA:261,0
DA:262,0
DA:264,0
DA:266,0
DA:268,0
DA:269,0
DA:270,0
DA:272,0
DA:273,0
DA:276,0
DA:278,0
DA:282,0
DA:283,0
DA:288,0
DA:290,0
DA:292,0
DA:293,0
DA:295,0
DA:296,0
DA:307,0
DA:308,0
DA:313,0
DA:314,0
DA:316,0
DA:318,0
DA:320,0
DA:321,0
DA:322,0
DA:323,0
DA:325,0
DA:326,0
DA:333,0
DA:342,0
DA:343,0
DA:344,0
DA:346,0
DA:347,0
DA:349,0
DA:352,0
DA:354,0
DA:357,0
DA:360,0
DA:361,0
DA:363,0
DA:367,0
DA:369,0
DA:370,0
DA:371,0
DA:376,0
DA:378,0
DA:382,0
DA:384,0
DA:386,0
DA:390,0
DA:393,0
DA:394,0
DA:397,0
DA:398,0
DA:399,0
DA:405,0
DA:407,0
DA:411,0
DA:413,0
DA:416,0
DA:419,0
DA:421,0
DA:426,0
DA:436,0
DA:437,0
DA:438,0
DA:440,0
DA:441,0
DA:442,0
DA:445,0
DA:446,0
DA:447,0
DA:450,0
DA:453,0
DA:455,0
DA:460,0
DA:463,0
DA:466,0
DA:468,0
DA:473,0
DA:477,0
DA:478,0
DA:480,0
DA:481,0
DA:483,0
DA:484,0
DA:485,0
DA:490,0
DA:497,0
DA:498,0
DA:499,0
DA:501,0
DA:503,0
DA:505,0
DA:507,0
DA:508,0
DA:509,0
DA:511,0
DA:512,0
DA:513,0
DA:515,0
DA:516,0
DA:517,0
DA:519,0
DA:520,0
DA:521,0
DA:523,0
DA:524,0
DA:525,0
DA:527,0
DA:528,0
DA:529,0
DA:530,0
DA:531,0
DA:532,0
DA:535,0
DA:538,0
DA:541,0
DA:543,0
DA:548,0
DA:552,0
DA:553,0
DA:554,0
DA:560,0
DA:565,0
DA:566,0
DA:567,0
DA:569,0
DA:571,0
DA:572,0
DA:573,0
DA:574,0
DA:575,0
DA:576,0
DA:577,0
DA:578,0
DA:579,0
DA:580,0
DA:581,0
DA:582,0
DA:583,0
DA:584,0
DA:585,0
DA:586,0
DA:587,0
DA:588,0
DA:589,0
DA:590,0
DA:591,0
DA:592,0
DA:596,0
DA:598,0
DA:599,0
DA:601,0
DA:604,0
DA:605,0
DA:609,0
DA:611,0
DA:614,0
DA:617,0
DA:626,0
DA:629,0
DA:631,0
DA:633,0
DA:635,0
DA:636,0
DA:638,0
DA:640,0
DA:641,0
DA:643,0
DA:645,0
DA:646,0
DA:653,0
DA:656,0
DA:658,0
DA:660,0
DA:661,0
DA:663,0
DA:665,0
DA:666,0
DA:668,0
DA:670,0
DA:671,0
DA:674,0
DA:676,0
DA:677,0
DA:683,0
DA:685,0
DA:686,0
DA:694,0
DA:704,0
DA:705,0
DA:706,0
DA:707,0
DA:708,0
DA:709,0
DA:710,0
DA:713,0
DA:715,0
DA:716,0
DA:720,0
DA:721,0
DA:727,0
DA:730,0
DA:732,0
DA:735,0
DA:740,0
DA:744,0
DA:746,0
DA:750,0
DA:755,0
DA:760,0
DA:764,0
DA:766,0
DA:767,0
DA:769,0
DA:772,0
DA:774,0
DA:775,0
DA:782,0
DA:792,0
DA:793,0
DA:798,0
DA:799,0
DA:800,0
DA:801,0
DA:802,0
DA:803,0
DA:804,0
DA:807,0
DA:809,0
DA:810,0
DA:811,0
DA:812,0
DA:814,0
DA:816,0
DA:817,0
DA:818,0
DA:819,0
DA:823,0
DA:824,0
DA:825,0
DA:826,0
DA:827,0
DA:831,0
DA:834,0
DA:838,0
DA:840,0
DA:842,0
DA:844,0
DA:846,0
DA:847,0
DA:849,0
DA:854,0
DA:857,0
DA:860,0
DA:861,0
DA:862,0
DA:867,0
DA:868,0
DA:869,0
DA:872,0
DA:876,0
DA:877,0
DA:878,0
DA:883,0
DA:884,0
DA:885,0
DA:888,0
DA:891,0
DA:894,0
DA:899,0
DA:901,0
DA:904,0
DA:907,0
DA:913,0
DA:917,0
DA:919,0
DA:921,0
DA:926,0
DA:927,0
DA:928,0
DA:930,0
DA:933,0
DA:934,0
DA:935,0
DA:936,0
DA:943,0
DA:955,0
DA:956,0
DA:957,0
DA:958,0
DA:959,0
DA:960,0
DA:961,0
DA:962,0
DA:964,0
DA:965,0
DA:968,0
DA:970,0
DA:971,0
DA:973,0
DA:976,0
DA:979,0
DA:982,0
DA:983,0
DA:988,0
DA:989,0
DA:992,0
DA:996,0
DA:997,0
DA:1002,0
DA:1003,0
DA:1006,0
DA:1007,0
DA:1010,0
DA:1011,0
DA:1014,0
DA:1016,0
DA:1017,0
DA:1019,0
DA:1020,0
DA:1026,0
DA:1034,0
DA:1036,0
DA:1039,0
DA:1043,0
DA:1044,0
DA:1047,0
DA:1049,0
DA:1054,0
DA:1057,0
DA:1061,0
DA:1064,0
DA:1067,0
DA:1070,0
DA:1071,0
DA:1079,0
DA:1082,0
DA:1086,0
DA:1089,0
DA:1091,0
DA:1094,0
DA:1095,0
DA:1099,0
DA:1101,0
DA:1104,0
DA:1107,0
DA:1108,0
DA:1109,0
DA:1111,0
DA:1112,0
DA:1113,0
DA:1119,0
DA:1126,0
DA:1127,0
DA:1130,0
DA:1134,0
DA:1135,0
DA:1137,0
DA:1139,0
DA:1142,0
DA:1145,0
DA:1146,0
DA:1147,0
DA:1150,0
DA:1151,0
DA:1153,0
DA:1155,0
DA:1158,0
DA:1159,0
end_of_record
SF:/usr/include/c++/9/bits/stl_algobase.h
FN:222,_ZSt3maxIiERKT_S2_S2_
FNDA:0,_ZSt3maxIiERKT_S2_S2_
DA:222,0
DA:227,0
DA:228,0
DA:229,0
end_of_record
TN:
SF:/usr/include/c++/9/iostream
end_of_record
SF:/workspace/vtr-verilog-to-routing/ODIN_II/SRC/include/odin_error.h
FN:31,_ZL15_verbose_assertbPKcS0_lS0_
FNDA:0,_ZL15_verbose_assertbPKcS0_lS0_
DA:31,0
DA:33,0
DA:35,0
DA:36,0
DA:37,0
DA:39,0
end_of_record
SF:/workspace/vtr-verilog-to-routing/ODIN_II/SRC/subtractions.cpp
FN:59,_Z23report_sub_distributionv
FNDA:0,_Z23report_sub_distributionv
FN:84,_Z26declare_hard_adder_for_subP9nnode_t_t
FNDA:0,_Z26declare_hard_adder_for_subP9nnode_t_t
FN:122,_Z34instantiate_hard_adder_subtractionP9nnode_t_tsP11netlist_t_t
FNDA:0,_Z34instantiate_hard_adder_subtractionP9nnode_t_tsP11netlist_t_t
FN:164,_Z24init_split_adder_for_subP9nnode_t_tS0_iiiiiiii
FNDA:0,_Z24init_split_adder_for_subP9nnode_t_tS0_iiiiiiii
FN:366,_Z19split_adder_for_subP9nnode_t_tiiiiiiiP11netlist_t_t
FNDA:0,_Z19split_adder_for_subP9nnode_t_tiiiiiiiP11netlist_t_t
FN:672,_Z22iterate_adders_for_subP11netlist_t_t
FNDA:0,_Z22iterate_adders_for_subP11netlist_t_t
FN:745,_Z20clean_adders_for_subv
FNDA:0,_Z20clean_adders_for_subv
DA:59,0
DA:61,0
DA:62,0
DA:64,0
DA:65,0
DA:66,0
DA:67,0
DA:69,0
DA:70,0
DA:72,0
DA:73,0
DA:75,0
DA:76,0
DA:78,0
DA:84,0
DA:90,0
DA:92,0
DA:94,0
DA:95,0
DA:96,0
DA:97,0
DA:99,0
DA:101,0
DA:102,0
DA:104,0
DA:108,0
DA:109,0
DA:110,0
DA:111,0
DA:112,0
DA:113,0
DA:114,0
DA:115,0
DA:116,0
DA:122,0
DA:127,0
DA:130,0
DA:131,0
DA:132,0
DA:136,0
DA:140,0
DA:141,0
DA:144,0
DA:146,0
DA:148,0
DA:149,0
DA:150,0
DA:151,0
DA:155,0
DA:156,0
DA:164,0
DA:167,0
DA:169,0
DA:170,0
DA:175,0
DA:178,0
DA:179,0
DA:180,0
DA:181,0
DA:184,0
DA:186,0
DA:187,0
DA:188,0
DA:189,0
DA:190,0
DA:192,0
DA:193,0
DA:197,0
DA:198,0
DA:199,0
DA:201,0
DA:205,0
DA:206,0
DA:208,0
DA:209,0
DA:210,0
DA:212,0
DA:217,0
DA:218,0
DA:219,0
DA:220,0
DA:221,0
DA:222,0
DA:223,0
DA:224,0
DA:227,0
DA:228,0
DA:230,0
DA:233,0
DA:234,0
DA:237,0
DA:239,0
DA:240,0
DA:242,0
DA:244,0
DA:245,0
DA:247,0
DA:249,0
DA:251,0
DA:252,0
DA:254,0
DA:256,0
DA:257,0
DA:258,0
DA:260,0
DA:261,0
DA:266,0
DA:268,0
DA:269,0
DA:270,0
DA:272,0
DA:273,0
DA:278,0
DA:280,0
DA:282,0
DA:283,0
DA:285,0
DA:287,0
DA:288,0
DA:289,0
DA:295,0
DA:297,0
DA:298,0
DA:299,0
DA:305,0
DA:307,0
DA:309,0
DA:310,0
DA:311,0
DA:316,0
DA:317,0
DA:319,0
DA:320,0
DA:321,0
DA:327,0
DA:328,0
DA:331,0
DA:333,0
DA:338,0
DA:339,0
DA:341,0
DA:343,0
DA:344,0
DA:345,0
DA:346,0
DA:348,0
DA:366,0
DA:372,0
DA:373,0
DA:378,0
DA:381,0
DA:383,0
DA:384,0
DA:388,0
DA:389,0
DA:392,0
DA:393,0
DA:395,0
DA:397,0
DA:398,0
DA:399,0
DA:401,0
DA:404,0
DA:406,0
DA:407,0
DA:408,0
DA:409,0
DA:411,0
DA:412,0
DA:415,0
DA:417,0
DA:418,0
DA:422,0
DA:423,0
DA:426,0
DA:428,0
DA:429,0
DA:433,0
DA:434,0
DA:439,0
DA:442,0
DA:445,0
DA:447,0
DA:448,0
DA:450,0
DA:451,0
DA:452,0
DA:453,0
DA:455,0
DA:457,0
DA:461,0
DA:463,0
DA:464,0
DA:465,0
DA:467,0
DA:469,0
DA:470,0
DA:471,0
DA:474,0
DA:479,0
DA:481,0
DA:482,0
DA:484,0
DA:485,0
DA:489,0
DA:491,0
DA:492,0
DA:493,0
DA:495,0
DA:497,0
DA:498,0
DA:499,0
DA:502,0
DA:506,0
DA:508,0
DA:509,0
DA:510,0
DA:512,0
DA:514,0
DA:518,0
DA:520,0
DA:521,0
DA:522,0
DA:524,0
DA:526,0
DA:527,0
DA:528,0
DA:531,0
DA:537,0
DA:538,0
DA:540,0
DA:541,0
DA:542,0
DA:544,0
DA:546,0
DA:547,0
DA:548,0
DA:551,0
DA:557,0
DA:560,0
DA:561,0
DA:563,0
DA:564,0
DA:568,0
DA:569,0
DA:571,0
DA:575,0
DA:577,0
DA:578,0
DA:580,0
DA:582,0
DA:583,0
DA:585,0
DA:591,0
DA:592,0
DA:594,0
DA:596,0
DA:598,0
DA:599,0
DA:602,0
DA:604,0
DA:610,0
DA:612,0
DA:613,0
DA:616,0
DA:618,0
DA:623,0
DA:626,0
DA:628,0
DA:630,0
DA:631,0
DA:634,0
DA:636,0
DA:641,0
DA:643,0
DA:649,0
DA:650,0
DA:651,0
DA:654,0
DA:655,0
DA:656,0
DA:657,0
DA:658,0
DA:659,0
DA:672,0
DA:680,0
DA:683,0
DA:684,0
DA:688,0
DA:689,0
DA:690,0
DA:692,0
DA:694,0
DA:696,0
DA:697,0
DA:699,0
DA:700,0
DA:702,0
DA:703,0
DA:704,0
DA:706,0
DA:707,0
DA:709,0
DA:712,0
DA:713,0
DA:715,0
DA:717,0
DA:718,0
DA:720,0
DA:722,0
DA:723,0
DA:725,0
DA:726,0
DA:728,0
DA:732,0
DA:736,0
DA:745,0
DA:747,0
DA:748,0
DA:749,0
DA:750,0
DA:751,0
end_of_record
TN:
SF:/usr/include/c++/9/bits/stl_vector.h
FN:94,_ZNSt12_Vector_baseINSt7__cxx1112basic_stringIcSt11char_traitsIcESaIcEEESaIS5_EE17_Vector_impl_dataC2Ev
FNDA:0,_ZNSt12_Vector_baseINSt7__cxx1112basic_stringIcSt11char_traitsIcESaIcEEESaIS5_EE17_Vector_impl_dataC2Ev
FN:128,_ZNSt12_Vector_baseINSt7__cxx1112basic_stringIcSt11char_traitsIcESaIcEEESaIS5_EE12_Vector_implC2Ev
FNDA:0,_ZNSt12_Vector_baseINSt7__cxx1112basic_stringIcSt11char_traitsIcESaIcEEESaIS5_EE12_Vector_implC2Ev
FN:273,_ZNSt12_Vector_baseINSt7__cxx1112basic_stringIcSt11char_traitsIcESaIcEEESaIS5_EE19_M_get_Tp_allocatorEv
FNDA:0,_ZNSt12_Vector_baseINSt7__cxx1112basic_stringIcSt11char_traitsIcESaIcEEESaIS5_EE19_M_get_Tp_allocatorEv
FN:277,_ZNKSt12_Vector_baseINSt7__cxx1112basic_stringIcSt11char_traitsIcESaIcEEESaIS5_EE19_M_get_Tp_allocatorEv
FNDA:0,_ZNKSt12_Vector_baseINSt7__cxx1112basic_stringIcSt11char_traitsIcESaIcEEESaIS5_EE19_M_get_Tp_allocatorEv
FN:285,_ZNSt12_Vector_baseINSt7__cxx1112basic_stringIcSt11char_traitsIcESaIcEEESaIS5_EEC2Ev
FNDA:0,_ZNSt12_Vector_baseINSt7__cxx1112basic_stringIcSt11char_traitsIcESaIcEEESaIS5_EEC2Ev
FN:330,_ZNSt12_Vector_baseINSt7__cxx1112basic_stringIcSt11char_traitsIcESaIcEEESaIS5_EED2Ev
FNDA:0,_ZNSt12_Vector_baseINSt7__cxx1112basic_stringIcSt11char_traitsIcESaIcEEESaIS5_EED2Ev
FN:340,_ZNSt12_Vector_baseINSt7__cxx1112basic_stringIcSt11char_traitsIcESaIcEEESaIS5_EE11_M_allocateEm
FNDA:0,_ZNSt12_Vector_baseINSt7__cxx1112basic_stringIcSt11char_traitsIcESaIcEEESaIS5_EE11_M_allocateEm
FN:347,_ZNSt12_Vector_baseINSt7__cxx1112basic_stringIcSt11char_traitsIcESaIcEEESaIS5_EE13_M_deallocateEPS5_m
FNDA:0,_ZNSt12_Vector_baseINSt7__cxx1112basic_stringIcSt11char_traitsIcESaIcEEESaIS5_EE13_M_deallocateEPS5_m
FN:428,_ZNSt6vectorINSt7__cxx1112basic_stringIcSt11char_traitsIcESaIcEEESaIS5_EE19_S_nothrow_relocateESt17integral_constantIbLb1EE
FNDA:0,_ZNSt6vectorINSt7__cxx1112basic_stringIcSt11char_traitsIcESaIcEEESaIS5_EE19_S_nothrow_relocateESt17integral_constantIbLb1EE
FN:441,_ZNSt6vectorINSt7__cxx1112basic_stringIcSt11char_traitsIcESaIcEEESaIS5_EE15_S_use_relocateEv
FNDA:0,_ZNSt6vectorINSt7__cxx1112basic_stringIcSt11char_traitsIcESaIcEEESaIS5_EE15_S_use_relocateEv
FN:450,_ZNSt6vectorINSt7__cxx1112basic_stringIcSt11char_traitsIcESaIcEEESaIS5_EE14_S_do_relocateEPS5_S8_S8_RS6_St17integral_constantIbLb1EE
FNDA:0,_ZNSt6vectorINSt7__cxx1112basic_stringIcSt11char_traitsIcESaIcEEESaIS5_EE14_S_do_relocateEPS5_S8_S8_RS6_St17integral_constantIbLb1EE
FN:462,_ZNSt6vectorINSt7__cxx1112basic_stringIcSt11char_traitsIcESaIcEEESaIS5_EE11_S_relocateEPS5_S8_S8_RS6_
FNDA:0,_ZNSt6vectorINSt7__cxx1112basic_stringIcSt11char_traitsIcESaIcEEESaIS5_EE11_S_relocateEPS5_S8_S8_RS6_
FN:484,_ZNSt6vectorINSt7__cxx1112basic_stringIcSt11char_traitsIcESaIcEEESaIS5_EEC2Ev
FNDA:0,_ZNSt6vectorINSt7__cxx1112basic_stringIcSt11char_traitsIcESaIcEEESaIS5_EEC2Ev
FN:675,_ZNSt6vectorINSt7__cxx1112basic_stringIcSt11char_traitsIcESaIcEEESaIS5_EED2Ev
FNDA:0,_ZNSt6vectorINSt7__cxx1112basic_stringIcSt11char_traitsIcESaIcEEESaIS5_EED2Ev
FN:808,_ZNSt6vectorINSt7__cxx1112basic_stringIcSt11char_traitsIcESaIcEEESaIS5_EE5beginEv
FNDA:0,_ZNSt6vectorINSt7__cxx1112basic_stringIcSt11char_traitsIcESaIcEEESaIS5_EE5beginEv
FN:826,_ZNSt6vectorINSt7__cxx1112basic_stringIcSt11char_traitsIcESaIcEEESaIS5_EE3endEv
FNDA:0,_ZNSt6vectorINSt7__cxx1112basic_stringIcSt11char_traitsIcESaIcEEESaIS5_EE3endEv
FN:915,_ZNKSt6vectorINSt7__cxx1112basic_stringIcSt11char_traitsIcESaIcEEESaIS5_EE4sizeEv
FNDA:0,_ZNKSt6vectorINSt7__cxx1112basic_stringIcSt11char_traitsIcESaIcEEESaIS5_EE4sizeEv
FN:920,_ZNKSt6vectorINSt7__cxx1112basic_stringIcSt11char_traitsIcESaIcEEESaIS5_EE8max_sizeEv
FNDA:0,_ZNKSt6vectorINSt7__cxx1112basic_stringIcSt11char_traitsIcESaIcEEESaIS5_EE8max_sizeEv
FN:1040,_ZNSt6vectorINSt7__cxx1112basic_stringIcSt11char_traitsIcESaIcEEESaIS5_EEixEm
FNDA:0,_ZNSt6vectorINSt7__cxx1112basic_stringIcSt11char_traitsIcESaIcEEESaIS5_EEixEm
FN:1200,_ZNSt6vectorINSt7__cxx1112basic_stringIcSt11char_traitsIcESaIcEEESaIS5_EE9push_backEOS5_
FNDA:0,_ZNSt6vectorINSt7__cxx1112basic_stringIcSt11char_traitsIcESaIcEEESaIS5_EE9push_backEOS5_
FN:1753,_ZNKSt6vectorINSt7__cxx1112basic_stringIcSt11char_traitsIcESaIcEEESaIS5_EE12_M_check_lenEmPKc
FNDA:0,_ZNKSt6vectorINSt7__cxx1112basic_stringIcSt11char_traitsIcESaIcEEESaIS5_EE12_M_check_lenEmPKc
FN:1773,_ZNSt6vectorINSt7__cxx1112basic_stringIcSt11char_traitsIcESaIcEEESaIS5_EE11_S_max_sizeERKS6_
FNDA:0,_ZNSt6vectorINSt7__cxx1112basic_stringIcSt11char_traitsIcESaIcEEESaIS5_EE11_S_max_sizeERKS6_
DA:94,0
DA:95,0
DA:96,0
DA:128,0
DA:130,0
DA:131,0
DA:273,0
DA:274,0
DA:277,0
DA:278,0
DA:285,0
DA:330,0
DA:332,0
DA:333,0
DA:334,0
DA:340,0
DA:343,0
DA:347,0
DA:350,0
DA:351,0
DA:352,0
DA:428,0
DA:433,0
DA:441,0
DA:446,0
DA:450,0
DA:453,0
DA:462,0
DA:466,0
DA:484,0
DA:675,0
DA:677,0
DA:678,0
DA:680,0
DA:808,0
DA:809,0
DA:826,0
DA:827,0
DA:915,0
DA:916,0
DA:920,0
DA:921,0
DA:1040,0
DA:1043,0
DA:1200,0
DA:1201,0
DA:1753,0
DA:1755,0
DA:1756,0
DA:1758,0
DA:1759,0
DA:1773,0
DA:1778,0
DA:1780,0
DA:1781,0
end_of_record
SF:/usr/include/c++/9/bits/stl_pair.h
FN:311,_ZNSt4pairIPSt18_Rb_tree_node_baseS1_EC2IRS1_Lb1EEEOT_RKS1_
FNDA:0,_ZNSt4pairIPSt18_Rb_tree_node_baseS1_EC2IRS1_Lb1EEEOT_RKS1_
FN:325,_ZNSt4pairIPSt18_Rb_tree_node_baseS1_EC2IRS1_Lb1EEERKS1_OT_
FNDA:0,_ZNSt4pairIPSt18_Rb_tree_node_baseS1_EC2IRS1_Lb1EEERKS1_OT_
FN:341,_ZNSt4pairIPSt18_Rb_tree_node_baseS1_EC2IRPSt13_Rb_tree_nodeIS_IKNSt7__cxx1112basic_stringIcSt11char_traitsIcESaIcEEEP20soft_sub_structure_tEERS1_Lb1EEEOT_OT0_
FNDA:0,_ZNSt4pairIPSt18_Rb_tree_node_baseS1_EC2IRPSt13_Rb_tree_nodeIS_IKNSt7__cxx1112basic_stringIcSt11char_traitsIcESaIcEEEP20soft_sub_structure_tEERS1_Lb1EEEOT_OT0_
FN:341,_ZNSt4pairIPSt18_Rb_tree_node_baseS1_EC2IRS1_S4_Lb1EEEOT_OT0_
FNDA:0,_ZNSt4pairIPSt18_Rb_tree_node_baseS1_EC2IRS1_S4_Lb1EEEOT_OT0_
DA:311,0
DA:312,0
DA:325,0
DA:326,0
DA:341,0
DA:342,0
DA:341,0
DA:342,0
end_of_record
SF:/workspace/vtr-verilog-to-routing/libs/EXTERNAL/libargparse/src/argparse_value.hpp
FN:50,_ZNK8argparse8ArgValueIPcEcvS1_Ev
FNDA:0,_ZNK8argparse8ArgValueIPcEcvS1_Ev
DA:50,0
end_of_record
SF:/usr/include/c++/9/bits/stl_function.h
FN:385,_ZNKSt4lessINSt7__cxx1112basic_stringIcSt11char_traitsIcESaIcEEEEclERKS5_S8_
FNDA:0,_ZNKSt4lessINSt7__cxx1112basic_stringIcSt11char_traitsIcESaIcEEEEclERKS5_S8_
FN:1155,_ZNKSt10_Select1stISt4pairIKNSt7__cxx1112basic_stringIcSt11char_traitsIcESaIcEEEP20soft_sub_structure_tEEclERKSA_
FNDA:0,_ZNKSt10_Select1stISt4pairIKNSt7__cxx1112basic_stringIcSt11char_traitsIcESaIcEEEP20soft_sub_structure_tEEclERKSA_
DA:385,0
DA:386,0
DA:1155,0
DA:1156,0
end_of_record
SF:/usr/include/c++/9/bits/char_traits.h
FN:329,_ZNSt11char_traitsIcE6lengthEPKc
FNDA:0,_ZNSt11char_traitsIcE6lengthEPKc
FN:361,_ZNSt11char_traitsIcE4copyEPcPKcm
FNDA:0,_ZNSt11char_traitsIcE4copyEPcPKcm
DA:329,0
DA:335,0
DA:361,0
DA:363,0
DA:364,0
DA:365,0
end_of_record
SF:/usr/include/c++/9/bits/stl_iterator_base_types.h
FN:205,_ZSt19__iterator_categoryIPcENSt15iterator_traitsIT_E17iterator_categoryERKS2_
FNDA:0,_ZSt19__iterator_categoryIPcENSt15iterator_traitsIT_E17iterator_categoryERKS2_
FN:205,_ZSt19__iterator_categoryIPKcENSt15iterator_traitsIT_E17iterator_categoryERKS3_
FNDA:0,_ZSt19__iterator_categoryIPKcENSt15iterator_traitsIT_E17iterator_categoryERKS3_
FN:205,_ZSt19__iterator_categoryIN9__gnu_cxx17__normal_iteratorIPcNSt7__cxx1112basic_stringIcSt11char_traitsIcESaIcEEEEEENSt15iterator_traitsIT_E17iterator_categoryERKSB_
FNDA:0,_ZSt19__iterator_categoryIN9__gnu_cxx17__normal_iteratorIPcNSt7__cxx1112basic_stringIcSt11char_traitsIcESaIcEEEEEENSt15iterator_traitsIT_E17iterator_categoryERKSB_
DA:205,0
DA:206,0
DA:205,0
DA:206,0
DA:205,0
DA:206,0
end_of_record
SF:/usr/include/c++/9/bits/stl_algo.h
FN:112,_ZSt9__find_ifIN9__gnu_cxx17__normal_iteratorIPcNSt7__cxx1112basic_stringIcSt11char_traitsIcESaIcEEEEENS0_5__ops16_Iter_equals_valIKcEEET_SE_SE_T0_St26random_access_iterator_tag
FNDA:0,_ZSt9__find_ifIN9__gnu_cxx17__normal_iteratorIPcNSt7__cxx1112basic_stringIcSt11char_traitsIcESaIcEEEEENS0_5__ops16_Iter_equals_valIKcEEET_SE_SE_T0_St26random_access_iterator_tag
FN:159,_ZSt9__find_ifIN9__gnu_cxx17__normal_iteratorIPcNSt7__cxx1112basic_stringIcSt11char_traitsIcESaIcEEEEENS0_5__ops16_Iter_equals_valIKcEEET_SE_SE_T0_
FNDA:0,_ZSt9__find_ifIN9__gnu_cxx17__normal_iteratorIPcNSt7__cxx1112basic_stringIcSt11char_traitsIcESaIcEEEEENS0_5__ops16_Iter_equals_valIKcEEET_SE_SE_T0_
FN:860,_ZSt11__remove_ifIN9__gnu_cxx17__normal_iteratorIPcNSt7__cxx1112basic_stringIcSt11char_traitsIcESaIcEEEEENS0_5__ops16_Iter_equals_valIKcEEET_SE_SE_T0_
FNDA:0,_ZSt11__remove_ifIN9__gnu_cxx17__normal_iteratorIPcNSt7__cxx1112basic_stringIcSt11char_traitsIcESaIcEEEEENS0_5__ops16_Iter_equals_valIKcEEET_SE_SE_T0_
FN:896,_ZSt6removeIN9__gnu_cxx17__normal_iteratorIPcNSt7__cxx1112basic_stringIcSt11char_traitsIcESaIcEEEEEcET_SA_SA_RKT0_
FNDA:0,_ZSt6removeIN9__gnu_cxx17__normal_iteratorIPcNSt7__cxx1112basic_stringIcSt11char_traitsIcESaIcEEEEEcET_SA_SA_RKT0_
DA:112,0
DA:116,0
DA:118,0
DA:120,0
DA:121,0
DA:122,0
DA:124,0
DA:125,0
DA:126,0
DA:128,0
DA:129,0
DA:130,0
DA:132,0
DA:133,0
DA:134,0
DA:137,0
DA:139,0
DA:140,0
DA:141,0
DA:142,0
DA:143,0
DA:144,0
DA:145,0
DA:146,0
DA:147,0
DA:148,0
DA:149,0
DA:150,0
DA:151,0
DA:153,0
DA:159,0
DA:161,0
DA:162,0
DA:860,0
DA:863,0
DA:864,0
DA:865,0
DA:866,0
DA:867,0
DA:868,0
DA:869,0
DA:871,0
DA:872,0
DA:874,0
DA:896,0
DA:906,0
DA:907,0
end_of_record
SF:/usr/include/c++/9/new
FN:173,_ZnwmPv
FNDA:0,_ZnwmPv
FN:179,_ZdlPvS_
FNDA:0,_ZdlPvS_
DA:173,0
DA:174,0
DA:179,0
end_of_record
SF:/usr/include/c++/9/bits/move.h
FN:47,_ZSt11__addressofINSt7__cxx1112basic_stringIcSt11char_traitsIcESaIcEEEEPT_RS6_
FNDA:0,_ZSt11__addressofINSt7__cxx1112basic_stringIcSt11char_traitsIcESaIcEEEEPT_RS6_
FN:74,_ZSt7forwardIRKNSt7__cxx1112basic_stringIcSt11char_traitsIcESaIcEEEEOT_RNSt16remove_referenceIS8_E4typeE
FNDA:0,_ZSt7forwardIRKNSt7__cxx1112basic_stringIcSt11char_traitsIcESaIcEEEEOT_RNSt16remove_referenceIS8_E4typeE
FN:74,_ZSt7forwardIRPSt13_Rb_tree_nodeISt4pairIKNSt7__cxx1112basic_stringIcSt11char_traitsIcESaIcEEEP20soft_sub_structure_tEEEOT_RNSt16remove_referenceISF_E4typeE
FNDA:0,_ZSt7forwardIRPSt13_Rb_tree_nodeISt4pairIKNSt7__cxx1112basic_stringIcSt11char_traitsIcESaIcEEEP20soft_sub_structure_tEEEOT_RNSt16remove_referenceISF_E4typeE
FN:74,_ZSt7forwardIRPSt18_Rb_tree_node_baseEOT_RNSt16remove_referenceIS3_E4typeE
FNDA:0,_ZSt7forwardIRPSt18_Rb_tree_node_baseEOT_RNSt16remove_referenceIS3_E4typeE
FN:74,_ZSt7forwardIONSt7__cxx1112basic_stringIcSt11char_traitsIcESaIcEEEEOT_RNSt16remove_referenceIS7_E4typeE
FNDA:0,_ZSt7forwardIONSt7__cxx1112basic_stringIcSt11char_traitsIcESaIcEEEEOT_RNSt16remove_referenceIS7_E4typeE
FN:74,_ZSt7forwardISt5tupleIJRKNSt7__cxx1112basic_stringIcSt11char_traitsIcESaIcEEEEEEOT_RNSt16remove_referenceISA_E4typeE
FNDA:0,_ZSt7forwardISt5tupleIJRKNSt7__cxx1112basic_stringIcSt11char_traitsIcESaIcEEEEEEOT_RNSt16remove_referenceISA_E4typeE
FN:74,_ZSt7forwardISt5tupleIJEEEOT_RNSt16remove_referenceIS2_E4typeE
FNDA:0,_ZSt7forwardISt5tupleIJEEEOT_RNSt16remove_referenceIS2_E4typeE
FN:74,_ZSt7forwardISt5tupleIJONSt7__cxx1112basic_stringIcSt11char_traitsIcESaIcEEEEEEOT_RNSt16remove_referenceIS9_E4typeE
FNDA:0,_ZSt7forwardISt5tupleIJONSt7__cxx1112basic_stringIcSt11char_traitsIcESaIcEEEEEEOT_RNSt16remove_referenceIS9_E4typeE
FN:74,_ZSt7forwardIRKSt21piecewise_construct_tEOT_RNSt16remove_referenceIS3_E4typeE
FNDA:0,_ZSt7forwardIRKSt21piecewise_construct_tEOT_RNSt16remove_referenceIS3_E4typeE
FN:74,_ZSt7forwardINSt7__cxx1112basic_stringIcSt11char_traitsIcESaIcEEEEOT_RNSt16remove_referenceIS6_E4typeE
FNDA:0,_ZSt7forwardINSt7__cxx1112basic_stringIcSt11char_traitsIcESaIcEEEEOT_RNSt16remove_referenceIS6_E4typeE
FN:99,_ZSt4moveIRSaISt13_Rb_tree_nodeISt4pairIKNSt7__cxx1112basic_stringIcSt11char_traitsIcESaIcEEEP20soft_sub_structure_tEEEEONSt16remove_referenceIT_E4typeEOSG_
FNDA:0,_ZSt4moveIRSaISt13_Rb_tree_nodeISt4pairIKNSt7__cxx1112basic_stringIcSt11char_traitsIcESaIcEEEP20soft_sub_structure_tEEEEONSt16remove_referenceIT_E4typeEOSG_
FN:99,_ZSt4moveIRcEONSt16remove_referenceIT_E4typeEOS2_
FNDA:0,_ZSt4moveIRcEONSt16remove_referenceIT_E4typeEOS2_
FN:99,_ZSt4moveIRSt4lessINSt7__cxx1112basic_stringIcSt11char_traitsIcESaIcEEEEEONSt16remove_referenceIT_E4typeEOSA_
FNDA:0,_ZSt4moveIRSt4lessINSt7__cxx1112basic_stringIcSt11char_traitsIcESaIcEEEEEONSt16remove_referenceIT_E4typeEOSA_
FN:99,_ZSt4moveIRNSt7__cxx1112basic_stringIcSt11char_traitsIcESaIcEEEEONSt16remove_referenceIT_E4typeEOS8_
FNDA:0,_ZSt4moveIRNSt7__cxx1112basic_stringIcSt11char_traitsIcESaIcEEEEONSt16remove_referenceIT_E4typeEOS8_
FN:99,_ZSt4moveIRSaIcEEONSt16remove_referenceIT_E4typeEOS3_
FNDA:0,_ZSt4moveIRSaIcEEONSt16remove_referenceIT_E4typeEOS3_
DA:47,0
DA:48,0
DA:74,0
DA:75,0
DA:74,0
DA:75,0
DA:74,0
DA:75,0
DA:74,0
DA:75,0
DA:74,0
DA:75,0
DA:74,0
DA:75,0
DA:74,0
DA:75,0
DA:74,0
DA:75,0
DA:74,0
DA:75,0
DA:99,0
DA:100,0
DA:99,0
DA:100,0
DA:99,0
DA:100,0
DA:99,0
DA:100,0
DA:99,0
DA:100,0
end_of_record
SF:/workspace/vtr-verilog-to-routing/ODIN_II/SRC/soft_logic_def_parser.cpp
FN:66,_Z18read_soft_def_fileP7t_model
FNDA:0,_Z18read_soft_def_fileP7t_model
FN:162,_Z9fetch_blkNSt7__cxx1112basic_stringIcSt11char_traitsIcESaIcEEEi
FNDA:0,_Z9fetch_blkNSt7__cxx1112basic_stringIcSt11char_traitsIcESaIcEEEi
DA:66,0
DA:68,0
DA:69,0
DA:72,0
DA:76,0
DA:77,0
DA:80,0
DA:81,0
DA:83,0
DA:85,0
DA:86,0
DA:87,0
DA:88,0
DA:90,0
DA:91,0
DA:92,0
DA:93,0
DA:95,0
DA:96,0
DA:97,0
DA:99,0
DA:100,0
DA:102,0
DA:103,0
DA:106,0
DA:108,0
DA:109,0
DA:111,0
DA:112,0
DA:115,0
DA:117,0
DA:118,0
DA:119,0
DA:120,0
DA:121,0
DA:123,0
DA:125,0
DA:126,0
DA:127,0
DA:128,0
DA:129,0
DA:131,0
DA:132,0
DA:136,0
DA:137,0
DA:138,0
DA:139,0
DA:140,0
DA:142,0
DA:146,0
DA:147,0
DA:149,0
DA:152,0
DA:153,0
DA:162,0
DA:164,0
DA:166,0
DA:167,0
DA:168,0
DA:170,0
end_of_record
SF:/usr/include/c++/9/bits/basic_string.h
FN:243,_ZNSt7__cxx1112basic_stringIcSt11char_traitsIcESaIcEE16_M_construct_auxIPcEEvT_S7_St12__false_type
FNDA:0,_ZNSt7__cxx1112basic_stringIcSt11char_traitsIcESaIcEE16_M_construct_auxIPcEEvT_S7_St12__false_type
FN:243,_ZNSt7__cxx1112basic_stringIcSt11char_traitsIcESaIcEE16_M_construct_auxIPKcEEvT_S8_St12__false_type
FNDA:0,_ZNSt7__cxx1112basic_stringIcSt11char_traitsIcESaIcEE16_M_construct_auxIPKcEEvT_S8_St12__false_type
FN:263,_ZNSt7__cxx1112basic_stringIcSt11char_traitsIcESaIcEE12_M_constructIPcEEvT_S7_
FNDA:0,_ZNSt7__cxx1112basic_stringIcSt11char_traitsIcESaIcEE12_M_constructIPcEEvT_S7_
FN:263,_ZNSt7__cxx1112basic_stringIcSt11char_traitsIcESaIcEE12_M_constructIPKcEEvT_S8_
FNDA:0,_ZNSt7__cxx1112basic_stringIcSt11char_traitsIcESaIcEE12_M_constructIPKcEEvT_S8_
FN:625,_ZNSt7__cxx1112basic_stringIcSt11char_traitsIcESaIcEEC2IPcvEET_S7_RKS3_
FNDA:0,_ZNSt7__cxx1112basic_stringIcSt11char_traitsIcESaIcEEC2IPcvEET_S7_RKS3_
FN:6057,_ZStplIcSt11char_traitsIcESaIcEENSt7__cxx1112basic_stringIT_T0_T1_EERKS8_PKS5_
FNDA:0,_ZStplIcSt11char_traitsIcESaIcEENSt7__cxx1112basic_stringIT_T0_T1_EERKS8_PKS5_
FN:6085,_ZStplIcSt11char_traitsIcESaIcEENSt7__cxx1112basic_stringIT_T0_T1_EEOS8_RKS8_
FNDA:0,_ZStplIcSt11char_traitsIcESaIcEENSt7__cxx1112basic_stringIT_T0_T1_EEOS8_RKS8_
FN:6097,_ZStplIcSt11char_traitsIcESaIcEENSt7__cxx1112basic_stringIT_T0_T1_EEOS8_S9_
FNDA:0,_ZStplIcSt11char_traitsIcESaIcEENSt7__cxx1112basic_stringIT_T0_T1_EEOS8_S9_
FN:6121,_ZStplIcSt11char_traitsIcESaIcEENSt7__cxx1112basic_stringIT_T0_T1_EEOS8_PKS5_
FNDA:0,_ZStplIcSt11char_traitsIcESaIcEENSt7__cxx1112basic_stringIT_T0_T1_EEOS8_PKS5_
FN:6175,_ZSteqIcSt11char_traitsIcESaIcEEbRKNSt7__cxx1112basic_stringIT_T0_T1_EEPKS5_
FNDA:0,_ZSteqIcSt11char_traitsIcESaIcEEbRKNSt7__cxx1112basic_stringIT_T0_T1_EEPKS5_
FN:6213,_ZStneIcSt11char_traitsIcESaIcEEbRKNSt7__cxx1112basic_stringIT_T0_T1_EEPKS5_
FNDA:0,_ZStneIcSt11char_traitsIcESaIcEEbRKNSt7__cxx1112basic_stringIT_T0_T1_EEPKS5_
FN:6226,_ZStltIcSt11char_traitsIcESaIcEEbRKNSt7__cxx1112basic_stringIT_T0_T1_EESA_
FNDA:0,_ZStltIcSt11char_traitsIcESaIcEEbRKNSt7__cxx1112basic_stringIT_T0_T1_EESA_
FN:6503,_ZNSt7__cxx114stoiERKNS_12basic_stringIcSt11char_traitsIcESaIcEEEPmi
FNDA:0,_ZNSt7__cxx114stoiERKNS_12basic_stringIcSt11char_traitsIcESaIcEEEPmi
FN:6546,_ZNSt7__cxx119to_stringEi
FNDA:0,_ZNSt7__cxx119to_stringEi
DA:243,0
DA:247,0
DA:248,0
DA:243,0
DA:247,0
DA:248,0
DA:263,0
DA:266,0
DA:267,0
DA:263,0
DA:266,0
DA:267,0
DA:625,0
DA:627,0
DA:628,0
DA:6057,0
DA:6060,0
DA:6061,0
DA:6062,0
DA:6085,0
DA:6087,0
DA:6097,0
DA:6100,0
DA:6101,0
DA:6102,0
DA:6103,0
DA:6104,0
DA:6121,0
DA:6123,0
DA:6175,0
DA:6177,0
DA:6213,0
DA:6215,0
DA:6226,0
DA:6229,0
DA:6503,0
DA:6504,0
DA:6505,0
DA:6546,0
DA:6548,0
end_of_record
SF:/usr/include/c++/9/bits/stl_algobase.h
FN:198,_ZSt3minImERKT_S2_S2_
FNDA:0,_ZSt3minImERKT_S2_S2_
FN:222,_ZSt3maxImERKT_S2_S2_
FNDA:0,_ZSt3maxImERKT_S2_S2_
FN:280,_ZSt12__niter_baseIPNSt7__cxx1112basic_stringIcSt11char_traitsIcESaIcEEEET_S7_
FNDA:0,_ZSt12__niter_baseIPNSt7__cxx1112basic_stringIcSt11char_traitsIcESaIcEEEET_S7_
DA:198,0
DA:203,0
DA:204,0
DA:205,0
DA:222,0
DA:227,0
DA:228,0
DA:229,0
DA:280,0
DA:282,0
end_of_record
SF:/usr/include/c++/9/tuple
FN:125,_ZNSt10_Head_baseILm0ERKNSt7__cxx1112basic_stringIcSt11char_traitsIcESaIcEEELb0EEC2ES7_
FNDA:0,_ZNSt10_Head_baseILm0ERKNSt7__cxx1112basic_stringIcSt11char_traitsIcESaIcEEELb0EEC2ES7_
FN:132,_ZNSt10_Head_baseILm0EONSt7__cxx1112basic_stringIcSt11char_traitsIcESaIcEEELb0EEC2IS5_EEOT_
FNDA:0,_ZNSt10_Head_baseILm0EONSt7__cxx1112basic_stringIcSt11char_traitsIcESaIcEEELb0EEC2IS5_EEOT_
FN:160,_ZNSt10_Head_baseILm0ERKNSt7__cxx1112basic_stringIcSt11char_traitsIcESaIcEEELb0EE7_M_headERS8_
FNDA:0,_ZNSt10_Head_baseILm0ERKNSt7__cxx1112basic_stringIcSt11char_traitsIcESaIcEEELb0EE7_M_headERS8_
FN:160,_ZNSt10_Head_baseILm0EONSt7__cxx1112basic_stringIcSt11char_traitsIcESaIcEEELb0EE7_M_headERS7_
FNDA:0,_ZNSt10_Head_baseILm0EONSt7__cxx1112basic_stringIcSt11char_traitsIcESaIcEEELb0EE7_M_headERS7_
FN:334,_ZNSt11_Tuple_implILm0EJRKNSt7__cxx1112basic_stringIcSt11char_traitsIcESaIcEEEEE7_M_headERS8_
FNDA:0,_ZNSt11_Tuple_implILm0EJRKNSt7__cxx1112basic_stringIcSt11char_traitsIcESaIcEEEEE7_M_headERS8_
FN:334,_ZNSt11_Tuple_implILm0EJONSt7__cxx1112basic_stringIcSt11char_traitsIcESaIcEEEEE7_M_headERS7_
FNDA:0,_ZNSt11_Tuple_implILm0EJONSt7__cxx1112basic_stringIcSt11char_traitsIcESaIcEEEEE7_M_headERS7_
FN:343,_ZNSt11_Tuple_implILm0EJRKNSt7__cxx1112basic_stringIcSt11char_traitsIcESaIcEEEEEC2ES7_
FNDA:0,_ZNSt11_Tuple_implILm0EJRKNSt7__cxx1112basic_stringIcSt11char_traitsIcESaIcEEEEEC2ES7_
FN:348,_ZNSt11_Tuple_implILm0EJONSt7__cxx1112basic_stringIcSt11char_traitsIcESaIcEEEEEC2IS5_EEOT_
FNDA:0,_ZNSt11_Tuple_implILm0EJONSt7__cxx1112basic_stringIcSt11char_traitsIcESaIcEEEEEC2IS5_EEOT_
FN:358,_ZNSt11_Tuple_implILm0EJONSt7__cxx1112basic_stringIcSt11char_traitsIcESaIcEEEEEC2EOS7_
FNDA:0,_ZNSt11_Tuple_implILm0EJONSt7__cxx1112basic_stringIcSt11char_traitsIcESaIcEEEEEC2EOS7_
FN:358,_ZNSt11_Tuple_implILm0EJRKNSt7__cxx1112basic_stringIcSt11char_traitsIcESaIcEEEEEC2EOS8_
FNDA:0,_ZNSt11_Tuple_implILm0EJRKNSt7__cxx1112basic_stringIcSt11char_traitsIcESaIcEEEEEC2EOS8_
FN:588,_ZNSt5tupleIJRKNSt7__cxx1112basic_stringIcSt11char_traitsIcESaIcEEEEEC2IvLb1EEES7_
FNDA:0,_ZNSt5tupleIJRKNSt7__cxx1112basic_stringIcSt11char_traitsIcESaIcEEEEEC2IvLb1EEES7_
FN:626,_ZNSt5tupleIJONSt7__cxx1112basic_stringIcSt11char_traitsIcESaIcEEEEEC2IJS5_ELb1EEEDpOT_
FNDA:0,_ZNSt5tupleIJONSt7__cxx1112basic_stringIcSt11char_traitsIcESaIcEEEEEC2IJS5_ELb1EEEDpOT_
FN:642,_ZNSt5tupleIJRKNSt7__cxx1112basic_stringIcSt11char_traitsIcESaIcEEEEEC2EOS8_
FNDA:0,_ZNSt5tupleIJRKNSt7__cxx1112basic_stringIcSt11char_traitsIcESaIcEEEEEC2EOS8_
FN:642,_ZNSt5tupleIJONSt7__cxx1112basic_stringIcSt11char_traitsIcESaIcEEEEEC2EOS7_
FNDA:0,_ZNSt5tupleIJONSt7__cxx1112basic_stringIcSt11char_traitsIcESaIcEEEEEC2EOS7_
FN:1309,_ZSt12__get_helperILm0ERKNSt7__cxx1112basic_stringIcSt11char_traitsIcESaIcEEEJEERT0_RSt11_Tuple_implIXT_EJS8_DpT1_EE
FNDA:0,_ZSt12__get_helperILm0ERKNSt7__cxx1112basic_stringIcSt11char_traitsIcESaIcEEEJEERT0_RSt11_Tuple_implIXT_EJS8_DpT1_EE
FN:1309,_ZSt12__get_helperILm0EONSt7__cxx1112basic_stringIcSt11char_traitsIcESaIcEEEJEERT0_RSt11_Tuple_implIXT_EJS7_DpT1_EE
FNDA:0,_ZSt12__get_helperILm0EONSt7__cxx1112basic_stringIcSt11char_traitsIcESaIcEEEJEERT0_RSt11_Tuple_implIXT_EJS7_DpT1_EE
FN:1320,_ZSt3getILm0EJONSt7__cxx1112basic_stringIcSt11char_traitsIcESaIcEEEEERNSt13tuple_elementIXT_ESt5tupleIJDpT0_EEE4typeERSB_
FNDA:0,_ZSt3getILm0EJONSt7__cxx1112basic_stringIcSt11char_traitsIcESaIcEEEEERNSt13tuple_elementIXT_ESt5tupleIJDpT0_EEE4typeERSB_
FN:1320,_ZSt3getILm0EJRKNSt7__cxx1112basic_stringIcSt11char_traitsIcESaIcEEEEERNSt13tuple_elementIXT_ESt5tupleIJDpT0_EEE4typeERSC_
FNDA:0,_ZSt3getILm0EJRKNSt7__cxx1112basic_stringIcSt11char_traitsIcESaIcEEEEERNSt13tuple_elementIXT_ESt5tupleIJDpT0_EEE4typeERSC_
FN:1482,_ZSt16forward_as_tupleIJNSt7__cxx1112basic_stringIcSt11char_traitsIcESaIcEEEEESt5tupleIJDpOT_EES9_
FNDA:0,_ZSt16forward_as_tupleIJNSt7__cxx1112basic_stringIcSt11char_traitsIcESaIcEEEEESt5tupleIJDpOT_EES9_
FN:1658,_ZNSt4pairIKNSt7__cxx1112basic_stringIcSt11char_traitsIcESaIcEEEP20soft_sub_structure_tEC2IJOS5_EJEEESt21piecewise_construct_tSt5tupleIJDpT_EESD_IJDpT0_EE
FNDA:0,_ZNSt4pairIKNSt7__cxx1112basic_stringIcSt11char_traitsIcESaIcEEEP20soft_sub_structure_tEC2IJOS5_EJEEESt21piecewise_construct_tSt5tupleIJDpT_EESD_IJDpT0_EE
FN:1658,_ZNSt4pairIKNSt7__cxx1112basic_stringIcSt11char_traitsIcESaIcEEEP20soft_sub_structure_tEC2IJRS6_EJEEESt21piecewise_construct_tSt5tupleIJDpT_EESD_IJDpT0_EE
FNDA:0,_ZNSt4pairIKNSt7__cxx1112basic_stringIcSt11char_traitsIcESaIcEEEP20soft_sub_structure_tEC2IJRS6_EJEEESt21piecewise_construct_tSt5tupleIJDpT_EESD_IJDpT0_EE
FN:1670,_ZNSt4pairIKNSt7__cxx1112basic_stringIcSt11char_traitsIcESaIcEEEP20soft_sub_structure_tEC2IJOS5_EJLm0EEJEJEEERSt5tupleIJDpT_EERSC_IJDpT1_EESt12_Index_tupleIJXspT0_EEESL_IJXspT2_EEE
FNDA:0,_ZNSt4pairIKNSt7__cxx1112basic_stringIcSt11char_traitsIcESaIcEEEP20soft_sub_structure_tEC2IJOS5_EJLm0EEJEJEEERSt5tupleIJDpT_EERSC_IJDpT1_EESt12_Index_tupleIJXspT0_EEESL_IJXspT2_EEE
FN:1670,_ZNSt4pairIKNSt7__cxx1112basic_stringIcSt11char_traitsIcESaIcEEEP20soft_sub_structure_tEC2IJRS6_EJLm0EEJEJEEERSt5tupleIJDpT_EERSC_IJDpT1_EESt12_Index_tupleIJXspT0_EEESL_IJXspT2_EEE
FNDA:0,_ZNSt4pairIKNSt7__cxx1112basic_stringIcSt11char_traitsIcESaIcEEEP20soft_sub_structure_tEC2IJRS6_EJLm0EEJEJEEERSt5tupleIJDpT_EERSC_IJDpT1_EESt12_Index_tupleIJXspT0_EEESL_IJXspT2_EEE
DA:125,0
DA:126,0
DA:132,0
DA:133,0
DA:160,0
DA:160,0
DA:334,0
DA:334,0
DA:343,0
DA:344,0
DA:348,0
DA:349,0
DA:358,0
DA:360,0
DA:358,0
DA:360,0
DA:588,0
DA:589,0
DA:626,0
DA:627,0
DA:642,0
DA:642,0
DA:1309,0
DA:1310,0
DA:1309,0
DA:1310,0
DA:1320,0
DA:1321,0
DA:1320,0
DA:1321,0
DA:1482,0
DA:1483,0
DA:1658,0
DA:1663,0
DA:1664,0
DA:1658,0
DA:1663,0
DA:1664,0
DA:1670,0
DA:1673,0
DA:1674,0
DA:1675,0
DA:1670,0
DA:1673,0
DA:1674,0
DA:1675,0
end_of_record
SF:/usr/include/c++/9/bits/allocator.h
FN:138,_ZNSaINSt7__cxx1112basic_stringIcSt11char_traitsIcESaIcEEEEC2Ev
FNDA:0,_ZNSaINSt7__cxx1112basic_stringIcSt11char_traitsIcESaIcEEEEC2Ev
FN:138,_ZNSaISt13_Rb_tree_nodeISt4pairIKNSt7__cxx1112basic_stringIcSt11char_traitsIcESaIcEEEP20soft_sub_structure_tEEEC2Ev
FNDA:0,_ZNSaISt13_Rb_tree_nodeISt4pairIKNSt7__cxx1112basic_stringIcSt11char_traitsIcESaIcEEEP20soft_sub_structure_tEEEC2Ev
FN:153,_ZNSaINSt7__cxx1112basic_stringIcSt11char_traitsIcESaIcEEEED2Ev
FNDA:0,_ZNSaINSt7__cxx1112basic_stringIcSt11char_traitsIcESaIcEEEED2Ev
FN:153,_ZNSaISt13_Rb_tree_nodeISt4pairIKNSt7__cxx1112basic_stringIcSt11char_traitsIcESaIcEEEP20soft_sub_structure_tEEED2Ev
FNDA:0,_ZNSaISt13_Rb_tree_nodeISt4pairIKNSt7__cxx1112basic_stringIcSt11char_traitsIcESaIcEEEP20soft_sub_structure_tEEED2Ev
DA:138,0
DA:138,0
DA:153,0
DA:153,0
end_of_record
SF:/usr/include/c++/9/bits/stl_construct.h
FN:74,_ZSt10_ConstructINSt7__cxx1112basic_stringIcSt11char_traitsIcESaIcEEEJS5_EEvPT_DpOT0_
FNDA:0,_ZSt10_ConstructINSt7__cxx1112basic_stringIcSt11char_traitsIcESaIcEEEJS5_EEvPT_DpOT0_
FN:97,_ZSt8_DestroyINSt7__cxx1112basic_stringIcSt11char_traitsIcESaIcEEEEvPT_
FNDA:0,_ZSt8_DestroyINSt7__cxx1112basic_stringIcSt11char_traitsIcESaIcEEEEvPT_
FN:105,_ZNSt12_Destroy_auxILb0EE9__destroyIPNSt7__cxx1112basic_stringIcSt11char_traitsIcESaIcEEEEEvT_S9_
FNDA:0,_ZNSt12_Destroy_auxILb0EE9__destroyIPNSt7__cxx1112basic_stringIcSt11char_traitsIcESaIcEEEEEvT_S9_
FN:127,_ZSt8_DestroyIPNSt7__cxx1112basic_stringIcSt11char_traitsIcESaIcEEEEvT_S7_
FNDA:0,_ZSt8_DestroyIPNSt7__cxx1112basic_stringIcSt11char_traitsIcESaIcEEEEvT_S7_
FN:203,_ZSt8_DestroyIPNSt7__cxx1112basic_stringIcSt11char_traitsIcESaIcEEES5_EvT_S7_RSaIT0_E
FNDA:0,_ZSt8_DestroyIPNSt7__cxx1112basic_stringIcSt11char_traitsIcESaIcEEES5_EvT_S7_RSaIT0_E
DA:74,0
DA:75,0
DA:97,0
DA:98,0
DA:105,0
DA:107,0
DA:108,0
DA:109,0
DA:127,0
DA:137,0
DA:138,0
DA:203,0
DA:206,0
DA:207,0
end_of_record
SF:/usr/include/c++/9/bits/stl_uninitialized.h
FN:76,_ZNSt20__uninitialized_copyILb0EE13__uninit_copyISt13move_iteratorIPNSt7__cxx1112basic_stringIcSt11char_traitsIcESaIcEEEES9_EET0_T_SC_SB_
FNDA:0,_ZNSt20__uninitialized_copyILb0EE13__uninit_copyISt13move_iteratorIPNSt7__cxx1112basic_stringIcSt11char_traitsIcESaIcEEEES9_EET0_T_SC_SB_
FN:115,_ZSt18uninitialized_copyISt13move_iteratorIPNSt7__cxx1112basic_stringIcSt11char_traitsIcESaIcEEEES7_ET0_T_SA_S9_
FNDA:0,_ZSt18uninitialized_copyISt13move_iteratorIPNSt7__cxx1112basic_stringIcSt11char_traitsIcESaIcEEEES7_ET0_T_SA_S9_
FN:305,_ZSt22__uninitialized_copy_aISt13move_iteratorIPNSt7__cxx1112basic_stringIcSt11char_traitsIcESaIcEEEES7_S6_ET0_T_SA_S9_RSaIT1_E
FNDA:0,_ZSt22__uninitialized_copy_aISt13move_iteratorIPNSt7__cxx1112basic_stringIcSt11char_traitsIcESaIcEEEES7_S6_ET0_T_SA_S9_RSaIT1_E
FN:323,_ZSt34__uninitialized_move_if_noexcept_aIPNSt7__cxx1112basic_stringIcSt11char_traitsIcESaIcEEES6_SaIS5_EET0_T_S9_S8_RT1_
FNDA:0,_ZSt34__uninitialized_move_if_noexcept_aIPNSt7__cxx1112basic_stringIcSt11char_traitsIcESaIcEEES6_SaIS5_EET0_T_S9_S8_RT1_
FN:905,_ZSt19__relocate_object_aINSt7__cxx1112basic_stringIcSt11char_traitsIcESaIcEEES5_SaIS5_EEvPT_PT0_RT1_
FNDA:0,_ZSt19__relocate_object_aINSt7__cxx1112basic_stringIcSt11char_traitsIcESaIcEEES5_SaIS5_EEvPT_PT0_RT1_
FN:936,_ZSt14__relocate_a_1IPNSt7__cxx1112basic_stringIcSt11char_traitsIcESaIcEEES6_SaIS5_EET0_T_S9_S8_RT1_
FNDA:0,_ZSt14__relocate_a_1IPNSt7__cxx1112basic_stringIcSt11char_traitsIcESaIcEEES6_SaIS5_EET0_T_S9_S8_RT1_
FN:958,_ZSt12__relocate_aIPNSt7__cxx1112basic_stringIcSt11char_traitsIcESaIcEEES6_SaIS5_EET0_T_S9_S8_RT1_
FNDA:0,_ZSt12__relocate_aIPNSt7__cxx1112basic_stringIcSt11char_traitsIcESaIcEEES6_SaIS5_EET0_T_S9_S8_RT1_
DA:76,0
DA:79,0
DA:82,0
DA:83,0
DA:84,0
DA:86,0
DA:88,0
DA:89,0
DA:115,0
DA:134,0
DA:140,0
DA:305,0
DA:307,0
DA:323,0
DA:329,0
DA:330,0
DA:905,0
DA:912,0
DA:913,0
DA:914,0
DA:936,0
DA:948,0
DA:949,0
DA:950,0
DA:952,0
DA:958,0
DA:964,0
DA:966,0
end_of_record
SF:/usr/include/c++/9/bits/stl_map.h
FN:100,_ZNSt3mapINSt7__cxx1112basic_stringIcSt11char_traitsIcESaIcEEEP20soft_sub_structure_tSt4lessIS5_ESaISt4pairIKS5_S7_EEEaSEOSE_
FNDA:0,_ZNSt3mapINSt7__cxx1112basic_stringIcSt11char_traitsIcESaIcEEEP20soft_sub_structure_tSt4lessIS5_ESaISt4pairIKS5_S7_EEEaSEOSE_
FN:183,_ZNSt3mapINSt7__cxx1112basic_stringIcSt11char_traitsIcESaIcEEEP20soft_sub_structure_tSt4lessIS5_ESaISt4pairIKS5_S7_EEEC2Ev
FNDA:0,_ZNSt3mapINSt7__cxx1112basic_stringIcSt11char_traitsIcESaIcEEEP20soft_sub_structure_tSt4lessIS5_ESaISt4pairIKS5_S7_EEEC2Ev
FN:300,_ZNSt3mapINSt7__cxx1112basic_stringIcSt11char_traitsIcESaIcEEEP20soft_sub_structure_tSt4lessIS5_ESaISt4pairIKS5_S7_EEED2Ev
FNDA:0,_ZNSt3mapINSt7__cxx1112basic_stringIcSt11char_traitsIcESaIcEEEP20soft_sub_structure_tSt4lessIS5_ESaISt4pairIKS5_S7_EEED2Ev
FN:372,_ZNSt3mapINSt7__cxx1112basic_stringIcSt11char_traitsIcESaIcEEEP20soft_sub_structure_tSt4lessIS5_ESaISt4pairIKS5_S7_EEE3endEv
FNDA:0,_ZNSt3mapINSt7__cxx1112basic_stringIcSt11char_traitsIcESaIcEEEP20soft_sub_structure_tSt4lessIS5_ESaISt4pairIKS5_S7_EEE3endEv
FN:490,_ZNSt3mapINSt7__cxx1112basic_stringIcSt11char_traitsIcESaIcEEEP20soft_sub_structure_tSt4lessIS5_ESaISt4pairIKS5_S7_EEEixERSB_
FNDA:0,_ZNSt3mapINSt7__cxx1112basic_stringIcSt11char_traitsIcESaIcEEEP20soft_sub_structure_tSt4lessIS5_ESaISt4pairIKS5_S7_EEEixERSB_
FN:510,_ZNSt3mapINSt7__cxx1112basic_stringIcSt11char_traitsIcESaIcEEEP20soft_sub_structure_tSt4lessIS5_ESaISt4pairIKS5_S7_EEEixEOS5_
FNDA:0,_ZNSt3mapINSt7__cxx1112basic_stringIcSt11char_traitsIcESaIcEEEP20soft_sub_structure_tSt4lessIS5_ESaISt4pairIKS5_S7_EEEixEOS5_
FN:1141,_ZNKSt3mapINSt7__cxx1112basic_stringIcSt11char_traitsIcESaIcEEEP20soft_sub_structure_tSt4lessIS5_ESaISt4pairIKS5_S7_EEE8key_compEv
FNDA:0,_ZNKSt3mapINSt7__cxx1112basic_stringIcSt11char_traitsIcESaIcEEEP20soft_sub_structure_tSt4lessIS5_ESaISt4pairIKS5_S7_EEE8key_compEv
FN:1168,_ZNSt3mapINSt7__cxx1112basic_stringIcSt11char_traitsIcESaIcEEEP20soft_sub_structure_tSt4lessIS5_ESaISt4pairIKS5_S7_EEE4findERSB_
FNDA:0,_ZNSt3mapINSt7__cxx1112basic_stringIcSt11char_traitsIcESaIcEEEP20soft_sub_structure_tSt4lessIS5_ESaISt4pairIKS5_S7_EEE4findERSB_
FN:1257,_ZNSt3mapINSt7__cxx1112basic_stringIcSt11char_traitsIcESaIcEEEP20soft_sub_structure_tSt4lessIS5_ESaISt4pairIKS5_S7_EEE11lower_boundERSB_
FNDA:0,_ZNSt3mapINSt7__cxx1112basic_stringIcSt11char_traitsIcESaIcEEEP20soft_sub_structure_tSt4lessIS5_ESaISt4pairIKS5_S7_EEE11lower_boundERSB_
DA:100,0
DA:183,0
DA:300,0
DA:372,0
DA:373,0
DA:490,0
DA:495,0
DA:497,0
DA:499,0
DA:505,0
DA:510,0
DA:515,0
DA:517,0
DA:518,0
DA:519,0
DA:521,0
DA:1141,0
DA:1142,0
DA:1168,0
DA:1169,0
DA:1257,0
DA:1258,0
end_of_record
SF:/usr/include/c++/9/iostream
end_of_record
SF:/usr/include/c++/9/bits/stl_iterator_base_funcs.h
FN:98,_ZSt10__distanceIPcENSt15iterator_traitsIT_E15difference_typeES2_S2_St26random_access_iterator_tag
FNDA:0,_ZSt10__distanceIPcENSt15iterator_traitsIT_E15difference_typeES2_S2_St26random_access_iterator_tag
FN:98,_ZSt10__distanceIPKcENSt15iterator_traitsIT_E15difference_typeES3_S3_St26random_access_iterator_tag
FNDA:0,_ZSt10__distanceIPKcENSt15iterator_traitsIT_E15difference_typeES3_S3_St26random_access_iterator_tag
FN:138,_ZSt8distanceIPcENSt15iterator_traitsIT_E15difference_typeES2_S2_
FNDA:0,_ZSt8distanceIPcENSt15iterator_traitsIT_E15difference_typeES2_S2_
FN:138,_ZSt8distanceIPKcENSt15iterator_traitsIT_E15difference_typeES3_S3_
FNDA:0,_ZSt8distanceIPKcENSt15iterator_traitsIT_E15difference_typeES3_S3_
DA:98,0
DA:104,0
DA:98,0
DA:104,0
DA:138,0
DA:141,0
DA:142,0
DA:138,0
DA:141,0
DA:142,0
end_of_record
SF:/usr/include/c++/9/bits/alloc_traits.h
FN:443,_ZNSt16allocator_traitsISaINSt7__cxx1112basic_stringIcSt11char_traitsIcESaIcEEEEE8allocateERS6_m
FNDA:0,_ZNSt16allocator_traitsISaINSt7__cxx1112basic_stringIcSt11char_traitsIcESaIcEEEEE8allocateERS6_m
FN:443,_ZNSt16allocator_traitsISaISt13_Rb_tree_nodeISt4pairIKNSt7__cxx1112basic_stringIcSt11char_traitsIcESaIcEEEP20soft_sub_structure_tEEEE8allocateERSD_m
FNDA:0,_ZNSt16allocator_traitsISaISt13_Rb_tree_nodeISt4pairIKNSt7__cxx1112basic_stringIcSt11char_traitsIcESaIcEEEP20soft_sub_structure_tEEEE8allocateERSD_m
FN:469,_ZNSt16allocator_traitsISaISt13_Rb_tree_nodeISt4pairIKNSt7__cxx1112basic_stringIcSt11char_traitsIcESaIcEEEP20soft_sub_structure_tEEEE10deallocateERSD_PSC_m
FNDA:0,_ZNSt16allocator_traitsISaISt13_Rb_tree_nodeISt4pairIKNSt7__cxx1112basic_stringIcSt11char_traitsIcESaIcEEEP20soft_sub_structure_tEEEE10deallocateERSD_PSC_m
FN:469,_ZNSt16allocator_traitsISaINSt7__cxx1112basic_stringIcSt11char_traitsIcESaIcEEEEE10deallocateERS6_PS5_m
FNDA:0,_ZNSt16allocator_traitsISaINSt7__cxx1112basic_stringIcSt11char_traitsIcESaIcEEEEE10deallocateERS6_PS5_m
FN:482,_ZNSt16allocator_traitsISaISt13_Rb_tree_nodeISt4pairIKNSt7__cxx1112basic_stringIcSt11char_traitsIcESaIcEEEP20soft_sub_structure_tEEEE9constructISB_JRKSt21piecewise_construct_tSt5tupleIJRS8_EESJ_IJEEEEEvRSD_PT_DpOT0_
FNDA:0,_ZNSt16allocator_traitsISaISt13_Rb_tree_nodeISt4pairIKNSt7__cxx1112basic_stringIcSt11char_traitsIcESaIcEEEP20soft_sub_structure_tEEEE9constructISB_JRKSt21piecewise_construct_tSt5tupleIJRS8_EESJ_IJEEEEEvRSD_PT_DpOT0_
FN:482,_ZNSt16allocator_traitsISaISt13_Rb_tree_nodeISt4pairIKNSt7__cxx1112basic_stringIcSt11char_traitsIcESaIcEEEP20soft_sub_structure_tEEEE9constructISB_JRKSt21piecewise_construct_tSt5tupleIJOS7_EESJ_IJEEEEEvRSD_PT_DpOT0_
FNDA:0,_ZNSt16allocator_traitsISaISt13_Rb_tree_nodeISt4pairIKNSt7__cxx1112basic_stringIcSt11char_traitsIcESaIcEEEP20soft_sub_structure_tEEEE9constructISB_JRKSt21piecewise_construct_tSt5tupleIJOS7_EESJ_IJEEEEEvRSD_PT_DpOT0_
FN:482,_ZNSt16allocator_traitsISaINSt7__cxx1112basic_stringIcSt11char_traitsIcESaIcEEEEE9constructIS5_JS5_EEEvRS6_PT_DpOT0_
FNDA:0,_ZNSt16allocator_traitsISaINSt7__cxx1112basic_stringIcSt11char_traitsIcESaIcEEEEE9constructIS5_JS5_EEEvRS6_PT_DpOT0_
FN:495,_ZNSt16allocator_traitsISaISt13_Rb_tree_nodeISt4pairIKNSt7__cxx1112basic_stringIcSt11char_traitsIcESaIcEEEP20soft_sub_structure_tEEEE7destroyISB_EEvRSD_PT_
FNDA:0,_ZNSt16allocator_traitsISaISt13_Rb_tree_nodeISt4pairIKNSt7__cxx1112basic_stringIcSt11char_traitsIcESaIcEEEP20soft_sub_structure_tEEEE7destroyISB_EEvRSD_PT_
FN:495,_ZNSt16allocator_traitsISaINSt7__cxx1112basic_stringIcSt11char_traitsIcESaIcEEEEE7destroyIS5_EEvRS6_PT_
FNDA:0,_ZNSt16allocator_traitsISaINSt7__cxx1112basic_stringIcSt11char_traitsIcESaIcEEEEE7destroyIS5_EEvRS6_PT_
FN:505,_ZNSt16allocator_traitsISaINSt7__cxx1112basic_stringIcSt11char_traitsIcESaIcEEEEE8max_sizeERKS6_
FNDA:0,_ZNSt16allocator_traitsISaINSt7__cxx1112basic_stringIcSt11char_traitsIcESaIcEEEEE8max_sizeERKS6_
FN:514,_ZNSt16allocator_traitsISaIcEE37select_on_container_copy_constructionERKS0_
FNDA:0,_ZNSt16allocator_traitsISaIcEE37select_on_container_copy_constructionERKS0_
FN:545,_ZSt18__do_alloc_on_moveISaISt13_Rb_tree_nodeISt4pairIKNSt7__cxx1112basic_stringIcSt11char_traitsIcESaIcEEEP20soft_sub_structure_tEEEEvRT_SF_St17integral_constantIbLb1EE
FNDA:0,_ZSt18__do_alloc_on_moveISaISt13_Rb_tree_nodeISt4pairIKNSt7__cxx1112basic_stringIcSt11char_traitsIcESaIcEEEP20soft_sub_structure_tEEEEvRT_SF_St17integral_constantIbLb1EE
FN:553,_ZSt15__alloc_on_moveISaISt13_Rb_tree_nodeISt4pairIKNSt7__cxx1112basic_stringIcSt11char_traitsIcESaIcEEEP20soft_sub_structure_tEEEEvRT_SF_
FNDA:0,_ZSt15__alloc_on_moveISaISt13_Rb_tree_nodeISt4pairIKNSt7__cxx1112basic_stringIcSt11char_traitsIcESaIcEEEP20soft_sub_structure_tEEEEvRT_SF_
DA:443,0
DA:444,0
DA:443,0
DA:444,0
DA:469,0
DA:470,0
DA:469,0
DA:470,0
DA:482,0
DA:484,0
DA:482,0
DA:484,0
DA:482,0
DA:484,0
DA:495,0
DA:497,0
DA:495,0
DA:497,0
DA:505,0
DA:506,0
DA:514,0
DA:515,0
DA:545,0
DA:546,0
DA:553,0
DA:557,0
DA:558,0
end_of_record
SF:/usr/include/c++/9/bits/stl_tree.h
FN:146,_ZNSt20_Rb_tree_key_compareISt4lessINSt7__cxx1112basic_stringIcSt11char_traitsIcESaIcEEEEEC2Ev
FNDA:0,_ZNSt20_Rb_tree_key_compareISt4lessINSt7__cxx1112basic_stringIcSt11char_traitsIcESaIcEEEEEC2Ev
FN:173,_ZNSt15_Rb_tree_headerC2Ev
FNDA:0,_ZNSt15_Rb_tree_headerC2Ev
FN:193,_ZNSt15_Rb_tree_header12_M_move_dataERS_
FNDA:0,_ZNSt15_Rb_tree_header12_M_move_dataERS_
FN:206,_ZNSt15_Rb_tree_header8_M_resetEv
FNDA:0,_ZNSt15_Rb_tree_header8_M_resetEv
FN:234,_ZNSt13_Rb_tree_nodeISt4pairIKNSt7__cxx1112basic_stringIcSt11char_traitsIcESaIcEEEP20soft_sub_structure_tEE9_M_valptrEv
FNDA:0,_ZNSt13_Rb_tree_nodeISt4pairIKNSt7__cxx1112basic_stringIcSt11char_traitsIcESaIcEEEP20soft_sub_structure_tEE9_M_valptrEv
FN:238,_ZNKSt13_Rb_tree_nodeISt4pairIKNSt7__cxx1112basic_stringIcSt11char_traitsIcESaIcEEEP20soft_sub_structure_tEE9_M_valptrEv
FNDA:0,_ZNKSt13_Rb_tree_nodeISt4pairIKNSt7__cxx1112basic_stringIcSt11char_traitsIcESaIcEEEP20soft_sub_structure_tEE9_M_valptrEv
FN:273,_ZNSt17_Rb_tree_iteratorISt4pairIKNSt7__cxx1112basic_stringIcSt11char_traitsIcESaIcEEEP20soft_sub_structure_tEEC2EPSt18_Rb_tree_node_base
FNDA:0,_ZNSt17_Rb_tree_iteratorISt4pairIKNSt7__cxx1112basic_stringIcSt11char_traitsIcESaIcEEEP20soft_sub_structure_tEEC2EPSt18_Rb_tree_node_base
FN:277,_ZNKSt17_Rb_tree_iteratorISt4pairIKNSt7__cxx1112basic_stringIcSt11char_traitsIcESaIcEEEP20soft_sub_structure_tEEdeEv
FNDA:0,_ZNKSt17_Rb_tree_iteratorISt4pairIKNSt7__cxx1112basic_stringIcSt11char_traitsIcESaIcEEEP20soft_sub_structure_tEEdeEv
FN:285,_ZNSt17_Rb_tree_iteratorISt4pairIKNSt7__cxx1112basic_stringIcSt11char_traitsIcESaIcEEEP20soft_sub_structure_tEEppEv
FNDA:0,_ZNSt17_Rb_tree_iteratorISt4pairIKNSt7__cxx1112basic_stringIcSt11char_traitsIcESaIcEEEP20soft_sub_structure_tEEppEv
FN:300,_ZNSt17_Rb_tree_iteratorISt4pairIKNSt7__cxx1112basic_stringIcSt11char_traitsIcESaIcEEEP20soft_sub_structure_tEEmmEv
FNDA:0,_ZNSt17_Rb_tree_iteratorISt4pairIKNSt7__cxx1112basic_stringIcSt11char_traitsIcESaIcEEEP20soft_sub_structure_tEEmmEv
FN:315,_ZSteqRKSt17_Rb_tree_iteratorISt4pairIKNSt7__cxx1112basic_stringIcSt11char_traitsIcESaIcEEEP20soft_sub_structure_tEESD_
FNDA:0,_ZSteqRKSt17_Rb_tree_iteratorISt4pairIKNSt7__cxx1112basic_stringIcSt11char_traitsIcESaIcEEEP20soft_sub_structure_tEESD_
FN:348,_ZNSt23_Rb_tree_const_iteratorISt4pairIKNSt7__cxx1112basic_stringIcSt11char_traitsIcESaIcEEEP20soft_sub_structure_tEEC2ERKSt17_Rb_tree_iteratorISA_E
FNDA:0,_ZNSt23_Rb_tree_const_iteratorISt4pairIKNSt7__cxx1112basic_stringIcSt11char_traitsIcESaIcEEEP20soft_sub_structure_tEEC2ERKSt17_Rb_tree_iteratorISA_E
FN:352,_ZNKSt23_Rb_tree_const_iteratorISt4pairIKNSt7__cxx1112basic_stringIcSt11char_traitsIcESaIcEEEP20soft_sub_structure_tEE13_M_const_castEv
FNDA:0,_ZNKSt23_Rb_tree_const_iteratorISt4pairIKNSt7__cxx1112basic_stringIcSt11char_traitsIcESaIcEEEP20soft_sub_structure_tEE13_M_const_castEv
FN:566,_ZNSt8_Rb_treeINSt7__cxx1112basic_stringIcSt11char_traitsIcESaIcEEESt4pairIKS5_P20soft_sub_structure_tESt10_Select1stISA_ESt4lessIS5_ESaISA_EE21_M_get_Node_allocatorEv
FNDA:0,_ZNSt8_Rb_treeINSt7__cxx1112basic_stringIcSt11char_traitsIcESaIcEEESt4pairIKS5_P20soft_sub_structure_tESt10_Select1stISA_ESt4lessIS5_ESaISA_EE21_M_get_Node_allocatorEv
FN:579,_ZNSt8_Rb_treeINSt7__cxx1112basic_stringIcSt11char_traitsIcESaIcEEESt4pairIKS5_P20soft_sub_structure_tESt10_Select1stISA_ESt4lessIS5_ESaISA_EE11_M_get_nodeEv
FNDA:0,_ZNSt8_Rb_treeINSt7__cxx1112basic_stringIcSt11char_traitsIcESaIcEEESt4pairIKS5_P20soft_sub_structure_tESt10_Select1stISA_ESt4lessIS5_ESaISA_EE11_M_get_nodeEv
FN:583,_ZNSt8_Rb_treeINSt7__cxx1112basic_stringIcSt11char_traitsIcESaIcEEESt4pairIKS5_P20soft_sub_structure_tESt10_Select1stISA_ESt4lessIS5_ESaISA_EE11_M_put_nodeEPSt13_Rb_tree_nodeISA_E
FNDA:0,_ZNSt8_Rb_treeINSt7__cxx1112basic_stringIcSt11char_traitsIcESaIcEEESt4pairIKS5_P20soft_sub_structure_tESt10_Select1stISA_ESt4lessIS5_ESaISA_EE11_M_put_nodeEPSt13_Rb_tree_nodeISA_E
FN:609,_ZNSt8_Rb_treeINSt7__cxx1112basic_stringIcSt11char_traitsIcESaIcEEESt4pairIKS5_P20soft_sub_structure_tESt10_Select1stISA_ESt4lessIS5_ESaISA_EE17_M_construct_nodeIJRKSt21piecewise_construct_tSt5tupleIJRS7_EESL_IJEEEEEvPSt13_Rb_tree_nodeISA_EDpOT_
FNDA:0,_ZNSt8_Rb_treeINSt7__cxx1112basic_stringIcSt11char_traitsIcESaIcEEESt4pairIKS5_P20soft_sub_structure_tESt10_Select1stISA_ESt4lessIS5_ESaISA_EE17_M_construct_nodeIJRKSt21piecewise_construct_tSt5tupleIJRS7_EESL_IJEEEEEvPSt13_Rb_tree_nodeISA_EDpOT_
FN:609,_ZNSt8_Rb_treeINSt7__cxx1112basic_stringIcSt11char_traitsIcESaIcEEESt4pairIKS5_P20soft_sub_structure_tESt10_Select1stISA_ESt4lessIS5_ESaISA_EE17_M_construct_nodeIJRKSt21piecewise_construct_tSt5tupleIJOS5_EESL_IJEEEEEvPSt13_Rb_tree_nodeISA_EDpOT_
FNDA:0,_ZNSt8_Rb_treeINSt7__cxx1112basic_stringIcSt11char_traitsIcESaIcEEESt4pairIKS5_P20soft_sub_structure_tESt10_Select1stISA_ESt4lessIS5_ESaISA_EE17_M_construct_nodeIJRKSt21piecewise_construct_tSt5tupleIJOS5_EESL_IJEEEEEvPSt13_Rb_tree_nodeISA_EDpOT_
FN:628,_ZNSt8_Rb_treeINSt7__cxx1112basic_stringIcSt11char_traitsIcESaIcEEESt4pairIKS5_P20soft_sub_structure_tESt10_Select1stISA_ESt4lessIS5_ESaISA_EE14_M_create_nodeIJRKSt21piecewise_construct_tSt5tupleIJRS7_EESL_IJEEEEEPSt13_Rb_tree_nodeISA_EDpOT_
FNDA:0,_ZNSt8_Rb_treeINSt7__cxx1112basic_stringIcSt11char_traitsIcESaIcEEESt4pairIKS5_P20soft_sub_structure_tESt10_Select1stISA_ESt4lessIS5_ESaISA_EE14_M_create_nodeIJRKSt21piecewise_construct_tSt5tupleIJRS7_EESL_IJEEEEEPSt13_Rb_tree_nodeISA_EDpOT_
FN:628,_ZNSt8_Rb_treeINSt7__cxx1112basic_stringIcSt11char_traitsIcESaIcEEESt4pairIKS5_P20soft_sub_structure_tESt10_Select1stISA_ESt4lessIS5_ESaISA_EE14_M_create_nodeIJRKSt21piecewise_construct_tSt5tupleIJOS5_EESL_IJEEEEEPSt13_Rb_tree_nodeISA_EDpOT_
FNDA:0,_ZNSt8_Rb_treeINSt7__cxx1112basic_stringIcSt11char_traitsIcESaIcEEESt4pairIKS5_P20soft_sub_structure_tESt10_Select1stISA_ESt4lessIS5_ESaISA_EE14_M_create_nodeIJRKSt21piecewise_construct_tSt5tupleIJOS5_EESL_IJEEEEEPSt13_Rb_tree_nodeISA_EDpOT_
FN:637,_ZNSt8_Rb_treeINSt7__cxx1112basic_stringIcSt11char_traitsIcESaIcEEESt4pairIKS5_P20soft_sub_structure_tESt10_Select1stISA_ESt4lessIS5_ESaISA_EE15_M_destroy_nodeEPSt13_Rb_tree_nodeISA_E
FNDA:0,_ZNSt8_Rb_treeINSt7__cxx1112basic_stringIcSt11char_traitsIcESaIcEEESt4pairIKS5_P20soft_sub_structure_tESt10_Select1stISA_ESt4lessIS5_ESaISA_EE15_M_destroy_nodeEPSt13_Rb_tree_nodeISA_E
FN:648,_ZNSt8_Rb_treeINSt7__cxx1112basic_stringIcSt11char_traitsIcESaIcEEESt4pairIKS5_P20soft_sub_structure_tESt10_Select1stISA_ESt4lessIS5_ESaISA_EE12_M_drop_nodeEPSt13_Rb_tree_nodeISA_E
FNDA:0,_ZNSt8_Rb_treeINSt7__cxx1112basic_stringIcSt11char_traitsIcESaIcEEESt4pairIKS5_P20soft_sub_structure_tESt10_Select1stISA_ESt4lessIS5_ESaISA_EE12_M_drop_nodeEPSt13_Rb_tree_nodeISA_E
FN:680,_ZNSt8_Rb_treeINSt7__cxx1112basic_stringIcSt11char_traitsIcESaIcEEESt4pairIKS5_P20soft_sub_structure_tESt10_Select1stISA_ESt4lessIS5_ESaISA_EE13_Rb_tree_implISE_Lb1EEC2Ev
FNDA:0,_ZNSt8_Rb_treeINSt7__cxx1112basic_stringIcSt11char_traitsIcESaIcEEESt4pairIKS5_P20soft_sub_structure_tESt10_Select1stISA_ESt4lessIS5_ESaISA_EE13_Rb_tree_implISE_Lb1EEC2Ev
FN:720,_ZNSt8_Rb_treeINSt7__cxx1112basic_stringIcSt11char_traitsIcESaIcEEESt4pairIKS5_P20soft_sub_structure_tESt10_Select1stISA_ESt4lessIS5_ESaISA_EE7_M_rootEv
FNDA:0,_ZNSt8_Rb_treeINSt7__cxx1112basic_stringIcSt11char_traitsIcESaIcEEESt4pairIKS5_P20soft_sub_structure_tESt10_Select1stISA_ESt4lessIS5_ESaISA_EE7_M_rootEv
FN:728,_ZNSt8_Rb_treeINSt7__cxx1112basic_stringIcSt11char_traitsIcESaIcEEESt4pairIKS5_P20soft_sub_structure_tESt10_Select1stISA_ESt4lessIS5_ESaISA_EE11_M_leftmostEv
FNDA:0,_ZNSt8_Rb_treeINSt7__cxx1112basic_stringIcSt11char_traitsIcESaIcEEESt4pairIKS5_P20soft_sub_structure_tESt10_Select1stISA_ESt4lessIS5_ESaISA_EE11_M_leftmostEv
FN:736,_ZNSt8_Rb_treeINSt7__cxx1112basic_stringIcSt11char_traitsIcESaIcEEESt4pairIKS5_P20soft_sub_structure_tESt10_Select1stISA_ESt4lessIS5_ESaISA_EE12_M_rightmostEv
FNDA:0,_ZNSt8_Rb_treeINSt7__cxx1112basic_stringIcSt11char_traitsIcESaIcEEESt4pairIKS5_P20soft_sub_structure_tESt10_Select1stISA_ESt4lessIS5_ESaISA_EE12_M_rightmostEv
FN:744,_ZNSt8_Rb_treeINSt7__cxx1112basic_stringIcSt11char_traitsIcESaIcEEESt4pairIKS5_P20soft_sub_structure_tESt10_Select1stISA_ESt4lessIS5_ESaISA_EE8_M_beginEv
FNDA:0,_ZNSt8_Rb_treeINSt7__cxx1112basic_stringIcSt11char_traitsIcESaIcEEESt4pairIKS5_P20soft_sub_structure_tESt10_Select1stISA_ESt4lessIS5_ESaISA_EE8_M_beginEv
FN:755,_ZNSt8_Rb_treeINSt7__cxx1112basic_stringIcSt11char_traitsIcESaIcEEESt4pairIKS5_P20soft_sub_structure_tESt10_Select1stISA_ESt4lessIS5_ESaISA_EE6_M_endEv
FNDA:0,_ZNSt8_Rb_treeINSt7__cxx1112basic_stringIcSt11char_traitsIcESaIcEEESt4pairIKS5_P20soft_sub_structure_tESt10_Select1stISA_ESt4lessIS5_ESaISA_EE6_M_endEv
FN:767,_ZNSt8_Rb_treeINSt7__cxx1112basic_stringIcSt11char_traitsIcESaIcEEESt4pairIKS5_P20soft_sub_structure_tESt10_Select1stISA_ESt4lessIS5_ESaISA_EE6_S_keyEPKSt13_Rb_tree_nodeISA_E
FNDA:0,_ZNSt8_Rb_treeINSt7__cxx1112basic_stringIcSt11char_traitsIcESaIcEEESt4pairIKS5_P20soft_sub_structure_tESt10_Select1stISA_ESt4lessIS5_ESaISA_EE6_S_keyEPKSt13_Rb_tree_nodeISA_E
FN:789,_ZNSt8_Rb_treeINSt7__cxx1112basic_stringIcSt11char_traitsIcESaIcEEESt4pairIKS5_P20soft_sub_structure_tESt10_Select1stISA_ESt4lessIS5_ESaISA_EE7_S_leftEPSt18_Rb_tree_node_base
FNDA:0,_ZNSt8_Rb_treeINSt7__cxx1112basic_stringIcSt11char_traitsIcESaIcEEESt4pairIKS5_P20soft_sub_structure_tESt10_Select1stISA_ESt4lessIS5_ESaISA_EE7_S_leftEPSt18_Rb_tree_node_base
FN:797,_ZNSt8_Rb_treeINSt7__cxx1112basic_stringIcSt11char_traitsIcESaIcEEESt4pairIKS5_P20soft_sub_structure_tESt10_Select1stISA_ESt4lessIS5_ESaISA_EE8_S_rightEPSt18_Rb_tree_node_base
FNDA:0,_ZNSt8_Rb_treeINSt7__cxx1112basic_stringIcSt11char_traitsIcESaIcEEESt4pairIKS5_P20soft_sub_structure_tESt10_Select1stISA_ESt4lessIS5_ESaISA_EE8_S_rightEPSt18_Rb_tree_node_base
FN:809,_ZNSt8_Rb_treeINSt7__cxx1112basic_stringIcSt11char_traitsIcESaIcEEESt4pairIKS5_P20soft_sub_structure_tESt10_Select1stISA_ESt4lessIS5_ESaISA_EE6_S_keyEPKSt18_Rb_tree_node_base
FNDA:0,_ZNSt8_Rb_treeINSt7__cxx1112basic_stringIcSt11char_traitsIcESaIcEEESt4pairIKS5_P20soft_sub_structure_tESt10_Select1stISA_ESt4lessIS5_ESaISA_EE6_S_keyEPKSt18_Rb_tree_node_base
FN:939,_ZNSt8_Rb_treeINSt7__cxx1112basic_stringIcSt11char_traitsIcESaIcEEESt4pairIKS5_P20soft_sub_structure_tESt10_Select1stISA_ESt4lessIS5_ESaISA_EEC2Ev
FNDA:0,_ZNSt8_Rb_treeINSt7__cxx1112basic_stringIcSt11char_traitsIcESaIcEEESt4pairIKS5_P20soft_sub_structure_tESt10_Select1stISA_ESt4lessIS5_ESaISA_EEC2Ev
FN:994,_ZNSt8_Rb_treeINSt7__cxx1112basic_stringIcSt11char_traitsIcESaIcEEESt4pairIKS5_P20soft_sub_structure_tESt10_Select1stISA_ESt4lessIS5_ESaISA_EED2Ev
FNDA:0,_ZNSt8_Rb_treeINSt7__cxx1112basic_stringIcSt11char_traitsIcESaIcEEESt4pairIKS5_P20soft_sub_structure_tESt10_Select1stISA_ESt4lessIS5_ESaISA_EED2Ev
FN:1002,_ZNKSt8_Rb_treeINSt7__cxx1112basic_stringIcSt11char_traitsIcESaIcEEESt4pairIKS5_P20soft_sub_structure_tESt10_Select1stISA_ESt4lessIS5_ESaISA_EE8key_compEv
FNDA:0,_ZNKSt8_Rb_treeINSt7__cxx1112basic_stringIcSt11char_traitsIcESaIcEEESt4pairIKS5_P20soft_sub_structure_tESt10_Select1stISA_ESt4lessIS5_ESaISA_EE8key_compEv
FN:1006,_ZNSt8_Rb_treeINSt7__cxx1112basic_stringIcSt11char_traitsIcESaIcEEESt4pairIKS5_P20soft_sub_structure_tESt10_Select1stISA_ESt4lessIS5_ESaISA_EE5beginEv
FNDA:0,_ZNSt8_Rb_treeINSt7__cxx1112basic_stringIcSt11char_traitsIcESaIcEEESt4pairIKS5_P20soft_sub_structure_tESt10_Select1stISA_ESt4lessIS5_ESaISA_EE5beginEv
FN:1014,_ZNSt8_Rb_treeINSt7__cxx1112basic_stringIcSt11char_traitsIcESaIcEEESt4pairIKS5_P20soft_sub_structure_tESt10_Select1stISA_ESt4lessIS5_ESaISA_EE3endEv
FNDA:0,_ZNSt8_Rb_treeINSt7__cxx1112basic_stringIcSt11char_traitsIcESaIcEEESt4pairIKS5_P20soft_sub_structure_tESt10_Select1stISA_ESt4lessIS5_ESaISA_EE3endEv
FN:1042,_ZNKSt8_Rb_treeINSt7__cxx1112basic_stringIcSt11char_traitsIcESaIcEEESt4pairIKS5_P20soft_sub_structure_tESt10_Select1stISA_ESt4lessIS5_ESaISA_EE4sizeEv
FNDA:0,_ZNKSt8_Rb_treeINSt7__cxx1112basic_stringIcSt11char_traitsIcESaIcEEESt4pairIKS5_P20soft_sub_structure_tESt10_Select1stISA_ESt4lessIS5_ESaISA_EE4sizeEv
FN:1264,_ZNSt8_Rb_treeINSt7__cxx1112basic_stringIcSt11char_traitsIcESaIcEEESt4pairIKS5_P20soft_sub_structure_tESt10_Select1stISA_ESt4lessIS5_ESaISA_EE5clearEv
FNDA:0,_ZNSt8_Rb_treeINSt7__cxx1112basic_stringIcSt11char_traitsIcESaIcEEESt4pairIKS5_P20soft_sub_structure_tESt10_Select1stISA_ESt4lessIS5_ESaISA_EE5clearEv
FN:1281,_ZNSt8_Rb_treeINSt7__cxx1112basic_stringIcSt11char_traitsIcESaIcEEESt4pairIKS5_P20soft_sub_structure_tESt10_Select1stISA_ESt4lessIS5_ESaISA_EE11lower_boundERS7_
FNDA:0,_ZNSt8_Rb_treeINSt7__cxx1112basic_stringIcSt11char_traitsIcESaIcEEESt4pairIKS5_P20soft_sub_structure_tESt10_Select1stISA_ESt4lessIS5_ESaISA_EE11lower_boundERS7_
FN:1431,_ZNSt8_Rb_treeINSt7__cxx1112basic_stringIcSt11char_traitsIcESaIcEEESt4pairIKS5_P20soft_sub_structure_tESt10_Select1stISA_ESt4lessIS5_ESaISA_EE12_M_move_dataERSG_St17integral_constantIbLb1EE
FNDA:0,_ZNSt8_Rb_treeINSt7__cxx1112basic_stringIcSt11char_traitsIcESaIcEEESt4pairIKS5_P20soft_sub_structure_tESt10_Select1stISA_ESt4lessIS5_ESaISA_EE12_M_move_dataERSG_St17integral_constantIbLb1EE
FN:1678,_ZNSt8_Rb_treeINSt7__cxx1112basic_stringIcSt11char_traitsIcESaIcEEESt4pairIKS5_P20soft_sub_structure_tESt10_Select1stISA_ESt4lessIS5_ESaISA_EE14_M_move_assignERSG_St17integral_constantIbLb1EE
FNDA:0,_ZNSt8_Rb_treeINSt7__cxx1112basic_stringIcSt11char_traitsIcESaIcEEESt4pairIKS5_P20soft_sub_structure_tESt10_Select1stISA_ESt4lessIS5_ESaISA_EE14_M_move_assignERSG_St17integral_constantIbLb1EE
FN:1717,_ZNSt8_Rb_treeINSt7__cxx1112basic_stringIcSt11char_traitsIcESaIcEEESt4pairIKS5_P20soft_sub_structure_tESt10_Select1stISA_ESt4lessIS5_ESaISA_EEaSEOSG_
FNDA:0,_ZNSt8_Rb_treeINSt7__cxx1112basic_stringIcSt11char_traitsIcESaIcEEESt4pairIKS5_P20soft_sub_structure_tESt10_Select1stISA_ESt4lessIS5_ESaISA_EEaSEOSG_
FN:1907,_ZNSt8_Rb_treeINSt7__cxx1112basic_stringIcSt11char_traitsIcESaIcEEESt4pairIKS5_P20soft_sub_structure_tESt10_Select1stISA_ESt4lessIS5_ESaISA_EE8_M_eraseEPSt13_Rb_tree_nodeISA_E
FNDA:0,_ZNSt8_Rb_treeINSt7__cxx1112basic_stringIcSt11char_traitsIcESaIcEEESt4pairIKS5_P20soft_sub_structure_tESt10_Select1stISA_ESt4lessIS5_ESaISA_EE8_M_eraseEPSt13_Rb_tree_nodeISA_E
FN:1924,_ZNSt8_Rb_treeINSt7__cxx1112basic_stringIcSt11char_traitsIcESaIcEEESt4pairIKS5_P20soft_sub_structure_tESt10_Select1stISA_ESt4lessIS5_ESaISA_EE14_M_lower_boundEPSt13_Rb_tree_nodeISA_EPSt18_Rb_tree_node_baseRS7_
FNDA:0,_ZNSt8_Rb_treeINSt7__cxx1112basic_stringIcSt11char_traitsIcESaIcEEESt4pairIKS5_P20soft_sub_structure_tESt10_Select1stISA_ESt4lessIS5_ESaISA_EE14_M_lower_boundEPSt13_Rb_tree_nodeISA_EPSt18_Rb_tree_node_baseRS7_
FN:2085,_ZNSt8_Rb_treeINSt7__cxx1112basic_stringIcSt11char_traitsIcESaIcEEESt4pairIKS5_P20soft_sub_structure_tESt10_Select1stISA_ESt4lessIS5_ESaISA_EE24_M_get_insert_unique_posERS7_
FNDA:0,_ZNSt8_Rb_treeINSt7__cxx1112basic_stringIcSt11char_traitsIcESaIcEEESt4pairIKS5_P20soft_sub_structure_tESt10_Select1stISA_ESt4lessIS5_ESaISA_EE24_M_get_insert_unique_posERS7_
FN:2187,_ZNSt8_Rb_treeINSt7__cxx1112basic_stringIcSt11char_traitsIcESaIcEEESt4pairIKS5_P20soft_sub_structure_tESt10_Select1stISA_ESt4lessIS5_ESaISA_EE29_M_get_insert_hint_unique_posESt23_Rb_tree_const_iteratorISA_ERS7_
FNDA:0,_ZNSt8_Rb_treeINSt7__cxx1112basic_stringIcSt11char_traitsIcESaIcEEESt4pairIKS5_P20soft_sub_structure_tESt10_Select1stISA_ESt4lessIS5_ESaISA_EE29_M_get_insert_hint_unique_posESt23_Rb_tree_const_iteratorISA_ERS7_
FN:2354,_ZNSt8_Rb_treeINSt7__cxx1112basic_stringIcSt11char_traitsIcESaIcEEESt4pairIKS5_P20soft_sub_structure_tESt10_Select1stISA_ESt4lessIS5_ESaISA_EE14_M_insert_nodeEPSt18_Rb_tree_node_baseSI_PSt13_Rb_tree_nodeISA_E
FNDA:0,_ZNSt8_Rb_treeINSt7__cxx1112basic_stringIcSt11char_traitsIcESaIcEEESt4pairIKS5_P20soft_sub_structure_tESt10_Select1stISA_ESt4lessIS5_ESaISA_EE14_M_insert_nodeEPSt18_Rb_tree_node_baseSI_PSt13_Rb_tree_nodeISA_E
FN:2452,_ZNSt8_Rb_treeINSt7__cxx1112basic_stringIcSt11char_traitsIcESaIcEEESt4pairIKS5_P20soft_sub_structure_tESt10_Select1stISA_ESt4lessIS5_ESaISA_EE22_M_emplace_hint_uniqueIJRKSt21piecewise_construct_tSt5tupleIJOS5_EESL_IJEEEEESt17_Rb_tree_iteratorISA_ESt23_Rb_tree_const_iteratorISA_EDpOT_
FNDA:0,_ZNSt8_Rb_treeINSt7__cxx1112basic_stringIcSt11char_traitsIcESaIcEEESt4pairIKS5_P20soft_sub_structure_tESt10_Select1stISA_ESt4lessIS5_ESaISA_EE22_M_emplace_hint_uniqueIJRKSt21piecewise_construct_tSt5tupleIJOS5_EESL_IJEEEEESt17_Rb_tree_iteratorISA_ESt23_Rb_tree_const_iteratorISA_EDpOT_
FN:2452,_ZNSt8_Rb_treeINSt7__cxx1112basic_stringIcSt11char_traitsIcESaIcEEESt4pairIKS5_P20soft_sub_structure_tESt10_Select1stISA_ESt4lessIS5_ESaISA_EE22_M_emplace_hint_uniqueIJRKSt21piecewise_construct_tSt5tupleIJRS7_EESL_IJEEEEESt17_Rb_tree_iteratorISA_ESt23_Rb_tree_const_iteratorISA_EDpOT_
FNDA:0,_ZNSt8_Rb_treeINSt7__cxx1112basic_stringIcSt11char_traitsIcESaIcEEESt4pairIKS5_P20soft_sub_structure_tESt10_Select1stISA_ESt4lessIS5_ESaISA_EE22_M_emplace_hint_uniqueIJRKSt21piecewise_construct_tSt5tupleIJRS7_EESL_IJEEEEESt17_Rb_tree_iteratorISA_ESt23_Rb_tree_const_iteratorISA_EDpOT_
FN:2554,_ZNSt8_Rb_treeINSt7__cxx1112basic_stringIcSt11char_traitsIcESaIcEEESt4pairIKS5_P20soft_sub_structure_tESt10_Select1stISA_ESt4lessIS5_ESaISA_EE4findERS7_
FNDA:0,_ZNSt8_Rb_treeINSt7__cxx1112basic_stringIcSt11char_traitsIcESaIcEEESt4pairIKS5_P20soft_sub_structure_tESt10_Select1stISA_ESt4lessIS5_ESaISA_EE4findERS7_
DA:146,0
DA:150,0
DA:173,0
DA:174,0
DA:175,0
DA:176,0
DA:177,0
DA:193,0
DA:195,0
DA:196,0
DA:197,0
DA:198,0
DA:199,0
DA:200,0
DA:202,0
DA:203,0
DA:206,0
DA:208,0
DA:209,0
DA:210,0
DA:211,0
DA:212,0
DA:234,0
DA:235,0
DA:238,0
DA:239,0
DA:273,0
DA:274,0
DA:277,0
DA:278,0
DA:285,0
DA:287,0
DA:288,0
DA:300,0
DA:302,0
DA:303,0
DA:315,0
DA:316,0
DA:348,0
DA:349,0
DA:352,0
DA:353,0
DA:566,0
DA:567,0
DA:579,0
DA:580,0
DA:583,0
DA:584,0
DA:609,0
DA:613,0
DA:614,0
DA:618,0
DA:620,0
DA:621,0
DA:622,0
DA:624,0
DA:609,0
DA:613,0
DA:614,0
DA:618,0
DA:620,0
DA:621,0
DA:622,0
DA:624,0
DA:628,0
DA:630,0
DA:631,0
DA:632,0
DA:628,0
DA:630,0
DA:631,0
DA:632,0
DA:637,0
DA:642,0
DA:643,0
DA:645,0
DA:648,0
DA:650,0
DA:651,0
DA:652,0
DA:680,0
DA:684,0
DA:685,0
DA:720,0
DA:721,0
DA:728,0
DA:729,0
DA:736,0
DA:737,0
DA:744,0
DA:745,0
DA:755,0
DA:756,0
DA:767,0
DA:785,0
DA:789,0
DA:790,0
DA:797,0
DA:798,0
DA:809,0
DA:810,0
DA:939,0
DA:994,0
DA:995,0
DA:1002,0
DA:1003,0
DA:1006,0
DA:1007,0
DA:1014,0
DA:1015,0
DA:1042,0
DA:1043,0
DA:1264,0
DA:1266,0
DA:1267,0
DA:1268,0
DA:1281,0
DA:1282,0
DA:1431,0
DA:1432,0
DA:1678,0
DA:1681,0
DA:1682,0
DA:1683,0
DA:1684,0
DA:1686,0
DA:1717,0
DA:1722,0
DA:1723,0
DA:1724,0
DA:1907,0
DA:1911,0
DA:1913,0
DA:1914,0
DA:1915,0
DA:1916,0
DA:1918,0
DA:1924,0
DA:1928,0
DA:1929,0
DA:1930,0
DA:1932,0
DA:1933,0
DA:2085,0
DA:2089,0
DA:2090,0
DA:2091,0
DA:2092,0
DA:2094,0
DA:2095,0
DA:2096,0
DA:2098,0
DA:2099,0
DA:2101,0
DA:2102,0
DA:2104,0
DA:2106,0
DA:2107,0
DA:2108,0
DA:2187,0
DA:2191,0
DA:2195,0
DA:2197,0
DA:2198,0
DA:2199,0
DA:2201,0
DA:2203,0
DA:2206,0
DA:2207,0
DA:2208,0
DA:2209,0
DA:2211,0
DA:2212,0
DA:2214,0
DA:2217,0
DA:2219,0
DA:2222,0
DA:2223,0
DA:2224,0
DA:2225,0
DA:2227,0
DA:2228,0
DA:2230,0
DA:2233,0
DA:2237,0
DA:2354,0
DA:2357,0
DA:2358,0
DA:2361,0
DA:2362,0
DA:2363,0
DA:2364,0
DA:2452,0
DA:2455,0
DA:2459,0
DA:2461,0
DA:2462,0
DA:2464,0
DA:2465,0
DA:2467,0
DA:2469,0
DA:2470,0
DA:2452,0
DA:2455,0
DA:2459,0
DA:2461,0
DA:2462,0
DA:2464,0
DA:2465,0
DA:2467,0
DA:2469,0
DA:2470,0
DA:2554,0
DA:2557,0
DA:2558,0
DA:2559,0
DA:2560,0
end_of_record
SF:/usr/include/c++/9/ext/new_allocator.h
FN:80,_ZN9__gnu_cxx13new_allocatorIcEC2Ev
FNDA:0,_ZN9__gnu_cxx13new_allocatorIcEC2Ev
FN:80,_ZN9__gnu_cxx13new_allocatorISt13_Rb_tree_nodeISt4pairIKNSt7__cxx1112basic_stringIcSt11char_traitsIcESaIcEEEP20soft_sub_structure_tEEEC2Ev
FNDA:0,_ZN9__gnu_cxx13new_allocatorISt13_Rb_tree_nodeISt4pairIKNSt7__cxx1112basic_stringIcSt11char_traitsIcESaIcEEEP20soft_sub_structure_tEEEC2Ev
FN:80,_ZN9__gnu_cxx13new_allocatorINSt7__cxx1112basic_stringIcSt11char_traitsIcESaIcEEEEC2Ev
FNDA:0,_ZN9__gnu_cxx13new_allocatorINSt7__cxx1112basic_stringIcSt11char_traitsIcESaIcEEEEC2Ev
FN:83,_ZN9__gnu_cxx13new_allocatorIcEC2ERKS1_
FNDA:0,_ZN9__gnu_cxx13new_allocatorIcEC2ERKS1_
FN:89,_ZN9__gnu_cxx13new_allocatorIcED2Ev
FNDA:0,_ZN9__gnu_cxx13new_allocatorIcED2Ev
FN:89,_ZN9__gnu_cxx13new_allocatorISt13_Rb_tree_nodeISt4pairIKNSt7__cxx1112basic_stringIcSt11char_traitsIcESaIcEEEP20soft_sub_structure_tEEED2Ev
FNDA:0,_ZN9__gnu_cxx13new_allocatorISt13_Rb_tree_nodeISt4pairIKNSt7__cxx1112basic_stringIcSt11char_traitsIcESaIcEEEP20soft_sub_structure_tEEED2Ev
FN:89,_ZN9__gnu_cxx13new_allocatorINSt7__cxx1112basic_stringIcSt11char_traitsIcESaIcEEEED2Ev
FNDA:0,_ZN9__gnu_cxx13new_allocatorINSt7__cxx1112basic_stringIcSt11char_traitsIcESaIcEEEED2Ev
FN:102,_ZN9__gnu_cxx13new_allocatorINSt7__cxx1112basic_stringIcSt11char_traitsIcESaIcEEEE8allocateEmPKv
FNDA:0,_ZN9__gnu_cxx13new_allocatorINSt7__cxx1112basic_stringIcSt11char_traitsIcESaIcEEEE8allocateEmPKv
FN:102,_ZN9__gnu_cxx13new_allocatorISt13_Rb_tree_nodeISt4pairIKNSt7__cxx1112basic_stringIcSt11char_traitsIcESaIcEEEP20soft_sub_structure_tEEE8allocateEmPKv
FNDA:0,_ZN9__gnu_cxx13new_allocatorISt13_Rb_tree_nodeISt4pairIKNSt7__cxx1112basic_stringIcSt11char_traitsIcESaIcEEEP20soft_sub_structure_tEEE8allocateEmPKv
FN:119,_ZN9__gnu_cxx13new_allocatorISt13_Rb_tree_nodeISt4pairIKNSt7__cxx1112basic_stringIcSt11char_traitsIcESaIcEEEP20soft_sub_structure_tEEE10deallocateEPSD_m
FNDA:0,_ZN9__gnu_cxx13new_allocatorISt13_Rb_tree_nodeISt4pairIKNSt7__cxx1112basic_stringIcSt11char_traitsIcESaIcEEEP20soft_sub_structure_tEEE10deallocateEPSD_m
FN:119,_ZN9__gnu_cxx13new_allocatorINSt7__cxx1112basic_stringIcSt11char_traitsIcESaIcEEEE10deallocateEPS6_m
FNDA:0,_ZN9__gnu_cxx13new_allocatorINSt7__cxx1112basic_stringIcSt11char_traitsIcESaIcEEEE10deallocateEPS6_m
FN:132,_ZNK9__gnu_cxx13new_allocatorISt13_Rb_tree_nodeISt4pairIKNSt7__cxx1112basic_stringIcSt11char_traitsIcESaIcEEEP20soft_sub_structure_tEEE8max_sizeEv
FNDA:0,_ZNK9__gnu_cxx13new_allocatorISt13_Rb_tree_nodeISt4pairIKNSt7__cxx1112basic_stringIcSt11char_traitsIcESaIcEEEP20soft_sub_structure_tEEE8max_sizeEv
FN:132,_ZNK9__gnu_cxx13new_allocatorINSt7__cxx1112basic_stringIcSt11char_traitsIcESaIcEEEE8max_sizeEv
FNDA:0,_ZNK9__gnu_cxx13new_allocatorINSt7__cxx1112basic_stringIcSt11char_traitsIcESaIcEEEE8max_sizeEv
FN:144,_ZN9__gnu_cxx13new_allocatorINSt7__cxx1112basic_stringIcSt11char_traitsIcESaIcEEEE9constructIS6_JS6_EEEvPT_DpOT0_
FNDA:0,_ZN9__gnu_cxx13new_allocatorINSt7__cxx1112basic_stringIcSt11char_traitsIcESaIcEEEE9constructIS6_JS6_EEEvPT_DpOT0_
FN:144,_ZN9__gnu_cxx13new_allocatorISt13_Rb_tree_nodeISt4pairIKNSt7__cxx1112basic_stringIcSt11char_traitsIcESaIcEEEP20soft_sub_structure_tEEE9constructISC_JRKSt21piecewise_construct_tSt5tupleIJOS8_EESJ_IJEEEEEvPT_DpOT0_
FNDA:0,_ZN9__gnu_cxx13new_allocatorISt13_Rb_tree_nodeISt4pairIKNSt7__cxx1112basic_stringIcSt11char_traitsIcESaIcEEEP20soft_sub_structure_tEEE9constructISC_JRKSt21piecewise_construct_tSt5tupleIJOS8_EESJ_IJEEEEEvPT_DpOT0_
FN:144,_ZN9__gnu_cxx13new_allocatorISt13_Rb_tree_nodeISt4pairIKNSt7__cxx1112basic_stringIcSt11char_traitsIcESaIcEEEP20soft_sub_structure_tEEE9constructISC_JRKSt21piecewise_construct_tSt5tupleIJRS9_EESJ_IJEEEEEvPT_DpOT0_
FNDA:0,_ZN9__gnu_cxx13new_allocatorISt13_Rb_tree_nodeISt4pairIKNSt7__cxx1112basic_stringIcSt11char_traitsIcESaIcEEEP20soft_sub_structure_tEEE9constructISC_JRKSt21piecewise_construct_tSt5tupleIJRS9_EESJ_IJEEEEEvPT_DpOT0_
FN:151,_ZN9__gnu_cxx13new_allocatorINSt7__cxx1112basic_stringIcSt11char_traitsIcESaIcEEEE7destroyIS6_EEvPT_
FNDA:0,_ZN9__gnu_cxx13new_allocatorINSt7__cxx1112basic_stringIcSt11char_traitsIcESaIcEEEE7destroyIS6_EEvPT_
FN:151,_ZN9__gnu_cxx13new_allocatorISt13_Rb_tree_nodeISt4pairIKNSt7__cxx1112basic_stringIcSt11char_traitsIcESaIcEEEP20soft_sub_structure_tEEE7destroyISC_EEvPT_
FNDA:0,_ZN9__gnu_cxx13new_allocatorISt13_Rb_tree_nodeISt4pairIKNSt7__cxx1112basic_stringIcSt11char_traitsIcESaIcEEEP20soft_sub_structure_tEEE7destroyISC_EEvPT_
DA:80,0
DA:80,0
DA:80,0
DA:83,0
DA:89,0
DA:89,0
DA:89,0
DA:102,0
DA:104,0
DA:105,0
DA:114,0
DA:102,0
DA:104,0
DA:105,0
DA:114,0
DA:119,0
DA:128,0
DA:129,0
DA:119,0
DA:128,0
DA:129,0
DA:132,0
DA:135,0
DA:132,0
DA:135,0
DA:144,0
DA:147,0
DA:144,0
DA:147,0
DA:144,0
DA:147,0
DA:151,0
DA:153,0
DA:151,0
DA:153,0
end_of_record
SF:/usr/include/c++/9/ext/type_traits.h
FN:152,_ZN9__gnu_cxx17__is_null_pointerIcEEbPT_
FNDA:0,_ZN9__gnu_cxx17__is_null_pointerIcEEbPT_
FN:152,_ZN9__gnu_cxx17__is_null_pointerIKcEEbPT_
FNDA:0,_ZN9__gnu_cxx17__is_null_pointerIKcEEbPT_
DA:152,0
DA:153,0
DA:152,0
DA:153,0
end_of_record
SF:/usr/include/c++/9/bits/predefined_ops.h
FN:234,_ZN9__gnu_cxx5__ops16_Iter_equals_valIKcEC2ERS2_
FNDA:0,_ZN9__gnu_cxx5__ops16_Iter_equals_valIKcEC2ERS2_
FN:240,_ZN9__gnu_cxx5__ops16_Iter_equals_valIKcEclINS_17__normal_iteratorIPcNSt7__cxx1112basic_stringIcSt11char_traitsIcESaIcEEEEEEEbT_
FNDA:0,_ZN9__gnu_cxx5__ops16_Iter_equals_valIKcEclINS_17__normal_iteratorIPcNSt7__cxx1112basic_stringIcSt11char_traitsIcESaIcEEEEEEEbT_
FN:246,_ZN9__gnu_cxx5__ops17__iter_equals_valIKcEENS0_16_Iter_equals_valIT_EERS4_
FNDA:0,_ZN9__gnu_cxx5__ops17__iter_equals_valIKcEENS0_16_Iter_equals_valIT_EERS4_
DA:234,0
DA:235,0
DA:236,0
DA:240,0
DA:241,0
DA:246,0
DA:247,0
end_of_record
SF:/usr/include/c++/9/ext/aligned_buffer.h
FN:64,_ZN9__gnu_cxx16__aligned_membufISt4pairIKNSt7__cxx1112basic_stringIcSt11char_traitsIcESaIcEEEP20soft_sub_structure_tEE7_M_addrEv
FNDA:0,_ZN9__gnu_cxx16__aligned_membufISt4pairIKNSt7__cxx1112basic_stringIcSt11char_traitsIcESaIcEEEP20soft_sub_structure_tEE7_M_addrEv
FN:68,_ZNK9__gnu_cxx16__aligned_membufISt4pairIKNSt7__cxx1112basic_stringIcSt11char_traitsIcESaIcEEEP20soft_sub_structure_tEE7_M_addrEv
FNDA:0,_ZNK9__gnu_cxx16__aligned_membufISt4pairIKNSt7__cxx1112basic_stringIcSt11char_traitsIcESaIcEEEP20soft_sub_structure_tEE7_M_addrEv
FN:72,_ZN9__gnu_cxx16__aligned_membufISt4pairIKNSt7__cxx1112basic_stringIcSt11char_traitsIcESaIcEEEP20soft_sub_structure_tEE6_M_ptrEv
FNDA:0,_ZN9__gnu_cxx16__aligned_membufISt4pairIKNSt7__cxx1112basic_stringIcSt11char_traitsIcESaIcEEEP20soft_sub_structure_tEE6_M_ptrEv
FN:76,_ZNK9__gnu_cxx16__aligned_membufISt4pairIKNSt7__cxx1112basic_stringIcSt11char_traitsIcESaIcEEEP20soft_sub_structure_tEE6_M_ptrEv
FNDA:0,_ZNK9__gnu_cxx16__aligned_membufISt4pairIKNSt7__cxx1112basic_stringIcSt11char_traitsIcESaIcEEEP20soft_sub_structure_tEE6_M_ptrEv
DA:64,0
DA:65,0
DA:68,0
DA:69,0
DA:72,0
DA:73,0
DA:76,0
DA:77,0
end_of_record
SF:/usr/include/c++/9/bits/basic_string.tcc
FN:206,_ZNSt7__cxx1112basic_stringIcSt11char_traitsIcESaIcEE12_M_constructIPcEEvT_S7_St20forward_iterator_tag
FNDA:0,_ZNSt7__cxx1112basic_stringIcSt11char_traitsIcESaIcEE12_M_constructIPcEEvT_S7_St20forward_iterator_tag
FN:206,_ZNSt7__cxx1112basic_stringIcSt11char_traitsIcESaIcEE12_M_constructIPKcEEvT_S8_St20forward_iterator_tag
FNDA:0,_ZNSt7__cxx1112basic_stringIcSt11char_traitsIcESaIcEE12_M_constructIPKcEEvT_S8_St20forward_iterator_tag
DA:206,0
DA:211,0
DA:212,0
DA:215,0
DA:217,0
DA:219,0
DA:220,0
DA:225,0
DA:226,0
DA:228,0
DA:229,0
DA:232,0
DA:233,0
DA:206,0
DA:211,0
DA:212,0
DA:215,0
DA:217,0
DA:219,0
DA:220,0
DA:225,0
DA:226,0
DA:228,0
DA:229,0
DA:232,0
DA:233,0
end_of_record
SF:/usr/include/c++/9/ext/string_conversions.h
FN:54,_ZN9__gnu_cxx6__stoaIlicJiEEET0_PFT_PKT1_PPS3_DpT2_EPKcS5_PmS9_
FNDA:0,_ZN9__gnu_cxx6__stoaIlicJiEEET0_PFT_PKT1_PPS3_DpT2_EPKcS5_PmS9_
FN:63,_ZZN9__gnu_cxx6__stoaIlicJiEEET0_PFT_PKT1_PPS3_DpT2_EPKcS5_PmS9_EN11_Save_errnoC2Ev
FNDA:0,_ZZN9__gnu_cxx6__stoaIlicJiEEET0_PFT_PKT1_PPS3_DpT2_EPKcS5_PmS9_EN11_Save_errnoC2Ev
FN:64,_ZZN9__gnu_cxx6__stoaIlicJiEEET0_PFT_PKT1_PPS3_DpT2_EPKcS5_PmS9_EN11_Save_errnoD2Ev
FNDA:0,_ZZN9__gnu_cxx6__stoaIlicJiEEET0_PFT_PKT1_PPS3_DpT2_EPKcS5_PmS9_EN11_Save_errnoD2Ev
FN:73,_ZZN9__gnu_cxx6__stoaIlicJiEEET0_PFT_PKT1_PPS3_DpT2_EPKcS5_PmS9_EN10_Range_chk6_S_chkElSt17integral_constantIbLb1EE
FNDA:0,_ZZN9__gnu_cxx6__stoaIlicJiEEET0_PFT_PKT1_PPS3_DpT2_EPKcS5_PmS9_EN10_Range_chk6_S_chkElSt17integral_constantIbLb1EE
FN:99,_ZN9__gnu_cxx12__to_xstringINSt7__cxx1112basic_stringIcSt11char_traitsIcESaIcEEEcEET_PFiPT0_mPKS8_P13__va_list_tagEmSB_z
FNDA:0,_ZN9__gnu_cxx12__to_xstringINSt7__cxx1112basic_stringIcSt11char_traitsIcESaIcEEEcEET_PFiPT0_mPKS8_P13__va_list_tagEmSB_z
DA:54,0
DA:63,0
DA:64,0
DA:66,0
DA:73,0
DA:76,0
DA:80,0
DA:82,0
DA:83,0
DA:84,0
DA:85,0
DA:86,0
DA:88,0
DA:90,0
DA:91,0
DA:93,0
DA:99,0
DA:105,0
DA:109,0
DA:111,0
DA:113,0
DA:115,0
end_of_record
SF:/usr/include/c++/9/ext/alloc_traits.h
FN:97,_ZN9__gnu_cxx14__alloc_traitsISaIcEcE17_S_select_on_copyERKS1_
FNDA:0,_ZN9__gnu_cxx14__alloc_traitsISaIcEcE17_S_select_on_copyERKS1_
DA:97,0
DA:98,0
end_of_record
SF:/usr/include/c++/9/bits/stl_iterator.h
FN:806,_ZN9__gnu_cxx17__normal_iteratorIPNSt7__cxx1112basic_stringIcSt11char_traitsIcESaIcEEESt6vectorIS6_SaIS6_EEEC2ERKS7_
FNDA:0,_ZN9__gnu_cxx17__normal_iteratorIPNSt7__cxx1112basic_stringIcSt11char_traitsIcESaIcEEESt6vectorIS6_SaIS6_EEEC2ERKS7_
FN:811,_ZN9__gnu_cxx17__normal_iteratorIPKcNSt7__cxx1112basic_stringIcSt11char_traitsIcESaIcEEEEC2IPcEERKNS0_IT_NS_11__enable_ifIXsrSt10__are_sameISC_SB_E7__valueES8_E6__typeEEE
FNDA:0,_ZN9__gnu_cxx17__normal_iteratorIPKcNSt7__cxx1112basic_stringIcSt11char_traitsIcESaIcEEEEC2IPcEERKNS0_IT_NS_11__enable_ifIXsrSt10__are_sameISC_SB_E7__valueES8_E6__typeEEE
FN:819,_ZNK9__gnu_cxx17__normal_iteratorIPcNSt7__cxx1112basic_stringIcSt11char_traitsIcESaIcEEEEdeEv
FNDA:0,_ZNK9__gnu_cxx17__normal_iteratorIPcNSt7__cxx1112basic_stringIcSt11char_traitsIcESaIcEEEEdeEv
FN:827,_ZN9__gnu_cxx17__normal_iteratorIPcNSt7__cxx1112basic_stringIcSt11char_traitsIcESaIcEEEEppEv
FNDA:0,_ZN9__gnu_cxx17__normal_iteratorIPcNSt7__cxx1112basic_stringIcSt11char_traitsIcESaIcEEEEppEv
FN:871,_ZNK9__gnu_cxx17__normal_iteratorIPNSt7__cxx1112basic_stringIcSt11char_traitsIcESaIcEEESt6vectorIS6_SaIS6_EEE4baseEv
FNDA:0,_ZNK9__gnu_cxx17__normal_iteratorIPNSt7__cxx1112basic_stringIcSt11char_traitsIcESaIcEEESt6vectorIS6_SaIS6_EEE4baseEv
FN:871,_ZNK9__gnu_cxx17__normal_iteratorIPcNSt7__cxx1112basic_stringIcSt11char_traitsIcESaIcEEEE4baseEv
FNDA:0,_ZNK9__gnu_cxx17__normal_iteratorIPcNSt7__cxx1112basic_stringIcSt11char_traitsIcESaIcEEEE4baseEv
FN:893,_ZN9__gnu_cxxeqIPcNSt7__cxx1112basic_stringIcSt11char_traitsIcESaIcEEEEEbRKNS_17__normal_iteratorIT_T0_EESD_
FNDA:0,_ZN9__gnu_cxxeqIPcNSt7__cxx1112basic_stringIcSt11char_traitsIcESaIcEEEEEbRKNS_17__normal_iteratorIT_T0_EESD_
FN:907,_ZN9__gnu_cxxneIPcNSt7__cxx1112basic_stringIcSt11char_traitsIcESaIcEEEEEbRKNS_17__normal_iteratorIT_T0_EESD_
FNDA:0,_ZN9__gnu_cxxneIPcNSt7__cxx1112basic_stringIcSt11char_traitsIcESaIcEEEEEbRKNS_17__normal_iteratorIT_T0_EESD_
FN:989,_ZN9__gnu_cxxmiIPcNSt7__cxx1112basic_stringIcSt11char_traitsIcESaIcEEEEENS_17__normal_iteratorIT_T0_E15difference_typeERKSB_SE_
FNDA:0,_ZN9__gnu_cxxmiIPcNSt7__cxx1112basic_stringIcSt11char_traitsIcESaIcEEEEENS_17__normal_iteratorIT_T0_E15difference_typeERKSB_SE_
FN:989,_ZN9__gnu_cxxmiIPNSt7__cxx1112basic_stringIcSt11char_traitsIcESaIcEEESt6vectorIS6_SaIS6_EEEENS_17__normal_iteratorIT_T0_E15difference_typeERKSE_SH_
FNDA:0,_ZN9__gnu_cxxmiIPNSt7__cxx1112basic_stringIcSt11char_traitsIcESaIcEEESt6vectorIS6_SaIS6_EEEENS_17__normal_iteratorIT_T0_E15difference_typeERKSE_SH_
FN:1057,_ZNSt13move_iteratorIPNSt7__cxx1112basic_stringIcSt11char_traitsIcESaIcEEEEC2ES6_
FNDA:0,_ZNSt13move_iteratorIPNSt7__cxx1112basic_stringIcSt11char_traitsIcESaIcEEEEC2ES6_
FN:1066,_ZNKSt13move_iteratorIPNSt7__cxx1112basic_stringIcSt11char_traitsIcESaIcEEEE4baseEv
FNDA:0,_ZNKSt13move_iteratorIPNSt7__cxx1112basic_stringIcSt11char_traitsIcESaIcEEEE4baseEv
FN:1070,_ZNKSt13move_iteratorIPNSt7__cxx1112basic_stringIcSt11char_traitsIcESaIcEEEEdeEv
FNDA:0,_ZNKSt13move_iteratorIPNSt7__cxx1112basic_stringIcSt11char_traitsIcESaIcEEEEdeEv
FN:1078,_ZNSt13move_iteratorIPNSt7__cxx1112basic_stringIcSt11char_traitsIcESaIcEEEEppEv
FNDA:0,_ZNSt13move_iteratorIPNSt7__cxx1112basic_stringIcSt11char_traitsIcESaIcEEEEppEv
FN:1145,_ZSteqIPNSt7__cxx1112basic_stringIcSt11char_traitsIcESaIcEEEEbRKSt13move_iteratorIT_ESB_
FNDA:0,_ZSteqIPNSt7__cxx1112basic_stringIcSt11char_traitsIcESaIcEEEEbRKSt13move_iteratorIT_ESB_
FN:1157,_ZStneIPNSt7__cxx1112basic_stringIcSt11char_traitsIcESaIcEEEEbRKSt13move_iteratorIT_ESB_
FNDA:0,_ZStneIPNSt7__cxx1112basic_stringIcSt11char_traitsIcESaIcEEEEbRKSt13move_iteratorIT_ESB_
FN:1242,_ZSt32__make_move_if_noexcept_iteratorINSt7__cxx1112basic_stringIcSt11char_traitsIcESaIcEEESt13move_iteratorIPS5_EET0_PT_
FNDA:0,_ZSt32__make_move_if_noexcept_iteratorINSt7__cxx1112basic_stringIcSt11char_traitsIcESaIcEEESt13move_iteratorIPS5_EET0_PT_
DA:806,0
DA:807,0
DA:811,0
DA:815,0
DA:819,0
DA:820,0
DA:827,0
DA:829,0
DA:830,0
DA:871,0
DA:872,0
DA:871,0
DA:872,0
DA:893,0
DA:896,0
DA:907,0
DA:910,0
DA:989,0
DA:992,0
DA:989,0
DA:992,0
DA:1057,0
DA:1058,0
DA:1066,0
DA:1067,0
DA:1070,0
DA:1071,0
DA:1078,0
DA:1080,0
DA:1081,0
DA:1145,0
DA:1147,0
DA:1157,0
DA:1159,0
DA:1242,0
DA:1243,0
end_of_record
SF:/usr/include/c++/9/bits/vector.tcc
FN:109,_ZNSt6vectorINSt7__cxx1112basic_stringIcSt11char_traitsIcESaIcEEESaIS5_EE12emplace_backIJS5_EEEvDpOT_
FNDA:0,_ZNSt6vectorINSt7__cxx1112basic_stringIcSt11char_traitsIcESaIcEEESaIS5_EE12emplace_backIJS5_EEEvDpOT_
FN:426,_ZNSt6vectorINSt7__cxx1112basic_stringIcSt11char_traitsIcESaIcEEESaIS5_EE17_M_realloc_insertIJS5_EEEvN9__gnu_cxx17__normal_iteratorIPS5_S7_EEDpOT_
FNDA:0,_ZNSt6vectorINSt7__cxx1112basic_stringIcSt11char_traitsIcESaIcEEESaIS5_EE17_M_realloc_insertIJS5_EEEvN9__gnu_cxx17__normal_iteratorIPS5_S7_EEDpOT_
DA:109,0
DA:112,0
DA:115,0
DA:117,0
DA:121,0
DA:125,0
DA:426,0
DA:435,0
DA:437,0
DA:438,0
DA:439,0
DA:440,0
DA:441,0
DA:449,0
DA:450,0
DA:456,0
DA:459,0
DA:461,0
DA:462,0
DA:464,0
DA:466,0
DA:467,0
DA:474,0
DA:475,0
DA:477,0
DA:481,0
DA:482,0
DA:485,0
DA:487,0
DA:488,0
DA:489,0
DA:491,0
DA:492,0
DA:493,0
DA:496,0
DA:498,0
DA:500,0
DA:501,0
DA:502,0
DA:503,0
DA:504,0
DA:505,0
end_of_record
TN:
SF:/usr/include/c++/9/bits/move.h
FN:47,_ZSt11__addressofINSt8__detail10_Hash_nodeISt4pairIKNSt7__cxx1112basic_stringIcSt11char_traitsIcESaIcEEEPvELb1EEEEPT_RSD_
FNDA:0,_ZSt11__addressofINSt8__detail10_Hash_nodeISt4pairIKNSt7__cxx1112basic_stringIcSt11char_traitsIcESaIcEEEPvELb1EEEEPT_RSD_
FN:47,_ZSt11__addressofIPNSt8__detail15_Hash_node_baseEEPT_RS3_
FNDA:0,_ZSt11__addressofIPNSt8__detail15_Hash_node_baseEEPT_RS3_
FN:74,_ZSt7forwardIRKSt4pairIKlSt6vectorIaSaIaEEEEOT_RNSt16remove_referenceIS8_E4typeE
FNDA:0,_ZSt7forwardIRKSt4pairIKlSt6vectorIaSaIaEEEEOT_RNSt16remove_referenceIS8_E4typeE
FN:74,_ZSt7forwardIRPSt13_Rb_tree_nodeISt4pairIKiSt3mapIlSt6vectorIaSaIaEESt4lessIlESaIS1_IKlS6_EEEEEEOT_RNSt16remove_referenceISH_E4typeE
FNDA:0,_ZSt7forwardIRPSt13_Rb_tree_nodeISt4pairIKiSt3mapIlSt6vectorIaSaIaEESt4lessIlESaIS1_IKlS6_EEEEEEOT_RNSt16remove_referenceISH_E4typeE
FN:74,_ZSt7forwardIRPSt18_Rb_tree_node_baseEOT_RNSt16remove_referenceIS3_E4typeE
FNDA:0,_ZSt7forwardIRPSt18_Rb_tree_node_baseEOT_RNSt16remove_referenceIS3_E4typeE
FN:74,_ZSt7forwardIRKSt4pairIKiSt3mapIlSt6vectorIaSaIaEESt4lessIlESaIS0_IKlS5_EEEEEOT_RNSt16remove_referenceISF_E4typeE
FNDA:0,_ZSt7forwardIRKSt4pairIKiSt3mapIlSt6vectorIaSaIaEESt4lessIlESaIS0_IKlS5_EEEEEOT_RNSt16remove_referenceISF_E4typeE
FN:138,_ZSt9addressofINSt8__detail10_Hash_nodeISt4pairIKNSt7__cxx1112basic_stringIcSt11char_traitsIcESaIcEEEPvELb1EEEEPT_RSD_
FNDA:0,_ZSt9addressofINSt8__detail10_Hash_nodeISt4pairIKNSt7__cxx1112basic_stringIcSt11char_traitsIcESaIcEEEPvELb1EEEEPT_RSD_
FN:138,_ZSt9addressofIPNSt8__detail15_Hash_node_baseEEPT_RS3_
FNDA:0,_ZSt9addressofIPNSt8__detail15_Hash_node_baseEEPT_RS3_
DA:47,0
DA:48,0
DA:47,0
DA:48,0
DA:74,0
DA:75,0
DA:74,0
DA:75,0
DA:74,0
DA:75,0
DA:74,0
DA:75,0
DA:138,0
DA:139,0
DA:138,0
DA:139,0
end_of_record
SF:/usr/include/c++/9/new
FN:173,_ZnwmPv
FNDA:0,_ZnwmPv
FN:179,_ZdlPvS_
FNDA:0,_ZdlPvS_
DA:173,0
DA:174,0
DA:179,0
end_of_record
SF:/usr/include/c++/9/bits/ptr_traits.h
FN:146,_ZNSt14pointer_traitsIPNSt8__detail10_Hash_nodeISt4pairIKNSt7__cxx1112basic_stringIcSt11char_traitsIcESaIcEEEPvELb1EEEE10pointer_toERSC_
FNDA:0,_ZNSt14pointer_traitsIPNSt8__detail10_Hash_nodeISt4pairIKNSt7__cxx1112basic_stringIcSt11char_traitsIcESaIcEEEPvELb1EEEE10pointer_toERSC_
FN:146,_ZNSt14pointer_traitsIPPNSt8__detail15_Hash_node_baseEE10pointer_toERS2_
FNDA:0,_ZNSt14pointer_traitsIPPNSt8__detail15_Hash_node_baseEE10pointer_toERS2_
DA:146,0
DA:147,0
DA:146,0
DA:147,0
end_of_record
SF:/usr/include/c++/9/bits/stl_pair.h
FN:303,_ZNSt4pairIKlSt6vectorIaSaIaEEEC2ERKS4_
FNDA:0,_ZNSt4pairIKlSt6vectorIaSaIaEEEC2ERKS4_
FN:303,_ZNSt4pairIKiSt3mapIlSt6vectorIaSaIaEESt4lessIlESaIS_IKlS4_EEEEC2ERKSB_
FNDA:0,_ZNSt4pairIKiSt3mapIlSt6vectorIaSaIaEESt4lessIlESaIS_IKlS4_EEEEC2ERKSB_
FN:311,_ZNSt4pairIPSt18_Rb_tree_node_baseS1_EC2IRS1_Lb1EEEOT_RKS1_
FNDA:0,_ZNSt4pairIPSt18_Rb_tree_node_baseS1_EC2IRS1_Lb1EEEOT_RKS1_
FN:325,_ZNSt4pairIPSt18_Rb_tree_node_baseS1_EC2IRS1_Lb1EEERKS1_OT_
FNDA:0,_ZNSt4pairIPSt18_Rb_tree_node_baseS1_EC2IRS1_Lb1EEERKS1_OT_
FN:341,_ZNSt4pairIPSt18_Rb_tree_node_baseS1_EC2IRPSt13_Rb_tree_nodeIS_IKiSt3mapIlSt6vectorIaSaIaEESt4lessIlESaIS_IKlS9_EEEEERS1_Lb1EEEOT_OT0_
FNDA:0,_ZNSt4pairIPSt18_Rb_tree_node_baseS1_EC2IRPSt13_Rb_tree_nodeIS_IKiSt3mapIlSt6vectorIaSaIaEESt4lessIlESaIS_IKlS9_EEEEERS1_Lb1EEEOT_OT0_
FN:341,_ZNSt4pairIPSt18_Rb_tree_node_baseS1_EC2IRS1_S4_Lb1EEEOT_OT0_
FNDA:0,_ZNSt4pairIPSt18_Rb_tree_node_baseS1_EC2IRS1_S4_Lb1EEEOT_OT0_
DA:303,0
DA:303,0
DA:311,0
DA:312,0
DA:325,0
DA:326,0
DA:341,0
DA:342,0
DA:341,0
DA:342,0
end_of_record
SF:/usr/include/c++/9/bits/stl_function.h
FN:385,_ZNKSt4lessIiEclERKiS2_
FNDA:0,_ZNKSt4lessIiEclERKiS2_
FN:1155,_ZNKSt10_Select1stISt4pairIKiSt3mapIlSt6vectorIaSaIaEESt4lessIlESaIS0_IKlS5_EEEEEclERKSC_
FNDA:0,_ZNKSt10_Select1stISt4pairIKiSt3mapIlSt6vectorIaSaIaEESt4lessIlESaIS0_IKlS5_EEEEEclERKSC_
DA:385,0
DA:386,0
DA:1155,0
DA:1156,0
end_of_record
SF:/usr/include/c++/9/bits/char_traits.h
FN:329,_ZNSt11char_traitsIcE6lengthEPKc
FNDA:0,_ZNSt11char_traitsIcE6lengthEPKc
DA:329,0
DA:335,0
end_of_record
SF:/usr/include/c++/9/bits/stl_iterator_base_types.h
FN:205,_ZSt19__iterator_categoryIPKcENSt15iterator_traitsIT_E17iterator_categoryERKS3_
FNDA:0,_ZSt19__iterator_categoryIPKcENSt15iterator_traitsIT_E17iterator_categoryERKS3_
DA:205,0
DA:206,0
end_of_record
SF:/usr/include/c++/9/bits/stl_vector.h
FN:94,_ZNSt12_Vector_baseIaSaIaEE17_Vector_impl_dataC2Ev
FNDA:0,_ZNSt12_Vector_baseIaSaIaEE17_Vector_impl_dataC2Ev
FN:133,_ZNSt12_Vector_baseIaSaIaEE12_Vector_implC2ERKS0_
FNDA:0,_ZNSt12_Vector_baseIaSaIaEE12_Vector_implC2ERKS0_
FN:273,_ZNSt12_Vector_baseIaSaIaEE19_M_get_Tp_allocatorEv
FNDA:0,_ZNSt12_Vector_baseIaSaIaEE19_M_get_Tp_allocatorEv
FN:277,_ZNKSt12_Vector_baseIaSaIaEE19_M_get_Tp_allocatorEv
FNDA:0,_ZNKSt12_Vector_baseIaSaIaEE19_M_get_Tp_allocatorEv
FN:300,_ZNSt12_Vector_baseIaSaIaEEC2EmRKS0_
FNDA:0,_ZNSt12_Vector_baseIaSaIaEEC2EmRKS0_
FN:330,_ZNSt12_Vector_baseIaSaIaEED2Ev
FNDA:0,_ZNSt12_Vector_baseIaSaIaEED2Ev
FN:340,_ZNSt12_Vector_baseIaSaIaEE11_M_allocateEm
FNDA:0,_ZNSt12_Vector_baseIaSaIaEE11_M_allocateEm
FN:347,_ZNSt12_Vector_baseIaSaIaEE13_M_deallocateEPam
FNDA:0,_ZNSt12_Vector_baseIaSaIaEE13_M_deallocateEPam
FN:356,_ZNSt12_Vector_baseIaSaIaEE17_M_create_storageEm
FNDA:0,_ZNSt12_Vector_baseIaSaIaEE17_M_create_storageEm
FN:550,_ZNSt6vectorIaSaIaEEC2ERKS1_
FNDA:0,_ZNSt6vectorIaSaIaEEC2ERKS1_
FN:675,_ZNSt6vectorIaSaIaEED2Ev
FNDA:0,_ZNSt6vectorIaSaIaEED2Ev
FN:817,_ZNKSt6vectorIaSaIaEE5beginEv
FNDA:0,_ZNKSt6vectorIaSaIaEE5beginEv
FN:835,_ZNKSt6vectorIaSaIaEE3endEv
FNDA:0,_ZNKSt6vectorIaSaIaEE3endEv
FN:915,_ZNKSt6vectorIaSaIaEE4sizeEv
FNDA:0,_ZNKSt6vectorIaSaIaEE4sizeEv
FN:1040,_ZNSt6vectorINSt7__cxx1112basic_stringIcSt11char_traitsIcESaIcEEESaIS5_EEixEm
FNDA:0,_ZNSt6vectorINSt7__cxx1112basic_stringIcSt11char_traitsIcESaIcEEESaIS5_EEixEm
DA:94,0
DA:95,0
DA:96,0
DA:133,0
DA:134,0
DA:135,0
DA:273,0
DA:274,0
DA:277,0
DA:278,0
DA:300,0
DA:301,0
DA:302,0
DA:330,0
DA:332,0
DA:333,0
DA:334,0
DA:340,0
DA:343,0
DA:347,0
DA:350,0
DA:351,0
DA:352,0
DA:356,0
DA:358,0
DA:359,0
DA:360,0
DA:361,0
DA:550,0
DA:552,0
DA:554,0
DA:555,0
DA:557,0
DA:558,0
DA:675,0
DA:677,0
DA:678,0
DA:680,0
DA:817,0
DA:818,0
DA:835,0
DA:836,0
DA:915,0
DA:916,0
DA:1040,0
DA:1043,0
end_of_record
SF:/usr/include/c++/9/bits/allocator.h
FN:138,_ZNSaINSt8__detail10_Hash_nodeISt4pairIKNSt7__cxx1112basic_stringIcSt11char_traitsIcESaIcEEEPvELb1EEEEC2Ev
FNDA:0,_ZNSaINSt8__detail10_Hash_nodeISt4pairIKNSt7__cxx1112basic_stringIcSt11char_traitsIcESaIcEEEPvELb1EEEEC2Ev
FN:141,_ZNSaIaEC2ERKS_
FNDA:0,_ZNSaIaEC2ERKS_
FN:141,_ZNSaISt13_Rb_tree_nodeISt4pairIKlSt6vectorIaSaIaEEEEEC2ERKS7_
FNDA:0,_ZNSaISt13_Rb_tree_nodeISt4pairIKlSt6vectorIaSaIaEEEEEC2ERKS7_
FN:151,_ZNSaIPNSt8__detail15_Hash_node_baseEEC2INS_10_Hash_nodeISt4pairIKNSt7__cxx1112basic_stringIcSt11char_traitsIcESaIcEEEPvELb1EEEEERKSaIT_E
FNDA:0,_ZNSaIPNSt8__detail15_Hash_node_baseEEC2INS_10_Hash_nodeISt4pairIKNSt7__cxx1112basic_stringIcSt11char_traitsIcESaIcEEEPvELb1EEEEERKSaIT_E
FN:153,_ZNSaIaED2Ev
FNDA:0,_ZNSaIaED2Ev
FN:153,_ZNSaISt13_Rb_tree_nodeISt4pairIKlSt6vectorIaSaIaEEEEED2Ev
FNDA:0,_ZNSaISt13_Rb_tree_nodeISt4pairIKlSt6vectorIaSaIaEEEEED2Ev
FN:153,_ZNSaIPNSt8__detail15_Hash_node_baseEED2Ev
FNDA:0,_ZNSaIPNSt8__detail15_Hash_node_baseEED2Ev
FN:153,_ZNSaINSt8__detail10_Hash_nodeISt4pairIKNSt7__cxx1112basic_stringIcSt11char_traitsIcESaIcEEEPvELb1EEEED2Ev
FNDA:0,_ZNSaINSt8__detail10_Hash_nodeISt4pairIKNSt7__cxx1112basic_stringIcSt11char_traitsIcESaIcEEEPvELb1EEEED2Ev
DA:138,0
DA:141,0
DA:142,0
DA:141,0
DA:142,0
DA:151,0
DA:153,0
DA:153,0
DA:153,0
DA:153,0
end_of_record
SF:/usr/include/c++/9/initializer_list
FN:71,_ZNKSt16initializer_listISt4pairIKiSt3mapIlSt6vectorIaSaIaEESt4lessIlESaIS0_IKlS5_EEEEE4sizeEv
FNDA:0,_ZNKSt16initializer_listISt4pairIKiSt3mapIlSt6vectorIaSaIaEESt4lessIlESaIS0_IKlS5_EEEEE4sizeEv
FN:75,_ZNKSt16initializer_listISt4pairIKiSt3mapIlSt6vectorIaSaIaEESt4lessIlESaIS0_IKlS5_EEEEE5beginEv
FNDA:0,_ZNKSt16initializer_listISt4pairIKiSt3mapIlSt6vectorIaSaIaEESt4lessIlESaIS0_IKlS5_EEEEE5beginEv
FN:79,_ZNKSt16initializer_listISt4pairIKiSt3mapIlSt6vectorIaSaIaEESt4lessIlESaIS0_IKlS5_EEEEE3endEv
FNDA:0,_ZNKSt16initializer_listISt4pairIKiSt3mapIlSt6vectorIaSaIaEESt4lessIlESaIS0_IKlS5_EEEEE3endEv
DA:71,0
DA:75,0
DA:79,0
end_of_record
SF:/usr/include/c++/9/bits/stl_algobase.h
FN:280,_ZSt12__niter_baseIPaET_S1_
FNDA:0,_ZSt12__niter_baseIPaET_S1_
FN:295,_ZSt12__niter_wrapIPaET_RKS1_S1_
FNDA:0,_ZSt12__niter_wrapIPaET_RKS1_S1_
FN:375,_ZNSt11__copy_moveILb0ELb1ESt26random_access_iterator_tagE8__copy_mIaEEPT_PKS3_S6_S4_
FNDA:0,_ZNSt11__copy_moveILb0ELb1ESt26random_access_iterator_tagE8__copy_mIaEEPT_PKS3_S6_S4_
FN:393,_ZSt13__copy_move_aILb0EPKaPaET1_T0_S4_S3_
FNDA:0,_ZSt13__copy_move_aILb0EPKaPaET1_T0_S4_S3_
FN:438,_ZSt14__copy_move_a2ILb0EN9__gnu_cxx17__normal_iteratorIPKaSt6vectorIaSaIaEEEEPaET1_T0_SA_S9_
FNDA:0,_ZSt14__copy_move_a2ILb0EN9__gnu_cxx17__normal_iteratorIPKaSt6vectorIaSaIaEEEEPaET1_T0_SA_S9_
FN:465,_ZSt4copyIN9__gnu_cxx17__normal_iteratorIPKaSt6vectorIaSaIaEEEEPaET0_T_SA_S9_
FNDA:0,_ZSt4copyIN9__gnu_cxx17__normal_iteratorIPKaSt6vectorIaSaIaEEEEPaET0_T_SA_S9_
DA:280,0
DA:282,0
DA:295,0
DA:296,0
DA:375,0
DA:384,0
DA:385,0
DA:386,0
DA:387,0
DA:393,0
DA:398,0
DA:404,0
DA:438,0
DA:440,0
DA:443,0
DA:465,0
DA:474,0
end_of_record
SF:/usr/include/c++/9/bits/basic_string.h
FN:243,_ZNSt7__cxx1112basic_stringIcSt11char_traitsIcESaIcEE16_M_construct_auxIPKcEEvT_S8_St12__false_type
FNDA:0,_ZNSt7__cxx1112basic_stringIcSt11char_traitsIcESaIcEE16_M_construct_auxIPKcEEvT_S8_St12__false_type
FN:263,_ZNSt7__cxx1112basic_stringIcSt11char_traitsIcESaIcEE12_M_constructIPKcEEvT_S8_
FNDA:0,_ZNSt7__cxx1112basic_stringIcSt11char_traitsIcESaIcEE12_M_constructIPKcEEvT_S8_
DA:243,0
DA:247,0
DA:248,0
DA:263,0
DA:266,0
DA:267,0
end_of_record
SF:/usr/include/c++/9/bits/cpp_type_traits.h
FN:428,_ZSt12__miter_baseIN9__gnu_cxx17__normal_iteratorIPKaSt6vectorIaSaIaEEEEET_S8_
FNDA:0,_ZSt12__miter_baseIN9__gnu_cxx17__normal_iteratorIPKaSt6vectorIaSaIaEEEEET_S8_
DA:428,0
DA:429,0
end_of_record
SF:/usr/include/c++/9/bits/alloc_traits.h
FN:443,_ZNSt16allocator_traitsISaIaEE8allocateERS0_m
FNDA:0,_ZNSt16allocator_traitsISaIaEE8allocateERS0_m
FN:443,_ZNSt16allocator_traitsISaISt13_Rb_tree_nodeISt4pairIKlSt6vectorIaSaIaEEEEEE8allocateERS8_m
FNDA:0,_ZNSt16allocator_traitsISaISt13_Rb_tree_nodeISt4pairIKlSt6vectorIaSaIaEEEEEE8allocateERS8_m
FN:443,_ZNSt16allocator_traitsISaISt13_Rb_tree_nodeISt4pairIKiSt3mapIlSt6vectorIaSaIaEESt4lessIlESaIS1_IKlS6_EEEEEEE8allocateERSF_m
FNDA:0,_ZNSt16allocator_traitsISaISt13_Rb_tree_nodeISt4pairIKiSt3mapIlSt6vectorIaSaIaEESt4lessIlESaIS1_IKlS6_EEEEEEE8allocateERSF_m
FN:469,_ZNSt16allocator_traitsISaIaEE10deallocateERS0_Pam
FNDA:0,_ZNSt16allocator_traitsISaIaEE10deallocateERS0_Pam
FN:469,_ZNSt16allocator_traitsISaISt13_Rb_tree_nodeISt4pairIKlSt6vectorIaSaIaEEEEEE10deallocateERS8_PS7_m
FNDA:0,_ZNSt16allocator_traitsISaISt13_Rb_tree_nodeISt4pairIKlSt6vectorIaSaIaEEEEEE10deallocateERS8_PS7_m
FN:469,_ZNSt16allocator_traitsISaISt13_Rb_tree_nodeISt4pairIKiSt3mapIlSt6vectorIaSaIaEESt4lessIlESaIS1_IKlS6_EEEEEEE10deallocateERSF_PSE_m
FNDA:0,_ZNSt16allocator_traitsISaISt13_Rb_tree_nodeISt4pairIKiSt3mapIlSt6vectorIaSaIaEESt4lessIlESaIS1_IKlS6_EEEEEEE10deallocateERSF_PSE_m
FN:469,_ZNSt16allocator_traitsISaINSt8__detail10_Hash_nodeISt4pairIKNSt7__cxx1112basic_stringIcSt11char_traitsIcESaIcEEEPvELb1EEEEE10deallocateERSD_PSC_m
FNDA:0,_ZNSt16allocator_traitsISaINSt8__detail10_Hash_nodeISt4pairIKNSt7__cxx1112basic_stringIcSt11char_traitsIcESaIcEEEPvELb1EEEEE10deallocateERSD_PSC_m
FN:469,_ZNSt16allocator_traitsISaIPNSt8__detail15_Hash_node_baseEEE10deallocateERS3_PS2_m
FNDA:0,_ZNSt16allocator_traitsISaIPNSt8__detail15_Hash_node_baseEEE10deallocateERS3_PS2_m
FN:482,_ZNSt16allocator_traitsISaISt13_Rb_tree_nodeISt4pairIKlSt6vectorIaSaIaEEEEEE9constructIS6_JRKS6_EEEvRS8_PT_DpOT0_
FNDA:0,_ZNSt16allocator_traitsISaISt13_Rb_tree_nodeISt4pairIKlSt6vectorIaSaIaEEEEEE9constructIS6_JRKS6_EEEvRS8_PT_DpOT0_
FN:482,_ZNSt16allocator_traitsISaISt13_Rb_tree_nodeISt4pairIKiSt3mapIlSt6vectorIaSaIaEESt4lessIlESaIS1_IKlS6_EEEEEEE9constructISD_JRKSD_EEEvRSF_PT_DpOT0_
FNDA:0,_ZNSt16allocator_traitsISaISt13_Rb_tree_nodeISt4pairIKiSt3mapIlSt6vectorIaSaIaEESt4lessIlESaIS1_IKlS6_EEEEEEE9constructISD_JRKSD_EEEvRSF_PT_DpOT0_
FN:495,_ZNSt16allocator_traitsISaISt13_Rb_tree_nodeISt4pairIKlSt6vectorIaSaIaEEEEEE7destroyIS6_EEvRS8_PT_
FNDA:0,_ZNSt16allocator_traitsISaISt13_Rb_tree_nodeISt4pairIKlSt6vectorIaSaIaEEEEEE7destroyIS6_EEvRS8_PT_
FN:495,_ZNSt16allocator_traitsISaISt13_Rb_tree_nodeISt4pairIKiSt3mapIlSt6vectorIaSaIaEESt4lessIlESaIS1_IKlS6_EEEEEEE7destroyISD_EEvRSF_PT_
FNDA:0,_ZNSt16allocator_traitsISaISt13_Rb_tree_nodeISt4pairIKiSt3mapIlSt6vectorIaSaIaEESt4lessIlESaIS1_IKlS6_EEEEEEE7destroyISD_EEvRSF_PT_
FN:495,_ZNSt16allocator_traitsISaINSt8__detail10_Hash_nodeISt4pairIKNSt7__cxx1112basic_stringIcSt11char_traitsIcESaIcEEEPvELb1EEEEE7destroyISB_EEvRSD_PT_
FNDA:0,_ZNSt16allocator_traitsISaINSt8__detail10_Hash_nodeISt4pairIKNSt7__cxx1112basic_stringIcSt11char_traitsIcESaIcEEEPvELb1EEEEE7destroyISB_EEvRSD_PT_
FN:514,_ZNSt16allocator_traitsISaIaEE37select_on_container_copy_constructionERKS0_
FNDA:0,_ZNSt16allocator_traitsISaIaEE37select_on_container_copy_constructionERKS0_
FN:514,_ZNSt16allocator_traitsISaISt13_Rb_tree_nodeISt4pairIKlSt6vectorIaSaIaEEEEEE37select_on_container_copy_constructionERKS8_
FNDA:0,_ZNSt16allocator_traitsISaISt13_Rb_tree_nodeISt4pairIKlSt6vectorIaSaIaEEEEEE37select_on_container_copy_constructionERKS8_
DA:443,0
DA:444,0
DA:443,0
DA:444,0
DA:443,0
DA:444,0
DA:469,0
DA:470,0
DA:469,0
DA:470,0
DA:469,0
DA:470,0
DA:469,0
DA:470,0
DA:469,0
DA:470,0
DA:482,0
DA:484,0
DA:482,0
DA:484,0
DA:495,0
DA:497,0
DA:495,0
DA:497,0
DA:495,0
DA:497,0
DA:514,0
DA:515,0
DA:514,0
DA:515,0
end_of_record
SF:/usr/include/c++/9/bits/stl_tree.h
FN:112,_ZNSt18_Rb_tree_node_base10_S_minimumEPS_
FNDA:0,_ZNSt18_Rb_tree_node_base10_S_minimumEPS_
FN:126,_ZNSt18_Rb_tree_node_base10_S_maximumEPS_
FNDA:0,_ZNSt18_Rb_tree_node_base10_S_maximumEPS_
FN:152,_ZNSt20_Rb_tree_key_compareISt4lessIlEEC2ERKS1_
FNDA:0,_ZNSt20_Rb_tree_key_compareISt4lessIlEEC2ERKS1_
FN:173,_ZNSt15_Rb_tree_headerC2Ev
FNDA:0,_ZNSt15_Rb_tree_headerC2Ev
FN:206,_ZNSt15_Rb_tree_header8_M_resetEv
FNDA:0,_ZNSt15_Rb_tree_header8_M_resetEv
FN:234,_ZNSt13_Rb_tree_nodeISt4pairIKiSt3mapIlSt6vectorIaSaIaEESt4lessIlESaIS0_IKlS5_EEEEE9_M_valptrEv
FNDA:0,_ZNSt13_Rb_tree_nodeISt4pairIKiSt3mapIlSt6vectorIaSaIaEESt4lessIlESaIS0_IKlS5_EEEEE9_M_valptrEv
FN:234,_ZNSt13_Rb_tree_nodeISt4pairIKlSt6vectorIaSaIaEEEE9_M_valptrEv
FNDA:0,_ZNSt13_Rb_tree_nodeISt4pairIKlSt6vectorIaSaIaEEEE9_M_valptrEv
FN:238,_ZNKSt13_Rb_tree_nodeISt4pairIKiSt3mapIlSt6vectorIaSaIaEESt4lessIlESaIS0_IKlS5_EEEEE9_M_valptrEv
FNDA:0,_ZNKSt13_Rb_tree_nodeISt4pairIKiSt3mapIlSt6vectorIaSaIaEESt4lessIlESaIS0_IKlS5_EEEEE9_M_valptrEv
FN:238,_ZNKSt13_Rb_tree_nodeISt4pairIKlSt6vectorIaSaIaEEEE9_M_valptrEv
FNDA:0,_ZNKSt13_Rb_tree_nodeISt4pairIKlSt6vectorIaSaIaEEEE9_M_valptrEv
FN:273,_ZNSt17_Rb_tree_iteratorISt4pairIKiSt3mapIlSt6vectorIaSaIaEESt4lessIlESaIS0_IKlS5_EEEEEC2EPSt18_Rb_tree_node_base
FNDA:0,_ZNSt17_Rb_tree_iteratorISt4pairIKiSt3mapIlSt6vectorIaSaIaEESt4lessIlESaIS0_IKlS5_EEEEEC2EPSt18_Rb_tree_node_base
FN:285,_ZNSt17_Rb_tree_iteratorISt4pairIKiSt3mapIlSt6vectorIaSaIaEESt4lessIlESaIS0_IKlS5_EEEEEppEv
FNDA:0,_ZNSt17_Rb_tree_iteratorISt4pairIKiSt3mapIlSt6vectorIaSaIaEESt4lessIlESaIS0_IKlS5_EEEEEppEv
FN:300,_ZNSt17_Rb_tree_iteratorISt4pairIKiSt3mapIlSt6vectorIaSaIaEESt4lessIlESaIS0_IKlS5_EEEEEmmEv
FNDA:0,_ZNSt17_Rb_tree_iteratorISt4pairIKiSt3mapIlSt6vectorIaSaIaEESt4lessIlESaIS0_IKlS5_EEEEEmmEv
FN:315,_ZSteqRKSt17_Rb_tree_iteratorISt4pairIKiSt3mapIlSt6vectorIaSaIaEESt4lessIlESaIS0_IKlS5_EEEEESF_
FNDA:0,_ZSteqRKSt17_Rb_tree_iteratorISt4pairIKiSt3mapIlSt6vectorIaSaIaEESt4lessIlESaIS0_IKlS5_EEEEESF_
FN:348,_ZNSt23_Rb_tree_const_iteratorISt4pairIKiSt3mapIlSt6vectorIaSaIaEESt4lessIlESaIS0_IKlS5_EEEEEC2ERKSt17_Rb_tree_iteratorISC_E
FNDA:0,_ZNSt23_Rb_tree_const_iteratorISt4pairIKiSt3mapIlSt6vectorIaSaIaEESt4lessIlESaIS0_IKlS5_EEEEEC2ERKSt17_Rb_tree_iteratorISC_E
FN:352,_ZNKSt23_Rb_tree_const_iteratorISt4pairIKiSt3mapIlSt6vectorIaSaIaEESt4lessIlESaIS0_IKlS5_EEEEE13_M_const_castEv
FNDA:0,_ZNKSt23_Rb_tree_const_iteratorISt4pairIKiSt3mapIlSt6vectorIaSaIaEESt4lessIlESaIS0_IKlS5_EEEEE13_M_const_castEv
FN:454,_ZNSt8_Rb_treeIiSt4pairIKiSt3mapIlSt6vectorIaSaIaEESt4lessIlESaIS0_IKlS5_EEEESt10_Select1stISC_ES6_IiESaISC_EE20_Reuse_or_alloc_nodeC2ERSH_
FNDA:0,_ZNSt8_Rb_treeIiSt4pairIKiSt3mapIlSt6vectorIaSaIaEESt4lessIlESaIS0_IKlS5_EEEESt10_Select1stISC_ES6_IiESaISC_EE20_Reuse_or_alloc_nodeC2ERSH_
FN:472,_ZNSt8_Rb_treeIiSt4pairIKiSt3mapIlSt6vectorIaSaIaEESt4lessIlESaIS0_IKlS5_EEEESt10_Select1stISC_ES6_IiESaISC_EE20_Reuse_or_alloc_nodeD2Ev
FNDA:0,_ZNSt8_Rb_treeIiSt4pairIKiSt3mapIlSt6vectorIaSaIaEESt4lessIlESaIS0_IKlS5_EEEESt10_Select1stISC_ES6_IiESaISC_EE20_Reuse_or_alloc_nodeD2Ev
FN:480,_ZNSt8_Rb_treeIiSt4pairIKiSt3mapIlSt6vectorIaSaIaEESt4lessIlESaIS0_IKlS5_EEEESt10_Select1stISC_ES6_IiESaISC_EE20_Reuse_or_alloc_nodeclIRKSC_EEPSt13_Rb_tree_nodeISC_EOT_
FNDA:0,_ZNSt8_Rb_treeIiSt4pairIKiSt3mapIlSt6vectorIaSaIaEESt4lessIlESaIS0_IKlS5_EEEESt10_Select1stISC_ES6_IiESaISC_EE20_Reuse_or_alloc_nodeclIRKSC_EEPSt13_Rb_tree_nodeISC_EOT_
FN:496,_ZNSt8_Rb_treeIiSt4pairIKiSt3mapIlSt6vectorIaSaIaEESt4lessIlESaIS0_IKlS5_EEEESt10_Select1stISC_ES6_IiESaISC_EE20_Reuse_or_alloc_node10_M_extractEv
FNDA:0,_ZNSt8_Rb_treeIiSt4pairIKiSt3mapIlSt6vectorIaSaIaEESt4lessIlESaIS0_IKlS5_EEEESt10_Select1stISC_ES6_IiESaISC_EE20_Reuse_or_alloc_node10_M_extractEv
FN:538,_ZNSt8_Rb_treeIlSt4pairIKlSt6vectorIaSaIaEEESt10_Select1stIS5_ESt4lessIlESaIS5_EE11_Alloc_nodeC2ERSB_
FNDA:0,_ZNSt8_Rb_treeIlSt4pairIKlSt6vectorIaSaIaEEESt10_Select1stIS5_ESt4lessIlESaIS5_EE11_Alloc_nodeC2ERSB_
FN:546,_ZNKSt8_Rb_treeIlSt4pairIKlSt6vectorIaSaIaEEESt10_Select1stIS5_ESt4lessIlESaIS5_EE11_Alloc_nodeclIRKS5_EEPSt13_Rb_tree_nodeIS5_EOT_
FNDA:0,_ZNKSt8_Rb_treeIlSt4pairIKlSt6vectorIaSaIaEEESt10_Select1stIS5_ESt4lessIlESaIS5_EE11_Alloc_nodeclIRKS5_EEPSt13_Rb_tree_nodeIS5_EOT_
FN:566,_ZNSt8_Rb_treeIiSt4pairIKiSt3mapIlSt6vectorIaSaIaEESt4lessIlESaIS0_IKlS5_EEEESt10_Select1stISC_ES6_IiESaISC_EE21_M_get_Node_allocatorEv
FNDA:0,_ZNSt8_Rb_treeIiSt4pairIKiSt3mapIlSt6vectorIaSaIaEESt4lessIlESaIS0_IKlS5_EEEESt10_Select1stISC_ES6_IiESaISC_EE21_M_get_Node_allocatorEv
FN:566,_ZNSt8_Rb_treeIlSt4pairIKlSt6vectorIaSaIaEEESt10_Select1stIS5_ESt4lessIlESaIS5_EE21_M_get_Node_allocatorEv
FNDA:0,_ZNSt8_Rb_treeIlSt4pairIKlSt6vectorIaSaIaEEESt10_Select1stIS5_ESt4lessIlESaIS5_EE21_M_get_Node_allocatorEv
FN:579,_ZNSt8_Rb_treeIlSt4pairIKlSt6vectorIaSaIaEEESt10_Select1stIS5_ESt4lessIlESaIS5_EE11_M_get_nodeEv
FNDA:0,_ZNSt8_Rb_treeIlSt4pairIKlSt6vectorIaSaIaEEESt10_Select1stIS5_ESt4lessIlESaIS5_EE11_M_get_nodeEv
FN:579,_ZNSt8_Rb_treeIiSt4pairIKiSt3mapIlSt6vectorIaSaIaEESt4lessIlESaIS0_IKlS5_EEEESt10_Select1stISC_ES6_IiESaISC_EE11_M_get_nodeEv
FNDA:0,_ZNSt8_Rb_treeIiSt4pairIKiSt3mapIlSt6vectorIaSaIaEESt4lessIlESaIS0_IKlS5_EEEESt10_Select1stISC_ES6_IiESaISC_EE11_M_get_nodeEv
FN:583,_ZNSt8_Rb_treeIiSt4pairIKiSt3mapIlSt6vectorIaSaIaEESt4lessIlESaIS0_IKlS5_EEEESt10_Select1stISC_ES6_IiESaISC_EE11_M_put_nodeEPSt13_Rb_tree_nodeISC_E
FNDA:0,_ZNSt8_Rb_treeIiSt4pairIKiSt3mapIlSt6vectorIaSaIaEESt4lessIlESaIS0_IKlS5_EEEESt10_Select1stISC_ES6_IiESaISC_EE11_M_put_nodeEPSt13_Rb_tree_nodeISC_E
FN:583,_ZNSt8_Rb_treeIlSt4pairIKlSt6vectorIaSaIaEEESt10_Select1stIS5_ESt4lessIlESaIS5_EE11_M_put_nodeEPSt13_Rb_tree_nodeIS5_E
FNDA:0,_ZNSt8_Rb_treeIlSt4pairIKlSt6vectorIaSaIaEEESt10_Select1stIS5_ESt4lessIlESaIS5_EE11_M_put_nodeEPSt13_Rb_tree_nodeIS5_E
FN:609,_ZNSt8_Rb_treeIlSt4pairIKlSt6vectorIaSaIaEEESt10_Select1stIS5_ESt4lessIlESaIS5_EE17_M_construct_nodeIJRKS5_EEEvPSt13_Rb_tree_nodeIS5_EDpOT_
FNDA:0,_ZNSt8_Rb_treeIlSt4pairIKlSt6vectorIaSaIaEEESt10_Select1stIS5_ESt4lessIlESaIS5_EE17_M_construct_nodeIJRKS5_EEEvPSt13_Rb_tree_nodeIS5_EDpOT_
FN:609,_ZNSt8_Rb_treeIiSt4pairIKiSt3mapIlSt6vectorIaSaIaEESt4lessIlESaIS0_IKlS5_EEEESt10_Select1stISC_ES6_IiESaISC_EE17_M_construct_nodeIJRKSC_EEEvPSt13_Rb_tree_nodeISC_EDpOT_
FNDA:0,_ZNSt8_Rb_treeIiSt4pairIKiSt3mapIlSt6vectorIaSaIaEESt4lessIlESaIS0_IKlS5_EEEESt10_Select1stISC_ES6_IiESaISC_EE17_M_construct_nodeIJRKSC_EEEvPSt13_Rb_tree_nodeISC_EDpOT_
FN:628,_ZNSt8_Rb_treeIlSt4pairIKlSt6vectorIaSaIaEEESt10_Select1stIS5_ESt4lessIlESaIS5_EE14_M_create_nodeIJRKS5_EEEPSt13_Rb_tree_nodeIS5_EDpOT_
FNDA:0,_ZNSt8_Rb_treeIlSt4pairIKlSt6vectorIaSaIaEEESt10_Select1stIS5_ESt4lessIlESaIS5_EE14_M_create_nodeIJRKS5_EEEPSt13_Rb_tree_nodeIS5_EDpOT_
FN:628,_ZNSt8_Rb_treeIiSt4pairIKiSt3mapIlSt6vectorIaSaIaEESt4lessIlESaIS0_IKlS5_EEEESt10_Select1stISC_ES6_IiESaISC_EE14_M_create_nodeIJRKSC_EEEPSt13_Rb_tree_nodeISC_EDpOT_
FNDA:0,_ZNSt8_Rb_treeIiSt4pairIKiSt3mapIlSt6vectorIaSaIaEESt4lessIlESaIS0_IKlS5_EEEESt10_Select1stISC_ES6_IiESaISC_EE14_M_create_nodeIJRKSC_EEEPSt13_Rb_tree_nodeISC_EDpOT_
FN:637,_ZNSt8_Rb_treeIiSt4pairIKiSt3mapIlSt6vectorIaSaIaEESt4lessIlESaIS0_IKlS5_EEEESt10_Select1stISC_ES6_IiESaISC_EE15_M_destroy_nodeEPSt13_Rb_tree_nodeISC_E
FNDA:0,_ZNSt8_Rb_treeIiSt4pairIKiSt3mapIlSt6vectorIaSaIaEESt4lessIlESaIS0_IKlS5_EEEESt10_Select1stISC_ES6_IiESaISC_EE15_M_destroy_nodeEPSt13_Rb_tree_nodeISC_E
FN:637,_ZNSt8_Rb_treeIlSt4pairIKlSt6vectorIaSaIaEEESt10_Select1stIS5_ESt4lessIlESaIS5_EE15_M_destroy_nodeEPSt13_Rb_tree_nodeIS5_E
FNDA:0,_ZNSt8_Rb_treeIlSt4pairIKlSt6vectorIaSaIaEEESt10_Select1stIS5_ESt4lessIlESaIS5_EE15_M_destroy_nodeEPSt13_Rb_tree_nodeIS5_E
FN:648,_ZNSt8_Rb_treeIiSt4pairIKiSt3mapIlSt6vectorIaSaIaEESt4lessIlESaIS0_IKlS5_EEEESt10_Select1stISC_ES6_IiESaISC_EE12_M_drop_nodeEPSt13_Rb_tree_nodeISC_E
FNDA:0,_ZNSt8_Rb_treeIiSt4pairIKiSt3mapIlSt6vectorIaSaIaEESt4lessIlESaIS0_IKlS5_EEEESt10_Select1stISC_ES6_IiESaISC_EE12_M_drop_nodeEPSt13_Rb_tree_nodeISC_E
FN:648,_ZNSt8_Rb_treeIlSt4pairIKlSt6vectorIaSaIaEEESt10_Select1stIS5_ESt4lessIlESaIS5_EE12_M_drop_nodeEPSt13_Rb_tree_nodeIS5_E
FNDA:0,_ZNSt8_Rb_treeIlSt4pairIKlSt6vectorIaSaIaEEESt10_Select1stIS5_ESt4lessIlESaIS5_EE12_M_drop_nodeEPSt13_Rb_tree_nodeIS5_E
FN:656,_ZNSt8_Rb_treeIlSt4pairIKlSt6vectorIaSaIaEEESt10_Select1stIS5_ESt4lessIlESaIS5_EE13_M_clone_nodeINSB_11_Alloc_nodeEEEPSt13_Rb_tree_nodeIS5_EPKSF_RT_
FNDA:0,_ZNSt8_Rb_treeIlSt4pairIKlSt6vectorIaSaIaEEESt10_Select1stIS5_ESt4lessIlESaIS5_EE13_M_clone_nodeINSB_11_Alloc_nodeEEEPSt13_Rb_tree_nodeIS5_EPKSF_RT_
FN:687,_ZNSt8_Rb_treeIlSt4pairIKlSt6vectorIaSaIaEEESt10_Select1stIS5_ESt4lessIlESaIS5_EE13_Rb_tree_implIS9_Lb1EEC2ERKSD_
FNDA:0,_ZNSt8_Rb_treeIlSt4pairIKlSt6vectorIaSaIaEEESt10_Select1stIS5_ESt4lessIlESaIS5_EE13_Rb_tree_implIS9_Lb1EEC2ERKSD_
FN:720,_ZNSt8_Rb_treeIlSt4pairIKlSt6vectorIaSaIaEEESt10_Select1stIS5_ESt4lessIlESaIS5_EE7_M_rootEv
FNDA:0,_ZNSt8_Rb_treeIlSt4pairIKlSt6vectorIaSaIaEEESt10_Select1stIS5_ESt4lessIlESaIS5_EE7_M_rootEv
FN:720,_ZNSt8_Rb_treeIiSt4pairIKiSt3mapIlSt6vectorIaSaIaEESt4lessIlESaIS0_IKlS5_EEEESt10_Select1stISC_ES6_IiESaISC_EE7_M_rootEv
FNDA:0,_ZNSt8_Rb_treeIiSt4pairIKiSt3mapIlSt6vectorIaSaIaEESt4lessIlESaIS0_IKlS5_EEEESt10_Select1stISC_ES6_IiESaISC_EE7_M_rootEv
FN:724,_ZNKSt8_Rb_treeIlSt4pairIKlSt6vectorIaSaIaEEESt10_Select1stIS5_ESt4lessIlESaIS5_EE7_M_rootEv
FNDA:0,_ZNKSt8_Rb_treeIlSt4pairIKlSt6vectorIaSaIaEEESt10_Select1stIS5_ESt4lessIlESaIS5_EE7_M_rootEv
FN:728,_ZNSt8_Rb_treeIiSt4pairIKiSt3mapIlSt6vectorIaSaIaEESt4lessIlESaIS0_IKlS5_EEEESt10_Select1stISC_ES6_IiESaISC_EE11_M_leftmostEv
FNDA:0,_ZNSt8_Rb_treeIiSt4pairIKiSt3mapIlSt6vectorIaSaIaEESt4lessIlESaIS0_IKlS5_EEEESt10_Select1stISC_ES6_IiESaISC_EE11_M_leftmostEv
FN:728,_ZNSt8_Rb_treeIlSt4pairIKlSt6vectorIaSaIaEEESt10_Select1stIS5_ESt4lessIlESaIS5_EE11_M_leftmostEv
FNDA:0,_ZNSt8_Rb_treeIlSt4pairIKlSt6vectorIaSaIaEEESt10_Select1stIS5_ESt4lessIlESaIS5_EE11_M_leftmostEv
FN:736,_ZNSt8_Rb_treeIlSt4pairIKlSt6vectorIaSaIaEEESt10_Select1stIS5_ESt4lessIlESaIS5_EE12_M_rightmostEv
FNDA:0,_ZNSt8_Rb_treeIlSt4pairIKlSt6vectorIaSaIaEEESt10_Select1stIS5_ESt4lessIlESaIS5_EE12_M_rightmostEv
FN:736,_ZNSt8_Rb_treeIiSt4pairIKiSt3mapIlSt6vectorIaSaIaEESt4lessIlESaIS0_IKlS5_EEEESt10_Select1stISC_ES6_IiESaISC_EE12_M_rightmostEv
FNDA:0,_ZNSt8_Rb_treeIiSt4pairIKiSt3mapIlSt6vectorIaSaIaEESt4lessIlESaIS0_IKlS5_EEEESt10_Select1stISC_ES6_IiESaISC_EE12_M_rightmostEv
FN:744,_ZNSt8_Rb_treeIlSt4pairIKlSt6vectorIaSaIaEEESt10_Select1stIS5_ESt4lessIlESaIS5_EE8_M_beginEv
FNDA:0,_ZNSt8_Rb_treeIlSt4pairIKlSt6vectorIaSaIaEEESt10_Select1stIS5_ESt4lessIlESaIS5_EE8_M_beginEv
FN:744,_ZNSt8_Rb_treeIiSt4pairIKiSt3mapIlSt6vectorIaSaIaEESt4lessIlESaIS0_IKlS5_EEEESt10_Select1stISC_ES6_IiESaISC_EE8_M_beginEv
FNDA:0,_ZNSt8_Rb_treeIiSt4pairIKiSt3mapIlSt6vectorIaSaIaEESt4lessIlESaIS0_IKlS5_EEEESt10_Select1stISC_ES6_IiESaISC_EE8_M_beginEv
FN:748,_ZNKSt8_Rb_treeIlSt4pairIKlSt6vectorIaSaIaEEESt10_Select1stIS5_ESt4lessIlESaIS5_EE8_M_beginEv
FNDA:0,_ZNKSt8_Rb_treeIlSt4pairIKlSt6vectorIaSaIaEEESt10_Select1stIS5_ESt4lessIlESaIS5_EE8_M_beginEv
FN:755,_ZNSt8_Rb_treeIlSt4pairIKlSt6vectorIaSaIaEEESt10_Select1stIS5_ESt4lessIlESaIS5_EE6_M_endEv
FNDA:0,_ZNSt8_Rb_treeIlSt4pairIKlSt6vectorIaSaIaEEESt10_Select1stIS5_ESt4lessIlESaIS5_EE6_M_endEv
FN:755,_ZNSt8_Rb_treeIiSt4pairIKiSt3mapIlSt6vectorIaSaIaEESt4lessIlESaIS0_IKlS5_EEEESt10_Select1stISC_ES6_IiESaISC_EE6_M_endEv
FNDA:0,_ZNSt8_Rb_treeIiSt4pairIKiSt3mapIlSt6vectorIaSaIaEESt4lessIlESaIS0_IKlS5_EEEESt10_Select1stISC_ES6_IiESaISC_EE6_M_endEv
FN:767,_ZNSt8_Rb_treeIiSt4pairIKiSt3mapIlSt6vectorIaSaIaEESt4lessIlESaIS0_IKlS5_EEEESt10_Select1stISC_ES6_IiESaISC_EE6_S_keyEPKSt13_Rb_tree_nodeISC_E
FNDA:0,_ZNSt8_Rb_treeIiSt4pairIKiSt3mapIlSt6vectorIaSaIaEESt4lessIlESaIS0_IKlS5_EEEESt10_Select1stISC_ES6_IiESaISC_EE6_S_keyEPKSt13_Rb_tree_nodeISC_E
FN:789,_ZNSt8_Rb_treeIlSt4pairIKlSt6vectorIaSaIaEEESt10_Select1stIS5_ESt4lessIlESaIS5_EE7_S_leftEPSt18_Rb_tree_node_base
FNDA:0,_ZNSt8_Rb_treeIlSt4pairIKlSt6vectorIaSaIaEEESt10_Select1stIS5_ESt4lessIlESaIS5_EE7_S_leftEPSt18_Rb_tree_node_base
FN:789,_ZNSt8_Rb_treeIiSt4pairIKiSt3mapIlSt6vectorIaSaIaEESt4lessIlESaIS0_IKlS5_EEEESt10_Select1stISC_ES6_IiESaISC_EE7_S_leftEPSt18_Rb_tree_node_base
FNDA:0,_ZNSt8_Rb_treeIiSt4pairIKiSt3mapIlSt6vectorIaSaIaEESt4lessIlESaIS0_IKlS5_EEEESt10_Select1stISC_ES6_IiESaISC_EE7_S_leftEPSt18_Rb_tree_node_base
FN:793,_ZNSt8_Rb_treeIlSt4pairIKlSt6vectorIaSaIaEEESt10_Select1stIS5_ESt4lessIlESaIS5_EE7_S_leftEPKSt18_Rb_tree_node_base
FNDA:0,_ZNSt8_Rb_treeIlSt4pairIKlSt6vectorIaSaIaEEESt10_Select1stIS5_ESt4lessIlESaIS5_EE7_S_leftEPKSt18_Rb_tree_node_base
FN:797,_ZNSt8_Rb_treeIiSt4pairIKiSt3mapIlSt6vectorIaSaIaEESt4lessIlESaIS0_IKlS5_EEEESt10_Select1stISC_ES6_IiESaISC_EE8_S_rightEPSt18_Rb_tree_node_base
FNDA:0,_ZNSt8_Rb_treeIiSt4pairIKiSt3mapIlSt6vectorIaSaIaEESt4lessIlESaIS0_IKlS5_EEEESt10_Select1stISC_ES6_IiESaISC_EE8_S_rightEPSt18_Rb_tree_node_base
FN:797,_ZNSt8_Rb_treeIlSt4pairIKlSt6vectorIaSaIaEEESt10_Select1stIS5_ESt4lessIlESaIS5_EE8_S_rightEPSt18_Rb_tree_node_base
FNDA:0,_ZNSt8_Rb_treeIlSt4pairIKlSt6vectorIaSaIaEEESt10_Select1stIS5_ESt4lessIlESaIS5_EE8_S_rightEPSt18_Rb_tree_node_base
FN:801,_ZNSt8_Rb_treeIlSt4pairIKlSt6vectorIaSaIaEEESt10_Select1stIS5_ESt4lessIlESaIS5_EE8_S_rightEPKSt18_Rb_tree_node_base
FNDA:0,_ZNSt8_Rb_treeIlSt4pairIKlSt6vectorIaSaIaEEESt10_Select1stIS5_ESt4lessIlESaIS5_EE8_S_rightEPKSt18_Rb_tree_node_base
FN:809,_ZNSt8_Rb_treeIiSt4pairIKiSt3mapIlSt6vectorIaSaIaEESt4lessIlESaIS0_IKlS5_EEEESt10_Select1stISC_ES6_IiESaISC_EE6_S_keyEPKSt18_Rb_tree_node_base
FNDA:0,_ZNSt8_Rb_treeIiSt4pairIKiSt3mapIlSt6vectorIaSaIaEESt4lessIlESaIS0_IKlS5_EEEESt10_Select1stISC_ES6_IiESaISC_EE6_S_keyEPKSt18_Rb_tree_node_base
FN:813,_ZNSt8_Rb_treeIlSt4pairIKlSt6vectorIaSaIaEEESt10_Select1stIS5_ESt4lessIlESaIS5_EE10_S_minimumEPSt18_Rb_tree_node_base
FNDA:0,_ZNSt8_Rb_treeIlSt4pairIKlSt6vectorIaSaIaEEESt10_Select1stIS5_ESt4lessIlESaIS5_EE10_S_minimumEPSt18_Rb_tree_node_base
FN:821,_ZNSt8_Rb_treeIlSt4pairIKlSt6vectorIaSaIaEEESt10_Select1stIS5_ESt4lessIlESaIS5_EE10_S_maximumEPSt18_Rb_tree_node_base
FNDA:0,_ZNSt8_Rb_treeIlSt4pairIKlSt6vectorIaSaIaEEESt10_Select1stIS5_ESt4lessIlESaIS5_EE10_S_maximumEPSt18_Rb_tree_node_base
FN:899,_ZNSt8_Rb_treeIlSt4pairIKlSt6vectorIaSaIaEEESt10_Select1stIS5_ESt4lessIlESaIS5_EE7_M_copyINSB_11_Alloc_nodeEEEPSt13_Rb_tree_nodeIS5_ERKSB_RT_
FNDA:0,_ZNSt8_Rb_treeIlSt4pairIKlSt6vectorIaSaIaEEESt10_Select1stIS5_ESt4lessIlESaIS5_EE7_M_copyINSB_11_Alloc_nodeEEEPSt13_Rb_tree_nodeIS5_ERKSB_RT_
FN:909,_ZNSt8_Rb_treeIlSt4pairIKlSt6vectorIaSaIaEEESt10_Select1stIS5_ESt4lessIlESaIS5_EE7_M_copyERKSB_
FNDA:0,_ZNSt8_Rb_treeIlSt4pairIKlSt6vectorIaSaIaEEESt10_Select1stIS5_ESt4lessIlESaIS5_EE7_M_copyERKSB_
FN:946,_ZNSt8_Rb_treeIlSt4pairIKlSt6vectorIaSaIaEEESt10_Select1stIS5_ESt4lessIlESaIS5_EEC2ERKSB_
FNDA:0,_ZNSt8_Rb_treeIlSt4pairIKlSt6vectorIaSaIaEEESt10_Select1stIS5_ESt4lessIlESaIS5_EEC2ERKSB_
FN:994,_ZNSt8_Rb_treeIlSt4pairIKlSt6vectorIaSaIaEEESt10_Select1stIS5_ESt4lessIlESaIS5_EED2Ev
FNDA:0,_ZNSt8_Rb_treeIlSt4pairIKlSt6vectorIaSaIaEEESt10_Select1stIS5_ESt4lessIlESaIS5_EED2Ev
FN:1006,_ZNSt8_Rb_treeIiSt4pairIKiSt3mapIlSt6vectorIaSaIaEESt4lessIlESaIS0_IKlS5_EEEESt10_Select1stISC_ES6_IiESaISC_EE5beginEv
FNDA:0,_ZNSt8_Rb_treeIiSt4pairIKiSt3mapIlSt6vectorIaSaIaEESt4lessIlESaIS0_IKlS5_EEEESt10_Select1stISC_ES6_IiESaISC_EE5beginEv
FN:1014,_ZNSt8_Rb_treeIiSt4pairIKiSt3mapIlSt6vectorIaSaIaEESt4lessIlESaIS0_IKlS5_EEEESt10_Select1stISC_ES6_IiESaISC_EE3endEv
FNDA:0,_ZNSt8_Rb_treeIiSt4pairIKiSt3mapIlSt6vectorIaSaIaEESt4lessIlESaIS0_IKlS5_EEEESt10_Select1stISC_ES6_IiESaISC_EE3endEv
FN:1042,_ZNKSt8_Rb_treeIiSt4pairIKiSt3mapIlSt6vectorIaSaIaEESt4lessIlESaIS0_IKlS5_EEEESt10_Select1stISC_ES6_IiESaISC_EE4sizeEv
FNDA:0,_ZNKSt8_Rb_treeIiSt4pairIKiSt3mapIlSt6vectorIaSaIaEESt4lessIlESaIS0_IKlS5_EEEESt10_Select1stISC_ES6_IiESaISC_EE4sizeEv
FN:1731,_ZNSt8_Rb_treeIiSt4pairIKiSt3mapIlSt6vectorIaSaIaEESt4lessIlESaIS0_IKlS5_EEEESt10_Select1stISC_ES6_IiESaISC_EE16_M_assign_uniqueIPKSC_EEvT_SL_
FNDA:0,_ZNSt8_Rb_treeIiSt4pairIKiSt3mapIlSt6vectorIaSaIaEESt4lessIlESaIS0_IKlS5_EEEESt10_Select1stISC_ES6_IiESaISC_EE16_M_assign_uniqueIPKSC_EEvT_SL_
FN:1797,_ZNSt8_Rb_treeIiSt4pairIKiSt3mapIlSt6vectorIaSaIaEESt4lessIlESaIS0_IKlS5_EEEESt10_Select1stISC_ES6_IiESaISC_EE10_M_insert_IRKSC_NSH_20_Reuse_or_alloc_nodeEEESt17_Rb_tree_iteratorISC_EPSt18_Rb_tree_node_baseSP_OT_RT0_
FNDA:0,_ZNSt8_Rb_treeIiSt4pairIKiSt3mapIlSt6vectorIaSaIaEESt4lessIlESaIS0_IKlS5_EEEESt10_Select1stISC_ES6_IiESaISC_EE10_M_insert_IRKSC_NSH_20_Reuse_or_alloc_nodeEEESt17_Rb_tree_iteratorISC_EPSt18_Rb_tree_node_baseSP_OT_RT0_
FN:1871,_ZNSt8_Rb_treeIlSt4pairIKlSt6vectorIaSaIaEEESt10_Select1stIS5_ESt4lessIlESaIS5_EE7_M_copyINSB_11_Alloc_nodeEEEPSt13_Rb_tree_nodeIS5_EPKSF_PSt18_Rb_tree_node_baseRT_
FNDA:0,_ZNSt8_Rb_treeIlSt4pairIKlSt6vectorIaSaIaEEESt10_Select1stIS5_ESt4lessIlESaIS5_EE7_M_copyINSB_11_Alloc_nodeEEEPSt13_Rb_tree_nodeIS5_EPKSF_PSt18_Rb_tree_node_baseRT_
FN:1907,_ZNSt8_Rb_treeIiSt4pairIKiSt3mapIlSt6vectorIaSaIaEESt4lessIlESaIS0_IKlS5_EEEESt10_Select1stISC_ES6_IiESaISC_EE8_M_eraseEPSt13_Rb_tree_nodeISC_E
FNDA:0,_ZNSt8_Rb_treeIiSt4pairIKiSt3mapIlSt6vectorIaSaIaEESt4lessIlESaIS0_IKlS5_EEEESt10_Select1stISC_ES6_IiESaISC_EE8_M_eraseEPSt13_Rb_tree_nodeISC_E
FN:1907,_ZNSt8_Rb_treeIlSt4pairIKlSt6vectorIaSaIaEEESt10_Select1stIS5_ESt4lessIlESaIS5_EE8_M_eraseEPSt13_Rb_tree_nodeIS5_E
FNDA:0,_ZNSt8_Rb_treeIlSt4pairIKlSt6vectorIaSaIaEEESt10_Select1stIS5_ESt4lessIlESaIS5_EE8_M_eraseEPSt13_Rb_tree_nodeIS5_E
FN:2085,_ZNSt8_Rb_treeIiSt4pairIKiSt3mapIlSt6vectorIaSaIaEESt4lessIlESaIS0_IKlS5_EEEESt10_Select1stISC_ES6_IiESaISC_EE24_M_get_insert_unique_posERS1_
FNDA:0,_ZNSt8_Rb_treeIiSt4pairIKiSt3mapIlSt6vectorIaSaIaEESt4lessIlESaIS0_IKlS5_EEEESt10_Select1stISC_ES6_IiESaISC_EE24_M_get_insert_unique_posERS1_
FN:2187,_ZNSt8_Rb_treeIiSt4pairIKiSt3mapIlSt6vectorIaSaIaEESt4lessIlESaIS0_IKlS5_EEEESt10_Select1stISC_ES6_IiESaISC_EE29_M_get_insert_hint_unique_posESt23_Rb_tree_const_iteratorISC_ERS1_
FNDA:0,_ZNSt8_Rb_treeIiSt4pairIKiSt3mapIlSt6vectorIaSaIaEESt4lessIlESaIS0_IKlS5_EEEESt10_Select1stISC_ES6_IiESaISC_EE29_M_get_insert_hint_unique_posESt23_Rb_tree_const_iteratorISC_ERS1_
FN:2248,_ZNSt8_Rb_treeIiSt4pairIKiSt3mapIlSt6vectorIaSaIaEESt4lessIlESaIS0_IKlS5_EEEESt10_Select1stISC_ES6_IiESaISC_EE17_M_insert_unique_IRKSC_NSH_20_Reuse_or_alloc_nodeEEESt17_Rb_tree_iteratorISC_ESt23_Rb_tree_const_iteratorISC_EOT_RT0_
FNDA:0,_ZNSt8_Rb_treeIiSt4pairIKiSt3mapIlSt6vectorIaSaIaEESt4lessIlESaIS0_IKlS5_EEEESt10_Select1stISC_ES6_IiESaISC_EE17_M_insert_unique_IRKSC_NSH_20_Reuse_or_alloc_nodeEEESt17_Rb_tree_iteratorISC_ESt23_Rb_tree_const_iteratorISC_EOT_RT0_
DA:112,0
DA:114,0
DA:115,0
DA:126,0
DA:128,0
DA:129,0
DA:152,0
DA:154,0
DA:173,0
DA:174,0
DA:175,0
DA:176,0
DA:177,0
DA:206,0
DA:208,0
DA:209,0
DA:210,0
DA:211,0
DA:212,0
DA:234,0
DA:235,0
DA:234,0
DA:235,0
DA:238,0
DA:239,0
DA:238,0
DA:239,0
DA:273,0
DA:274,0
DA:285,0
DA:287,0
DA:288,0
DA:300,0
DA:302,0
DA:303,0
DA:315,0
DA:316,0
DA:348,0
DA:349,0
DA:352,0
DA:353,0
DA:454,0
DA:455,0
DA:457,0
DA:459,0
DA:461,0
DA:462,0
DA:465,0
DA:466,0
DA:472,0
DA:473,0
DA:480,0
DA:483,0
DA:484,0
DA:486,0
DA:487,0
DA:488,0
DA:491,0
DA:496,0
DA:498,0
DA:499,0
DA:501,0
DA:502,0
DA:503,0
DA:505,0
DA:507,0
DA:509,0
DA:511,0
DA:513,0
DA:514,0
DA:516,0
DA:517,0
DA:521,0
DA:524,0
DA:526,0
DA:538,0
DA:539,0
DA:546,0
DA:548,0
DA:566,0
DA:567,0
DA:566,0
DA:567,0
DA:579,0
DA:580,0
DA:579,0
DA:580,0
DA:583,0
DA:584,0
DA:583,0
DA:584,0
DA:609,0
DA:613,0
DA:614,0
DA:618,0
DA:620,0
DA:621,0
DA:622,0
DA:624,0
DA:609,0
DA:613,0
DA:614,0
DA:618,0
DA:620,0
DA:621,0
DA:622,0
DA:624,0
DA:628,0
DA:630,0
DA:631,0
DA:632,0
DA:628,0
DA:630,0
DA:631,0
DA:632,0
DA:637,0
DA:642,0
DA:643,0
DA:645,0
DA:637,0
DA:642,0
DA:643,0
DA:645,0
DA:648,0
DA:650,0
DA:651,0
DA:652,0
DA:648,0
DA:650,0
DA:651,0
DA:652,0
DA:656,0
DA:658,0
DA:659,0
DA:660,0
DA:661,0
DA:662,0
DA:687,0
DA:689,0
DA:690,0
DA:720,0
DA:721,0
DA:720,0
DA:721,0
DA:724,0
DA:725,0
DA:728,0
DA:729,0
DA:728,0
DA:729,0
DA:736,0
DA:737,0
DA:736,0
DA:737,0
DA:744,0
DA:745,0
DA:744,0
DA:745,0
DA:748,0
DA:751,0
DA:755,0
DA:756,0
DA:755,0
DA:756,0
DA:767,0
DA:785,0
DA:789,0
DA:790,0
DA:789,0
DA:790,0
DA:793,0
DA:794,0
DA:797,0
DA:798,0
DA:797,0
DA:798,0
DA:801,0
DA:802,0
DA:809,0
DA:810,0
DA:813,0
DA:814,0
DA:821,0
DA:822,0
DA:899,0
DA:901,0
DA:902,0
DA:903,0
DA:904,0
DA:905,0
DA:909,0
DA:911,0
DA:912,0
DA:946,0
DA:947,0
DA:949,0
DA:950,0
DA:951,0
DA:994,0
DA:995,0
DA:1006,0
DA:1007,0
DA:1014,0
DA:1015,0
DA:1042,0
DA:1043,0
DA:1731,0
DA:1734,0
DA:1735,0
DA:1736,0
DA:1737,0
DA:1738,0
DA:1797,0
DA:1806,0
DA:1807,0
DA:1810,0
DA:1812,0
DA:1813,0
DA:1814,0
DA:1815,0
DA:1871,0
DA:1875,0
DA:1876,0
DA:1880,0
DA:1881,0
DA:1882,0
DA:1883,0
DA:1885,0
DA:1887,0
DA:1888,0
DA:1889,0
DA:1890,0
DA:1891,0
DA:1892,0
DA:1893,0
DA:1896,0
DA:1898,0
DA:1899,0
DA:1901,0
DA:1907,0
DA:1911,0
DA:1913,0
DA:1914,0
DA:1915,0
DA:1916,0
DA:1918,0
DA:1907,0
DA:1911,0
DA:1913,0
DA:1914,0
DA:1915,0
DA:1916,0
DA:1918,0
DA:2085,0
DA:2089,0
DA:2090,0
DA:2091,0
DA:2092,0
DA:2094,0
DA:2095,0
DA:2096,0
DA:2098,0
DA:2099,0
DA:2101,0
DA:2102,0
DA:2104,0
DA:2106,0
DA:2107,0
DA:2108,0
DA:2187,0
DA:2191,0
DA:2195,0
DA:2197,0
DA:2198,0
DA:2199,0
DA:2201,0
DA:2203,0
DA:2206,0
DA:2207,0
DA:2208,0
DA:2209,0
DA:2211,0
DA:2212,0
DA:2214,0
DA:2217,0
DA:2219,0
DA:2222,0
DA:2223,0
DA:2224,0
DA:2225,0
DA:2227,0
DA:2228,0
DA:2230,0
DA:2233,0
DA:2237,0
DA:2248,0
DA:2257,0
DA:2258,0
DA:2260,0
DA:2263,0
DA:2264,0
end_of_record
SF:/usr/include/c++/9/iostream
end_of_record
SF:/usr/include/c++/9/bits/stl_iterator_base_funcs.h
FN:98,_ZSt10__distanceIPKcENSt15iterator_traitsIT_E15difference_typeES3_S3_St26random_access_iterator_tag
FNDA:0,_ZSt10__distanceIPKcENSt15iterator_traitsIT_E15difference_typeES3_S3_St26random_access_iterator_tag
FN:138,_ZSt8distanceIPKcENSt15iterator_traitsIT_E15difference_typeES3_S3_
FNDA:0,_ZSt8distanceIPKcENSt15iterator_traitsIT_E15difference_typeES3_S3_
DA:98,0
DA:104,0
DA:138,0
DA:141,0
DA:142,0
end_of_record
SF:/workspace/vtr-verilog-to-routing/ODIN_II/SRC/read_blif.cpp
FN:137,_Z9read_blifv
FNDA:0,_Z9read_blifv
FN:193,_Z11read_tokensPcP17hard_block_modelsP8_IO_FILEP9Hashtable
FNDA:0,_Z11read_tokensPcP17hard_block_modelsP8_IO_FILEP9Hashtable
FN:251,_Z31assign_node_type_from_node_namePc
FNDA:0,_Z31assign_node_type_from_node_namePc
FN:292,_Z28create_latch_node_and_driverP8_IO_FILEP9Hashtable
FNDA:0,_Z28create_latch_node_and_driverP8_IO_FILEP9Hashtable
FN:414,_Z17search_clock_nameP8_IO_FILE
FNDA:0,_Z17search_clock_nameP8_IO_FILE
FN:482,_Z23create_hard_block_nodesP17hard_block_modelsP8_IO_FILEP9Hashtable
FNDA:0,_Z23create_hard_block_nodesP17hard_block_modelsP8_IO_FILEP9Hashtable
FN:640,_Z31create_internal_node_and_driverP8_IO_FILEP9Hashtable
FNDA:0,_Z31create_internal_node_and_driverP8_IO_FILEP9Hashtable
FN:773,_Z30read_bit_map_find_unknown_gateiP9nnode_t_tP8_IO_FILE
FNDA:0,_Z30read_bit_map_find_unknown_gateiP9nnode_t_tP8_IO_FILE
FN:1013,_ZL20build_top_input_nodePKcP9Hashtable
FNDA:0,_ZL20build_top_input_nodePKcP9Hashtable
FN:1059,_Z19add_top_input_nodesP8_IO_FILEP9Hashtable
FNDA:0,_Z19add_top_input_nodesP8_IO_FILEP9Hashtable
FN:1085,_Z26rb_create_top_output_nodesP8_IO_FILE
FNDA:0,_Z26rb_create_top_output_nodesP8_IO_FILE
FN:1128,_Z18rb_look_for_clocksv
FNDA:0,_Z18rb_look_for_clocksv
FN:1150,_Z25rb_create_top_driver_netsPKcP9Hashtable
FNDA:0,_Z25rb_create_top_driver_netsPKcP9Hashtable
FN:1207,_ZL9dum_parsePcP8_IO_FILE
FNDA:0,_ZL9dum_parsePcP8_IO_FILE
FN:1219,_Z12hook_up_netsP9Hashtable
FNDA:0,_Z12hook_up_netsP9Hashtable
FN:1242,_Z12hook_up_nodeP9nnode_t_tP9Hashtable
FNDA:0,_Z12hook_up_nodeP9nnode_t_tP9Hashtable
FN:1263,_Z21read_hard_block_modelPcP16hard_block_portsP8_IO_FILE
FNDA:0,_Z21read_hard_block_modelPcP16hard_block_portsP8_IO_FILE
FN:1363,_ZL28compare_hard_block_pin_namesPKvS0_
FNDA:0,_ZL28compare_hard_block_pin_namesPKvS0_
FN:1391,_Z11index_namesPPci
FNDA:0,_Z11index_namesPPci
FN:1406,_Z15associate_namesPPcS0_i
FNDA:0,_Z15associate_namesPPcS0_i
FN:1421,_Z20get_hard_block_portsPPci
FNDA:0,_Z20get_hard_block_portsPPci
FN:1458,_Z37verify_hard_block_ports_against_modelP16hard_block_portsP16hard_block_model
FNDA:0,_Z37verify_hard_block_ports_against_modelP16hard_block_portsP16hard_block_model
FN:1513,_Z35generate_hard_block_ports_signatureP16hard_block_ports
FNDA:0,_Z35generate_hard_block_ports_signatureP16hard_block_ports
FN:1538,_Z24get_hard_block_port_namePc
FNDA:0,_Z24get_hard_block_port_namePc
FN:1555,_Z25get_hard_block_pin_numberPc
FNDA:0,_Z25get_hard_block_pin_numberPc
FN:1577,_Z20add_hard_block_modelP16hard_block_modelP16hard_block_portsP17hard_block_models
FNDA:0,_Z20add_hard_block_modelP16hard_block_modelP16hard_block_portsP17hard_block_models
FN:1592,_Z20get_hard_block_modelPcP16hard_block_portsP17hard_block_models
FNDA:0,_Z20get_hard_block_modelPcP16hard_block_portsP17hard_block_models
FN:1604,_Z24create_hard_block_modelsv
FNDA:0,_Z24create_hard_block_modelsv
FN:1618,_Z16count_blif_linesP8_IO_FILE
FNDA:0,_Z16count_blif_linesP8_IO_FILE
FN:1636,_Z22free_hard_block_modelsP17hard_block_models
FNDA:0,_Z22free_hard_block_modelsP17hard_block_models
FN:1652,_Z21free_hard_block_modelP16hard_block_model
FNDA:0,_Z21free_hard_block_modelP16hard_block_model
FN:1666,_Z20free_hard_block_pinsP15hard_block_pins
FNDA:0,_Z20free_hard_block_pinsP15hard_block_pins
FN:1681,_Z21free_hard_block_portsP16hard_block_ports
FNDA:0,_Z21free_hard_block_portsP16hard_block_ports
DA:137,0
DA:139,0
DA:140,0
DA:141,0
DA:143,0
DA:144,0
DA:146,0
DA:148,0
DA:150,0
DA:152,0
DA:154,0
DA:157,0
DA:159,0
DA:160,0
DA:161,0
DA:162,0
DA:164,0
DA:165,0
DA:167,0
DA:169,0
DA:171,0
DA:173,0
DA:175,0
DA:176,0
DA:179,0
DA:180,0
DA:181,0
DA:182,0
DA:193,0
DA:197,0
DA:199,0
DA:201,0
DA:203,0
DA:207,0
DA:208,0
DA:210,0
DA:212,0
DA:214,0
DA:216,0
DA:218,0
DA:220,0
DA:222,0
DA:224,0
DA:226,0
DA:228,0
DA:232,0
DA:233,0
DA:235,0
DA:238,0
DA:242,0
DA:251,0
DA:254,0
DA:257,0
DA:258,0
DA:259,0
DA:261,0
DA:264,0
DA:266,0
DA:268,0
DA:271,0
DA:272,0
DA:274,0
DA:275,0
DA:277,0
DA:278,0
DA:282,0
DA:284,0
DA:292,0
DA:295,0
DA:296,0
DA:300,0
DA:302,0
DA:303,0
DA:305,0
DA:306,0
DA:310,0
DA:313,0
DA:315,0
DA:316,0
DA:317,0
DA:319,0
DA:320,0
DA:322,0
DA:323,0
DA:327,0
DA:328,0
DA:330,0
DA:331,0
DA:334,0
DA:339,0
DA:340,0
DA:341,0
DA:342,0
DA:352,0
DA:353,0
DA:354,0
DA:355,0
DA:359,0
DA:360,0
DA:363,0
DA:367,0
DA:369,0
DA:373,0
DA:374,0
DA:375,0
DA:376,0
DA:378,0
DA:379,0
DA:380,0
DA:381,0
DA:384,0
DA:387,0
DA:388,0
DA:389,0
DA:390,0
DA:393,0
DA:394,0
DA:396,0
DA:397,0
DA:398,0
DA:399,0
DA:400,0
DA:402,0
DA:405,0
DA:406,0
DA:407,0
DA:414,0
DA:417,0
DA:418,0
DA:419,0
DA:421,0
DA:422,0
DA:423,0
DA:424,0
DA:427,0
DA:430,0
DA:431,0
DA:434,0
DA:436,0
DA:437,0
DA:439,0
DA:442,0
DA:444,0
DA:445,0
DA:448,0
DA:450,0
DA:453,0
DA:455,0
DA:457,0
DA:458,0
DA:461,0
DA:463,0
DA:465,0
DA:469,0
DA:470,0
DA:472,0
DA:473,0
DA:482,0
DA:485,0
DA:489,0
DA:491,0
DA:492,0
DA:494,0
DA:495,0
DA:499,0
DA:500,0
DA:501,0
DA:502,0
DA:504,0
DA:505,0
DA:509,0
DA:512,0
DA:514,0
DA:515,0
DA:517,0
DA:520,0
DA:524,0
DA:527,0
DA:529,0
DA:532,0
DA:536,0
DA:537,0
DA:540,0
DA:541,0
DA:542,0
DA:543,0
DA:544,0
DA:545,0
DA:546,0
DA:547,0
DA:550,0
DA:551,0
DA:553,0
DA:558,0
DA:559,0
DA:560,0
DA:562,0
DA:563,0
DA:564,0
DA:568,0
DA:569,0
DA:570,0
DA:571,0
DA:574,0
DA:576,0
DA:577,0
DA:579,0
DA:580,0
DA:582,0
DA:583,0
DA:584,0
DA:585,0
DA:587,0
DA:591,0
DA:593,0
DA:594,0
DA:596,0
DA:598,0
DA:599,0
DA:600,0
DA:601,0
DA:603,0
DA:605,0
DA:606,0
DA:608,0
DA:611,0
DA:615,0
DA:616,0
DA:617,0
DA:618,0
DA:621,0
DA:622,0
DA:623,0
DA:624,0
DA:626,0
DA:627,0
DA:628,0
DA:629,0
DA:630,0
DA:633,0
DA:640,0
DA:644,0
DA:645,0
DA:647,0
DA:649,0
DA:650,0
DA:654,0
DA:655,0
DA:658,0
DA:659,0
DA:660,0
DA:661,0
DA:664,0
DA:669,0
DA:671,0
DA:673,0
DA:674,0
DA:677,0
DA:679,0
DA:680,0
DA:684,0
DA:686,0
DA:689,0
DA:691,0
DA:692,0
DA:697,0
DA:698,0
DA:704,0
DA:706,0
DA:707,0
DA:708,0
DA:709,0
DA:713,0
DA:715,0
DA:716,0
DA:718,0
DA:719,0
DA:720,0
DA:721,0
DA:724,0
DA:726,0
DA:727,0
DA:729,0
DA:730,0
DA:731,0
DA:732,0
DA:736,0
DA:737,0
DA:740,0
DA:743,0
DA:744,0
DA:745,0
DA:746,0
DA:750,0
DA:751,0
DA:752,0
DA:754,0
DA:756,0
DA:757,0
DA:759,0
DA:761,0
DA:764,0
DA:766,0
DA:773,0
DA:776,0
DA:777,0
DA:778,0
DA:779,0
DA:781,0
DA:784,0
DA:786,0
DA:787,0
DA:789,0
DA:790,0
DA:791,0
DA:792,0
DA:793,0
DA:796,0
DA:797,0
DA:798,0
DA:802,0
DA:803,0
DA:804,0
DA:806,0
DA:807,0
DA:808,0
DA:809,0
DA:812,0
DA:814,0
DA:815,0
DA:816,0
DA:820,0
DA:821,0
DA:822,0
DA:825,0
DA:826,0
DA:829,0
DA:833,0
DA:836,0
DA:837,0
DA:840,0
DA:841,0
DA:845,0
DA:847,0
DA:849,0
DA:850,0
DA:851,0
DA:852,0
DA:856,0
DA:857,0
DA:860,0
DA:861,0
DA:863,0
DA:864,0
DA:865,0
DA:866,0
DA:870,0
DA:873,0
DA:875,0
DA:877,0
DA:880,0
DA:881,0
DA:882,0
DA:883,0
DA:884,0
DA:886,0
DA:888,0
DA:889,0
DA:890,0
DA:891,0
DA:892,0
DA:894,0
DA:896,0
DA:897,0
DA:898,0
DA:899,0
DA:900,0
DA:902,0
DA:904,0
DA:905,0
DA:906,0
DA:907,0
DA:908,0
DA:910,0
DA:914,0
DA:918,0
DA:920,0
DA:923,0
DA:924,0
DA:925,0
DA:927,0
DA:928,0
DA:932,0
DA:936,0
DA:937,0
DA:940,0
DA:942,0
DA:945,0
DA:946,0
DA:947,0
DA:949,0
DA:953,0
DA:957,0
DA:958,0
DA:962,0
DA:965,0
DA:967,0
DA:968,0
DA:969,0
DA:973,0
DA:975,0
DA:976,0
DA:977,0
DA:984,0
DA:985,0
DA:993,0
DA:994,0
DA:996,0
DA:1003,0
DA:1004,0
DA:1005,0
DA:1013,0
DA:1015,0
DA:1019,0
DA:1021,0
DA:1022,0
DA:1025,0
DA:1027,0
DA:1028,0
DA:1031,0
DA:1032,0
DA:1035,0
DA:1036,0
DA:1037,0
DA:1040,0
DA:1042,0
DA:1043,0
DA:1045,0
DA:1047,0
DA:1048,0
DA:1056,0
DA:1057,0
DA:1059,0
DA:1067,0
DA:1069,0
DA:1070,0
DA:1075,0
DA:1077,0
DA:1079,0
DA:1085,0
DA:1090,0
DA:1092,0
DA:1097,0
DA:1098,0
DA:1099,0
DA:1102,0
DA:1105,0
DA:1106,0
DA:1109,0
DA:1110,0
DA:1112,0
DA:1116,0
DA:1117,0
DA:1118,0
DA:1119,0
DA:1121,0
DA:1128,0
DA:1131,0
DA:1133,0
DA:1135,0
DA:1139,0
DA:1150,0
DA:1157,0
DA:1158,0
DA:1159,0
DA:1160,0
DA:1161,0
DA:1162,0
DA:1163,0
DA:1164,0
DA:1167,0
DA:1168,0
DA:1169,0
DA:1170,0
DA:1171,0
DA:1172,0
DA:1173,0
DA:1174,0
DA:1177,0
DA:1178,0
DA:1179,0
DA:1180,0
DA:1181,0
DA:1182,0
DA:1183,0
DA:1184,0
DA:1187,0
DA:1188,0
DA:1191,0
DA:1192,0
DA:1195,0
DA:1196,0
DA:1198,0
DA:1199,0
DA:1200,0
DA:1202,0
DA:1207,0
DA:1210,0
DA:1211,0
DA:1219,0
DA:1221,0
DA:1222,0
DA:1223,0
DA:1227,0
DA:1230,0
DA:1232,0
DA:1233,0
DA:1236,0
DA:1242,0
DA:1245,0
DA:1247,0
DA:1249,0
DA:1251,0
DA:1252,0
DA:1254,0
DA:1256,0
DA:1263,0
DA:1267,0
DA:1268,0
DA:1273,0
DA:1277,0
DA:1279,0
DA:1281,0
DA:1283,0
DA:1284,0
DA:1285,0
DA:1286,0
DA:1287,0
DA:1289,0
DA:1290,0
DA:1291,0
DA:1294,0
DA:1296,0
DA:1297,0
DA:1300,0
DA:1302,0
DA:1303,0
DA:1306,0
DA:1309,0
DA:1311,0
DA:1312,0
DA:1315,0
DA:1317,0
DA:1320,0
DA:1324,0
DA:1325,0
DA:1328,0
DA:1329,0
DA:1332,0
DA:1333,0
DA:1336,0
DA:1337,0
DA:1340,0
DA:1342,0
DA:1346,0
DA:1348,0
DA:1351,0
DA:1352,0
DA:1354,0
DA:1363,0
DA:1365,0
DA:1366,0
DA:1368,0
DA:1369,0
DA:1370,0
DA:1371,0
DA:1372,0
DA:1375,0
DA:1377,0
DA:1378,0
DA:1379,0
DA:1383,0
DA:1391,0
DA:1393,0
DA:1394,0
DA:1396,0
DA:1397,0
DA:1398,0
DA:1400,0
DA:1406,0
DA:1408,0
DA:1409,0
DA:1410,0
DA:1412,0
DA:1421,0
DA:1424,0
DA:1425,0
DA:1426,0
DA:1427,0
DA:1428,0
DA:1430,0
DA:1432,0
DA:1434,0
DA:1436,0
DA:1437,0
DA:1439,0
DA:1440,0
DA:1441,0
DA:1444,0
DA:1445,0
DA:1448,0
DA:1449,0
DA:1451,0
DA:1458,0
DA:1460,0
DA:1462,0
DA:1464,0
DA:1466,0
DA:1469,0
DA:1470,0
DA:1471,0
DA:1473,0
DA:1476,0
DA:1480,0
DA:1482,0
DA:1485,0
DA:1490,0
DA:1491,0
DA:1493,0
DA:1496,0
DA:1497,0
DA:1498,0
DA:1500,0
DA:1503,0
DA:1507,0
DA:1513,0
DA:1516,0
DA:1518,0
DA:1521,0
DA:1524,0
DA:1525,0
DA:1527,0
DA:1538,0
DA:1540,0
DA:1541,0
DA:1542,0
DA:1544,0
DA:1555,0
DA:1557,0
DA:1558,0
DA:1560,0
DA:1561,0
DA:1563,0
DA:1564,0
DA:1566,0
DA:1567,0
DA:1569,0
DA:1571,0
DA:1577,0
DA:1580,0
DA:1581,0
DA:1582,0
DA:1583,0
DA:1584,0
DA:1585,0
DA:1586,0
DA:1592,0
DA:1595,0
DA:1596,0
DA:1597,0
DA:1598,0
DA:1604,0
DA:1606,0
DA:1607,0
DA:1608,0
DA:1609,0
DA:1611,0
DA:1618,0
DA:1620,0
DA:1622,0
DA:1624,0
DA:1625,0
DA:1626,0
DA:1628,0
DA:1629,0
DA:1636,0
DA:1639,0
DA:1641,0
DA:1642,0
DA:1644,0
DA:1645,0
DA:1646,0
DA:1652,0
DA:1654,0
DA:1655,0
DA:1657,0
DA:1658,0
DA:1660,0
DA:1661,0
DA:1666,0
DA:1668,0
DA:1669,0
DA:1671,0
DA:1673,0
DA:1674,0
DA:1675,0
DA:1676,0
DA:1681,0
DA:1683,0
DA:1684,0
DA:1686,0
DA:1687,0
DA:1688,0
DA:1690,0
DA:1691,0
DA:1692,0
DA:1693,0
end_of_record
SF:/usr/include/c++/9/bits/hashtable.h
FN:342,_ZNKSt10_HashtableINSt7__cxx1112basic_stringIcSt11char_traitsIcESaIcEEESt4pairIKS5_PvESaIS9_ENSt8__detail10_Select1stESt8equal_toIS5_ESt4hashIS5_ENSB_18_Mod_range_hashingENSB_20_Default_ranged_hashENSB_20_Prime_rehash_policyENSB_17_Hashtable_traitsILb1ELb0ELb1EEEE21_M_uses_single_bucketEPPNSB_15_Hash_node_baseE
FNDA:0,_ZNKSt10_HashtableINSt7__cxx1112basic_stringIcSt11char_traitsIcESaIcEEESt4pairIKS5_PvESaIS9_ENSt8__detail10_Select1stESt8equal_toIS5_ESt4hashIS5_ENSB_18_Mod_range_hashingENSB_20_Default_ranged_hashENSB_20_Prime_rehash_policyENSB_17_Hashtable_traitsILb1ELb0ELb1EEEE21_M_uses_single_bucketEPPNSB_15_Hash_node_baseE
FN:365,_ZNSt10_HashtableINSt7__cxx1112basic_stringIcSt11char_traitsIcESaIcEEESt4pairIKS5_PvESaIS9_ENSt8__detail10_Select1stESt8equal_toIS5_ESt4hashIS5_ENSB_18_Mod_range_hashingENSB_20_Default_ranged_hashENSB_20_Prime_rehash_policyENSB_17_Hashtable_traitsILb1ELb0ELb1EEEE21_M_deallocate_bucketsEPPNSB_15_Hash_node_baseEm
FNDA:0,_ZNSt10_HashtableINSt7__cxx1112basic_stringIcSt11char_traitsIcESaIcEEESt4pairIKS5_PvESaIS9_ENSt8__detail10_Select1stESt8equal_toIS5_ESt4hashIS5_ENSB_18_Mod_range_hashingENSB_20_Default_ranged_hashENSB_20_Prime_rehash_policyENSB_17_Hashtable_traitsILb1ELb0ELb1EEEE21_M_deallocate_bucketsEPPNSB_15_Hash_node_baseEm
FN:374,_ZNSt10_HashtableINSt7__cxx1112basic_stringIcSt11char_traitsIcESaIcEEESt4pairIKS5_PvESaIS9_ENSt8__detail10_Select1stESt8equal_toIS5_ESt4hashIS5_ENSB_18_Mod_range_hashingENSB_20_Default_ranged_hashENSB_20_Prime_rehash_policyENSB_17_Hashtable_traitsILb1ELb0ELb1EEEE21_M_deallocate_bucketsEv
FNDA:0,_ZNSt10_HashtableINSt7__cxx1112basic_stringIcSt11char_traitsIcESaIcEEESt4pairIKS5_PvESaIS9_ENSt8__detail10_Select1stESt8equal_toIS5_ESt4hashIS5_ENSB_18_Mod_range_hashingENSB_20_Default_ranged_hashENSB_20_Prime_rehash_policyENSB_17_Hashtable_traitsILb1ELb0ELb1EEEE21_M_deallocate_bucketsEv
FN:383,_ZNKSt10_HashtableINSt7__cxx1112basic_stringIcSt11char_traitsIcESaIcEEESt4pairIKS5_PvESaIS9_ENSt8__detail10_Select1stESt8equal_toIS5_ESt4hashIS5_ENSB_18_Mod_range_hashingENSB_20_Default_ranged_hashENSB_20_Prime_rehash_policyENSB_17_Hashtable_traitsILb1ELb0ELb1EEEE8_M_beginEv
FNDA:0,_ZNKSt10_HashtableINSt7__cxx1112basic_stringIcSt11char_traitsIcESaIcEEESt4pairIKS5_PvESaIS9_ENSt8__detail10_Select1stESt8equal_toIS5_ESt4hashIS5_ENSB_18_Mod_range_hashingENSB_20_Default_ranged_hashENSB_20_Prime_rehash_policyENSB_17_Hashtable_traitsILb1ELb0ELb1EEEE8_M_beginEv
FN:414,_ZNSt10_HashtableINSt7__cxx1112basic_stringIcSt11char_traitsIcESaIcEEESt4pairIKS5_PvESaIS9_ENSt8__detail10_Select1stESt8equal_toIS5_ESt4hashIS5_ENSB_18_Mod_range_hashingENSB_20_Default_ranged_hashENSB_20_Prime_rehash_policyENSB_17_Hashtable_traitsILb1ELb0ELb1EEEEC2Ev
FNDA:0,_ZNSt10_HashtableINSt7__cxx1112basic_stringIcSt11char_traitsIcESaIcEEESt4pairIKS5_PvESaIS9_ENSt8__detail10_Select1stESt8equal_toIS5_ESt4hashIS5_ENSB_18_Mod_range_hashingENSB_20_Default_ranged_hashENSB_20_Prime_rehash_policyENSB_17_Hashtable_traitsILb1ELb0ELb1EEEEC2Ev
FN:1348,_ZNSt10_HashtableINSt7__cxx1112basic_stringIcSt11char_traitsIcESaIcEEESt4pairIKS5_PvESaIS9_ENSt8__detail10_Select1stESt8equal_toIS5_ESt4hashIS5_ENSB_18_Mod_range_hashingENSB_20_Default_ranged_hashENSB_20_Prime_rehash_policyENSB_17_Hashtable_traitsILb1ELb0ELb1EEEED2Ev
FNDA:0,_ZNSt10_HashtableINSt7__cxx1112basic_stringIcSt11char_traitsIcESaIcEEESt4pairIKS5_PvESaIS9_ENSt8__detail10_Select1stESt8equal_toIS5_ESt4hashIS5_ENSB_18_Mod_range_hashingENSB_20_Default_ranged_hashENSB_20_Prime_rehash_policyENSB_17_Hashtable_traitsILb1ELb0ELb1EEEED2Ev
FN:2024,_ZNSt10_HashtableINSt7__cxx1112basic_stringIcSt11char_traitsIcESaIcEEESt4pairIKS5_PvESaIS9_ENSt8__detail10_Select1stESt8equal_toIS5_ESt4hashIS5_ENSB_18_Mod_range_hashingENSB_20_Default_ranged_hashENSB_20_Prime_rehash_policyENSB_17_Hashtable_traitsILb1ELb0ELb1EEEE5clearEv
FNDA:0,_ZNSt10_HashtableINSt7__cxx1112basic_stringIcSt11char_traitsIcESaIcEEESt4pairIKS5_PvESaIS9_ENSt8__detail10_Select1stESt8equal_toIS5_ESt4hashIS5_ENSB_18_Mod_range_hashingENSB_20_Default_ranged_hashENSB_20_Prime_rehash_policyENSB_17_Hashtable_traitsILb1ELb0ELb1EEEE5clearEv
DA:342,0
DA:343,0
DA:365,0
DA:367,0
DA:368,0
DA:370,0
DA:374,0
DA:375,0
DA:383,0
DA:384,0
DA:414,0
DA:1348,0
DA:1352,0
DA:1353,0
DA:1354,0
DA:2024,0
DA:2028,0
DA:2029,0
DA:2030,0
DA:2031,0
DA:2032,0
end_of_record
SF:/usr/include/c++/9/bits/stl_construct.h
FN:117,_ZNSt12_Destroy_auxILb1EE9__destroyIPaEEvT_S3_
FNDA:0,_ZNSt12_Destroy_auxILb1EE9__destroyIPaEEvT_S3_
FN:127,_ZSt8_DestroyIPaEvT_S1_
FNDA:0,_ZSt8_DestroyIPaEvT_S1_
FN:203,_ZSt8_DestroyIPaaEvT_S1_RSaIT0_E
FNDA:0,_ZSt8_DestroyIPaaEvT_S1_RSaIT0_E
DA:117,0
DA:127,0
DA:137,0
DA:138,0
DA:203,0
DA:206,0
DA:207,0
end_of_record
SF:/usr/include/c++/9/bits/stl_uninitialized.h
FN:99,_ZNSt20__uninitialized_copyILb1EE13__uninit_copyIN9__gnu_cxx17__normal_iteratorIPKaSt6vectorIaSaIaEEEEPaEET0_T_SC_SB_
FNDA:0,_ZNSt20__uninitialized_copyILb1EE13__uninit_copyIN9__gnu_cxx17__normal_iteratorIPKaSt6vectorIaSaIaEEEEPaEET0_T_SC_SB_
FN:115,_ZSt18uninitialized_copyIN9__gnu_cxx17__normal_iteratorIPKaSt6vectorIaSaIaEEEEPaET0_T_SA_S9_
FNDA:0,_ZSt18uninitialized_copyIN9__gnu_cxx17__normal_iteratorIPKaSt6vectorIaSaIaEEEEPaET0_T_SA_S9_
FN:305,_ZSt22__uninitialized_copy_aIN9__gnu_cxx17__normal_iteratorIPKaSt6vectorIaSaIaEEEEPaaET0_T_SA_S9_RSaIT1_E
FNDA:0,_ZSt22__uninitialized_copy_aIN9__gnu_cxx17__normal_iteratorIPKaSt6vectorIaSaIaEEEEPaaET0_T_SA_S9_RSaIT1_E
DA:99,0
DA:101,0
DA:115,0
DA:134,0
DA:140,0
DA:305,0
DA:307,0
end_of_record
SF:/usr/include/c++/9/bits/stl_map.h
FN:205,_ZNSt3mapIlSt6vectorIaSaIaEESt4lessIlESaISt4pairIKlS2_EEEC2ERKS9_
FNDA:0,_ZNSt3mapIlSt6vectorIaSaIaEESt4lessIlESaISt4pairIKlS2_EEEC2ERKS9_
FN:300,_ZNSt3mapIlSt6vectorIaSaIaEESt4lessIlESaISt4pairIKlS2_EEED2Ev
FNDA:0,_ZNSt3mapIlSt6vectorIaSaIaEESt4lessIlESaISt4pairIKlS2_EEED2Ev
FN:335,_ZNSt3mapIiS_IlSt6vectorIaSaIaEESt4lessIlESaISt4pairIKlS2_EEES3_IiESaIS5_IKiS9_EEEaSESt16initializer_listISC_E
FNDA:0,_ZNSt3mapIiS_IlSt6vectorIaSaIaEESt4lessIlESaISt4pairIKlS2_EEES3_IiESaIS5_IKiS9_EEEaSESt16initializer_listISC_E
DA:205,0
DA:300,0
DA:335,0
DA:337,0
DA:338,0
end_of_record
SF:/usr/include/c++/9/ext/alloc_traits.h
FN:97,_ZN9__gnu_cxx14__alloc_traitsISaIaEaE17_S_select_on_copyERKS1_
FNDA:0,_ZN9__gnu_cxx14__alloc_traitsISaIaEaE17_S_select_on_copyERKS1_
FN:97,_ZN9__gnu_cxx14__alloc_traitsISaISt13_Rb_tree_nodeISt4pairIKlSt6vectorIaSaIaEEEEES8_E17_S_select_on_copyERKS9_
FNDA:0,_ZN9__gnu_cxx14__alloc_traitsISaISt13_Rb_tree_nodeISt4pairIKlSt6vectorIaSaIaEEEEES8_E17_S_select_on_copyERKS9_
DA:97,0
DA:98,0
DA:97,0
DA:98,0
end_of_record
SF:/usr/include/c++/9/bits/stl_iterator.h
FN:806,_ZN9__gnu_cxx17__normal_iteratorIPKaSt6vectorIaSaIaEEEC2ERKS2_
FNDA:0,_ZN9__gnu_cxx17__normal_iteratorIPKaSt6vectorIaSaIaEEEC2ERKS2_
FN:871,_ZNK9__gnu_cxx17__normal_iteratorIPKaSt6vectorIaSaIaEEE4baseEv
FNDA:0,_ZNK9__gnu_cxx17__normal_iteratorIPKaSt6vectorIaSaIaEEE4baseEv
FN:1010,_ZSt12__niter_baseIPKaSt6vectorIaSaIaEEET_N9__gnu_cxx17__normal_iteratorIS5_T0_EE
FNDA:0,_ZSt12__niter_baseIPKaSt6vectorIaSaIaEEET_N9__gnu_cxx17__normal_iteratorIS5_T0_EE
DA:806,0
DA:807,0
DA:871,0
DA:872,0
DA:1010,0
DA:1012,0
end_of_record
SF:/usr/include/c++/9/bits/hashtable_policy.h
FN:218,_ZNSt8__detail15_Hash_node_baseC2Ev
FNDA:0,_ZNSt8__detail15_Hash_node_baseC2Ev
FN:236,_ZNSt8__detail21_Hash_node_value_baseISt4pairIKNSt7__cxx1112basic_stringIcSt11char_traitsIcESaIcEEEPvEE9_M_valptrEv
FNDA:0,_ZNSt8__detail21_Hash_node_value_baseISt4pairIKNSt7__cxx1112basic_stringIcSt11char_traitsIcESaIcEEEPvEE9_M_valptrEv
FN:269,_ZNKSt8__detail10_Hash_nodeISt4pairIKNSt7__cxx1112basic_stringIcSt11char_traitsIcESaIcEEEPvELb1EE7_M_nextEv
FNDA:0,_ZNKSt8__detail10_Hash_nodeISt4pairIKNSt7__cxx1112basic_stringIcSt11char_traitsIcESaIcEEEPvELb1EE7_M_nextEv
FN:449,_ZNSt8__detail20_Prime_rehash_policyC2Ef
FNDA:0,_ZNSt8__detail20_Prime_rehash_policyC2Ef
FN:1096,_ZNSt8__detail21_Hashtable_ebo_helperILi0ESaINS_10_Hash_nodeISt4pairIKNSt7__cxx1112basic_stringIcSt11char_traitsIcESaIcEEEPvELb1EEEELb1EEC2Ev
FNDA:0,_ZNSt8__detail21_Hashtable_ebo_helperILi0ESaINS_10_Hash_nodeISt4pairIKNSt7__cxx1112basic_stringIcSt11char_traitsIcESaIcEEEPvELb1EEEELb1EEC2Ev
FN:1108,_ZNSt8__detail21_Hashtable_ebo_helperILi0ESaINS_10_Hash_nodeISt4pairIKNSt7__cxx1112basic_stringIcSt11char_traitsIcESaIcEEEPvELb1EEEELb1EE6_S_getERSE_
FNDA:0,_ZNSt8__detail21_Hashtable_ebo_helperILi0ESaINS_10_Hash_nodeISt4pairIKNSt7__cxx1112basic_stringIcSt11char_traitsIcESaIcEEEPvELb1EEEELb1EE6_S_getERSE_
FN:2036,_ZNSt8__detail16_Hashtable_allocISaINS_10_Hash_nodeISt4pairIKNSt7__cxx1112basic_stringIcSt11char_traitsIcESaIcEEEPvELb1EEEEEC2Ev
FNDA:0,_ZNSt8__detail16_Hashtable_allocISaINS_10_Hash_nodeISt4pairIKNSt7__cxx1112basic_stringIcSt11char_traitsIcESaIcEEEPvELb1EEEEEC2Ev
FN:2046,_ZNSt8__detail16_Hashtable_allocISaINS_10_Hash_nodeISt4pairIKNSt7__cxx1112basic_stringIcSt11char_traitsIcESaIcEEEPvELb1EEEEE17_M_node_allocatorEv
FNDA:0,_ZNSt8__detail16_Hashtable_allocISaINS_10_Hash_nodeISt4pairIKNSt7__cxx1112basic_stringIcSt11char_traitsIcESaIcEEEPvELb1EEEEE17_M_node_allocatorEv
FN:2100,_ZNSt8__detail16_Hashtable_allocISaINS_10_Hash_nodeISt4pairIKNSt7__cxx1112basic_stringIcSt11char_traitsIcESaIcEEEPvELb1EEEEE18_M_deallocate_nodeEPSC_
FNDA:0,_ZNSt8__detail16_Hashtable_allocISaINS_10_Hash_nodeISt4pairIKNSt7__cxx1112basic_stringIcSt11char_traitsIcESaIcEEEPvELb1EEEEE18_M_deallocate_nodeEPSC_
FN:2108,_ZNSt8__detail16_Hashtable_allocISaINS_10_Hash_nodeISt4pairIKNSt7__cxx1112basic_stringIcSt11char_traitsIcESaIcEEEPvELb1EEEEE22_M_deallocate_node_ptrEPSC_
FNDA:0,_ZNSt8__detail16_Hashtable_allocISaINS_10_Hash_nodeISt4pairIKNSt7__cxx1112basic_stringIcSt11char_traitsIcESaIcEEEPvELb1EEEEE22_M_deallocate_node_ptrEPSC_
FN:2118,_ZNSt8__detail16_Hashtable_allocISaINS_10_Hash_nodeISt4pairIKNSt7__cxx1112basic_stringIcSt11char_traitsIcESaIcEEEPvELb1EEEEE19_M_deallocate_nodesEPSC_
FNDA:0,_ZNSt8__detail16_Hashtable_allocISaINS_10_Hash_nodeISt4pairIKNSt7__cxx1112basic_stringIcSt11char_traitsIcESaIcEEEPvELb1EEEEE19_M_deallocate_nodesEPSC_
FN:2142,_ZNSt8__detail16_Hashtable_allocISaINS_10_Hash_nodeISt4pairIKNSt7__cxx1112basic_stringIcSt11char_traitsIcESaIcEEEPvELb1EEEEE21_M_deallocate_bucketsEPPNS_15_Hash_node_baseEm
FNDA:0,_ZNSt8__detail16_Hashtable_allocISaINS_10_Hash_nodeISt4pairIKNSt7__cxx1112basic_stringIcSt11char_traitsIcESaIcEEEPvELb1EEEEE21_M_deallocate_bucketsEPPNS_15_Hash_node_baseEm
DA:218,0
DA:236,0
DA:237,0
DA:269,0
DA:270,0
DA:449,0
DA:450,0
DA:1096,0
DA:1108,0
DA:1109,0
DA:2036,0
DA:2046,0
DA:2047,0
DA:2100,0
DA:2102,0
DA:2103,0
DA:2104,0
DA:2108,0
DA:2111,0
DA:2112,0
DA:2113,0
DA:2114,0
DA:2118,0
DA:2120,0
DA:2122,0
DA:2123,0
DA:2124,0
DA:2126,0
DA:2142,0
DA:2146,0
DA:2147,0
DA:2148,0
DA:2149,0
end_of_record
SF:/usr/include/c++/9/ext/aligned_buffer.h
FN:64,_ZN9__gnu_cxx16__aligned_membufISt4pairIKlSt6vectorIaSaIaEEEE7_M_addrEv
FNDA:0,_ZN9__gnu_cxx16__aligned_membufISt4pairIKlSt6vectorIaSaIaEEEE7_M_addrEv
FN:64,_ZN9__gnu_cxx16__aligned_membufISt4pairIKiSt3mapIlSt6vectorIaSaIaEESt4lessIlESaIS1_IKlS6_EEEEE7_M_addrEv
FNDA:0,_ZN9__gnu_cxx16__aligned_membufISt4pairIKiSt3mapIlSt6vectorIaSaIaEESt4lessIlESaIS1_IKlS6_EEEEE7_M_addrEv
FN:68,_ZNK9__gnu_cxx16__aligned_membufISt4pairIKlSt6vectorIaSaIaEEEE7_M_addrEv
FNDA:0,_ZNK9__gnu_cxx16__aligned_membufISt4pairIKlSt6vectorIaSaIaEEEE7_M_addrEv
FN:68,_ZNK9__gnu_cxx16__aligned_membufISt4pairIKiSt3mapIlSt6vectorIaSaIaEESt4lessIlESaIS1_IKlS6_EEEEE7_M_addrEv
FNDA:0,_ZNK9__gnu_cxx16__aligned_membufISt4pairIKiSt3mapIlSt6vectorIaSaIaEESt4lessIlESaIS1_IKlS6_EEEEE7_M_addrEv
FN:72,_ZN9__gnu_cxx16__aligned_membufISt4pairIKlSt6vectorIaSaIaEEEE6_M_ptrEv
FNDA:0,_ZN9__gnu_cxx16__aligned_membufISt4pairIKlSt6vectorIaSaIaEEEE6_M_ptrEv
FN:72,_ZN9__gnu_cxx16__aligned_membufISt4pairIKiSt3mapIlSt6vectorIaSaIaEESt4lessIlESaIS1_IKlS6_EEEEE6_M_ptrEv
FNDA:0,_ZN9__gnu_cxx16__aligned_membufISt4pairIKiSt3mapIlSt6vectorIaSaIaEESt4lessIlESaIS1_IKlS6_EEEEE6_M_ptrEv
FN:76,_ZNK9__gnu_cxx16__aligned_membufISt4pairIKlSt6vectorIaSaIaEEEE6_M_ptrEv
FNDA:0,_ZNK9__gnu_cxx16__aligned_membufISt4pairIKlSt6vectorIaSaIaEEEE6_M_ptrEv
FN:76,_ZNK9__gnu_cxx16__aligned_membufISt4pairIKiSt3mapIlSt6vectorIaSaIaEESt4lessIlESaIS1_IKlS6_EEEEE6_M_ptrEv
FNDA:0,_ZNK9__gnu_cxx16__aligned_membufISt4pairIKiSt3mapIlSt6vectorIaSaIaEESt4lessIlESaIS1_IKlS6_EEEEE6_M_ptrEv
FN:102,_ZN9__gnu_cxx16__aligned_bufferISt4pairIKNSt7__cxx1112basic_stringIcSt11char_traitsIcESaIcEEEPvEE7_M_addrEv
FNDA:0,_ZN9__gnu_cxx16__aligned_bufferISt4pairIKNSt7__cxx1112basic_stringIcSt11char_traitsIcESaIcEEEPvEE7_M_addrEv
FN:114,_ZN9__gnu_cxx16__aligned_bufferISt4pairIKNSt7__cxx1112basic_stringIcSt11char_traitsIcESaIcEEEPvEE6_M_ptrEv
FNDA:0,_ZN9__gnu_cxx16__aligned_bufferISt4pairIKNSt7__cxx1112basic_stringIcSt11char_traitsIcESaIcEEEPvEE6_M_ptrEv
DA:64,0
DA:65,0
DA:64,0
DA:65,0
DA:68,0
DA:69,0
DA:68,0
DA:69,0
DA:72,0
DA:73,0
DA:72,0
DA:73,0
DA:76,0
DA:77,0
DA:76,0
DA:77,0
DA:102,0
DA:104,0
DA:114,0
DA:115,0
end_of_record
SF:/usr/include/c++/9/bits/basic_string.tcc
FN:206,_ZNSt7__cxx1112basic_stringIcSt11char_traitsIcESaIcEE12_M_constructIPKcEEvT_S8_St20forward_iterator_tag
FNDA:0,_ZNSt7__cxx1112basic_stringIcSt11char_traitsIcESaIcEE12_M_constructIPKcEEvT_S8_St20forward_iterator_tag
DA:206,0
DA:211,0
DA:212,0
DA:215,0
DA:217,0
DA:219,0
DA:220,0
DA:225,0
DA:226,0
DA:228,0
DA:229,0
DA:232,0
DA:233,0
end_of_record
SF:/usr/include/c++/9/bits/unordered_map.h
FN:141,_ZNSt13unordered_mapINSt7__cxx1112basic_stringIcSt11char_traitsIcESaIcEEEPvSt4hashIS5_ESt8equal_toIS5_ESaISt4pairIKS5_S6_EEEC2Ev
FNDA:0,_ZNSt13unordered_mapINSt7__cxx1112basic_stringIcSt11char_traitsIcESaIcEEEPvSt4hashIS5_ESt8equal_toIS5_ESaISt4pairIKS5_S6_EEEC2Ev
DA:141,0
end_of_record
SF:/usr/include/c++/9/ext/new_allocator.h
FN:80,_ZN9__gnu_cxx13new_allocatorIcEC2Ev
FNDA:0,_ZN9__gnu_cxx13new_allocatorIcEC2Ev
FN:80,_ZN9__gnu_cxx13new_allocatorINSt8__detail10_Hash_nodeISt4pairIKNSt7__cxx1112basic_stringIcSt11char_traitsIcESaIcEEEPvELb1EEEEC2Ev
FNDA:0,_ZN9__gnu_cxx13new_allocatorINSt8__detail10_Hash_nodeISt4pairIKNSt7__cxx1112basic_stringIcSt11char_traitsIcESaIcEEEPvELb1EEEEC2Ev
FN:80,_ZN9__gnu_cxx13new_allocatorIPNSt8__detail15_Hash_node_baseEEC2Ev
FNDA:0,_ZN9__gnu_cxx13new_allocatorIPNSt8__detail15_Hash_node_baseEEC2Ev
FN:83,_ZN9__gnu_cxx13new_allocatorIaEC2ERKS1_
FNDA:0,_ZN9__gnu_cxx13new_allocatorIaEC2ERKS1_
FN:83,_ZN9__gnu_cxx13new_allocatorISt13_Rb_tree_nodeISt4pairIKlSt6vectorIaSaIaEEEEEC2ERKS9_
FNDA:0,_ZN9__gnu_cxx13new_allocatorISt13_Rb_tree_nodeISt4pairIKlSt6vectorIaSaIaEEEEEC2ERKS9_
FN:89,_ZN9__gnu_cxx13new_allocatorIcED2Ev
FNDA:0,_ZN9__gnu_cxx13new_allocatorIcED2Ev
FN:89,_ZN9__gnu_cxx13new_allocatorINSt8__detail10_Hash_nodeISt4pairIKNSt7__cxx1112basic_stringIcSt11char_traitsIcESaIcEEEPvELb1EEEED2Ev
FNDA:0,_ZN9__gnu_cxx13new_allocatorINSt8__detail10_Hash_nodeISt4pairIKNSt7__cxx1112basic_stringIcSt11char_traitsIcESaIcEEEPvELb1EEEED2Ev
FN:89,_ZN9__gnu_cxx13new_allocatorIaED2Ev
FNDA:0,_ZN9__gnu_cxx13new_allocatorIaED2Ev
FN:89,_ZN9__gnu_cxx13new_allocatorIPNSt8__detail15_Hash_node_baseEED2Ev
FNDA:0,_ZN9__gnu_cxx13new_allocatorIPNSt8__detail15_Hash_node_baseEED2Ev
FN:89,_ZN9__gnu_cxx13new_allocatorISt13_Rb_tree_nodeISt4pairIKlSt6vectorIaSaIaEEEEED2Ev
FNDA:0,_ZN9__gnu_cxx13new_allocatorISt13_Rb_tree_nodeISt4pairIKlSt6vectorIaSaIaEEEEED2Ev
FN:102,_ZN9__gnu_cxx13new_allocatorISt13_Rb_tree_nodeISt4pairIKiSt3mapIlSt6vectorIaSaIaEESt4lessIlESaIS2_IKlS7_EEEEEE8allocateEmPKv
FNDA:0,_ZN9__gnu_cxx13new_allocatorISt13_Rb_tree_nodeISt4pairIKiSt3mapIlSt6vectorIaSaIaEESt4lessIlESaIS2_IKlS7_EEEEEE8allocateEmPKv
FN:102,_ZN9__gnu_cxx13new_allocatorISt13_Rb_tree_nodeISt4pairIKlSt6vectorIaSaIaEEEEE8allocateEmPKv
FNDA:0,_ZN9__gnu_cxx13new_allocatorISt13_Rb_tree_nodeISt4pairIKlSt6vectorIaSaIaEEEEE8allocateEmPKv
FN:102,_ZN9__gnu_cxx13new_allocatorIaE8allocateEmPKv
FNDA:0,_ZN9__gnu_cxx13new_allocatorIaE8allocateEmPKv
FN:119,_ZN9__gnu_cxx13new_allocatorISt13_Rb_tree_nodeISt4pairIKiSt3mapIlSt6vectorIaSaIaEESt4lessIlESaIS2_IKlS7_EEEEEE10deallocateEPSF_m
FNDA:0,_ZN9__gnu_cxx13new_allocatorISt13_Rb_tree_nodeISt4pairIKiSt3mapIlSt6vectorIaSaIaEESt4lessIlESaIS2_IKlS7_EEEEEE10deallocateEPSF_m
FN:119,_ZN9__gnu_cxx13new_allocatorINSt8__detail10_Hash_nodeISt4pairIKNSt7__cxx1112basic_stringIcSt11char_traitsIcESaIcEEEPvELb1EEEE10deallocateEPSD_m
FNDA:0,_ZN9__gnu_cxx13new_allocatorINSt8__detail10_Hash_nodeISt4pairIKNSt7__cxx1112basic_stringIcSt11char_traitsIcESaIcEEEPvELb1EEEE10deallocateEPSD_m
FN:119,_ZN9__gnu_cxx13new_allocatorIPNSt8__detail15_Hash_node_baseEE10deallocateEPS3_m
FNDA:0,_ZN9__gnu_cxx13new_allocatorIPNSt8__detail15_Hash_node_baseEE10deallocateEPS3_m
FN:119,_ZN9__gnu_cxx13new_allocatorISt13_Rb_tree_nodeISt4pairIKlSt6vectorIaSaIaEEEEE10deallocateEPS8_m
FNDA:0,_ZN9__gnu_cxx13new_allocatorISt13_Rb_tree_nodeISt4pairIKlSt6vectorIaSaIaEEEEE10deallocateEPS8_m
FN:119,_ZN9__gnu_cxx13new_allocatorIaE10deallocateEPam
FNDA:0,_ZN9__gnu_cxx13new_allocatorIaE10deallocateEPam
FN:132,_ZNK9__gnu_cxx13new_allocatorISt13_Rb_tree_nodeISt4pairIKiSt3mapIlSt6vectorIaSaIaEESt4lessIlESaIS2_IKlS7_EEEEEE8max_sizeEv
FNDA:0,_ZNK9__gnu_cxx13new_allocatorISt13_Rb_tree_nodeISt4pairIKiSt3mapIlSt6vectorIaSaIaEESt4lessIlESaIS2_IKlS7_EEEEEE8max_sizeEv
FN:132,_ZNK9__gnu_cxx13new_allocatorIaE8max_sizeEv
FNDA:0,_ZNK9__gnu_cxx13new_allocatorIaE8max_sizeEv
FN:132,_ZNK9__gnu_cxx13new_allocatorISt13_Rb_tree_nodeISt4pairIKlSt6vectorIaSaIaEEEEE8max_sizeEv
FNDA:0,_ZNK9__gnu_cxx13new_allocatorISt13_Rb_tree_nodeISt4pairIKlSt6vectorIaSaIaEEEEE8max_sizeEv
FN:144,_ZN9__gnu_cxx13new_allocatorISt13_Rb_tree_nodeISt4pairIKiSt3mapIlSt6vectorIaSaIaEESt4lessIlESaIS2_IKlS7_EEEEEE9constructISE_JRKSE_EEEvPT_DpOT0_
FNDA:0,_ZN9__gnu_cxx13new_allocatorISt13_Rb_tree_nodeISt4pairIKiSt3mapIlSt6vectorIaSaIaEESt4lessIlESaIS2_IKlS7_EEEEEE9constructISE_JRKSE_EEEvPT_DpOT0_
FN:144,_ZN9__gnu_cxx13new_allocatorISt13_Rb_tree_nodeISt4pairIKlSt6vectorIaSaIaEEEEE9constructIS7_JRKS7_EEEvPT_DpOT0_
FNDA:0,_ZN9__gnu_cxx13new_allocatorISt13_Rb_tree_nodeISt4pairIKlSt6vectorIaSaIaEEEEE9constructIS7_JRKS7_EEEvPT_DpOT0_
FN:151,_ZN9__gnu_cxx13new_allocatorISt13_Rb_tree_nodeISt4pairIKlSt6vectorIaSaIaEEEEE7destroyIS7_EEvPT_
FNDA:0,_ZN9__gnu_cxx13new_allocatorISt13_Rb_tree_nodeISt4pairIKlSt6vectorIaSaIaEEEEE7destroyIS7_EEvPT_
FN:151,_ZN9__gnu_cxx13new_allocatorISt13_Rb_tree_nodeISt4pairIKiSt3mapIlSt6vectorIaSaIaEESt4lessIlESaIS2_IKlS7_EEEEEE7destroyISE_EEvPT_
FNDA:0,_ZN9__gnu_cxx13new_allocatorISt13_Rb_tree_nodeISt4pairIKiSt3mapIlSt6vectorIaSaIaEESt4lessIlESaIS2_IKlS7_EEEEEE7destroyISE_EEvPT_
FN:151,_ZN9__gnu_cxx13new_allocatorINSt8__detail10_Hash_nodeISt4pairIKNSt7__cxx1112basic_stringIcSt11char_traitsIcESaIcEEEPvELb1EEEE7destroyISC_EEvPT_
FNDA:0,_ZN9__gnu_cxx13new_allocatorINSt8__detail10_Hash_nodeISt4pairIKNSt7__cxx1112basic_stringIcSt11char_traitsIcESaIcEEEPvELb1EEEE7destroyISC_EEvPT_
DA:80,0
DA:80,0
DA:80,0
DA:83,0
DA:83,0
DA:89,0
DA:89,0
DA:89,0
DA:89,0
DA:89,0
DA:102,0
DA:104,0
DA:105,0
DA:114,0
DA:102,0
DA:104,0
DA:105,0
DA:114,0
DA:102,0
DA:104,0
DA:105,0
DA:114,0
DA:119,0
DA:128,0
DA:129,0
DA:119,0
DA:128,0
DA:129,0
DA:119,0
DA:128,0
DA:129,0
DA:119,0
DA:128,0
DA:129,0
DA:119,0
DA:128,0
DA:129,0
DA:132,0
DA:135,0
DA:132,0
DA:135,0
DA:132,0
DA:135,0
DA:144,0
DA:147,0
DA:144,0
DA:147,0
DA:151,0
DA:153,0
DA:151,0
DA:153,0
DA:151,0
DA:153,0
end_of_record
SF:/workspace/vtr-verilog-to-routing/ODIN_II/SRC/include/Hashtable.hpp
end_of_record
SF:/usr/include/c++/9/ext/type_traits.h
FN:152,_ZN9__gnu_cxx17__is_null_pointerIKcEEbPT_
FNDA:0,_ZN9__gnu_cxx17__is_null_pointerIKcEEbPT_
DA:152,0
DA:153,0
end_of_record
TN:
SF:/usr/include/c++/9/bits/basic_string.tcc
FN:206,_ZNSt7__cxx1112basic_stringIcSt11char_traitsIcESaIcEE12_M_constructIPcEEvT_S7_St20forward_iterator_tag
FNDA:0,_ZNSt7__cxx1112basic_stringIcSt11char_traitsIcESaIcEE12_M_constructIPcEEvT_S7_St20forward_iterator_tag
FN:206,_ZNSt7__cxx1112basic_stringIcSt11char_traitsIcESaIcEE12_M_constructIPKcEEvT_S8_St20forward_iterator_tag
FNDA:0,_ZNSt7__cxx1112basic_stringIcSt11char_traitsIcESaIcEE12_M_constructIPKcEEvT_S8_St20forward_iterator_tag
FN:1158,_ZStplIcSt11char_traitsIcESaIcEENSt7__cxx1112basic_stringIT_T0_T1_EEPKS5_RKS8_
FNDA:0,_ZStplIcSt11char_traitsIcESaIcEENSt7__cxx1112basic_stringIT_T0_T1_EEPKS5_RKS8_
DA:206,0
DA:211,0
DA:212,0
DA:215,0
DA:217,0
DA:219,0
DA:220,0
DA:225,0
DA:226,0
DA:228,0
DA:229,0
DA:232,0
DA:233,0
DA:206,0
DA:211,0
DA:212,0
DA:215,0
DA:217,0
DA:219,0
DA:220,0
DA:225,0
DA:226,0
DA:228,0
DA:229,0
DA:232,0
DA:233,0
DA:1158,0
DA:1164,0
DA:1165,0
DA:1166,0
DA:1167,0
DA:1168,0
DA:1169,0
end_of_record
SF:/usr/include/c++/9/ext/aligned_buffer.h
FN:64,_ZN9__gnu_cxx16__aligned_membufISt4pairIK18SB_Side_ConnectionSt6vectorINSt7__cxx1112basic_stringIcSt11char_traitsIcESaIcEEESaISA_EEEE7_M_addrEv
FNDA:0,_ZN9__gnu_cxx16__aligned_membufISt4pairIK18SB_Side_ConnectionSt6vectorINSt7__cxx1112basic_stringIcSt11char_traitsIcESaIcEEESaISA_EEEE7_M_addrEv
FN:72,_ZN9__gnu_cxx16__aligned_membufISt4pairIK18SB_Side_ConnectionSt6vectorINSt7__cxx1112basic_stringIcSt11char_traitsIcESaIcEEESaISA_EEEE6_M_ptrEv
FNDA:0,_ZN9__gnu_cxx16__aligned_membufISt4pairIK18SB_Side_ConnectionSt6vectorINSt7__cxx1112basic_stringIcSt11char_traitsIcESaIcEEESaISA_EEEE6_M_ptrEv
FN:102,_ZN9__gnu_cxx16__aligned_bufferIN8argparse19SingleValueArgumentIi17ParseInitRegStateEEE7_M_addrEv
FNDA:0,_ZN9__gnu_cxx16__aligned_bufferIN8argparse19SingleValueArgumentIi17ParseInitRegStateEEE7_M_addrEv
FN:102,_ZN9__gnu_cxx16__aligned_bufferIN8argparse19SingleValueArgumentIdNS1_16DefaultConverterIdEEEEE7_M_addrEv
