TN:
SF:/usr/include/c++/9/ext/new_allocator.h
DA:89,0
DA:119,0
DA:128,0
end_of_record
SF:/usr/include/c++/9/bits/basic_string.h
DA:150,0
DA:186,0
DA:200,0
DA:203,0
DA:221,0
DA:222,0
DA:229,0
DA:231,0
DA:232,0
DA:236,0
DA:237,0
DA:286,0
DA:287,0
DA:657,0
DA:658,0
DA:2300,0
DA:2301,0
end_of_record
SF:/usr/include/c++/9/iostream
end_of_record
SF:/usr/include/c++/9/bits/alloc_traits.h
DA:469,0
DA:470,0
end_of_record
SF:/usr/include/c++/9/bits/ptr_traits.h
DA:146,0
DA:147,0
end_of_record
SF:/workspace/vtr-verilog-to-routing/ODIN_II/SRC/DEBUG_TOOLS/netlist_visualizer.cpp
FN:46,_Z21graphVizOutputNetlistNSt7__cxx1112basic_stringIcSt11char_traitsIcESaIcEEEPKcsP11netlist_t_t
FNDA:0,_Z21graphVizOutputNetlistNSt7__cxx1112basic_stringIcSt11char_traitsIcESaIcEEEPKcsP11netlist_t_t
FN:68,_Z35depth_first_traversal_graph_displayP8_IO_FILEsP11netlist_t_t
FNDA:0,_Z35depth_first_traversal_graph_displayP8_IO_FILEsP11netlist_t_t
FN:90,_Z30depth_first_traverse_visualizeP9nnode_t_tP8_IO_FILEi
FNDA:0,_Z30depth_first_traverse_visualizeP9nnode_t_tP8_IO_FILEi
FN:188,_Z30graphVizOutputCombinationalNetNSt7__cxx1112basic_stringIcSt11char_traitsIcESaIcEEEPKcsP9nnode_t_t
FNDA:0,_Z30graphVizOutputCombinationalNetNSt7__cxx1112basic_stringIcSt11char_traitsIcESaIcEEEPKcsP9nnode_t_t
FN:212,_Z35forward_traversal_net_graph_displayP8_IO_FILEsP9nnode_t_t
FNDA:0,_Z35forward_traversal_net_graph_displayP8_IO_FILEsP9nnode_t_t
FN:315,_Z36backward_traversal_net_graph_displayP8_IO_FILEsP9nnode_t_t
FNDA:0,_Z36backward_traversal_net_graph_displayP8_IO_FILEsP9nnode_t_t
DA:46,0
DA:48,0
DA:49,0
DA:52,0
DA:53,0
DA:56,0
DA:58,0
DA:61,0
DA:62,0
DA:63,0
DA:68,0
DA:70,0
DA:73,0
DA:75,0
DA:77,0
DA:81,0
DA:82,0
DA:83,0
DA:84,0
DA:85,0
DA:90,0
DA:92,0
DA:93,0
DA:94,0
DA:96,0
DA:103,0
DA:104,0
DA:107,0
DA:109,0
DA:110,0
DA:112,0
DA:114,0
DA:116,0
DA:118,0
DA:120,0
DA:122,0
DA:124,0
DA:128,0
DA:130,0
DA:132,0
DA:134,0
DA:135,0
DA:138,0
DA:139,0
DA:141,0
DA:142,0
DA:143,0
DA:150,0
DA:151,0
DA:153,0
DA:156,0
DA:157,0
DA:158,0
DA:159,0
DA:161,0
DA:164,0
DA:165,0
DA:166,0
DA:167,0
DA:170,0
DA:171,0
DA:172,0
DA:173,0
DA:175,0
DA:176,0
DA:179,0
DA:188,0
DA:190,0
DA:191,0
DA:194,0
DA:195,0
DA:198,0
DA:200,0
DA:201,0
DA:204,0
DA:205,0
DA:206,0
DA:212,0
DA:214,0
DA:215,0
DA:216,0
DA:217,0
DA:218,0
DA:219,0
DA:221,0
DA:222,0
DA:224,0
DA:226,0
DA:229,0
DA:232,0
DA:233,0
DA:235,0
DA:237,0
DA:239,0
DA:241,0
DA:243,0
DA:245,0
DA:247,0
DA:249,0
DA:251,0
DA:255,0
DA:257,0
DA:260,0
DA:262,0
DA:263,0
DA:265,0
DA:267,0
DA:268,0
DA:271,0
DA:273,0
DA:274,0
DA:276,0
DA:277,0
DA:278,0
DA:281,0
DA:282,0
DA:284,0
DA:287,0
DA:288,0
DA:291,0
DA:293,0
DA:294,0
DA:296,0
DA:299,0
DA:300,0
DA:301,0
DA:307,0
DA:309,0
DA:315,0
DA:317,0
DA:318,0
DA:319,0
DA:320,0
DA:321,0
DA:322,0
DA:324,0
DA:325,0
DA:327,0
DA:329,0
DA:332,0
DA:335,0
DA:336,0
DA:338,0
DA:340,0
DA:342,0
DA:344,0
DA:346,0
DA:348,0
DA:350,0
DA:352,0
DA:356,0
DA:359,0
DA:362,0
DA:364,0
DA:365,0
DA:367,0
DA:368,0
DA:371,0
DA:373,0
DA:374,0
DA:376,0
DA:377,0
DA:379,0
DA:381,0
DA:382,0
DA:384,0
DA:387,0
DA:388,0
DA:389,0
DA:394,0
DA:396,0
end_of_record
SF:/usr/include/c++/9/bits/allocator.h
DA:153,0
end_of_record
SF:/usr/include/c++/9/bits/move.h
DA:47,0
DA:138,0
DA:139,0
end_of_record
SF:/usr/include/x86_64-linux-gnu/bits/stdio2.h
DA:34,0
DA:36,0
DA:37,0
DA:98,0
DA:100,0
DA:101,0
end_of_record
TN:
SF:/usr/include/c++/9/iostream
end_of_record
SF:/usr/include/x86_64-linux-gnu/bits/stdio2.h
DA:105,0
DA:107,0
end_of_record
SF:/workspace/vtr-verilog-to-routing/ODIN_II/SRC/DEBUG_TOOLS/print_netlist.cpp
FN:37,_Z26print_netlist_for_checkingP11netlist_t_tPc
FNDA:0,_Z26print_netlist_for_checkingP11netlist_t_tPc
FN:298,_Z34function_to_print_node_and_its_pinP8npin_t_t
FNDA:0,_Z34function_to_print_node_and_its_pinP8npin_t_t
DA:37,0
DA:39,0
DA:40,0
DA:41,0
DA:42,0
DA:45,0
DA:47,0
DA:48,0
DA:49,0
DA:50,0
DA:51,0
DA:52,0
DA:54,0
DA:56,0
DA:58,0
DA:59,0
DA:60,0
DA:63,0
DA:64,0
DA:66,0
DA:68,0
DA:70,0
DA:71,0
DA:72,0
DA:75,0
DA:76,0
DA:77,0
DA:78,0
DA:80,0
DA:85,0
DA:86,0
DA:87,0
DA:88,0
DA:89,0
DA:90,0
DA:92,0
DA:94,0
DA:96,0
DA:97,0
DA:98,0
DA:100,0
DA:101,0
DA:103,0
DA:105,0
DA:107,0
DA:108,0
DA:109,0
DA:112,0
DA:113,0
DA:114,0
DA:115,0
DA:117,0
DA:121,0
DA:122,0
DA:123,0
DA:124,0
DA:125,0
DA:126,0
DA:128,0
DA:130,0
DA:132,0
DA:133,0
DA:134,0
DA:136,0
DA:137,0
DA:139,0
DA:141,0
DA:143,0
DA:144,0
DA:145,0
DA:148,0
DA:149,0
DA:150,0
DA:151,0
DA:153,0
DA:157,0
DA:158,0
DA:159,0
DA:161,0
DA:162,0
DA:163,0
DA:164,0
DA:165,0
DA:167,0
DA:169,0
DA:171,0
DA:172,0
DA:173,0
DA:175,0
DA:176,0
DA:178,0
DA:180,0
DA:182,0
DA:183,0
DA:184,0
DA:190,0
DA:191,0
DA:192,0
DA:194,0
DA:195,0
DA:196,0
DA:197,0
DA:198,0
DA:200,0
DA:202,0
DA:204,0
DA:205,0
DA:206,0
DA:207,0
DA:208,0
DA:209,0
DA:210,0
DA:211,0
DA:213,0
DA:215,0
DA:217,0
DA:218,0
DA:220,0
DA:222,0
DA:224,0
DA:225,0
DA:226,0
DA:233,0
DA:234,0
DA:235,0
DA:237,0
DA:238,0
DA:239,0
DA:240,0
DA:241,0
DA:243,0
DA:245,0
DA:247,0
DA:248,0
DA:249,0
DA:251,0
DA:252,0
DA:254,0
DA:256,0
DA:258,0
DA:259,0
DA:260,0
DA:265,0
DA:266,0
DA:267,0
DA:269,0
DA:270,0
DA:271,0
DA:272,0
DA:273,0
DA:275,0
DA:277,0
DA:279,0
DA:280,0
DA:281,0
DA:283,0
DA:284,0
DA:286,0
DA:288,0
DA:290,0
DA:291,0
DA:292,0
DA:295,0
DA:298,0
DA:300,0
DA:301,0
DA:302,0
DA:304,0
DA:305,0
DA:307,0
DA:308,0
DA:309,0
DA:311,0
DA:313,0
DA:315,0
DA:316,0
DA:317,0
DA:319,0
DA:320,0
DA:322,0
DA:324,0
DA:326,0
DA:327,0
DA:328,0
DA:331,0
end_of_record
TN:
SF:/usr/include/c++/9/bits/alloc_traits.h
DA:469,0
DA:470,0
end_of_record
SF:/usr/include/c++/9/bits/allocator.h
DA:138,0
DA:141,0
DA:142,0
DA:153,0
end_of_record
SF:/usr/include/c++/9/ostream
DA:108,0
DA:113,0
DA:565,0
DA:568,0
DA:570,0
DA:571,0
end_of_record
SF:/usr/include/c++/9/bits/stl_vector.h
DA:94,0
DA:95,0
DA:128,0
DA:130,0
DA:285,0
DA:484,0
end_of_record
SF:/usr/include/c++/9/bits/locale_facets.h
FN:872,_ZNKSt5ctypeIcE5widenEc
FNDA:0,_ZNKSt5ctypeIcE5widenEc
FN:1084,_ZNKSt5ctypeIcE8do_widenEc
FNDA:0,_ZNKSt5ctypeIcE8do_widenEc
DA:872,0
DA:874,0
DA:875,0
DA:876,0
DA:877,0
DA:1084,0
DA:1085,0
end_of_record
SF:/usr/include/c++/9/bits/basic_string.h
DA:150,0
DA:159,0
DA:160,0
DA:178,0
DA:179,0
DA:182,0
DA:183,0
DA:186,0
DA:190,0
DA:193,0
DA:200,0
DA:203,0
DA:210,0
DA:211,0
DA:214,0
DA:216,0
DA:217,0
DA:221,0
DA:222,0
DA:229,0
DA:231,0
DA:232,0
DA:236,0
DA:237,0
DA:286,0
DA:287,0
DA:346,0
DA:348,0
DA:349,0
DA:351,0
DA:396,0
DA:398,0
DA:431,0
DA:433,0
DA:434,0
DA:657,0
DA:658,0
DA:704,0
DA:705,0
end_of_record
SF:/workspace/vtr-verilog-to-routing/libs/EXTERNAL/libargparse/src/argparse_value.hpp
DA:50,0
DA:74,0
DA:75,0
DA:76,0
DA:77,0
end_of_record
SF:/usr/include/stdlib.h
DA:361,0
DA:363,0
end_of_record
SF:/usr/include/c++/9/iostream
end_of_record
SF:/usr/include/c++/9/bits/char_traits.h
DA:299,0
DA:300,0
DA:329,0
DA:335,0
DA:361,0
DA:363,0
DA:365,0
end_of_record
SF:/workspace/vtr-verilog-to-routing/ODIN_II/SRC/PARSE_TOOL/read_xml_config_file.cpp
FN:53,_Z16read_config_filePc
FNDA:0,_Z16read_config_filePc
FN:100,_Z18read_verilog_filesN4pugi8xml_nodeEP10config_t_tRKN8pugiutil8loc_dataE
FNDA:0,_Z18read_verilog_filesN4pugi8xml_nodeEP10config_t_tRKN8pugiutil8loc_dataE
FN:122,_Z12read_outputsN4pugi8xml_nodeEP10config_t_tRKN8pugiutil8loc_dataE
FNDA:0,_Z12read_outputsN4pugi8xml_nodeEP10config_t_tRKN8pugiutil8loc_dataE
FN:159,_Z19read_debug_switchesN4pugi8xml_nodeEP10config_t_tRKN8pugiutil8loc_dataE
FNDA:0,_Z19read_debug_switchesN4pugi8xml_nodeEP10config_t_tRKN8pugiutil8loc_dataE
FN:199,_Z33set_default_optimization_settingsP10config_t_t
FNDA:0,_Z33set_default_optimization_settingsP10config_t_t
FN:217,_Z18read_optimizationsN4pugi8xml_nodeEP10config_t_tRKN8pugiutil8loc_dataE
FNDA:0,_Z18read_optimizationsN4pugi8xml_nodeEP10config_t_tRKN8pugiutil8loc_dataE
DA:53,0
DA:55,0
DA:58,0
DA:60,0
DA:61,0
DA:62,0
DA:63,0
DA:66,0
DA:69,0
DA:70,0
DA:73,0
DA:74,0
DA:77,0
DA:78,0
DA:79,0
DA:81,0
DA:85,0
DA:86,0
DA:87,0
DA:88,0
DA:89,0
DA:100,0
DA:102,0
DA:103,0
DA:105,0
DA:106,0
DA:108,0
DA:110,0
DA:111,0
DA:112,0
DA:114,0
DA:116,0
DA:122,0
DA:124,0
DA:126,0
DA:127,0
DA:129,0
DA:132,0
DA:133,0
DA:135,0
DA:138,0
DA:139,0
DA:141,0
DA:142,0
DA:145,0
DA:147,0
DA:148,0
DA:150,0
DA:153,0
DA:159,0
DA:161,0
DA:163,0
DA:164,0
DA:166,0
DA:169,0
DA:170,0
DA:172,0
DA:175,0
DA:176,0
DA:178,0
DA:181,0
DA:182,0
DA:184,0
DA:187,0
DA:188,0
DA:190,0
DA:193,0
DA:199,0
DA:201,0
DA:202,0
DA:203,0
DA:204,0
DA:205,0
DA:206,0
DA:207,0
DA:208,0
DA:209,0
DA:210,0
DA:211,0
DA:217,0
DA:219,0
DA:220,0
DA:222,0
DA:223,0
DA:225,0
DA:226,0
DA:228,0
DA:231,0
DA:233,0
DA:234,0
DA:236,0
DA:239,0
DA:241,0
DA:242,0
DA:244,0
DA:247,0
DA:249,0
DA:250,0
DA:252,0
DA:255,0
DA:258,0
DA:259,0
DA:261,0
DA:262,0
DA:264,0
DA:267,0
DA:269,0
DA:270,0
DA:272,0
DA:273,0
DA:274,0
DA:275,0
DA:277,0
DA:280,0
DA:284,0
DA:285,0
DA:287,0
DA:288,0
DA:290,0
DA:293,0
DA:295,0
DA:296,0
DA:298,0
DA:301,0
DA:303,0
DA:304,0
DA:306,0
DA:309,0
DA:311,0
DA:312,0
DA:314,0
DA:317,0
DA:319,0
DA:320,0
DA:322,0
DA:325,0
DA:328,0
end_of_record
SF:/usr/include/c++/9/bits/basic_string.tcc
FN:206,_ZNSt7__cxx1112basic_stringIcSt11char_traitsIcESaIcEE12_M_constructIPKcEEvT_S8_St20forward_iterator_tag
FNDA:0,_ZNSt7__cxx1112basic_stringIcSt11char_traitsIcESaIcEE12_M_constructIPKcEEvT_S8_St20forward_iterator_tag
DA:206,0
DA:211,0
DA:212,0
DA:215,0
DA:217,0
DA:219,0
DA:220,0
DA:225,0
DA:232,0
DA:233,0
end_of_record
SF:/usr/include/c++/9/bits/ptr_traits.h
DA:146,0
DA:147,0
end_of_record
SF:/usr/include/c++/9/bits/stl_construct.h
end_of_record
SF:/workspace/vtr-verilog-to-routing/ODIN_II/SRC/types.h
end_of_record
SF:/usr/include/c++/9/bits/move.h
DA:47,0
DA:99,0
DA:138,0
DA:139,0
end_of_record
SF:/usr/include/x86_64-linux-gnu/bits/stdio2.h
DA:105,0
DA:107,0
end_of_record
SF:/usr/include/c++/9/ext/new_allocator.h
DA:80,0
DA:83,0
DA:89,0
DA:119,0
DA:128,0
end_of_record
SF:/usr/include/c++/9/bits/stl_iterator_base_funcs.h
DA:98,0
DA:104,0
DA:138,0
DA:141,0
end_of_record
SF:/usr/include/c++/9/ext/type_traits.h
DA:152,0
end_of_record
SF:/workspace/vtr-verilog-to-routing/libs/libpugiutil/src/pugixml_loc.hpp
DA:16,0
end_of_record
TN:
SF:/usr/include/c++/9/bits/stl_map.h
FN:300,_ZNSt3mapINSt7__cxx1112basic_stringIcSt11char_traitsIcESaIcEEEP20soft_sub_structure_tSt4lessIS5_ESaISt4pairIKS5_S7_EEED2Ev
FNDA:0,_ZNSt3mapINSt7__cxx1112basic_stringIcSt11char_traitsIcESaIcEEEP20soft_sub_structure_tSt4lessIS5_ESaISt4pairIKS5_S7_EEED2Ev
FN:490,_ZNSt3mapINSt7__cxx1112basic_stringIcSt11char_traitsIcESaIcEEEP20soft_sub_structure_tSt4lessIS5_ESaISt4pairIKS5_S7_EEEixERSB_
FNDA:0,_ZNSt3mapINSt7__cxx1112basic_stringIcSt11char_traitsIcESaIcEEEP20soft_sub_structure_tSt4lessIS5_ESaISt4pairIKS5_S7_EEEixERSB_
FN:510,_ZNSt3mapINSt7__cxx1112basic_stringIcSt11char_traitsIcESaIcEEEP20soft_sub_structure_tSt4lessIS5_ESaISt4pairIKS5_S7_EEEixEOS5_
FNDA:0,_ZNSt3mapINSt7__cxx1112basic_stringIcSt11char_traitsIcESaIcEEEP20soft_sub_structure_tSt4lessIS5_ESaISt4pairIKS5_S7_EEEixEOS5_
DA:100,0
DA:183,0
DA:300,0
DA:372,0
DA:373,0
DA:490,0
DA:495,0
DA:497,0
DA:499,0
DA:505,0
DA:510,0
DA:515,0
DA:517,0
DA:518,0
DA:519,0
DA:521,0
DA:1141,0
DA:1142,0
DA:1168,0
DA:1169,0
DA:1257,0
DA:1258,0
end_of_record
SF:/usr/include/c++/9/bits/stl_vector.h
FN:675,_ZNSt6vectorINSt7__cxx1112basic_stringIcSt11char_traitsIcESaIcEEESaIS5_EED2Ev
FNDA:0,_ZNSt6vectorINSt7__cxx1112basic_stringIcSt11char_traitsIcESaIcEEESaIS5_EED2Ev
FN:1753,_ZNKSt6vectorINSt7__cxx1112basic_stringIcSt11char_traitsIcESaIcEEESaIS5_EE12_M_check_lenEmPKc
FNDA:0,_ZNKSt6vectorINSt7__cxx1112basic_stringIcSt11char_traitsIcESaIcEEESaIS5_EE12_M_check_lenEmPKc
DA:94,0
DA:95,0
DA:125,0
DA:128,0
DA:130,0
DA:273,0
DA:274,0
DA:277,0
DA:278,0
DA:285,0
DA:330,0
DA:332,0
DA:333,0
DA:334,0
DA:347,0
DA:350,0
DA:351,0
DA:453,0
DA:462,0
DA:466,0
DA:484,0
DA:675,0
DA:677,0
DA:678,0
DA:680,0
DA:808,0
DA:809,0
DA:826,0
DA:827,0
DA:915,0
DA:916,0
DA:920,0
DA:921,0
DA:1040,0
DA:1043,0
DA:1200,0
DA:1201,0
DA:1753,0
DA:1755,0
DA:1756,0
DA:1758,0
DA:1759,0
DA:1773,0
DA:1780,0
DA:1781,0
end_of_record
SF:/usr/include/c++/9/bits/allocator.h
DA:138,0
DA:141,0
DA:142,0
DA:153,0
end_of_record
SF:/usr/include/c++/9/bits/vector.tcc
FN:109,_ZNSt6vectorINSt7__cxx1112basic_stringIcSt11char_traitsIcESaIcEEESaIS5_EE12emplace_backIJS5_EEEvDpOT_
FNDA:0,_ZNSt6vectorINSt7__cxx1112basic_stringIcSt11char_traitsIcESaIcEEESaIS5_EE12emplace_backIJS5_EEEvDpOT_
FN:426,_ZNSt6vectorINSt7__cxx1112basic_stringIcSt11char_traitsIcESaIcEEESaIS5_EE17_M_realloc_insertIJS5_EEEvN9__gnu_cxx17__normal_iteratorIPS5_S7_EEDpOT_
FNDA:0,_ZNSt6vectorINSt7__cxx1112basic_stringIcSt11char_traitsIcESaIcEEESaIS5_EE17_M_realloc_insertIJS5_EEEvN9__gnu_cxx17__normal_iteratorIPS5_S7_EEDpOT_
DA:109,0
DA:112,0
DA:115,0
DA:117,0
DA:121,0
DA:125,0
DA:426,0
DA:435,0
DA:437,0
DA:438,0
DA:439,0
DA:440,0
DA:441,0
DA:449,0
DA:450,0
DA:456,0
DA:461,0
DA:462,0
DA:464,0
DA:466,0
DA:467,0
DA:500,0
DA:501,0
DA:502,0
DA:503,0
DA:504,0
DA:505,0
end_of_record
SF:/usr/include/c++/9/bits/char_traits.h
DA:299,0
DA:300,0
DA:361,0
DA:363,0
DA:365,0
end_of_record
SF:/usr/include/c++/9/bits/ptr_traits.h
DA:146,0
DA:147,0
end_of_record
SF:/usr/include/c++/9/bits/stl_pair.h
DA:311,0
DA:312,0
DA:325,0
DA:326,0
DA:341,0
DA:342,0
end_of_record
SF:/usr/include/c++/9/bits/basic_string.tcc
FN:206,_ZNSt7__cxx1112basic_stringIcSt11char_traitsIcESaIcEE12_M_constructIPcEEvT_S7_St20forward_iterator_tag
FNDA:0,_ZNSt7__cxx1112basic_stringIcSt11char_traitsIcESaIcEE12_M_constructIPcEEvT_S7_St20forward_iterator_tag
FN:206,_ZNSt7__cxx1112basic_stringIcSt11char_traitsIcESaIcEE12_M_constructIPKcEEvT_S8_St20forward_iterator_tag
FNDA:0,_ZNSt7__cxx1112basic_stringIcSt11char_traitsIcESaIcEE12_M_constructIPKcEEvT_S8_St20forward_iterator_tag
DA:206,0
DA:211,0
DA:212,0
DA:215,0
DA:217,0
DA:219,0
DA:220,0
DA:225,0
DA:232,0
DA:233,0
DA:206,0
DA:211,0
DA:212,0
DA:215,0
DA:217,0
DA:219,0
DA:220,0
DA:225,0
DA:232,0
DA:233,0
end_of_record
SF:/usr/include/x86_64-linux-gnu/bits/stdio2.h
DA:105,0
DA:107,0
DA:255,0
DA:257,0
DA:259,0
DA:262,0
DA:263,0
DA:265,0
end_of_record
SF:/usr/include/c++/9/bits/stl_algobase.h
DA:198,0
DA:222,0
DA:227,0
DA:228,0
end_of_record
SF:/workspace/vtr-verilog-to-routing/ODIN_II/SRC/PARSE_TOOL/soft_logic_def_parser.cpp
FN:61,_Z18read_soft_def_fileNSt7__cxx1112basic_stringIcSt11char_traitsIcESaIcEEE
FNDA:0,_Z18read_soft_def_fileNSt7__cxx1112basic_stringIcSt11char_traitsIcESaIcEEE
FN:162,_Z9fetch_blkNSt7__cxx1112basic_stringIcSt11char_traitsIcESaIcEEEi
FNDA:0,_Z9fetch_blkNSt7__cxx1112basic_stringIcSt11char_traitsIcESaIcEEEi
DA:61,0
DA:63,0
DA:64,0
DA:66,0
DA:68,0
DA:69,0
DA:70,0
DA:71,0
DA:73,0
DA:74,0
DA:75,0
DA:76,0
DA:77,0
DA:79,0
DA:80,0
DA:82,0
DA:83,0
DA:85,0
DA:92,0
DA:93,0
DA:94,0
DA:96,0
DA:97,0
DA:98,0
DA:100,0
DA:102,0
DA:111,0
DA:113,0
DA:115,0
DA:116,0
DA:117,0
DA:118,0
DA:119,0
DA:121,0
DA:123,0
DA:124,0
DA:125,0
DA:126,0
DA:127,0
DA:129,0
DA:130,0
DA:134,0
DA:135,0
DA:136,0
DA:137,0
DA:138,0
DA:140,0
DA:145,0
DA:146,0
DA:148,0
DA:151,0
DA:152,0
DA:155,0
DA:157,0
DA:162,0
DA:164,0
DA:166,0
DA:167,0
DA:170,0
end_of_record
SF:/usr/include/c++/9/bits/alloc_traits.h
DA:443,0
DA:444,0
DA:469,0
DA:470,0
DA:482,0
DA:484,0
DA:495,0
DA:497,0
DA:505,0
DA:506,0
DA:514,0
DA:515,0
end_of_record
SF:/usr/include/c++/9/ext/alloc_traits.h
DA:97,0
DA:98,0
end_of_record
SF:/usr/include/c++/9/ext/aligned_buffer.h
DA:64,0
DA:65,0
DA:68,0
DA:69,0
DA:72,0
DA:73,0
DA:76,0
DA:77,0
end_of_record
SF:/usr/include/c++/9/bits/basic_string.h
FN:6057,_ZStplIcSt11char_traitsIcESaIcEENSt7__cxx1112basic_stringIT_T0_T1_EERKS8_PKS5_
FNDA:0,_ZStplIcSt11char_traitsIcESaIcEENSt7__cxx1112basic_stringIT_T0_T1_EERKS8_PKS5_
FN:6085,_ZStplIcSt11char_traitsIcESaIcEENSt7__cxx1112basic_stringIT_T0_T1_EEOS8_RKS8_
FNDA:0,_ZStplIcSt11char_traitsIcESaIcEENSt7__cxx1112basic_stringIT_T0_T1_EEOS8_RKS8_
FN:6097,_ZStplIcSt11char_traitsIcESaIcEENSt7__cxx1112basic_stringIT_T0_T1_EEOS8_S9_
FNDA:0,_ZStplIcSt11char_traitsIcESaIcEENSt7__cxx1112basic_stringIT_T0_T1_EEOS8_S9_
DA:150,0
DA:156,0
DA:157,0
DA:159,0
DA:160,0
DA:178,0
DA:179,0
DA:182,0
DA:183,0
DA:186,0
DA:190,0
DA:193,0
DA:200,0
DA:203,0
DA:210,0
DA:211,0
DA:214,0
DA:216,0
DA:217,0
DA:221,0
DA:222,0
DA:229,0
DA:231,0
DA:232,0
DA:236,0
DA:237,0
DA:243,0
DA:247,0
DA:263,0
DA:266,0
DA:286,0
DA:287,0
DA:290,0
DA:291,0
DA:346,0
DA:348,0
DA:349,0
DA:351,0
DA:392,0
DA:393,0
DA:396,0
DA:398,0
DA:448,0
DA:450,0
DA:451,0
DA:552,0
DA:553,0
DA:555,0
DA:557,0
DA:562,0
DA:563,0
DA:569,0
DA:570,0
DA:571,0
DA:625,0
DA:627,0
DA:628,0
DA:657,0
DA:658,0
DA:930,0
DA:936,0
DA:993,0
DA:995,0
DA:1221,0
DA:1222,0
DA:1639,0
DA:1641,0
DA:2300,0
DA:2301,0
DA:6057,0
DA:6060,0
DA:6061,0
DA:6062,0
DA:6085,0
DA:6087,0
DA:6097,0
DA:6100,0
DA:6101,0
DA:6102,0
DA:6103,0
DA:6104,0
DA:6175,0
DA:6177,0
DA:6213,0
DA:6215,0
DA:6226,0
DA:6229,0
DA:6503,0
DA:6504,0
DA:6546,0
DA:6547,0
DA:6548,0
end_of_record
SF:/usr/include/c++/9/iostream
end_of_record
SF:/usr/include/c++/9/bits/stl_function.h
DA:385,0
DA:386,0
DA:1155,0
DA:1156,0
end_of_record
SF:/usr/include/c++/9/bits/stl_construct.h
DA:97,0
DA:98,0
DA:107,0
DA:108,0
DA:137,0
DA:203,0
DA:206,0
end_of_record
SF:/usr/include/c++/9/ext/string_conversions.h
FN:54,_ZN9__gnu_cxx6__stoaIlicJiEEET0_PFT_PKT1_PPS3_DpT2_EPKcS5_PmS9_
FNDA:0,_ZN9__gnu_cxx6__stoaIlicJiEEET0_PFT_PKT1_PPS3_DpT2_EPKcS5_PmS9_
FN:99,_ZN9__gnu_cxx12__to_xstringINSt7__cxx1112basic_stringIcSt11char_traitsIcESaIcEEEcEET_PFiPT0_mPKS8_P13__va_list_tagEmSB_z
FNDA:0,_ZN9__gnu_cxx12__to_xstringINSt7__cxx1112basic_stringIcSt11char_traitsIcESaIcEEEcEET_PFiPT0_mPKS8_P13__va_list_tagEmSB_z
DA:54,0
DA:63,0
DA:64,0
DA:66,0
DA:73,0
DA:76,0
DA:80,0
DA:82,0
DA:83,0
DA:84,0
DA:85,0
DA:86,0
DA:88,0
DA:90,0
DA:91,0
DA:93,0
DA:99,0
DA:105,0
DA:109,0
DA:111,0
DA:113,0
DA:115,0
end_of_record
SF:/usr/include/c++/9/bits/stl_iterator.h
DA:806,0
DA:871,0
DA:989,0
DA:992,0
end_of_record
SF:/usr/include/c++/9/bits/move.h
DA:47,0
DA:74,0
DA:99,0
DA:138,0
DA:139,0
end_of_record
SF:/usr/include/c++/9/bits/stl_iterator_base_funcs.h
DA:98,0
DA:104,0
DA:138,0
DA:141,0
end_of_record
SF:/usr/include/c++/9/bits/stl_uninitialized.h
DA:905,0
DA:912,0
DA:913,0
DA:949,0
DA:950,0
DA:964,0
end_of_record
SF:/usr/include/c++/9/new
DA:173,0
DA:174,0
end_of_record
SF:/usr/include/c++/9/bits/stl_tree.h
FN:609,_ZNSt8_Rb_treeINSt7__cxx1112basic_stringIcSt11char_traitsIcESaIcEEESt4pairIKS5_P20soft_sub_structure_tESt10_Select1stISA_ESt4lessIS5_ESaISA_EE17_M_construct_nodeIJRKSt21piecewise_construct_tSt5tupleIJRS7_EESL_IJEEEEEvPSt13_Rb_tree_nodeISA_EDpOT_
FNDA:0,_ZNSt8_Rb_treeINSt7__cxx1112basic_stringIcSt11char_traitsIcESaIcEEESt4pairIKS5_P20soft_sub_structure_tESt10_Select1stISA_ESt4lessIS5_ESaISA_EE17_M_construct_nodeIJRKSt21piecewise_construct_tSt5tupleIJRS7_EESL_IJEEEEEvPSt13_Rb_tree_nodeISA_EDpOT_
FN:1281,_ZNSt8_Rb_treeINSt7__cxx1112basic_stringIcSt11char_traitsIcESaIcEEESt4pairIKS5_P20soft_sub_structure_tESt10_Select1stISA_ESt4lessIS5_ESaISA_EE11lower_boundERS7_
FNDA:0,_ZNSt8_Rb_treeINSt7__cxx1112basic_stringIcSt11char_traitsIcESaIcEEESt4pairIKS5_P20soft_sub_structure_tESt10_Select1stISA_ESt4lessIS5_ESaISA_EE11lower_boundERS7_
FN:1907,_ZNSt8_Rb_treeINSt7__cxx1112basic_stringIcSt11char_traitsIcESaIcEEESt4pairIKS5_P20soft_sub_structure_tESt10_Select1stISA_ESt4lessIS5_ESaISA_EE8_M_eraseEPSt13_Rb_tree_nodeISA_E
FNDA:0,_ZNSt8_Rb_treeINSt7__cxx1112basic_stringIcSt11char_traitsIcESaIcEEESt4pairIKS5_P20soft_sub_structure_tESt10_Select1stISA_ESt4lessIS5_ESaISA_EE8_M_eraseEPSt13_Rb_tree_nodeISA_E
FN:2085,_ZNSt8_Rb_treeINSt7__cxx1112basic_stringIcSt11char_traitsIcESaIcEEESt4pairIKS5_P20soft_sub_structure_tESt10_Select1stISA_ESt4lessIS5_ESaISA_EE24_M_get_insert_unique_posERS7_
FNDA:0,_ZNSt8_Rb_treeINSt7__cxx1112basic_stringIcSt11char_traitsIcESaIcEEESt4pairIKS5_P20soft_sub_structure_tESt10_Select1stISA_ESt4lessIS5_ESaISA_EE24_M_get_insert_unique_posERS7_
FN:2187,_ZNSt8_Rb_treeINSt7__cxx1112basic_stringIcSt11char_traitsIcESaIcEEESt4pairIKS5_P20soft_sub_structure_tESt10_Select1stISA_ESt4lessIS5_ESaISA_EE29_M_get_insert_hint_unique_posESt23_Rb_tree_const_iteratorISA_ERS7_
FNDA:0,_ZNSt8_Rb_treeINSt7__cxx1112basic_stringIcSt11char_traitsIcESaIcEEESt4pairIKS5_P20soft_sub_structure_tESt10_Select1stISA_ESt4lessIS5_ESaISA_EE29_M_get_insert_hint_unique_posESt23_Rb_tree_const_iteratorISA_ERS7_
FN:2354,_ZNSt8_Rb_treeINSt7__cxx1112basic_stringIcSt11char_traitsIcESaIcEEESt4pairIKS5_P20soft_sub_structure_tESt10_Select1stISA_ESt4lessIS5_ESaISA_EE14_M_insert_nodeEPSt18_Rb_tree_node_baseSI_PSt13_Rb_tree_nodeISA_E
FNDA:0,_ZNSt8_Rb_treeINSt7__cxx1112basic_stringIcSt11char_traitsIcESaIcEEESt4pairIKS5_P20soft_sub_structure_tESt10_Select1stISA_ESt4lessIS5_ESaISA_EE14_M_insert_nodeEPSt18_Rb_tree_node_baseSI_PSt13_Rb_tree_nodeISA_E
FN:2452,_ZNSt8_Rb_treeINSt7__cxx1112basic_stringIcSt11char_traitsIcESaIcEEESt4pairIKS5_P20soft_sub_structure_tESt10_Select1stISA_ESt4lessIS5_ESaISA_EE22_M_emplace_hint_uniqueIJRKSt21piecewise_construct_tSt5tupleIJRS7_EESL_IJEEEEESt17_Rb_tree_iteratorISA_ESt23_Rb_tree_const_iteratorISA_EDpOT_
FNDA:0,_ZNSt8_Rb_treeINSt7__cxx1112basic_stringIcSt11char_traitsIcESaIcEEESt4pairIKS5_P20soft_sub_structure_tESt10_Select1stISA_ESt4lessIS5_ESaISA_EE22_M_emplace_hint_uniqueIJRKSt21piecewise_construct_tSt5tupleIJRS7_EESL_IJEEEEESt17_Rb_tree_iteratorISA_ESt23_Rb_tree_const_iteratorISA_EDpOT_
FN:2554,_ZNSt8_Rb_treeINSt7__cxx1112basic_stringIcSt11char_traitsIcESaIcEEESt4pairIKS5_P20soft_sub_structure_tESt10_Select1stISA_ESt4lessIS5_ESaISA_EE4findERS7_
FNDA:0,_ZNSt8_Rb_treeINSt7__cxx1112basic_stringIcSt11char_traitsIcESaIcEEESt4pairIKS5_P20soft_sub_structure_tESt10_Select1stISA_ESt4lessIS5_ESaISA_EE4findERS7_
DA:146,0
DA:173,0
DA:174,0
DA:175,0
DA:176,0
DA:206,0
DA:208,0
DA:209,0
DA:210,0
DA:211,0
DA:234,0
DA:235,0
DA:238,0
DA:239,0
DA:273,0
DA:274,0
DA:277,0
DA:278,0
DA:285,0
DA:287,0
DA:300,0
DA:302,0
DA:303,0
DA:315,0
DA:348,0
DA:349,0
DA:352,0
DA:353,0
DA:566,0
DA:567,0
DA:579,0
DA:580,0
DA:583,0
DA:584,0
DA:609,0
DA:613,0
DA:614,0
DA:618,0
DA:620,0
DA:621,0
DA:622,0
DA:624,0
DA:628,0
DA:630,0
DA:631,0
DA:673,0
DA:680,0
DA:684,0
DA:728,0
DA:729,0
DA:736,0
DA:737,0
DA:744,0
DA:755,0
DA:756,0
DA:767,0
DA:785,0
DA:789,0
DA:797,0
DA:809,0
DA:810,0
DA:939,0
DA:994,0
DA:995,0
DA:1002,0
DA:1006,0
DA:1007,0
DA:1014,0
DA:1015,0
DA:1042,0
DA:1281,0
DA:1282,0
DA:1717,0
DA:1722,0
DA:1723,0
DA:1907,0
DA:1911,0
DA:1913,0
DA:1914,0
DA:1915,0
DA:1916,0
DA:1918,0
DA:1924,0
DA:1928,0
DA:1929,0
DA:1930,0
DA:1932,0
DA:1933,0
DA:2085,0
DA:2089,0
DA:2090,0
DA:2091,0
DA:2092,0
DA:2094,0
DA:2095,0
DA:2096,0
DA:2098,0
DA:2099,0
DA:2101,0
DA:2102,0
DA:2104,0
DA:2106,0
DA:2107,0
DA:2108,0
DA:2187,0
DA:2191,0
DA:2195,0
DA:2197,0
DA:2198,0
DA:2199,0
DA:2201,0
DA:2203,0
DA:2206,0
DA:2207,0
DA:2208,0
DA:2209,0
DA:2211,0
DA:2212,0
DA:2214,0
DA:2217,0
DA:2219,0
DA:2222,0
DA:2223,0
DA:2224,0
DA:2225,0
DA:2227,0
DA:2228,0
DA:2230,0
DA:2233,0
DA:2237,0
DA:2354,0
DA:2357,0
DA:2358,0
DA:2361,0
DA:2362,0
DA:2363,0
DA:2364,0
DA:2452,0
DA:2455,0
DA:2459,0
DA:2461,0
DA:2462,0
DA:2464,0
DA:2465,0
DA:2554,0
DA:2557,0
DA:2558,0
DA:2559,0
DA:2560,0
end_of_record
SF:/usr/include/c++/9/ext/new_allocator.h
DA:80,0
DA:83,0
DA:89,0
DA:102,0
DA:104,0
DA:114,0
DA:119,0
DA:128,0
DA:132,0
DA:144,0
DA:147,0
DA:151,0
DA:153,0
end_of_record
SF:/usr/include/c++/9/tuple
DA:125,0
DA:126,0
DA:132,0
DA:133,0
DA:160,0
DA:334,0
DA:343,0
DA:344,0
DA:348,0
DA:349,0
DA:358,0
DA:360,0
DA:588,0
DA:589,0
DA:626,0
DA:627,0
DA:642,0
DA:1309,0
DA:1310,0
DA:1320,0
DA:1321,0
DA:1482,0
DA:1483,0
DA:1658,0
DA:1663,0
DA:1670,0
DA:1673,0
DA:1674,0
end_of_record
SF:/usr/include/c++/9/ext/type_traits.h
DA:152,0
end_of_record
TN:
SF:/usr/include/ctype.h
DA:182,0
end_of_record
SF:/workspace/vtr-verilog-to-routing/ODIN_II/SRC/PARSE_TOOL/verilog_preprocessor.cpp
FN:24,_Z17init_veri_preprocv
FNDA:0,_Z17init_veri_preprocv
FN:49,_Z20cleanup_veri_preprocv
FNDA:0,_Z20cleanup_veri_preprocv
FN:83,_Z17clean_veri_defineP11veri_define
FNDA:0,_Z17clean_veri_defineP11veri_define
FN:103,_Z18clean_veri_includeP12veri_include
FNDA:0,_Z18clean_veri_includeP12veri_include
FN:120,_Z15add_veri_definePcS_iP12veri_include
FNDA:0,_Z15add_veri_definePcS_iP12veri_include
FN:189,_Z16add_veri_includePciP12veri_include
FNDA:0,_Z16add_veri_includePciP12veri_include
FN:233,_Z19ret_veri_definedvalPc
FNDA:0,_Z19ret_veri_definedvalPc
FN:247,_Z15veri_is_definedPc
FNDA:0,_Z15veri_is_definedPc
FN:269,_Z16open_source_filePc
FNDA:0,_Z16open_source_filePc
FN:320,_Z12veri_preprocP8_IO_FILE
FNDA:0,_Z12veri_preprocP8_IO_FILE
FN:358,_Z15remove_commentsP8_IO_FILE
FNDA:0,_Z15remove_commentsP8_IO_FILE
FN:406,_Z24veri_preproc_bootstrapedP8_IO_FILES0_P12veri_include
FNDA:0,_Z24veri_preproc_bootstrapedP8_IO_FILES0_P12veri_include
FN:636,_Z4trimPc
FNDA:0,_Z4trimPc
FN:663,_Z3topP15veri_flag_stack
FNDA:0,_Z3topP15veri_flag_stack
FN:673,_Z3popP15veri_flag_stack
FNDA:0,_Z3popP15veri_flag_stack
FN:687,_Z4pushP15veri_flag_stacki
FNDA:0,_Z4pushP15veri_flag_stacki
FN:698,_Z19format_verilog_fileP8_IO_FILE
FNDA:0,_Z19format_verilog_fileP8_IO_FILE
FN:768,_Z23format_verilog_variableP8_IO_FILES0_
FNDA:0,_Z23format_verilog_variableP8_IO_FILES0_
DA:24,0
DA:26,0
DA:27,0
DA:29,0
DA:30,0
DA:32,0
DA:33,0
DA:35,0
DA:36,0
DA:38,0
DA:39,0
DA:41,0
DA:42,0
DA:43,0
DA:49,0
DA:53,0
DA:54,0
DA:55,0
DA:57,0
DA:59,0
DA:61,0
DA:62,0
DA:63,0
DA:64,0
DA:66,0
DA:68,0
DA:70,0
DA:71,0
DA:72,0
DA:73,0
DA:77,0
DA:83,0
DA:85,0
DA:88,0
DA:90,0
DA:92,0
DA:94,0
DA:95,0
DA:98,0
DA:103,0
DA:105,0
DA:108,0
DA:110,0
DA:111,0
DA:114,0
DA:120,0
DA:122,0
DA:123,0
DA:124,0
DA:125,0
DA:127,0
DA:128,0
DA:132,0
DA:134,0
DA:136,0
DA:140,0
DA:142,0
DA:144,0
DA:145,0
DA:147,0
DA:150,0
DA:151,0
DA:152,0
DA:160,0
DA:162,0
DA:164,0
DA:165,0
DA:168,0
DA:169,0
DA:174,0
DA:175,0
DA:176,0
DA:177,0
DA:179,0
DA:180,0
DA:182,0
DA:189,0
DA:191,0
DA:192,0
DA:193,0
DA:194,0
DA:196,0
DA:197,0
DA:201,0
DA:203,0
DA:205,0
DA:209,0
DA:211,0
DA:213,0
DA:219,0
DA:220,0
DA:221,0
DA:223,0
DA:224,0
DA:226,0
DA:233,0
DA:235,0
DA:236,0
DA:238,0
DA:247,0
DA:249,0
DA:250,0
DA:252,0
DA:254,0
DA:255,0
DA:257,0
DA:269,0
DA:271,0
DA:272,0
DA:273,0
DA:275,0
DA:276,0
DA:281,0
DA:282,0
DA:284,0
DA:286,0
DA:288,0
DA:292,0
DA:293,0
DA:296,0
DA:297,0
DA:299,0
DA:300,0
DA:302,0
DA:303,0
DA:305,0
DA:306,0
DA:308,0
DA:310,0
DA:311,0
DA:320,0
DA:322,0
DA:323,0
DA:324,0
DA:325,0
DA:328,0
DA:329,0
DA:330,0
DA:332,0
DA:333,0
DA:336,0
DA:337,0
DA:339,0
DA:341,0
DA:342,0
DA:347,0
DA:349,0
DA:350,0
DA:351,0
DA:358,0
DA:360,0
DA:361,0
DA:362,0
DA:366,0
DA:369,0
DA:371,0
DA:374,0
DA:379,0
DA:386,0
DA:387,0
DA:393,0
DA:395,0
DA:396,0
DA:400,0
DA:402,0
DA:403,0
DA:406,0
DA:409,0
DA:411,0
DA:413,0
DA:414,0
DA:417,0
DA:419,0
DA:422,0
DA:423,0
DA:424,0
DA:425,0
DA:427,0
DA:429,0
DA:430,0
DA:432,0
DA:433,0
DA:434,0
DA:436,0
DA:437,0
DA:438,0
DA:439,0
DA:441,0
DA:443,0
DA:444,0
DA:445,0
DA:446,0
DA:447,0
DA:448,0
DA:452,0
DA:453,0
DA:454,0
DA:456,0
DA:457,0
DA:459,0
DA:460,0
DA:461,0
DA:462,0
DA:464,0
DA:469,0
DA:471,0
DA:476,0
DA:478,0
DA:480,0
DA:482,0
DA:484,0
DA:487,0
DA:489,0
DA:491,0
DA:494,0
DA:496,0
DA:498,0
DA:500,0
DA:505,0
DA:507,0
DA:510,0
DA:513,0
DA:517,0
DA:520,0
DA:522,0
DA:524,0
DA:529,0
DA:531,0
DA:533,0
DA:535,0
DA:537,0
DA:539,0
DA:541,0
DA:542,0
DA:543,0
DA:546,0
DA:549,0
DA:550,0
DA:552,0
DA:553,0
DA:554,0
DA:556,0
DA:560,0
DA:565,0
DA:568,0
DA:571,0
DA:572,0
DA:574,0
DA:575,0
DA:576,0
DA:578,0
DA:582,0
DA:587,0
DA:590,0
DA:593,0
DA:596,0
DA:597,0
DA:600,0
DA:602,0
DA:603,0
DA:610,0
DA:612,0
DA:615,0
DA:617,0
DA:620,0
DA:622,0
DA:627,0
DA:628,0
DA:630,0
DA:631,0
DA:632,0
DA:636,0
DA:638,0
DA:639,0
DA:642,0
DA:644,0
DA:646,0
DA:648,0
DA:654,0
DA:663,0
DA:665,0
DA:667,0
DA:673,0
DA:675,0
DA:677,0
DA:678,0
DA:680,0
DA:681,0
DA:683,0
DA:687,0
DA:689,0
DA:691,0
DA:692,0
DA:693,0
DA:695,0
DA:697,0
DA:698,0
DA:700,0
DA:701,0
DA:702,0
DA:703,0
DA:704,0
DA:705,0
DA:706,0
DA:707,0
DA:708,0
DA:709,0
DA:710,0
DA:711,0
DA:712,0
DA:714,0
DA:715,0
DA:717,0
DA:719,0
DA:721,0
DA:722,0
DA:727,0
DA:728,0
DA:729,0
DA:730,0
DA:732,0
DA:734,0
DA:735,0
DA:737,0
DA:739,0
DA:742,0
DA:744,0
DA:747,0
DA:749,0
DA:750,0
DA:752,0
DA:753,0
DA:754,0
DA:758,0
DA:760,0
DA:761,0
DA:762,0
DA:763,0
DA:764,0
DA:765,0
DA:768,0
DA:770,0
DA:771,0
DA:772,0
DA:773,0
DA:774,0
DA:775,0
DA:777,0
DA:780,0
DA:782,0
DA:784,0
DA:785,0
DA:786,0
DA:787,0
DA:789,0
DA:790,0
DA:791,0
DA:792,0
DA:796,0
DA:801,0
DA:803,0
DA:804,0
DA:805,0
DA:806,0
DA:808,0
DA:809,0
DA:810,0
DA:811,0
DA:815,0
DA:819,0
DA:821,0
DA:823,0
end_of_record
SF:/usr/include/x86_64-linux-gnu/bits/stdio2.h
DA:98,0
DA:100,0
DA:101,0
DA:105,0
DA:107,0
DA:255,0
DA:257,0
DA:259,0
DA:262,0
DA:265,0
end_of_record
SF:/usr/include/c++/9/iostream
end_of_record
SF:/workspace/vtr-verilog-to-routing/libs/EXTERNAL/libargparse/src/argparse_value.hpp
DA:50,0
end_of_record
SF:/usr/include/x86_64-linux-gnu/bits/string_fortified.h
DA:88,0
DA:90,0
DA:103,0
DA:106,0
DA:126,0
DA:128,0
end_of_record
SF:/usr/include/string.h
DA:213,0
DA:215,0
DA:240,0
DA:242,0
DA:317,0
DA:319,0
end_of_record
TN:
SF:/workspace/vtr-verilog-to-routing/ODIN_II/SRC/SIM_TOOLS/ace.cpp
FN:105,_Z26alloc_and_init_ace_structsP11netlist_t_t
FNDA:0,_Z26alloc_and_init_ace_structsP11netlist_t_t
FN:167,_Z30alloc_and_init_ace_info_objectv
FNDA:0,_Z30alloc_and_init_ace_info_objectv
FN:188,_Z15calc_node_depthP9nnode_t_t
FNDA:0,_Z15calc_node_depthP9nnode_t_t
FN:207,_Z18calculate_activityP11netlist_t_tiP8_IO_FILE
FNDA:0,_Z18calculate_activityP11netlist_t_tiP8_IO_FILE
FN:286,_Z28compute_switching_activitiesP11netlist_t_t
FNDA:0,_Z28compute_switching_activitiesP11netlist_t_t
FN:348,_Z16prob_epsilon_fixPd
FNDA:0,_Z16prob_epsilon_fixPd
FN:364,_Z15output_ace_infoP11netlist_t_tP8_IO_FILE
FNDA:0,_Z15output_ace_infoP11netlist_t_tP8_IO_FILE
FN:398,_Z20output_ace_info_nodePcP16ace_obj_info_t_tP8_IO_FILE
FNDA:0,_Z20output_ace_info_nodePcP16ace_obj_info_t_tP8_IO_FILE
FN:428,_Z9set_clearPji
FNDA:0,_Z9set_clearPji
FN:440,_Z10node_errori
FNDA:0,_Z10node_errori
FN:468,_Z12ace_cube_dupP10ace_cube_t
FNDA:0,_Z12ace_cube_dupP10ace_cube_t
FN:502,_Z15ace_cube_new_dci
FNDA:0,_Z15ace_cube_new_dci
FN:528,_Z18build_bdd_for_nodeP9DdManagerP9nnode_t_t
FNDA:0,_Z18build_bdd_for_nodeP9DdManagerP9nnode_t_t
FN:564,_Z19ace_bdd_count_pathsP9DdManagerP6DdNodePiS3_
FNDA:0,_Z19ace_bdd_count_pathsP9DdManagerP6DdNodePiS3_
FN:588,_Z27calc_cube_switch_prob_recurP9DdManagerP6DdNodeP10ace_cube_tP9nnode_t_tP9st__tablei
FNDA:0,_Z27calc_cube_switch_prob_recurP9DdManagerP6DdNodeP10ace_cube_tP9nnode_t_tP9st__tablei
FN:654,_Z21calc_cube_switch_probP9DdManagerP6DdNodeP10ace_cube_tP9nnode_t_ti
FNDA:0,_Z21calc_cube_switch_probP9DdManagerP6DdNodeP10ace_cube_tP9nnode_t_ti
FN:672,_Z22calc_switch_prob_recurP9DdManagerP6DdNodeS2_P10ace_cube_tP9nnode_t_tdi
FNDA:0,_Z22calc_switch_prob_recurP9DdManagerP6DdNodeS2_P10ace_cube_tP9nnode_t_tdi
DA:105,0
DA:107,0
DA:122,0
DA:125,0
DA:128,0
DA:131,0
DA:132,0
DA:133,0
DA:138,0
DA:139,0
DA:140,0
DA:145,0
DA:146,0
DA:147,0
DA:152,0
DA:153,0
DA:154,0
DA:158,0
DA:167,0
DA:169,0
DA:171,0
DA:173,0
DA:174,0
DA:175,0
DA:176,0
DA:178,0
DA:188,0
DA:190,0
DA:191,0
DA:193,0
DA:194,0
DA:195,0
DA:197,0
DA:207,0
DA:209,0
DA:210,0
DA:218,0
DA:219,0
DA:222,0
DA:225,0
DA:228,0
DA:229,0
DA:233,0
DA:236,0
DA:240,0
DA:241,0
DA:244,0
DA:247,0
DA:250,0
DA:253,0
DA:257,0
DA:258,0
DA:259,0
DA:262,0
DA:265,0
DA:268,0
DA:273,0
DA:276,0
DA:277,0
DA:286,0
DA:288,0
DA:289,0
DA:290,0
DA:291,0
DA:292,0
DA:293,0
DA:294,0
DA:297,0
DA:300,0
DA:302,0
DA:303,0
DA:305,0
DA:306,0
DA:307,0
DA:312,0
DA:313,0
DA:314,0
DA:315,0
DA:316,0
DA:319,0
DA:320,0
DA:322,0
DA:323,0
DA:325,0
DA:326,0
DA:329,0
DA:330,0
DA:334,0
DA:338,0
DA:339,0
DA:348,0
DA:350,0
DA:351,0
DA:352,0
DA:353,0
DA:355,0
DA:364,0
DA:365,0
DA:368,0
DA:369,0
DA:370,0
DA:375,0
DA:376,0
DA:377,0
DA:382,0
DA:383,0
DA:384,0
DA:385,0
DA:389,0
DA:398,0
DA:411,0
DA:417,0
DA:428,0
DA:430,0
DA:431,0
DA:432,0
DA:440,0
DA:441,0
DA:442,0
DA:443,0
DA:445,0
DA:446,0
DA:448,0
DA:449,0
DA:451,0
DA:452,0
DA:454,0
DA:455,0
DA:457,0
DA:458,0
DA:468,0
DA:469,0
DA:470,0
DA:472,0
DA:473,0
DA:474,0
DA:475,0
DA:476,0
DA:477,0
DA:478,0
DA:479,0
DA:480,0
DA:481,0
DA:482,0
DA:483,0
DA:484,0
DA:485,0
DA:486,0
DA:487,0
DA:488,0
DA:489,0
DA:490,0
DA:491,0
DA:494,0
DA:502,0
DA:503,0
DA:504,0
DA:506,0
DA:507,0
DA:508,0
DA:509,0
DA:511,0
DA:512,0
DA:513,0
DA:516,0
DA:528,0
DA:530,0
DA:531,0
DA:533,0
DA:534,0
DA:537,0
DA:538,0
DA:539,0
DA:540,0
DA:541,0
DA:542,0
DA:543,0
DA:544,0
DA:546,0
DA:547,0
DA:548,0
DA:550,0
DA:551,0
DA:552,0
DA:553,0
DA:555,0
DA:556,0
DA:564,0
DA:565,0
DA:566,0
DA:568,0
DA:569,0
DA:570,0
DA:571,0
DA:572,0
DA:573,0
DA:576,0
DA:577,0
DA:579,0
DA:580,0
DA:588,0
DA:589,0
DA:590,0
DA:591,0
DA:592,0
DA:593,0
DA:595,0
DA:596,0
DA:598,0
DA:600,0
DA:601,0
DA:603,0
DA:607,0
DA:608,0
DA:611,0
DA:613,0
DA:615,0
DA:616,0
DA:617,0
DA:619,0
DA:620,0
DA:623,0
DA:625,0
DA:626,0
DA:628,0
DA:629,0
DA:630,0
DA:631,0
DA:632,0
DA:633,0
DA:634,0
DA:635,0
DA:636,0
DA:637,0
DA:638,0
DA:639,0
DA:640,0
DA:641,0
DA:642,0
DA:644,0
DA:646,0
DA:654,0
DA:655,0
DA:656,0
DA:658,0
DA:660,0
DA:662,0
DA:664,0
DA:672,0
DA:674,0
DA:675,0
DA:676,0
DA:677,0
DA:678,0
DA:679,0
DA:681,0
DA:682,0
DA:685,0
DA:686,0
DA:687,0
DA:690,0
DA:691,0
DA:694,0
DA:695,0
DA:696,0
DA:700,0
DA:702,0
DA:704,0
DA:705,0
DA:706,0
DA:708,0
DA:709,0
DA:713,0
DA:714,0
DA:715,0
DA:716,0
DA:717,0
DA:718,0
DA:719,0
DA:721,0
DA:722,0
DA:723,0
DA:724,0
DA:725,0
DA:726,0
DA:727,0
DA:729,0
end_of_record
SF:/usr/include/x86_64-linux-gnu/bits/stdio2.h
DA:98,0
DA:100,0
end_of_record
SF:/usr/include/c++/9/iostream
end_of_record
TN:
SF:/usr/include/c++/9/iostream
end_of_record
SF:/workspace/vtr-verilog-to-routing/ODIN_II/SRC/SIM_TOOLS/queue.cpp
FN:36,_Z12create_queuev
FNDA:0,_Z12create_queuev
FN:53,_Z16___queue_destroyP9queue_t_t
FNDA:0,_Z16___queue_destroyP9queue_t_t
FN:59,_Z12___queue_addP9queue_t_tPv
FNDA:0,_Z12___queue_addP9queue_t_tPv
FN:77,_Z15___queue_removeP9queue_t_t
FNDA:0,_Z15___queue_removeP9queue_t_t
FN:97,_Z19___queue_remove_allP9queue_t_t
FNDA:0,_Z19___queue_remove_allP9queue_t_t
FN:111,_Z17___queue_is_emptyP9queue_t_t
FNDA:0,_Z17___queue_is_emptyP9queue_t_t
DA:36,0
DA:38,0
DA:40,0
DA:41,0
DA:42,0
DA:44,0
DA:45,0
DA:46,0
DA:47,0
DA:48,0
DA:50,0
DA:53,0
DA:55,0
DA:56,0
DA:57,0
DA:59,0
DA:61,0
DA:63,0
DA:64,0
DA:66,0
DA:67,0
DA:69,0
DA:71,0
DA:72,0
DA:74,0
DA:75,0
DA:77,0
DA:79,0
DA:80,0
DA:82,0
DA:83,0
DA:84,0
DA:85,0
DA:86,0
DA:88,0
DA:90,0
DA:91,0
DA:94,0
DA:97,0
DA:99,0
DA:100,0
DA:102,0
DA:103,0
DA:104,0
DA:105,0
DA:106,0
DA:108,0
DA:111,0
DA:113,0
end_of_record
TN:
SF:/usr/include/c++/9/bits/ios_base.h
FN:1023,_ZSt3decRSt8ios_base
FNDA:0,_ZSt3decRSt8ios_base
FN:1031,_ZSt3hexRSt8ios_base
FNDA:0,_ZSt3hexRSt8ios_base
DA:83,0
DA:84,0
DA:87,0
DA:88,0
DA:95,0
DA:96,0
DA:99,0
DA:100,0
DA:103,0
DA:104,0
DA:670,0
DA:672,0
DA:673,0
DA:674,0
DA:675,0
DA:1023,0
DA:1025,0
DA:1026,0
DA:1031,0
DA:1033,0
DA:1034,0
end_of_record
SF:/usr/include/c++/9/iostream
end_of_record
SF:/usr/include/c++/9/bits/basic_string.h
DA:150,0
DA:159,0
DA:160,0
DA:182,0
DA:183,0
DA:186,0
DA:190,0
DA:193,0
DA:200,0
DA:203,0
DA:214,0
DA:216,0
DA:217,0
DA:221,0
DA:222,0
DA:229,0
DA:231,0
DA:232,0
DA:236,0
DA:237,0
DA:286,0
DA:287,0
DA:431,0
DA:433,0
DA:434,0
DA:657,0
DA:658,0
DA:2300,0
DA:2301,0
end_of_record
SF:/workspace/vtr-verilog-to-routing/libs/EXTERNAL/libargparse/src/argparse_value.hpp
DA:50,0
end_of_record
SF:/usr/include/c++/9/sstream
DA:831,0
DA:832,0
DA:841,0
DA:842,0
end_of_record
SF:/usr/include/c++/9/ostream
DA:108,0
DA:113,0
DA:127,0
DA:132,0
DA:565,0
DA:568,0
DA:570,0
DA:571,0
end_of_record
SF:/usr/include/c++/9/bits/alloc_traits.h
DA:469,0
DA:470,0
end_of_record
SF:/usr/include/x86_64-linux-gnu/bits/string_fortified.h
DA:88,0
DA:90,0
DA:126,0
DA:128,0
end_of_record
SF:/usr/include/c++/9/ext/new_allocator.h
DA:80,0
DA:83,0
DA:89,0
DA:119,0
DA:128,0
end_of_record
SF:/usr/include/c++/9/bits/move.h
DA:47,0
DA:99,0
DA:138,0
DA:139,0
end_of_record
SF:/workspace/vtr-verilog-to-routing/ODIN_II/SRC/SIM_TOOLS/simulate_blif.cpp
FN:42,_Z16simulate_netlistP11netlist_t_t
FNDA:0,_Z16simulate_netlistP11netlist_t_t
FN:283,_Z14simulate_cycleiP8stages_t
FNDA:0,_Z14simulate_cycleiP8stages_t
FN:369,_Z20simulate_first_cycleP11netlist_t_tiP9pin_namesP7lines_t
FNDA:0,_Z20simulate_first_cycleP11netlist_t_tiP9pin_namesP7lines_t
FN:428,_Z19stage_ordered_nodesPP9nnode_t_ti
FNDA:0,_Z19stage_ordered_nodesPP9nnode_t_ti
FN:514,_Z23compute_and_store_valueP9nnode_t_ti
FNDA:0,_Z23compute_and_store_valueP9nnode_t_ti
FN:850,_Z26update_undriven_input_pinsP9nnode_t_ti
FNDA:0,_Z26update_undriven_input_pinsP9nnode_t_ti
FN:893,_Z24flag_undriven_input_pinsP9nnode_t_t
FNDA:0,_Z24flag_undriven_input_pinsP9nnode_t_t
FN:924,_Z21get_num_covered_nodesP8stages_t
FNDA:0,_Z21get_num_covered_nodesP8stages_t
FN:959,_Z21enqueue_node_if_readyP9queue_t_tP9nnode_t_ti
FNDA:0,_Z21enqueue_node_if_readyP9queue_t_tP9nnode_t_ti
FN:976,_Z16is_node_completeP9nnode_t_ti
FNDA:0,_Z16is_node_completeP9nnode_t_ti
FN:989,_Z13is_node_readyP9nnode_t_ti
FNDA:0,_Z13is_node_readyP9nnode_t_ti
FN:1044,_Z15get_clock_ratioP9nnode_t_t
FNDA:0,_Z15get_clock_ratioP9nnode_t_t
FN:1052,_Z15set_clock_ratioiP9nnode_t_t
FNDA:0,_Z15set_clock_ratioiP9nnode_t_t
FN:1066,_Z15get_children_ofP9nnode_t_tPi
FNDA:0,_Z15get_children_ofP9nnode_t_tPi
FN:1149,_Z25get_children_pinnumber_ofP9nnode_t_tPi
FNDA:0,_Z25get_children_pinnumber_ofP9nnode_t_tPi
FN:1232,_Z23get_children_of_nodepinP9nnode_t_tPii
FNDA:0,_Z23get_children_of_nodepinP9nnode_t_tPii
FN:1320,_Z16update_pin_valueP8npin_t_tai
FNDA:0,_Z16update_pin_valueP8npin_t_tai
FN:1332,_Z13get_pin_valueP8npin_t_ti
FNDA:0,_Z13get_pin_valueP8npin_t_ti
FN:1378,_Z13is_even_cyclei
FNDA:0,_Z13is_even_cyclei
FN:1393,_Z14initialize_pinP8npin_t_t
FNDA:0,_Z14initialize_pinP8npin_t_t
FN:1455,_Z10is_posedgeP8npin_t_ti
FNDA:0,_Z10is_posedgeP8npin_t_ti
FN:1466,_Z21compute_flipflop_nodeP9nnode_t_ti
FNDA:0,_Z21compute_flipflop_nodeP9nnode_t_ti
FN:1486,_Z18compute_mux_2_nodeP9nnode_t_ti
FNDA:0,_Z18compute_mux_2_nodeP9nnode_t_ti
FN:1559,_Z20compute_hard_ip_nodeP9nnode_t_ti
FNDA:0,_Z20compute_hard_ip_nodeP9nnode_t_ti
FN:1621,_Z21compute_multiply_nodeP9nnode_t_ti
FNDA:0,_Z21compute_multiply_nodeP9nnode_t_ti
FN:1667,_Z20compute_generic_nodeP9nnode_t_ti
FNDA:0,_Z20compute_generic_nodeP9nnode_t_ti
FN:1712,_Z15multiply_arraysPiiS_i
FNDA:0,_Z15multiply_arraysPiiS_i
FN:1742,_Z16compute_add_nodeP9nnode_t_tii
FNDA:0,_Z16compute_add_nodeP9nnode_t_tii
FN:1804,_Z10add_arraysPiiS_iS_ii
FNDA:0,_Z10add_arraysPiiS_iS_ii
FN:1882,_Z22compute_unary_sub_nodeP9nnode_t_ti
FNDA:0,_Z22compute_unary_sub_nodeP9nnode_t_ti
FN:1940,_Z16unary_sub_arraysPiiS_i
FNDA:0,_Z16unary_sub_arraysPiiS_i
FN:1967,_Z19compute_memory_nodeP9nnode_t_ti
FNDA:0,_Z19compute_memory_nodeP9nnode_t_ti
FN:1981,_Z26compute_single_port_memoryP9nnode_t_ti
FNDA:0,_Z26compute_single_port_memoryP9nnode_t_ti
FN:2035,_Z24compute_dual_port_memoryP9nnode_t_ti
FNDA:0,_Z24compute_dual_port_memoryP9nnode_t_ti
FN:2105,_Z22compute_memory_addressP15signal_list_t_ti
FNDA:0,_Z22compute_memory_addressP15signal_list_t_ti
FN:2125,_Z18instantiate_memoryP9nnode_t_tii
FNDA:0,_Z18instantiate_memoryP9nnode_t_tii
FN:2154,_Z19preprocess_mif_fileP8_IO_FILE
FNDA:0,_Z19preprocess_mif_fileP8_IO_FILE
FN:2192,_Z15parse_mif_radixPc
FNDA:0,_Z15parse_mif_radixPc
FN:2213,_Z27assign_memory_from_mif_fileP8_IO_FILEPcilPa
FNDA:0,_Z27assign_memory_from_mif_fileP8_IO_FILEPcilPa
FN:2370,_Z19assign_node_to_lineP9nnode_t_tP7lines_tii
FNDA:0,_Z19assign_node_to_lineP9nnode_t_tP7lines_tii
FN:2422,_Z20insert_pin_into_lineP8npin_t_tiP6line_ti
FNDA:0,_Z20insert_pin_into_lineP8npin_t_tiP6line_ti
FN:2457,_Z12create_linesP11netlist_t_ti
FNDA:0,_Z12create_linesP11netlist_t_ti
FN:2491,_Z20write_vector_headersP8_IO_FILEP7lines_t
FNDA:0,_Z20write_vector_headersP8_IO_FILEP7lines_t
FN:2505,_Z26verify_test_vector_headersP8_IO_FILEP7lines_t
FNDA:0,_Z26verify_test_vector_headersP8_IO_FILEP7lines_t
FN:2565,_Z12verify_linesP7lines_t
FNDA:0,_Z12verify_linesP7lines_t
FN:2587,_Z22find_portname_in_linesPcP7lines_t
FNDA:0,_Z22find_portname_in_linesPcP7lines_t
FN:2600,_Z11create_linePc
FNDA:0,_Z11create_linePc
FN:2618,_Z22generate_vector_headerP7lines_t
FNDA:0,_Z22generate_vector_headerP7lines_t
FN:2647,_Z24add_test_vector_to_linesP11test_vectorP7lines_ti
FNDA:0,_Z24add_test_vector_to_linesP11test_vectorP7lines_ti
FN:2675,_Z20compare_test_vectorsP11test_vectorS0_
FNDA:0,_Z20compare_test_vectorsP11test_vectorS0_
FN:2720,_Z17parse_test_vectorPc
FNDA:0,_Z17parse_test_vectorPc
FN:2789,_Z27generate_random_test_vectorP7lines_tiP13hashtable_t_tS2_
FNDA:0,_Z27generate_random_test_vectorP7lines_tiP13hashtable_t_tS2_
FN:2843,_Z18write_wave_to_fileP7lines_tP8_IO_FILEiii
FNDA:0,_Z18write_wave_to_fileP7lines_tP8_IO_FILEiii
FN:2860,_Z20write_vector_to_fileP7lines_tP8_IO_FILEi
FNDA:0,_Z20write_vector_to_fileP7lines_tP8_IO_FILEi
FN:2931,_Z27write_wave_to_modelsim_fileP11netlist_t_tP7lines_tP8_IO_FILEii
FNDA:0,_Z27write_wave_to_modelsim_fileP11netlist_t_tP7lines_tP8_IO_FILEii
FN:2962,_Z29write_vector_to_modelsim_fileP7lines_tP8_IO_FILEi
FNDA:0,_Z29write_vector_to_modelsim_fileP7lines_tP8_IO_FILEi
FN:3014,_Z21verify_output_vectorsPci
FNDA:0,_Z21verify_output_vectorsPci
FN:3127,_Z19index_pin_name_listP9pin_names
FNDA:0,_Z19index_pin_name_listP9pin_names
FN:3145,_Z19parse_pin_name_listPc
FNDA:0,_Z19parse_pin_name_listPc
FN:3171,_Z29add_additional_items_to_linesP9nnode_t_tP9pin_namesP7lines_t
FNDA:0,_Z29add_additional_items_to_linesP9nnode_t_tP9pin_namesP7lines_t
FN:3252,_Z16get_mif_filenameP9nnode_t_t
FNDA:0,_Z16get_mif_filenameP9nnode_t_t
FN:3272,_Z11trim_stringPcPKc
FNDA:0,_Z11trim_stringPcPKc
FN:3300,_Z20line_has_unknown_pinP6line_ti
FNDA:0,_Z20line_has_unknown_pinP6line_ti
FN:3319,_Z18get_line_pin_valueP6line_tii
FNDA:0,_Z18get_line_pin_valueP6line_tii
FN:3328,_Z19vector_value_to_hexPai
FNDA:0,_Z19vector_value_to_hexPai
FN:3350,_Z18count_test_vectorsP8_IO_FILE
FNDA:0,_Z18count_test_vectorsP8_IO_FILE
FN:3371,_Z9is_vectorPc
FNDA:0,_Z9is_vectorPc
FN:3394,_Z15get_next_vectorP8_IO_FILEPc
FNDA:0,_Z15get_next_vectorP8_IO_FILEPc
FN:3406,_Z10free_linesP7lines_t
FNDA:0,_Z10free_linesP7lines_t
FN:3423,_Z11free_stagesP8stages_t
FNDA:0,_Z11free_stagesP8stages_t
FN:3435,_Z16free_test_vectorP11test_vector
FNDA:0,_Z16free_test_vectorP11test_vector
FN:3447,_Z18free_pin_name_listP9pin_names
FNDA:0,_Z18free_pin_name_listP9pin_names
FN:3464,_Z18print_progress_bardiid
FNDA:0,_Z18print_progress_bardiid
FN:3506,_Z19print_netlist_statsP8stages_ti
FNDA:0,_Z19print_netlist_statsP8stages_ti
FN:3524,_Z22print_simulation_statsP8stages_tidd
FNDA:0,_Z22print_simulation_statsP8stages_tidd
FN:3540,_Z10print_timed
FNDA:0,_Z10print_timed
FN:3553,_Z14print_ancestryP9nnode_t_ti
FNDA:0,_Z14print_ancestryP9nnode_t_ti
FN:3644,_Z18print_update_traceP9nnode_t_ti
FNDA:0,_Z18print_update_traceP9nnode_t_ti
FN:3734,_Z9wall_timev
FNDA:0,_Z9wall_timev
FN:3747,_Z20get_circuit_filenamev
FNDA:0,_Z20get_circuit_filenamev
DA:42,0
DA:44,0
DA:45,0
DA:48,0
DA:49,0
DA:50,0
DA:52,0
DA:53,0
DA:54,0
DA:57,0
DA:58,0
DA:59,0
DA:60,0
DA:61,0
DA:64,0
DA:65,0
DA:66,0
DA:67,0
DA:68,0
DA:71,0
DA:72,0
DA:73,0
DA:74,0
DA:75,0
DA:78,0
DA:79,0
DA:80,0
DA:81,0
DA:82,0
DA:84,0
DA:85,0
DA:87,0
DA:90,0
DA:92,0
DA:93,0
DA:94,0
DA:96,0
DA:99,0
DA:100,0
DA:102,0
DA:107,0
DA:108,0
DA:110,0
DA:114,0
DA:117,0
DA:118,0
DA:119,0
DA:120,0
DA:122,0
DA:124,0
DA:128,0
DA:130,0
DA:131,0
DA:133,0
DA:134,0
DA:136,0
DA:139,0
DA:140,0
DA:141,0
DA:142,0
DA:148,0
DA:149,0
DA:150,0
DA:151,0
DA:152,0
DA:154,0
DA:156,0
DA:157,0
DA:161,0
DA:162,0
DA:164,0
DA:166,0
DA:168,0
DA:170,0
DA:171,0
DA:173,0
DA:177,0
DA:181,0
DA:183,0
DA:184,0
DA:188,0
DA:190,0
DA:192,0
DA:195,0
DA:199,0
DA:201,0
DA:207,0
DA:208,0
DA:209,0
DA:211,0
DA:212,0
DA:217,0
DA:220,0
DA:222,0
DA:225,0
DA:226,0
DA:229,0
DA:230,0
DA:234,0
DA:235,0
DA:236,0
DA:237,0
DA:239,0
DA:240,0
DA:242,0
DA:244,0
DA:245,0
DA:247,0
DA:248,0
DA:250,0
DA:251,0
DA:255,0
DA:257,0
DA:261,0
DA:262,0
DA:264,0
DA:265,0
DA:267,0
DA:268,0
DA:269,0
DA:270,0
DA:271,0
DA:272,0
DA:283,0
DA:306,0
DA:307,0
DA:330,0
DA:331,0
DA:362,0
DA:369,0
DA:371,0
DA:374,0
DA:375,0
DA:378,0
DA:379,0
DA:380,0
DA:381,0
DA:386,0
DA:387,0
DA:389,0
DA:392,0
DA:395,0
DA:396,0
DA:398,0
DA:400,0
DA:402,0
DA:404,0
DA:405,0
DA:408,0
DA:410,0
DA:413,0
DA:414,0
DA:416,0
DA:419,0
DA:420,0
DA:422,0
DA:428,0
DA:429,0
DA:430,0
DA:431,0
DA:432,0
DA:433,0
DA:434,0
DA:435,0
DA:436,0
DA:438,0
DA:441,0
DA:442,0
DA:444,0
DA:445,0
DA:447,0
DA:448,0
DA:451,0
DA:452,0
DA:455,0
DA:461,0
DA:462,0
DA:466,0
DA:468,0
DA:469,0
DA:470,0
DA:471,0
DA:472,0
DA:473,0
DA:474,0
DA:476,0
DA:477,0
DA:479,0
DA:480,0
DA:484,0
DA:485,0
DA:488,0
DA:491,0
DA:492,0
DA:495,0
DA:497,0
DA:499,0
DA:501,0
DA:502,0
DA:504,0
DA:505,0
DA:507,0
DA:514,0
DA:516,0
DA:518,0
DA:520,0
DA:522,0
DA:523,0
DA:524,0
DA:525,0
DA:526,0
DA:527,0
DA:528,0
DA:529,0
DA:530,0
DA:531,0
DA:532,0
DA:533,0
DA:534,0
DA:535,0
DA:536,0
DA:538,0
DA:540,0
DA:542,0
DA:544,0
DA:545,0
DA:547,0
DA:548,0
DA:549,0
DA:552,0
DA:553,0
DA:554,0
DA:556,0
DA:558,0
DA:560,0
DA:562,0
DA:563,0
DA:565,0
DA:566,0
DA:567,0
DA:570,0
DA:571,0
DA:572,0
DA:574,0
DA:576,0
DA:578,0
DA:580,0
DA:581,0
DA:583,0
DA:584,0
DA:585,0
DA:588,0
DA:589,0
DA:590,0
DA:591,0
DA:593,0
DA:595,0
DA:597,0
DA:599,0
DA:600,0
DA:602,0
DA:603,0
DA:604,0
DA:607,0
DA:608,0
DA:609,0
DA:610,0
DA:612,0
DA:613,0
DA:614,0
DA:616,0
DA:617,0
DA:618,0
DA:619,0
DA:621,0
DA:625,0
DA:626,0
DA:627,0
DA:628,0
DA:630,0
DA:631,0
DA:632,0
DA:634,0
DA:635,0
DA:636,0
DA:637,0
DA:639,0
DA:643,0
DA:644,0
DA:645,0
DA:646,0
DA:648,0
DA:649,0
DA:650,0
DA:652,0
DA:653,0
DA:654,0
DA:655,0
DA:656,0
DA:657,0
DA:658,0
DA:660,0
DA:662,0
DA:666,0
DA:667,0
DA:668,0
DA:669,0
DA:671,0
DA:672,0
DA:673,0
DA:675,0
DA:676,0
DA:677,0
DA:678,0
DA:679,0
DA:681,0
DA:683,0
DA:687,0
DA:688,0
DA:689,0
DA:690,0
DA:691,0
DA:694,0
DA:696,0
DA:698,0
DA:699,0
DA:701,0
DA:702,0
DA:703,0
DA:706,0
DA:707,0
DA:708,0
DA:709,0
DA:710,0
DA:713,0
DA:715,0
DA:717,0
DA:718,0
DA:720,0
DA:721,0
DA:722,0
DA:725,0
DA:726,0
DA:727,0
DA:728,0
DA:730,0
DA:732,0
DA:733,0
DA:734,0
DA:740,0
DA:742,0
DA:745,0
DA:746,0
DA:747,0
DA:749,0
DA:750,0
DA:751,0
DA:753,0
DA:754,0
DA:755,0
DA:759,0
DA:760,0
DA:761,0
DA:762,0
DA:764,0
DA:765,0
DA:766,0
DA:767,0
DA:768,0
DA:769,0
DA:771,0
DA:772,0
DA:773,0
DA:774,0
DA:775,0
DA:776,0
DA:778,0
DA:781,0
DA:782,0
DA:783,0
DA:784,0
DA:785,0
DA:786,0
DA:787,0
DA:788,0
DA:789,0
DA:790,0
DA:791,0
DA:792,0
DA:793,0
DA:794,0
DA:795,0
DA:796,0
DA:799,0
DA:800,0
DA:801,0
DA:807,0
DA:808,0
DA:809,0
DA:817,0
DA:818,0
DA:820,0
DA:823,0
DA:826,0
DA:827,0
DA:831,0
DA:832,0
DA:834,0
DA:838,0
DA:850,0
DA:852,0
DA:853,0
DA:855,0
DA:856,0
DA:860,0
DA:862,0
DA:864,0
DA:865,0
DA:871,0
DA:872,0
DA:875,0
DA:878,0
DA:887,0
DA:893,0
DA:895,0
DA:896,0
DA:898,0
DA:900,0
DA:904,0
DA:906,0
DA:907,0
DA:910,0
DA:912,0
DA:913,0
DA:915,0
DA:919,0
DA:924,0
DA:926,0
DA:927,0
DA:928,0
DA:931,0
DA:937,0
DA:938,0
DA:939,0
DA:940,0
DA:942,0
DA:949,0
DA:950,0
DA:953,0
DA:959,0
DA:961,0
DA:963,0
DA:964,0
DA:965,0
DA:976,0
DA:978,0
DA:979,0
DA:980,0
DA:989,0
DA:991,0
DA:993,0
DA:994,0
DA:997,0
DA:999,0
DA:1000,0
DA:1002,0
DA:1004,0
DA:1005,0
DA:1007,0
DA:1009,0
DA:1012,0
DA:1014,0
DA:1016,0
DA:1017,0
DA:1018,0
DA:1021,0
DA:1026,0
DA:1034,0
DA:1035,0
DA:1044,0
DA:1046,0
DA:1052,0
DA:1055,0
DA:1058,0
DA:1066,0
DA:1068,0
DA:1069,0
DA:1070,0
DA:1071,0
DA:1073,0
DA:1074,0
DA:1075,0
DA:1081,0
DA:1083,0
DA:1084,0
DA:1085,0
DA:1087,0
DA:1097,0
DA:1100,0
DA:1101,0
DA:1102,0
DA:1106,0
DA:1108,0
DA:1109,0
DA:1111,0
DA:1114,0
DA:1116,0
DA:1117,0
DA:1119,0
DA:1121,0
DA:1122,0
DA:1125,0
DA:1127,0
DA:1128,0
DA:1133,0
DA:1134,0
DA:1140,0
DA:1141,0
DA:1149,0
DA:1151,0
DA:1152,0
DA:1153,0
DA:1154,0
DA:1156,0
DA:1157,0
DA:1158,0
DA:1164,0
DA:1166,0
DA:1167,0
DA:1168,0
DA:1170,0
DA:1180,0
DA:1183,0
DA:1184,0
DA:1185,0
DA:1189,0
DA:1191,0
DA:1192,0
DA:1194,0
DA:1197,0
DA:1199,0
DA:1200,0
DA:1202,0
DA:1204,0
DA:1205,0
DA:1208,0
DA:1210,0
DA:1211,0
DA:1216,0
DA:1217,0
DA:1223,0
DA:1224,0
DA:1232,0
DA:1234,0
DA:1235,0
DA:1236,0
DA:1237,0
DA:1239,0
DA:1240,0
DA:1243,0
DA:1244,0
DA:1245,0
DA:1251,0
DA:1253,0
DA:1254,0
DA:1255,0
DA:1257,0
DA:1267,0
DA:1270,0
DA:1271,0
DA:1272,0
DA:1276,0
DA:1278,0
DA:1279,0
DA:1281,0
DA:1284,0
DA:1286,0
DA:1287,0
DA:1289,0
DA:1291,0
DA:1292,0
DA:1295,0
DA:1297,0
DA:1298,0
DA:1303,0
DA:1304,0
DA:1310,0
DA:1311,0
DA:1320,0
DA:1322,0
DA:1323,0
DA:1325,0
DA:1326,0
DA:1327,0
DA:1332,0
DA:1334,0
DA:1338,0
DA:1339,0
DA:1341,0
DA:1343,0
DA:1349,0
DA:1351,0
DA:1357,0
DA:1359,0
DA:1362,0
DA:1370,0
DA:1372,0
DA:1373,0
DA:1378,0
DA:1380,0
DA:1393,0
DA:1396,0
DA:1397,0
DA:1400,0
DA:1403,0
DA:1405,0
DA:1406,0
DA:1408,0
DA:1409,0
DA:1411,0
DA:1412,0
DA:1414,0
DA:1415,0
DA:1421,0
DA:1422,0
DA:1426,0
DA:1430,0
DA:1431,0
DA:1433,0
DA:1436,0
DA:1442,0
DA:1444,0
DA:1446,0
DA:1455,0
DA:1457,0
DA:1460,0
DA:1466,0
DA:1468,0
DA:1469,0
DA:1471,0
DA:1472,0
DA:1473,0
DA:1476,0
DA:1477,0
DA:1480,0
DA:1481,0
DA:1486,0
DA:1488,0
DA:1489,0
DA:1490,0
DA:1492,0
DA:1495,0
DA:1496,0
DA:1497,0
DA:1498,0
DA:1499,0
DA:1501,0
DA:1502,0
DA:1504,0
DA:1506,0
DA:1507,0
DA:1513,0
DA:1514,0
DA:1518,0
DA:1520,0
DA:1521,0
DA:1524,0
DA:1527,0
DA:1533,0
DA:1534,0
DA:1536,0
DA:1539,0
DA:1541,0
DA:1545,0
DA:1546,0
DA:1552,0
DA:1554,0
DA:1559,0
DA:1561,0
DA:1562,0
DA:1565,0
DA:1566,0
DA:1568,0
DA:1570,0
DA:1572,0
DA:1573,0
DA:1576,0
DA:1578,0
DA:1580,0
DA:1581,0
DA:1584,0
DA:1586,0
DA:1587,0
DA:1589,0
DA:1590,0
DA:1591,0
DA:1594,0
DA:1596,0
DA:1600,0
DA:1601,0
DA:1603,0
DA:1604,0
DA:1606,0
DA:1607,0
DA:1609,0
DA:1610,0
DA:1616,0
DA:1621,0
DA:1623,0
DA:1624,0
DA:1627,0
DA:1628,0
DA:1630,0
DA:1631,0
DA:1638,0
DA:1640,0
DA:1641,0
DA:1645,0
DA:1646,0
DA:1648,0
DA:1649,0
DA:1651,0
DA:1652,0
DA:1654,0
DA:1656,0
DA:1657,0
DA:1659,0
DA:1660,0
DA:1661,0
DA:1664,0
DA:1667,0
DA:1669,0
DA:1670,0
DA:1672,0
DA:1673,0
DA:1674,0
DA:1678,0
DA:1681,0
DA:1683,0
DA:1685,0
DA:1686,0
DA:1689,0
DA:1693,0
DA:1696,0
DA:1697,0
DA:1698,0
DA:1700,0
DA:1701,0
DA:1712,0
DA:1714,0
DA:1715,0
DA:1717,0
DA:1718,0
DA:1720,0
DA:1723,0
DA:1724,0
DA:1727,0
DA:1729,0
DA:1731,0
DA:1732,0
DA:1735,0
DA:1742,0
DA:1744,0
DA:1745,0
DA:1747,0
DA:1748,0
DA:1750,0
DA:1751,0
DA:1752,0
DA:1754,0
DA:1757,0
DA:1759,0
DA:1761,0
DA:1762,0
DA:1767,0
DA:1768,0
DA:1769,0
DA:1770,0
DA:1772,0
DA:1774,0
DA:1775,0
DA:1777,0
DA:1778,0
DA:1780,0
DA:1782,0
DA:1785,0
DA:1786,0
DA:1788,0
DA:1790,0
DA:1791,0
DA:1792,0
DA:1793,0
DA:1795,0
DA:1804,0
DA:1806,0
DA:1807,0
DA:1809,0
DA:1810,0
DA:1814,0
DA:1816,0
DA:1817,0
DA:1821,0
DA:1822,0
DA:1825,0
DA:1826,0
DA:1827,0
DA:1829,0
DA:1831,0
DA:1832,0
DA:1836,0
DA:1837,0
DA:1839,0
DA:1841,0
DA:1843,0
DA:1845,0
DA:1847,0
DA:1848,0
DA:1852,0
DA:1853,0
DA:1855,0
DA:1860,0
DA:1862,0
DA:1864,0
DA:1865,0
DA:1868,0
DA:1869,0
DA:1871,0
DA:1875,0
DA:1882,0
DA:1884,0
DA:1885,0
DA:1888,0
DA:1889,0
DA:1891,0
DA:1892,0
DA:1899,0
DA:1901,0
DA:1902,0
DA:1906,0
DA:1907,0
DA:1909,0
DA:1910,0
DA:1912,0
DA:1913,0
DA:1914,0
DA:1916,0
DA:1918,0
DA:1921,0
DA:1922,0
DA:1924,0
DA:1926,0
DA:1927,0
DA:1928,0
DA:1931,0
DA:1940,0
DA:1942,0
DA:1943,0
DA:1945,0
DA:1946,0
DA:1948,0
DA:1949,0
DA:1950,0
DA:1952,0
DA:1953,0
DA:1954,0
DA:1956,0
DA:1957,0
DA:1958,0
DA:1961,0
DA:1967,0
DA:1969,0
DA:1970,0
DA:1971,0
DA:1972,0
DA:1974,0
DA:1976,0
DA:1981,0
DA:1983,0
DA:1985,0
DA:1987,0
DA:1988,0
DA:1991,0
DA:1993,0
DA:1994,0
DA:1995,0
DA:1997,0
DA:1998,0
DA:2001,0
DA:2004,0
DA:2005,0
DA:2010,0
DA:2012,0
DA:2013,0
DA:2015,0
DA:2016,0
DA:2019,0
DA:2022,0
DA:2023,0
DA:2025,0
DA:2029,0
DA:2030,0
DA:2035,0
DA:2037,0
DA:2038,0
DA:2040,0
DA:2041,0
DA:2044,0
DA:2046,0
DA:2047,0
DA:2049,0
DA:2050,0
DA:2052,0
DA:2053,0
DA:2055,0
DA:2056,0
DA:2059,0
DA:2060,0
DA:2063,0
DA:2064,0
DA:2066,0
DA:2067,0
DA:2072,0
DA:2073,0
DA:2074,0
DA:2076,0
DA:2077,0
DA:2079,0
DA:2080,0
DA:2083,0
DA:2084,0
DA:2087,0
DA:2088,0
DA:2090,0
DA:2092,0
DA:2093,0
DA:2095,0
DA:2099,0
DA:2100,0
DA:2105,0
DA:2107,0
DA:2108,0
DA:2109,0
DA:2112,0
DA:2115,0
DA:2125,0
DA:2127,0
DA:2128,0
DA:2131,0
DA:2132,0
DA:2133,0
DA:2135,0
DA:2137,0
DA:2138,0
DA:2140,0
DA:2144,0
DA:2145,0
DA:2147,0
DA:2148,0
DA:2154,0
DA:2156,0
DA:2157,0
DA:2158,0
DA:2162,0
DA:2165,0
DA:2167,0
DA:2170,0
DA:2173,0
DA:2176,0
DA:2177,0
DA:2182,0
DA:2183,0
DA:2186,0
DA:2188,0
DA:2189,0
DA:2192,0
DA:2194,0
DA:2196,0
DA:2198,0
DA:2200,0
DA:2202,0
DA:2205,0
DA:2213,0
DA:2215,0
DA:2216,0
DA:2218,0
DA:2227,0
DA:2229,0
DA:2231,0
DA:2233,0
DA:2235,0
DA:2237,0
DA:2240,0
DA:2243,0
DA:2244,0
DA:2247,0
DA:2251,0
DA:2252,0
DA:2254,0
DA:2256,0
DA:2259,0
DA:2260,0
DA:2262,0
DA:2263,0
DA:2265,0
DA:2266,0
DA:2268,0
DA:2269,0
DA:2272,0
DA:2275,0
DA:2276,0
DA:2277,0
DA:2281,0
DA:2291,0
DA:2292,0
DA:2294,0
DA:2295,0
DA:2298,0
DA:2299,0
DA:2300,0
DA:2302,0
DA:2307,0
DA:2308,0
DA:2309,0
DA:2310,0
DA:2311,0
DA:2312,0
DA:2316,0
DA:2317,0
DA:2318,0
DA:2319,0
DA:2320,0
DA:2321,0
DA:2325,0
DA:2326,0
DA:2327,0
DA:2328,0
DA:2330,0
DA:2331,0
DA:2334,0
DA:2335,0
DA:2343,0
DA:2348,0
DA:2350,0
DA:2353,0
DA:2354,0
DA:2355,0
DA:2358,0
DA:2359,0
DA:2361,0
DA:2363,0
DA:2364,0
DA:2370,0
DA:2373,0
DA:2375,0
DA:2376,0
DA:2377,0
DA:2381,0
DA:2382,0
DA:2383,0
DA:2384,0
DA:2387,0
DA:2388,0
DA:2391,0
DA:2392,0
DA:2394,0
DA:2396,0
DA:2398,0
DA:2403,0
DA:2404,0
DA:2405,0
DA:2406,0
DA:2411,0
DA:2412,0
DA:2415,0
DA:2417,0
DA:2422,0
DA:2425,0
DA:2426,0
DA:2429,0
DA:2430,0
DA:2432,0
DA:2436,0
DA:2438,0
DA:2439,0
DA:2445,0
DA:2446,0
DA:2447,0
DA:2448,0
DA:2449,0
DA:2457,0
DA:2459,0
DA:2460,0
DA:2461,0
DA:2463,0
DA:2464,0
DA:2466,0
DA:2467,0
DA:2469,0
DA:2470,0
DA:2472,0
DA:2474,0
DA:2476,0
DA:2477,0
DA:2478,0
DA:2480,0
DA:2482,0
DA:2484,0
DA:2491,0
DA:2493,0
DA:2494,0
DA:2495,0
DA:2496,0
DA:2497,0
DA:2505,0
DA:2507,0
DA:2508,0
DA:2511,0
DA:2512,0
DA:2513,0
DA:2514,0
DA:2517,0
DA:2518,0
DA:2519,0
DA:2520,0
DA:2522,0
DA:2524,0
DA:2526,0
DA:2527,0
DA:2529,0
DA:2531,0
DA:2533,0
DA:2535,0
DA:2536,0
DA:2540,0
DA:2541,0
DA:2545,0
DA:2546,0
DA:2550,0
DA:2555,0
DA:2556,0
DA:2565,0
DA:2567,0
DA:2568,0
DA:2571,0
DA:2573,0
DA:2575,0
DA:2576,0
DA:2587,0
DA:2589,0
DA:2590,0
DA:2591,0
DA:2592,0
DA:2600,0
DA:2602,0
DA:2604,0
DA:2605,0
DA:2606,0
DA:2607,0
DA:2608,0
DA:2610,0
DA:2612,0
DA:2618,0
DA:2620,0
DA:2621,0
DA:2624,0
DA:2627,0
DA:2628,0
DA:2630,0
DA:2631,0
DA:2633,0
DA:2637,0
DA:2639,0
DA:2640,0
DA:2647,0
DA:2649,0
DA:2650,0
DA:2651,0
DA:2652,0
DA:2655,0
DA:2657,0
DA:2659,0
DA:2660,0
DA:2663,0
DA:2665,0
DA:2666,0
DA:2669,0
DA:2675,0
DA:2677,0
DA:2678,0
DA:2680,0
DA:2681,0
DA:2685,0
DA:2688,0
DA:2690,0
DA:2692,0
DA:2704,0
DA:2706,0
DA:2707,0
DA:2708,0
DA:2709,0
DA:2720,0
DA:2722,0
DA:2723,0
DA:2724,0
DA:2725,0
DA:2726,0
DA:2728,0
DA:2730,0
DA:2731,0
DA:2732,0
DA:2734,0
DA:2735,0
DA:2736,0
DA:2737,0
DA:2739,0
DA:2741,0
DA:2742,0
DA:2743,0
DA:2744,0
DA:2745,0
DA:2747,0
DA:2749,0
DA:2750,0
DA:2751,0
DA:2753,0
DA:2754,0
DA:2756,0
DA:2757,0
DA:2759,0
DA:2760,0
DA:2766,0
DA:2767,0
DA:2769,0
DA:2770,0
DA:2771,0
DA:2773,0
DA:2774,0
DA:2777,0
DA:2778,0
DA:2780,0
DA:2781,0
DA:2789,0
DA:2791,0
DA:2792,0
DA:2793,0
DA:2794,0
DA:2796,0
DA:2797,0
DA:2799,0
DA:2800,0
DA:2801,0
DA:2802,0
DA:2804,0
DA:2805,0
DA:2807,0
DA:2808,0
DA:2809,0
DA:2811,0
DA:2812,0
DA:2814,0
DA:2816,0
DA:2817,0
DA:2822,0
DA:2823,0
DA:2825,0
DA:2828,0
DA:2829,0
DA:2831,0
DA:2833,0
DA:2843,0
DA:2845,0
DA:2846,0
DA:2849,0
DA:2851,0
DA:2852,0
DA:2854,0
DA:2860,0
DA:2862,0
DA:2864,0
DA:2866,0
DA:2867,0
DA:2868,0
DA:2870,0
DA:2872,0
DA:2873,0
DA:2875,0
DA:2876,0
DA:2878,0
DA:2880,0
DA:2881,0
DA:2882,0
DA:2883,0
DA:2885,0
DA:2896,0
DA:2897,0
DA:2898,0
DA:2900,0
DA:2901,0
DA:2902,0
DA:2904,0
DA:2906,0
DA:2907,0
DA:2909,0
DA:2911,0
DA:2913,0
DA:2918,0
DA:2923,0
DA:2925,0
DA:2926,0
DA:2931,0
DA:2933,0
DA:2935,0
DA:2938,0
DA:2939,0
DA:2941,0
DA:2942,0
DA:2944,0
DA:2945,0
DA:2946,0
DA:2952,0
DA:2954,0
DA:2955,0
DA:2957,0
DA:2962,0
DA:2964,0
DA:2965,0
DA:2967,0
DA:2969,0
DA:2970,0
DA:2972,0
DA:2974,0
DA:2976,0
DA:2977,0
DA:2979,0
DA:2983,0
DA:2984,0
DA:2986,0
DA:2987,0
DA:2989,0
DA:2990,0
DA:2992,0
DA:2994,0
DA:2995,0
DA:2998,0
DA:3002,0
DA:3014,0
DA:3016,0
DA:3017,0
DA:3019,0
DA:3022,0
DA:3024,0
DA:3025,0
DA:3033,0
DA:3034,0
DA:3037,0
DA:3038,0
DA:3039,0
DA:3040,0
DA:3041,0
DA:3047,0
DA:3049,0
DA:3051,0
DA:3052,0
DA:3055,0
DA:3057,0
DA:3058,0
DA:3062,0
DA:3064,0
DA:3065,0
DA:3077,0
DA:3078,0
DA:3080,0
DA:3083,0
DA:3085,0
DA:3086,0
DA:3087,0
DA:3088,0
DA:3094,0
DA:3096,0
DA:3097,0
DA:3098,0
DA:3105,0
DA:3106,0
DA:3111,0
DA:3113,0
DA:3114,0
DA:3117,0
DA:3118,0
DA:3120,0
DA:3127,0
DA:3129,0
DA:3130,0
DA:3131,0
DA:3133,0
DA:3134,0
DA:3135,0
DA:3137,0
DA:3145,0
DA:3147,0
DA:3148,0
DA:3149,0
DA:3152,0
DA:3154,0
DA:3155,0
DA:3156,0
DA:3158,0
DA:3159,0
DA:3160,0
DA:3162,0
DA:3164,0
DA:3171,0
DA:3173,0
DA:3179,0
DA:3181,0
DA:3183,0
DA:3185,0
DA:3187,0
DA:3193,0
DA:3196,0
DA:3198,0
DA:3200,0
DA:3206,0
DA:3211,0
DA:3213,0
DA:3215,0
DA:3223,0
DA:3225,0
DA:3227,0
DA:3229,0
DA:3230,0
DA:3231,0
DA:3233,0
DA:3235,0
DA:3237,0
DA:3238,0
DA:3239,0
DA:3241,0
DA:3242,0
DA:3246,0
DA:3252,0
DA:3254,0
DA:3255,0
DA:3256,0
DA:3258,0
DA:3259,0
DA:3262,0
DA:3264,0
DA:3265,0
DA:3272,0
DA:3274,0
DA:3276,0
DA:3277,0
DA:3278,0
DA:3280,0
DA:3282,0
DA:3284,0
DA:3285,0
DA:3286,0
DA:3290,0
DA:3294,0
DA:3300,0
DA:3302,0
DA:3303,0
DA:3304,0
DA:3306,0
DA:3312,0
DA:3319,0
DA:3321,0
DA:3328,0
DA:3330,0
DA:3331,0
DA:3333,0
DA:3334,0
DA:3336,0
DA:3338,0
DA:3340,0
DA:3342,0
DA:3344,0
DA:3350,0
DA:3352,0
DA:3355,0
DA:3356,0
DA:3357,0
DA:3359,0
DA:3360,0
DA:3362,0
DA:3364,0
DA:3371,0
DA:3373,0
DA:3374,0
DA:3376,0
DA:3378,0
DA:3379,0
DA:3383,0
DA:3384,0
DA:3394,0
DA:3396,0
DA:3397,0
DA:3406,0
DA:3408,0
DA:3409,0
DA:3411,0
DA:3412,0
DA:3413,0
DA:3416,0
DA:3417,0
DA:3418,0
DA:3423,0
DA:3425,0
DA:3426,0
DA:3427,0
DA:3428,0
DA:3429,0
DA:3430,0
DA:3435,0
DA:3437,0
DA:3438,0
DA:3439,0
DA:3440,0
DA:3441,0
DA:3442,0
DA:3447,0
DA:3449,0
DA:3450,0
DA:3452,0
DA:3453,0
DA:3454,0
DA:3464,0
DA:3466,0
DA:3468,0
DA:3470,0
DA:3472,0
DA:3473,0
DA:3474,0
DA:3476,0
DA:3478,0
DA:3479,0
DA:3481,0
DA:3483,0
DA:3484,0
DA:3485,0
DA:3489,0
DA:3490,0
DA:3493,0
DA:3495,0
DA:3496,0
DA:3498,0
DA:3500,0
DA:3506,0
DA:3508,0
DA:3510,0
DA:3511,0
DA:3512,0
DA:3513,0
DA:3517,0
DA:3519,0
DA:3524,0
DA:3526,0
DA:3527,0
DA:3528,0
DA:3529,0
DA:3530,0
DA:3531,0
DA:3532,0
DA:3533,0
DA:3534,0
DA:3535,0
DA:3540,0
DA:3542,0
DA:3543,0
DA:3544,0
DA:3545,0
DA:3546,0
DA:3547,0
DA:3553,0
DA:3555,0
DA:3557,0
DA:3558,0
DA:3559,0
DA:3560,0
DA:3561,0
DA:3562,0
DA:3564,0
DA:3566,0
DA:3567,0
DA:3568,0
DA:3569,0
DA:3570,0
DA:3572,0
DA:3573,0
DA:3574,0
DA:3575,0
DA:3576,0
DA:3577,0
DA:3578,0
DA:3626,0
DA:3629,0
DA:3631,0
DA:3632,0
DA:3633,0
DA:3644,0
DA:3647,0
DA:3648,0
DA:3659,0
DA:3662,0
DA:3664,0
DA:3665,0
DA:3666,0
DA:3667,0
DA:3669,0
DA:3671,0
DA:3672,0
DA:3673,0
DA:3675,0
DA:3676,0
DA:3677,0
DA:3678,0
DA:3679,0
DA:3681,0
DA:3682,0
DA:3684,0
DA:3685,0
DA:3686,0
DA:3689,0
DA:3690,0
DA:3693,0
DA:3695,0
DA:3696,0
DA:3700,0
DA:3701,0
DA:3702,0
DA:3704,0
DA:3707,0
DA:3708,0
DA:3712,0
DA:3714,0
DA:3715,0
DA:3716,0
DA:3717,0
DA:3726,0
DA:3727,0
DA:3728,0
DA:3734,0
DA:3736,0
DA:3737,0
DA:3738,0
DA:3739,0
DA:3741,0
DA:3747,0
DA:3749,0
end_of_record
SF:/usr/include/string.h
DA:213,0
DA:215,0
DA:240,0
DA:242,0
DA:317,0
DA:319,0
end_of_record
SF:/usr/include/c++/9/bits/char_traits.h
DA:299,0
DA:300,0
DA:329,0
DA:335,0
end_of_record
SF:/usr/include/c++/9/bits/locale_facets.h
FN:872,_ZNKSt5ctypeIcE5widenEc
FNDA:0,_ZNKSt5ctypeIcE5widenEc
FN:1084,_ZNKSt5ctypeIcE8do_widenEc
FNDA:0,_ZNKSt5ctypeIcE8do_widenEc
DA:872,0
DA:874,0
DA:875,0
DA:876,0
DA:877,0
DA:1084,0
DA:1085,0
end_of_record
SF:/usr/include/stdlib.h
DA:361,0
DA:363,0
end_of_record
SF:/usr/include/c++/9/bits/allocator.h
DA:138,0
DA:141,0
DA:142,0
DA:153,0
end_of_record
SF:/usr/include/c++/9/chrono
DA:149,0
DA:153,0
DA:191,0
DA:200,0
DA:331,0
DA:338,0
DA:339,0
DA:346,0
DA:649,0
end_of_record
SF:/usr/include/x86_64-linux-gnu/bits/stdio2.h
DA:34,0
DA:36,0
DA:64,0
DA:67,0
DA:98,0
DA:100,0
DA:101,0
DA:105,0
DA:107,0
DA:255,0
DA:257,0
DA:259,0
DA:262,0
DA:263,0
DA:265,0
end_of_record
SF:/usr/include/c++/9/streambuf
end_of_record
SF:/usr/include/c++/9/cmath
DA:415,0
DA:418,0
end_of_record
SF:/usr/include/c++/9/bits/ptr_traits.h
DA:146,0
DA:147,0
end_of_record
TN:
SF:/usr/include/x86_64-linux-gnu/bits/stdio2.h
DA:105,0
DA:107,0
end_of_record
SF:/workspace/vtr-verilog-to-routing/ODIN_II/SRC/STRING_HASH_TOOL/hashtable.cpp
FN:40,_Z16create_hashtablei
FNDA:0,_Z16create_hashtablei
FN:65,_Z20___hashtable_destroyP13hashtable_t_t
FNDA:0,_Z20___hashtable_destroyP13hashtable_t_t
FN:83,_Z31___hashtable_destroy_free_itemsP13hashtable_t_t
FNDA:0,_Z31___hashtable_destroy_free_itemsP13hashtable_t_t
FN:102,_Z16___hashtable_addP13hashtable_t_tPKvmPv
FNDA:0,_Z16___hashtable_addP13hashtable_t_tPKvmPv
FN:124,_Z19___hashtable_removeP13hashtable_t_tPKvm
FNDA:0,_Z19___hashtable_removeP13hashtable_t_tPKvm
FN:149,_Z16___hashtable_getP13hashtable_t_tPKvm
FNDA:0,_Z16___hashtable_getP13hashtable_t_tPKvm
FN:164,_Z20___hashtable_get_allP13hashtable_t_t
FNDA:0,_Z20___hashtable_get_allP13hashtable_t_t
FN:181,_Z21___hashtable_is_emptyP13hashtable_t_t
FNDA:0,_Z21___hashtable_is_emptyP13hashtable_t_t
FN:186,_Z25___hashtable_compare_keysPKvmS0_m
FNDA:0,_Z25___hashtable_compare_keysPKvmS0_m
FN:192,_Z17___hashtable_hashPKvmi
FNDA:0,_Z17___hashtable_hashPKvmi
DA:40,0
DA:42,0
DA:44,0
DA:45,0
DA:48,0
DA:50,0
DA:51,0
DA:52,0
DA:54,0
DA:55,0
DA:56,0
DA:57,0
DA:58,0
DA:59,0
DA:60,0
DA:62,0
DA:65,0
DA:67,0
DA:68,0
DA:70,0
DA:71,0
DA:73,0
DA:74,0
DA:75,0
DA:76,0
DA:79,0
DA:80,0
DA:81,0
DA:83,0
DA:85,0
DA:86,0
DA:88,0
DA:89,0
DA:91,0
DA:92,0
DA:93,0
DA:94,0
DA:95,0
DA:98,0
DA:99,0
DA:100,0
DA:102,0
DA:104,0
DA:106,0
DA:107,0
DA:108,0
DA:109,0
DA:111,0
DA:113,0
DA:114,0
DA:116,0
DA:117,0
DA:119,0
DA:121,0
DA:122,0
DA:124,0
DA:126,0
DA:128,0
DA:129,0
DA:130,0
DA:132,0
DA:133,0
DA:136,0
DA:137,0
DA:139,0
DA:140,0
DA:141,0
DA:142,0
DA:143,0
DA:146,0
DA:149,0
DA:151,0
DA:153,0
DA:154,0
DA:155,0
DA:157,0
DA:158,0
DA:159,0
DA:161,0
DA:164,0
DA:165,0
DA:166,0
DA:168,0
DA:169,0
DA:171,0
DA:172,0
DA:174,0
DA:175,0
DA:178,0
DA:181,0
DA:183,0
DA:186,0
DA:188,0
DA:189,0
DA:192,0
DA:194,0
DA:195,0
DA:196,0
DA:197,0
DA:199,0
end_of_record
SF:/usr/include/c++/9/iostream
end_of_record
SF:/usr/include/x86_64-linux-gnu/bits/string_fortified.h
DA:31,0
DA:34,0
end_of_record
TN:
SF:/usr/include/x86_64-linux-gnu/bits/stdio2.h
DA:98,0
DA:100,0
end_of_record
SF:/workspace/vtr-verilog-to-routing/ODIN_II/SRC/STRING_HASH_TOOL/string_cache.cpp
FN:16,_Z11string_hashP12STRING_CACHEPKc
FNDA:0,_Z11string_hashP12STRING_CACHEPKc
FN:30,_Z16generate_sc_hashP12STRING_CACHE
FNDA:0,_Z16generate_sc_hashP12STRING_CACHE
FN:54,_Z19sc_new_string_cachev
FNDA:0,_Z19sc_new_string_cachev
FN:73,_Z16sc_lookup_stringP12STRING_CACHEPKc
FNDA:0,_Z16sc_lookup_stringP12STRING_CACHEPKc
FN:95,_Z13sc_add_stringP12STRING_CACHEPKc
FNDA:0,_Z13sc_add_stringP12STRING_CACHEPKc
FN:134,_Z11sc_valid_idP12STRING_CACHEl
FNDA:0,_Z11sc_valid_idP12STRING_CACHEl
FN:145,_Z11sc_do_allocll
FNDA:0,_Z11sc_do_allocll
FN:165,_Z20sc_free_string_cacheP12STRING_CACHE
FNDA:0,_Z20sc_free_string_cacheP12STRING_CACHE
DA:16,0
DA:19,0
DA:21,0
DA:22,0
DA:23,0
DA:24,0
DA:25,0
DA:26,0
DA:30,0
DA:32,0
DA:33,0
DA:35,0
DA:36,0
DA:37,0
DA:38,0
DA:39,0
DA:40,0
DA:41,0
DA:42,0
DA:43,0
DA:44,0
DA:46,0
DA:47,0
DA:48,0
DA:50,0
DA:54,0
DA:56,0
DA:58,0
DA:59,0
DA:60,0
DA:61,0
DA:62,0
DA:63,0
DA:64,0
DA:65,0
DA:66,0
DA:67,0
DA:68,0
DA:69,0
DA:73,0
DA:76,0
DA:78,0
DA:82,0
DA:83,0
DA:84,0
DA:86,0
DA:87,0
DA:88,0
DA:95,0
DA:98,0
DA:99,0
DA:100,0
DA:102,0
DA:103,0
DA:105,0
DA:107,0
DA:109,0
DA:110,0
DA:111,0
DA:112,0
DA:113,0
DA:115,0
DA:116,0
DA:117,0
DA:118,0
DA:119,0
DA:121,0
DA:123,0
DA:124,0
DA:125,0
DA:126,0
DA:127,0
DA:128,0
DA:129,0
DA:130,0
DA:134,0
DA:137,0
DA:139,0
DA:140,0
DA:145,0
DA:148,0
DA:150,0
DA:152,0
DA:154,0
DA:155,0
DA:157,0
DA:160,0
DA:162,0
DA:165,0
DA:167,0
DA:169,0
DA:170,0
DA:171,0
DA:172,0
DA:173,0
DA:174,0
DA:175,0
DA:178,0
DA:180,0
DA:182,0
DA:183,0
DA:185,0
DA:187,0
DA:188,0
DA:190,0
DA:191,0
DA:192,0
end_of_record
SF:/usr/include/x86_64-linux-gnu/bits/string_fortified.h
DA:31,0
DA:34,0
DA:59,0
DA:71,0
end_of_record
TN:
SF:/usr/include/c++/9/bits/char_traits.h
DA:299,0
DA:300,0
DA:315,0
DA:317,0
DA:325,0
DA:329,0
DA:335,0
DA:361,0
DA:363,0
DA:365,0
end_of_record
SF:/usr/include/c++/9/bits/locale_facets.h
FN:872,_ZNKSt5ctypeIcE5widenEc
FNDA:0,_ZNKSt5ctypeIcE5widenEc
FN:1084,_ZNKSt5ctypeIcE8do_widenEc
FNDA:0,_ZNKSt5ctypeIcE8do_widenEc
DA:872,0
DA:874,0
DA:875,0
DA:876,0
DA:877,0
DA:1084,0
DA:1085,0
end_of_record
SF:/usr/include/c++/9/bits/vector.tcc
FN:109,_ZNSt6vectorIiSaIiEE12emplace_backIJiEEEvDpOT_
FNDA:0,_ZNSt6vectorIiSaIiEE12emplace_backIJiEEEvDpOT_
FN:109,_ZNSt6vectorINSt7__cxx1112basic_stringIcSt11char_traitsIcESaIcEEESaIS5_EE12emplace_backIJS5_EEEvDpOT_
FNDA:0,_ZNSt6vectorINSt7__cxx1112basic_stringIcSt11char_traitsIcESaIcEEESaIS5_EE12emplace_backIJS5_EEEvDpOT_
FN:426,_ZNSt6vectorIiSaIiEE17_M_realloc_insertIJiEEEvN9__gnu_cxx17__normal_iteratorIPiS1_EEDpOT_
FNDA:0,_ZNSt6vectorIiSaIiEE17_M_realloc_insertIJiEEEvN9__gnu_cxx17__normal_iteratorIPiS1_EEDpOT_
FN:426,_ZNSt6vectorINSt7__cxx1112basic_stringIcSt11char_traitsIcESaIcEEESaIS5_EE17_M_realloc_insertIJS5_EEEvN9__gnu_cxx17__normal_iteratorIPS5_S7_EEDpOT_
FNDA:0,_ZNSt6vectorINSt7__cxx1112basic_stringIcSt11char_traitsIcESaIcEEESaIS5_EE17_M_realloc_insertIJS5_EEEvN9__gnu_cxx17__normal_iteratorIPS5_S7_EEDpOT_
FN:426,_ZNSt6vectorIP12ast_node_t_tSaIS1_EE17_M_realloc_insertIJRKS1_EEEvN9__gnu_cxx17__normal_iteratorIPS1_S3_EEDpOT_
FNDA:0,_ZNSt6vectorIP12ast_node_t_tSaIS1_EE17_M_realloc_insertIJRKS1_EEEvN9__gnu_cxx17__normal_iteratorIPS1_S3_EEDpOT_
FN:426,_ZNSt6vectorINSt7__cxx1112basic_stringIcSt11char_traitsIcESaIcEEESaIS5_EE17_M_realloc_insertIJRKS5_EEEvN9__gnu_cxx17__normal_iteratorIPS5_S7_EEDpOT_
FNDA:0,_ZNSt6vectorINSt7__cxx1112basic_stringIcSt11char_traitsIcESaIcEEESaIS5_EE17_M_realloc_insertIJRKS5_EEEvN9__gnu_cxx17__normal_iteratorIPS5_S7_EEDpOT_
DA:109,0
DA:112,0
DA:115,0
DA:117,0
DA:121,0
DA:125,0
DA:109,0
DA:112,0
DA:115,0
DA:117,0
DA:121,0
DA:125,0
DA:426,0
DA:435,0
DA:437,0
DA:438,0
DA:439,0
DA:440,0
DA:441,0
DA:449,0
DA:450,0
DA:456,0
DA:461,0
DA:462,0
DA:464,0
DA:466,0
DA:467,0
DA:500,0
DA:501,0
DA:502,0
DA:503,0
DA:504,0
DA:505,0
DA:426,0
DA:435,0
DA:437,0
DA:438,0
DA:439,0
DA:440,0
DA:441,0
DA:449,0
DA:450,0
DA:456,0
DA:461,0
DA:462,0
DA:464,0
DA:466,0
DA:467,0
DA:500,0
DA:501,0
DA:502,0
DA:503,0
DA:504,0
DA:505,0
DA:426,0
DA:435,0
DA:437,0
DA:438,0
DA:439,0
DA:440,0
DA:441,0
DA:449,0
DA:450,0
DA:456,0
DA:461,0
DA:462,0
DA:464,0
DA:466,0
DA:467,0
DA:500,0
DA:501,0
DA:502,0
DA:503,0
DA:504,0
DA:505,0
DA:426,0
DA:435,0
DA:437,0
DA:438,0
DA:439,0
DA:440,0
DA:441,0
DA:449,0
DA:450,0
DA:456,0
DA:461,0
DA:462,0
DA:464,0
DA:466,0
DA:467,0
DA:485,0
DA:487,0
DA:488,0
DA:491,0
DA:492,0
DA:493,0
DA:500,0
DA:501,0
DA:502,0
DA:503,0
DA:504,0
DA:505,0
end_of_record
SF:/usr/include/c++/9/bits/allocator.h
DA:138,0
DA:141,0
DA:142,0
DA:151,0
DA:153,0
end_of_record
SF:/usr/include/c++/9/bits/stl_vector.h
FN:550,_ZNSt6vectorIiSaIiEEC2ERKS1_
FNDA:0,_ZNSt6vectorIiSaIiEEC2ERKS1_
FN:550,_ZNSt6vectorINSt7__cxx1112basic_stringIcSt11char_traitsIcESaIcEEESaIS5_EEC2ERKS7_
FNDA:0,_ZNSt6vectorINSt7__cxx1112basic_stringIcSt11char_traitsIcESaIcEEESaIS5_EEC2ERKS7_
FN:550,_ZNSt6vectorIP12ast_node_t_tSaIS1_EEC2ERKS3_
FNDA:0,_ZNSt6vectorIP12ast_node_t_tSaIS1_EEC2ERKS3_
FN:675,_ZNSt6vectorINSt7__cxx1112basic_stringIcSt11char_traitsIcESaIcEEESaIS5_EED2Ev
FNDA:0,_ZNSt6vectorINSt7__cxx1112basic_stringIcSt11char_traitsIcESaIcEEESaIS5_EED2Ev
FN:1184,_ZNSt6vectorIP12ast_node_t_tSaIS1_EE9push_backERKS1_
FNDA:0,_ZNSt6vectorIP12ast_node_t_tSaIS1_EE9push_backERKS1_
FN:1184,_ZNSt6vectorINSt7__cxx1112basic_stringIcSt11char_traitsIcESaIcEEESaIS5_EE9push_backERKS5_
FNDA:0,_ZNSt6vectorINSt7__cxx1112basic_stringIcSt11char_traitsIcESaIcEEESaIS5_EE9push_backERKS5_
FN:1753,_ZNKSt6vectorIiSaIiEE12_M_check_lenEmPKc
FNDA:0,_ZNKSt6vectorIiSaIiEE12_M_check_lenEmPKc
FN:1753,_ZNKSt6vectorIP12ast_node_t_tSaIS1_EE12_M_check_lenEmPKc
FNDA:0,_ZNKSt6vectorIP12ast_node_t_tSaIS1_EE12_M_check_lenEmPKc
FN:1753,_ZNKSt6vectorINSt7__cxx1112basic_stringIcSt11char_traitsIcESaIcEEESaIS5_EE12_M_check_lenEmPKc
FNDA:0,_ZNKSt6vectorINSt7__cxx1112basic_stringIcSt11char_traitsIcESaIcEEESaIS5_EE12_M_check_lenEmPKc
DA:94,0
DA:95,0
DA:125,0
DA:128,0
DA:130,0
DA:133,0
DA:134,0
DA:273,0
DA:274,0
DA:277,0
DA:278,0
DA:285,0
DA:300,0
DA:301,0
DA:302,0
DA:330,0
DA:332,0
DA:333,0
DA:334,0
DA:347,0
DA:350,0
DA:351,0
DA:356,0
DA:358,0
DA:359,0
DA:360,0
DA:450,0
DA:453,0
DA:462,0
DA:466,0
DA:484,0
DA:550,0
DA:552,0
DA:554,0
DA:555,0
DA:557,0
DA:558,0
DA:550,0
DA:552,0
DA:554,0
DA:555,0
DA:557,0
DA:558,0
DA:550,0
DA:552,0
DA:554,0
DA:555,0
DA:557,0
DA:558,0
DA:675,0
DA:677,0
DA:678,0
DA:680,0
DA:808,0
DA:809,0
DA:817,0
DA:818,0
DA:826,0
DA:827,0
DA:835,0
DA:836,0
DA:915,0
DA:916,0
DA:920,0
DA:921,0
DA:1004,0
DA:1005,0
DA:1040,0
DA:1043,0
DA:1184,0
DA:1186,0
DA:1189,0
DA:1191,0
DA:1195,0
DA:1196,0
DA:1184,0
DA:1186,0
DA:1189,0
DA:1191,0
DA:1195,0
DA:1196,0
DA:1200,0
DA:1201,0
DA:1753,0
DA:1755,0
DA:1756,0
DA:1758,0
DA:1759,0
DA:1753,0
DA:1755,0
DA:1756,0
DA:1758,0
DA:1759,0
DA:1753,0
DA:1755,0
DA:1756,0
DA:1758,0
DA:1759,0
DA:1773,0
DA:1780,0
DA:1781,0
end_of_record
SF:/usr/include/c++/9/bits/stl_algobase.h
DA:198,0
DA:222,0
DA:227,0
DA:228,0
DA:280,0
DA:295,0
DA:375,0
DA:384,0
DA:385,0
DA:386,0
DA:387,0
DA:393,0
DA:398,0
DA:404,0
DA:438,0
DA:440,0
DA:465,0
DA:474,0
DA:577,0
DA:586,0
DA:587,0
DA:588,0
DA:589,0
DA:595,0
DA:600,0
DA:606,0
DA:613,0
DA:615,0
DA:641,0
DA:652,0
end_of_record
SF:/usr/include/c++/9/bits/stl_stack.h
DA:99,0
DA:156,0
DA:157,0
DA:193,0
DA:194,0
DA:206,0
DA:209,0
DA:233,0
DA:234,0
DA:238,0
DA:239,0
DA:266,0
DA:269,0
DA:270,0
end_of_record
SF:/usr/include/c++/9/bits/basic_string.tcc
FN:206,_ZNSt7__cxx1112basic_stringIcSt11char_traitsIcESaIcEE12_M_constructIPcEEvT_S7_St20forward_iterator_tag
FNDA:0,_ZNSt7__cxx1112basic_stringIcSt11char_traitsIcESaIcEE12_M_constructIPcEEvT_S7_St20forward_iterator_tag
FN:206,_ZNSt7__cxx1112basic_stringIcSt11char_traitsIcESaIcEE12_M_constructIPKcEEvT_S8_St20forward_iterator_tag
FNDA:0,_ZNSt7__cxx1112basic_stringIcSt11char_traitsIcESaIcEE12_M_constructIPKcEEvT_S8_St20forward_iterator_tag
DA:206,0
DA:211,0
DA:212,0
DA:215,0
DA:217,0
DA:219,0
DA:220,0
DA:225,0
DA:232,0
DA:233,0
DA:206,0
DA:211,0
DA:212,0
DA:215,0
DA:217,0
DA:219,0
DA:220,0
DA:225,0
DA:232,0
DA:233,0
end_of_record
SF:/usr/include/c++/9/bits/ptr_traits.h
DA:146,0
DA:147,0
end_of_record
SF:/usr/include/c++/9/iostream
end_of_record
SF:/usr/include/c++/9/bits/stl_deque.h
FN:678,_ZNSt11_Deque_baseINSt7__cxx1112basic_stringIcSt11char_traitsIcESaIcEEESaIS5_EED2Ev
FNDA:0,_ZNSt11_Deque_baseINSt7__cxx1112basic_stringIcSt11char_traitsIcESaIcEEESaIS5_EED2Ev
FN:678,_ZNSt11_Deque_baseIxSaIxEED2Ev
FNDA:0,_ZNSt11_Deque_baseIxSaIxEED2Ev
FN:699,_ZNSt11_Deque_baseINSt7__cxx1112basic_stringIcSt11char_traitsIcESaIcEEESaIS5_EE17_M_initialize_mapEm
FNDA:0,_ZNSt11_Deque_baseINSt7__cxx1112basic_stringIcSt11char_traitsIcESaIcEEESaIS5_EE17_M_initialize_mapEm
FN:699,_ZNSt11_Deque_baseIxSaIxEE17_M_initialize_mapEm
FNDA:0,_ZNSt11_Deque_baseIxSaIxEE17_M_initialize_mapEm
FN:738,_ZNSt11_Deque_baseINSt7__cxx1112basic_stringIcSt11char_traitsIcESaIcEEESaIS5_EE15_M_create_nodesEPPS5_S9_
FNDA:0,_ZNSt11_Deque_baseINSt7__cxx1112basic_stringIcSt11char_traitsIcESaIcEEESaIS5_EE15_M_create_nodesEPPS5_S9_
FN:738,_ZNSt11_Deque_baseIxSaIxEE15_M_create_nodesEPPxS3_
FNDA:0,_ZNSt11_Deque_baseIxSaIxEE15_M_create_nodesEPPxS3_
FN:1071,_ZNSt5dequeINSt7__cxx1112basic_stringIcSt11char_traitsIcESaIcEEESaIS5_EED2Ev
FNDA:0,_ZNSt5dequeINSt7__cxx1112basic_stringIcSt11char_traitsIcESaIcEEESaIS5_EED2Ev
FN:1569,_ZNSt5dequeINSt7__cxx1112basic_stringIcSt11char_traitsIcESaIcEEESaIS5_EE9push_backERKS5_
FNDA:0,_ZNSt5dequeINSt7__cxx1112basic_stringIcSt11char_traitsIcESaIcEEESaIS5_EE9push_backERKS5_
FN:1628,_ZNSt5dequeINSt7__cxx1112basic_stringIcSt11char_traitsIcESaIcEEESaIS5_EE8pop_backEv
FNDA:0,_ZNSt5dequeINSt7__cxx1112basic_stringIcSt11char_traitsIcESaIcEEESaIS5_EE8pop_backEv
FN:1628,_ZNSt5dequeIxSaIxEE8pop_backEv
FNDA:0,_ZNSt5dequeIxSaIxEE8pop_backEv
FN:2194,_ZNSt5dequeINSt7__cxx1112basic_stringIcSt11char_traitsIcESaIcEEESaIS5_EE22_M_reserve_map_at_backEm
FNDA:0,_ZNSt5dequeINSt7__cxx1112basic_stringIcSt11char_traitsIcESaIcEEESaIS5_EE22_M_reserve_map_at_backEm
FN:2194,_ZNSt5dequeIxSaIxEE22_M_reserve_map_at_backEm
FNDA:0,_ZNSt5dequeIxSaIxEE22_M_reserve_map_at_backEm
DA:130,0
DA:150,0
DA:151,0
DA:167,0
DA:168,0
DA:169,0
DA:179,0
DA:207,0
DA:209,0
DA:211,0
DA:212,0
DA:214,0
DA:273,0
DA:275,0
DA:276,0
DA:277,0
DA:286,0
DA:370,0
DA:375,0
DA:376,0
DA:508,0
DA:509,0
DA:510,0
DA:567,0
DA:575,0
DA:577,0
DA:605,0
DA:606,0
DA:609,0
DA:610,0
DA:613,0
DA:614,0
DA:617,0
DA:620,0
DA:624,0
DA:627,0
DA:631,0
DA:633,0
DA:634,0
DA:638,0
DA:640,0
DA:641,0
DA:642,0
DA:678,0
DA:681,0
DA:683,0
DA:684,0
DA:685,0
DA:687,0
DA:678,0
DA:681,0
DA:683,0
DA:684,0
DA:685,0
DA:687,0
DA:699,0
DA:702,0
DA:705,0
DA:706,0
DA:707,0
DA:714,0
DA:715,0
DA:716,0
DA:719,0
DA:720,0
DA:722,0
DA:723,0
DA:724,0
DA:725,0
DA:728,0
DA:729,0
DA:730,0
DA:731,0
DA:732,0
DA:733,0
DA:734,0
DA:699,0
DA:702,0
DA:705,0
DA:706,0
DA:707,0
DA:714,0
DA:715,0
DA:716,0
DA:719,0
DA:720,0
DA:722,0
DA:723,0
DA:724,0
DA:725,0
DA:728,0
DA:729,0
DA:730,0
DA:731,0
DA:732,0
DA:733,0
DA:734,0
DA:738,0
DA:744,0
DA:745,0
DA:747,0
DA:749,0
DA:750,0
DA:752,0
DA:738,0
DA:744,0
DA:745,0
DA:747,0
DA:749,0
DA:750,0
DA:752,0
DA:756,0
DA:760,0
DA:761,0
DA:889,0
DA:915,0
DA:1071,0
DA:1072,0
DA:1193,0
DA:1194,0
DA:1210,0
DA:1211,0
DA:1298,0
DA:1299,0
DA:1303,0
DA:1304,0
DA:1384,0
DA:1385,0
DA:1500,0
DA:1503,0
DA:1504,0
DA:1505,0
DA:1569,0
DA:1571,0
DA:1572,0
DA:1574,0
DA:1576,0
DA:1579,0
DA:1580,0
DA:1584,0
DA:1585,0
DA:1628,0
DA:1631,0
DA:1632,0
DA:1634,0
DA:1635,0
DA:1639,0
DA:1640,0
DA:1628,0
DA:1631,0
DA:1632,0
DA:1634,0
DA:1635,0
DA:1639,0
DA:1640,0
DA:1896,0
DA:1899,0
DA:1900,0
DA:2113,0
DA:2194,0
DA:2196,0
DA:2197,0
DA:2198,0
DA:2199,0
DA:2194,0
DA:2196,0
DA:2197,0
DA:2198,0
DA:2199,0
end_of_record
SF:/usr/include/c++/9/bits/basic_string.h
FN:6149,_ZSteqIcEN9__gnu_cxx11__enable_ifIXsrSt9__is_charIT_E7__valueEbE6__typeERKNSt7__cxx1112basic_stringIS3_St11char_traitsIS3_ESaIS3_EEESE_
FNDA:0,_ZSteqIcEN9__gnu_cxx11__enable_ifIXsrSt9__is_charIT_E7__valueEbE6__typeERKNSt7__cxx1112basic_stringIS3_St11char_traitsIS3_ESaIS3_EEESE_
DA:150,0
DA:159,0
DA:160,0
DA:178,0
DA:179,0
DA:182,0
DA:183,0
DA:186,0
DA:190,0
DA:193,0
DA:200,0
DA:203,0
DA:210,0
DA:211,0
DA:214,0
DA:216,0
DA:217,0
DA:221,0
DA:222,0
DA:229,0
DA:231,0
DA:232,0
DA:236,0
DA:237,0
DA:243,0
DA:247,0
DA:263,0
DA:266,0
DA:286,0
DA:287,0
DA:290,0
DA:291,0
DA:346,0
DA:348,0
DA:349,0
DA:351,0
DA:392,0
DA:393,0
DA:396,0
DA:398,0
DA:431,0
DA:433,0
DA:434,0
DA:448,0
DA:450,0
DA:451,0
DA:552,0
DA:553,0
DA:555,0
DA:557,0
DA:562,0
DA:563,0
DA:569,0
DA:570,0
DA:571,0
DA:657,0
DA:658,0
DA:665,0
DA:696,0
DA:704,0
DA:705,0
DA:715,0
DA:717,0
DA:930,0
DA:936,0
DA:1364,0
DA:1366,0
DA:1452,0
DA:1453,0
DA:2300,0
DA:2301,0
DA:2312,0
DA:2313,0
DA:6149,0
DA:6151,0
DA:6152,0
DA:6153,0
DA:6175,0
DA:6177,0
end_of_record
SF:/usr/include/c++/9/ostream
DA:108,0
DA:113,0
DA:565,0
DA:568,0
DA:570,0
DA:571,0
end_of_record
SF:/usr/include/x86_64-linux-gnu/bits/string_fortified.h
DA:31,0
DA:34,0
end_of_record
SF:/workspace/vtr-verilog-to-routing/ODIN_II/SRC/lib_ast/ast_elaborate.h
DA:44,0
end_of_record
SF:/usr/include/c++/9/bits/alloc_traits.h
DA:443,0
DA:444,0
DA:469,0
DA:470,0
DA:482,0
DA:484,0
DA:495,0
DA:497,0
DA:505,0
DA:506,0
DA:514,0
DA:515,0
end_of_record
SF:/usr/include/c++/9/ext/alloc_traits.h
DA:97,0
DA:98,0
end_of_record
SF:/usr/include/c++/9/bits/cpp_type_traits.h
DA:428,0
end_of_record
SF:/usr/include/c++/9/ext/type_traits.h
DA:152,0
end_of_record
SF:/usr/include/c++/9/ext/new_allocator.h
DA:80,0
DA:83,0
DA:89,0
DA:102,0
DA:104,0
DA:105,0
DA:114,0
DA:119,0
DA:128,0
DA:132,0
DA:144,0
DA:147,0
DA:151,0
DA:153,0
end_of_record
SF:/usr/include/c++/9/new
DA:173,0
DA:174,0
end_of_record
SF:/usr/include/c++/9/bits/stl_uninitialized.h
FN:76,_ZNSt20__uninitialized_copyILb0EE13__uninit_copyIN9__gnu_cxx17__normal_iteratorIPKNSt7__cxx1112basic_stringIcSt11char_traitsIcESaIcEEESt6vectorIS9_SaIS9_EEEEPS9_EET0_T_SI_SH_
FNDA:0,_ZNSt20__uninitialized_copyILb0EE13__uninit_copyIN9__gnu_cxx17__normal_iteratorIPKNSt7__cxx1112basic_stringIcSt11char_traitsIcESaIcEEESt6vectorIS9_SaIS9_EEEEPS9_EET0_T_SI_SH_
DA:76,0
DA:79,0
DA:82,0
DA:83,0
DA:84,0
DA:86,0
DA:88,0
DA:89,0
DA:99,0
DA:101,0
DA:115,0
DA:134,0
DA:140,0
DA:305,0
DA:307,0
DA:905,0
DA:912,0
DA:913,0
DA:924,0
DA:927,0
DA:928,0
DA:929,0
DA:930,0
DA:949,0
DA:950,0
DA:958,0
DA:964,0
end_of_record
SF:/usr/include/c++/9/bits/stl_iterator_base_funcs.h
DA:98,0
DA:104,0
DA:138,0
DA:141,0
end_of_record
SF:/usr/include/c++/9/bits/move.h
DA:47,0
DA:74,0
DA:99,0
DA:138,0
DA:139,0
end_of_record
SF:/usr/include/c++/9/bits/stl_iterator.h
DA:806,0
DA:819,0
DA:827,0
DA:829,0
DA:871,0
DA:893,0
DA:896,0
DA:907,0
DA:910,0
DA:989,0
DA:992,0
DA:1010,0
DA:1012,0
end_of_record
SF:/usr/include/c++/9/bits/deque.tcc
FN:479,_ZNSt5dequeIxSaIxEE16_M_push_back_auxIJxEEEvDpOT_
FNDA:0,_ZNSt5dequeIxSaIxEE16_M_push_back_auxIJxEEEvDpOT_
FN:479,_ZNSt5dequeINSt7__cxx1112basic_stringIcSt11char_traitsIcESaIcEEESaIS5_EE16_M_push_back_auxIJRKS5_EEEvDpOT_
FNDA:0,_ZNSt5dequeINSt7__cxx1112basic_stringIcSt11char_traitsIcESaIcEEESaIS5_EE16_M_push_back_auxIJRKS5_EEEvDpOT_
FN:479,_ZNSt5dequeIxSaIxEE16_M_push_back_auxIJRKxEEEvDpOT_
FNDA:0,_ZNSt5dequeIxSaIxEE16_M_push_back_auxIJRKxEEEvDpOT_
FN:555,_ZNSt5dequeINSt7__cxx1112basic_stringIcSt11char_traitsIcESaIcEEESaIS5_EE15_M_pop_back_auxEv
FNDA:0,_ZNSt5dequeINSt7__cxx1112basic_stringIcSt11char_traitsIcESaIcEEESaIS5_EE15_M_pop_back_auxEv
FN:854,_ZNSt5dequeINSt7__cxx1112basic_stringIcSt11char_traitsIcESaIcEEESaIS5_EE19_M_destroy_data_auxESt15_Deque_iteratorIS5_RS5_PS5_ESB_
FNDA:0,_ZNSt5dequeINSt7__cxx1112basic_stringIcSt11char_traitsIcESaIcEEESaIS5_EE19_M_destroy_data_auxESt15_Deque_iteratorIS5_RS5_PS5_ESB_
FN:926,_ZNSt5dequeINSt7__cxx1112basic_stringIcSt11char_traitsIcESaIcEEESaIS5_EE17_M_reallocate_mapEmb
FNDA:0,_ZNSt5dequeINSt7__cxx1112basic_stringIcSt11char_traitsIcESaIcEEESaIS5_EE17_M_reallocate_mapEmb
FN:926,_ZNSt5dequeIxSaIxEE17_M_reallocate_mapEmb
FNDA:0,_ZNSt5dequeIxSaIxEE17_M_reallocate_mapEmb
DA:162,0
DA:165,0
DA:166,0
DA:168,0
DA:171,0
DA:174,0
DA:479,0
DA:487,0
DA:488,0
DA:491,0
DA:492,0
DA:496,0
DA:502,0
DA:504,0
DA:511,0
DA:479,0
DA:487,0
DA:488,0
DA:491,0
DA:492,0
DA:496,0
DA:502,0
DA:504,0
DA:506,0
DA:508,0
DA:509,0
DA:511,0
DA:479,0
DA:487,0
DA:488,0
DA:491,0
DA:492,0
DA:496,0
DA:502,0
DA:504,0
DA:511,0
DA:555,0
DA:558,0
DA:559,0
DA:560,0
DA:561,0
DA:563,0
DA:854,0
DA:857,0
DA:858,0
DA:859,0
DA:860,0
DA:862,0
DA:864,0
DA:865,0
DA:866,0
DA:867,0
DA:870,0
DA:871,0
DA:872,0
DA:926,0
DA:929,0
DA:930,0
DA:931,0
DA:934,0
DA:936,0
DA:937,0
DA:938,0
DA:939,0
DA:940,0
DA:944,0
DA:950,0
DA:951,0
DA:954,0
DA:955,0
DA:956,0
DA:957,0
DA:958,0
DA:960,0
DA:962,0
DA:963,0
DA:966,0
DA:967,0
DA:968,0
DA:926,0
DA:929,0
DA:930,0
DA:931,0
DA:934,0
DA:936,0
DA:937,0
DA:938,0
DA:939,0
DA:940,0
DA:944,0
DA:950,0
DA:951,0
DA:954,0
DA:955,0
DA:956,0
DA:957,0
DA:958,0
DA:960,0
DA:962,0
DA:963,0
DA:966,0
DA:967,0
DA:968,0
end_of_record
SF:/workspace/vtr-verilog-to-routing/ODIN_II/SRC/lib_ast/ast_elaborate.cpp
FN:59,_Z12simplify_astv
FNDA:0,_Z12simplify_astv
FN:80,_Z17optimize_for_treev
FNDA:0,_Z17optimize_for_treev
FN:158,_Z15search_for_nodeP12ast_node_t_tSt6vectorIS0_SaIS0_EES3_
FNDA:0,_Z15search_for_nodeP12ast_node_t_tSt6vectorIS0_SaIS0_EES3_
FN:177,_Z13get_copy_treeP12ast_node_t_txNSt7__cxx1112basic_stringIcSt11char_traitsIcESaIcEEE
FNDA:0,_Z13get_copy_treeP12ast_node_t_txNSt7__cxx1112basic_stringIcSt11char_traitsIcESaIcEEE
FN:205,_Z17record_expressionP12ast_node_t_tSt6vectorINSt7__cxx1112basic_stringIcSt11char_traitsIcESaIcEEESaIS7_EEPb
FNDA:0,_Z17record_expressionP12ast_node_t_tSt6vectorINSt7__cxx1112basic_stringIcSt11char_traitsIcESaIcEEESaIS7_EEPb
FN:261,_Z11calculationSt6vectorINSt7__cxx1112basic_stringIcSt11char_traitsIcESaIcEEESaIS5_EE
FNDA:0,_Z11calculationSt6vectorINSt7__cxx1112basic_stringIcSt11char_traitsIcESaIcEEESaIS5_EE
FN:297,_Z20translate_expressionSt6vectorINSt7__cxx1112basic_stringIcSt11char_traitsIcESaIcEEESaIS5_EES7_
FNDA:0,_Z20translate_expressionSt6vectorINSt7__cxx1112basic_stringIcSt11char_traitsIcESaIcEEESaIS5_EES7_
FN:326,_Z15reallocate_nodeP12ast_node_t_ti
FNDA:0,_Z15reallocate_nodeP12ast_node_t_ti
FN:340,_Z22find_most_unique_countv
FNDA:0,_Z22find_most_unique_countv
FN:351,_Z15mark_node_writeP12ast_node_t_tSt6vectorINSt7__cxx1112basic_stringIcSt11char_traitsIcESaIcEEESaIS7_EE
FNDA:0,_Z15mark_node_writeP12ast_node_t_tSt6vectorINSt7__cxx1112basic_stringIcSt11char_traitsIcESaIcEEESaIS7_EE
FN:367,_Z14mark_node_readP12ast_node_t_tSt6vectorINSt7__cxx1112basic_stringIcSt11char_traitsIcESaIcEEESaIS7_EE
FNDA:0,_Z14mark_node_readP12ast_node_t_tSt6vectorINSt7__cxx1112basic_stringIcSt11char_traitsIcESaIcEEESaIS7_EE
FN:382,_Z28remove_intermediate_variableP12ast_node_t_tSt6vectorINSt7__cxx1112basic_stringIcSt11char_traitsIcESaIcEEESaIS7_EExS7_
FNDA:0,_Z28remove_intermediate_variableP12ast_node_t_tSt6vectorINSt7__cxx1112basic_stringIcSt11char_traitsIcESaIcEEESaIS7_EExS7_
FN:419,_Z18search_marked_nodeP12ast_node_t_tiNSt7__cxx1112basic_stringIcSt11char_traitsIcESaIcEEE
FNDA:0,_Z18search_marked_nodeP12ast_node_t_tiNSt7__cxx1112basic_stringIcSt11char_traitsIcESaIcEEE
FN:439,_Z28reduce_assignment_expressionv
FNDA:0,_Z28reduce_assignment_expressionv
FN:482,_Z16find_assign_nodeP12ast_node_t_tSt6vectorIS0_SaIS0_EE
FNDA:0,_Z16find_assign_nodeP12ast_node_t_tSt6vectorIS0_SaIS0_EE
FN:495,_Z19simplify_expressionv
FNDA:0,_Z19simplify_expressionv
FN:513,_Z9find_tailP8exp_node
FNDA:0,_Z9find_tailP8exp_node
FN:527,_Z17reduce_enode_listv
FNDA:0,_Z17reduce_enode_listv
FN:586,_Z14store_exp_listP12ast_node_t_t
FNDA:0,_Z14store_exp_listP12ast_node_t_t
FN:603,_Z16record_tree_infoP12ast_node_t_t
FNDA:0,_Z16record_tree_infoP12ast_node_t_t
FN:622,_Z12create_enodeP12ast_node_t_t
FNDA:0,_Z12create_enodeP12ast_node_t_t
FN:692,_Z15adjoin_constantv
FNDA:0,_Z15adjoin_constantv
FN:760,_Z13replace_enodeiP8exp_nodei
FNDA:0,_Z13replace_enodeiP8exp_nodei
FN:804,_Z16combine_constantv
FNDA:0,_Z16combine_constantv
FN:883,_Z18construct_new_treeP8exp_nodeP12ast_node_t_tii
FNDA:0,_Z18construct_new_treeP8exp_nodeP12ast_node_t_tii
FN:939,_Z14check_exp_listP8exp_node
FNDA:0,_Z14check_exp_listP8exp_node
FN:956,_Z26delete_continuous_multiplyv
FNDA:0,_Z26delete_continuous_multiplyv
FN:1019,_Z15create_ast_nodeP8exp_nodeP12ast_node_t_tii
FNDA:0,_Z15create_ast_nodeP8exp_nodeP12ast_node_t_tii
FN:1046,_Z14create_op_nodeP12ast_node_t_tP8exp_nodeii
FNDA:0,_Z14create_op_nodeP12ast_node_t_tP8exp_nodeii
FN:1077,_Z13free_exp_listv
FNDA:0,_Z13free_exp_listv
FN:1090,_Z17deal_with_bracketP12ast_node_t_t
FNDA:0,_Z17deal_with_bracketP12ast_node_t_t
FN:1109,_Z18check_mult_bracketSt6vectorIiSaIiEE
FNDA:0,_Z18check_mult_bracketSt6vectorIiSaIiEE
FN:1133,_Z14recursive_treeP12ast_node_t_tSt6vectorIiSaIiEE
FNDA:0,_Z14recursive_treeP12ast_node_t_tSt6vectorIiSaIiEE
FN:1156,_Z14find_leaf_nodeP12ast_node_t_tSt6vectorIiSaIiEEi
FNDA:0,_Z14find_leaf_nodeP12ast_node_t_tSt6vectorIiSaIiEEi
FN:1170,_Z14delete_bracketii
FNDA:0,_Z14delete_bracketii
FN:1206,_Z19delete_bracket_headP8exp_nodeS0_
FNDA:0,_Z19delete_bracket_headP8exp_nodeS0_
FN:1226,_Z15change_exp_listP8exp_nodeS0_S0_i
FNDA:0,_Z15change_exp_listP8exp_nodeS0_S0_i
FN:1319,_Z15copy_enode_listP8exp_nodeS0_S0_
FNDA:0,_Z15copy_enode_listP8exp_nodeS0_S0_
FN:1338,_Z10copy_enodeP8exp_nodeS0_
FNDA:0,_Z10copy_enodeP8exp_nodeS0_
FN:1349,_Z19delete_bracket_tailP8exp_nodeS0_
FNDA:0,_Z19delete_bracket_tailP8exp_nodeS0_
FN:1364,_Z19delete_bracket_bodyP8exp_nodeS0_
FNDA:0,_Z19delete_bracket_bodyP8exp_nodeS0_
FN:1388,_Z20check_tree_operationP12ast_node_t_t
FNDA:0,_Z20check_tree_operationP12ast_node_t_t
FN:1403,_Z15check_operationP8exp_nodeS0_
FNDA:0,_Z15check_operationP8exp_nodeS0_
FN:1428,_Z16reduce_parameterv
FNDA:0,_Z16reduce_parameterv
FN:1444,_Z14find_parameterP12ast_node_t_tSt6vectorIS0_SaIS0_EE
FNDA:0,_Z14find_parameterP12ast_node_t_tSt6vectorIS0_SaIS0_EE
FN:1458,_Z16remove_para_nodeP12ast_node_t_tSt6vectorIS0_SaIS0_EE
FNDA:0,_Z16remove_para_nodeP12ast_node_t_tSt6vectorIS0_SaIS0_EE
FN:1486,_Z16change_para_nodeP12ast_node_t_tNSt7__cxx1112basic_stringIcSt11char_traitsIcESaIcEEEx
FNDA:0,_Z16change_para_nodeP12ast_node_t_tNSt7__cxx1112basic_stringIcSt11char_traitsIcESaIcEEEx
FN:1499,_Z15shift_operationv
FNDA:0,_Z15shift_operationv
FN:1514,_Z24search_certain_operationP12ast_node_t_t
FNDA:0,_Z24search_certain_operationP12ast_node_t_t
FN:1526,_Z22check_binary_operationP12ast_node_t_t
FNDA:0,_Z22check_binary_operationP12ast_node_t_t
FN:1550,_Z17check_node_numberP12ast_node_t_tS0_i
FNDA:0,_Z17check_node_numberP12ast_node_t_tS0_i
FN:1582,_Z25has_intermediate_variableP12ast_node_t_t
FNDA:0,_Z25has_intermediate_variableP12ast_node_t_t
FN:1599,_Z15keep_all_branchP12ast_node_t_tS0_i
FNDA:0,_Z15keep_all_branchP12ast_node_t_tS0_i
DA:59,0
DA:62,0
DA:64,0
DA:66,0
DA:68,0
DA:72,0
DA:80,0
DA:83,0
DA:84,0
DA:85,0
DA:88,0
DA:90,0
DA:91,0
DA:93,0
DA:96,0
DA:99,0
DA:100,0
DA:101,0
DA:102,0
DA:104,0
DA:105,0
DA:106,0
DA:107,0
DA:108,0
DA:109,0
DA:110,0
DA:112,0
DA:114,0
DA:115,0
DA:117,0
DA:121,0
DA:122,0
DA:124,0
DA:126,0
DA:127,0
DA:128,0
DA:129,0
DA:131,0
DA:135,0
DA:136,0
DA:138,0
DA:139,0
DA:142,0
DA:143,0
DA:144,0
DA:147,0
DA:148,0
DA:149,0
DA:152,0
DA:158,0
DA:160,0
DA:161,0
DA:163,0
DA:165,0
DA:167,0
DA:168,0
DA:172,0
DA:177,0
DA:179,0
DA:182,0
DA:183,0
DA:185,0
DA:186,0
DA:187,0
DA:189,0
DA:191,0
DA:192,0
DA:194,0
DA:195,0
DA:196,0
DA:205,0
DA:207,0
DA:209,0
DA:210,0
DA:213,0
DA:214,0
DA:216,0
DA:217,0
DA:219,0
DA:220,0
DA:221,0
DA:223,0
DA:224,0
DA:225,0
DA:227,0
DA:228,0
DA:230,0
DA:231,0
DA:232,0
DA:233,0
DA:234,0
DA:235,0
DA:236,0
DA:237,0
DA:238,0
DA:239,0
DA:240,0
DA:241,0
DA:253,0
DA:254,0
DA:256,0
DA:261,0
DA:263,0
DA:264,0
DA:266,0
DA:267,0
DA:269,0
DA:270,0
DA:272,0
DA:273,0
DA:275,0
DA:276,0
DA:278,0
DA:279,0
DA:281,0
DA:282,0
DA:285,0
DA:286,0
DA:287,0
DA:290,0
DA:297,0
DA:299,0
DA:300,0
DA:302,0
DA:303,0
DA:304,0
DA:305,0
DA:307,0
DA:308,0
DA:309,0
DA:312,0
DA:314,0
DA:317,0
DA:318,0
DA:319,0
DA:321,0
DA:326,0
DA:328,0
DA:330,0
DA:331,0
DA:333,0
DA:335,0
DA:340,0
DA:342,0
DA:343,0
DA:344,0
DA:345,0
DA:351,0
DA:353,0
DA:354,0
DA:355,0
DA:358,0
DA:359,0
DA:361,0
DA:367,0
DA:369,0
DA:370,0
DA:371,0
DA:373,0
DA:374,0
DA:376,0
DA:382,0
DA:384,0
DA:386,0
DA:388,0
DA:390,0
DA:391,0
DA:392,0
DA:393,0
DA:395,0
DA:396,0
DA:401,0
DA:404,0
DA:405,0
DA:406,0
DA:408,0
DA:409,0
DA:411,0
DA:413,0
DA:419,0
DA:421,0
DA:423,0
DA:426,0
DA:427,0
DA:428,0
DA:439,0
DA:441,0
DA:442,0
DA:443,0
DA:447,0
DA:448,0
DA:449,0
DA:451,0
DA:453,0
DA:454,0
DA:455,0
DA:456,0
DA:458,0
DA:460,0
DA:461,0
DA:462,0
DA:464,0
DA:466,0
DA:467,0
DA:468,0
DA:469,0
DA:470,0
DA:472,0
DA:482,0
DA:484,0
DA:485,0
DA:487,0
DA:488,0
DA:489,0
DA:495,0
DA:497,0
DA:498,0
DA:500,0
DA:501,0
DA:503,0
DA:504,0
DA:506,0
DA:507,0
DA:513,0
DA:515,0
DA:516,0
DA:517,0
DA:518,0
DA:519,0
DA:521,0
DA:527,0
DA:529,0
DA:530,0
DA:532,0
DA:533,0
DA:534,0
DA:535,0
DA:537,0
DA:538,0
DA:541,0
DA:545,0
DA:546,0
DA:548,0
DA:550,0
DA:552,0
DA:553,0
DA:556,0
DA:557,0
DA:559,0
DA:561,0
DA:562,0
DA:563,0
DA:564,0
DA:566,0
DA:567,0
DA:569,0
DA:570,0
DA:571,0
DA:573,0
DA:575,0
DA:578,0
DA:586,0
DA:588,0
DA:589,0
DA:590,0
DA:591,0
DA:592,0
DA:593,0
DA:594,0
DA:595,0
DA:596,0
DA:598,0
DA:603,0
DA:605,0
DA:606,0
DA:608,0
DA:609,0
DA:610,0
DA:611,0
DA:613,0
DA:616,0
DA:622,0
DA:624,0
DA:625,0
DA:626,0
DA:627,0
DA:628,0
DA:629,0
DA:631,0
DA:632,0
DA:633,0
DA:634,0
DA:635,0
DA:637,0
DA:638,0
DA:639,0
DA:640,0
DA:641,0
DA:643,0
DA:644,0
DA:645,0
DA:647,0
DA:648,0
DA:649,0
DA:650,0
DA:651,0
DA:653,0
DA:654,0
DA:655,0
DA:656,0
DA:657,0
DA:659,0
DA:660,0
DA:661,0
DA:662,0
DA:663,0
DA:665,0
DA:666,0
DA:667,0
DA:668,0
DA:669,0
DA:682,0
DA:683,0
DA:684,0
DA:686,0
DA:692,0
DA:694,0
DA:695,0
DA:696,0
DA:697,0
DA:698,0
DA:700,0
DA:701,0
DA:703,0
DA:705,0
DA:706,0
DA:707,0
DA:708,0
DA:709,0
DA:711,0
DA:712,0
DA:713,0
DA:714,0
DA:715,0
DA:717,0
DA:718,0
DA:720,0
DA:721,0
DA:722,0
DA:724,0
DA:725,0
DA:727,0
DA:729,0
DA:731,0
DA:732,0
DA:734,0
DA:737,0
DA:738,0
DA:739,0
DA:747,0
DA:748,0
DA:754,0
DA:760,0
DA:762,0
DA:763,0
DA:764,0
DA:765,0
DA:766,0
DA:768,0
DA:770,0
DA:771,0
DA:776,0
DA:777,0
DA:780,0
DA:782,0
DA:783,0
DA:784,0
DA:786,0
DA:787,0
DA:788,0
DA:792,0
DA:793,0
DA:796,0
DA:797,0
DA:804,0
DA:806,0
DA:807,0
DA:808,0
DA:809,0
DA:811,0
DA:813,0
DA:814,0
DA:816,0
DA:818,0
DA:820,0
DA:822,0
DA:823,0
DA:824,0
DA:825,0
DA:826,0
DA:828,0
DA:829,0
DA:831,0
DA:835,0
DA:836,0
DA:838,0
DA:840,0
DA:841,0
DA:843,0
DA:844,0
DA:848,0
DA:849,0
DA:852,0
DA:853,0
DA:854,0
DA:860,0
DA:868,0
DA:869,0
DA:871,0
DA:872,0
DA:876,0
DA:883,0
DA:885,0
DA:886,0
DA:888,0
DA:891,0
DA:892,0
DA:894,0
DA:895,0
DA:897,0
DA:898,0
DA:899,0
DA:900,0
DA:901,0
DA:902,0
DA:907,0
DA:909,0
DA:910,0
DA:912,0
DA:913,0
DA:914,0
DA:915,0
DA:916,0
DA:917,0
DA:921,0
DA:922,0
DA:924,0
DA:926,0
DA:927,0
DA:928,0
DA:929,0
DA:930,0
DA:939,0
DA:941,0
DA:942,0
DA:943,0
DA:946,0
DA:947,0
DA:956,0
DA:958,0
DA:959,0
DA:960,0
DA:961,0
DA:962,0
DA:964,0
DA:965,0
DA:967,0
DA:969,0
DA:971,0
DA:973,0
DA:980,0
DA:982,0
DA:983,0
DA:984,0
DA:985,0
DA:987,0
DA:988,0
DA:989,0
DA:990,0
DA:993,0
DA:994,0
DA:996,0
DA:997,0
DA:998,0
DA:999,0
DA:1000,0
DA:1006,0
DA:1007,0
DA:1013,0
DA:1019,0
DA:1021,0
DA:1023,0
DA:1024,0
DA:1025,0
DA:1026,0
DA:1028,0
DA:1029,0
DA:1030,0
DA:1032,0
DA:1033,0
DA:1034,0
DA:1035,0
DA:1041,0
DA:1046,0
DA:1048,0
DA:1049,0
DA:1050,0
DA:1052,0
DA:1053,0
DA:1054,0
DA:1056,0
DA:1057,0
DA:1058,0
DA:1060,0
DA:1061,0
DA:1062,0
DA:1064,0
DA:1065,0
DA:1066,0
DA:1067,0
DA:1068,0
DA:1072,0
DA:1077,0
DA:1079,0
DA:1080,0
DA:1082,0
DA:1083,0
DA:1085,0
DA:1090,0
DA:1092,0
DA:1094,0
DA:1095,0
DA:1097,0
DA:1098,0
DA:1109,0
DA:1111,0
DA:1113,0
DA:1114,0
DA:1116,0
DA:1117,0
DA:1118,0
DA:1133,0
DA:1135,0
DA:1137,0
DA:1139,0
DA:1141,0
DA:1142,0
DA:1148,0
DA:1149,0
DA:1151,0
DA:1156,0
DA:1158,0
DA:1159,0
DA:1160,0
DA:1162,0
DA:1165,0
DA:1170,0
DA:1172,0
DA:1173,0
DA:1174,0
DA:1176,0
DA:1178,0
DA:1179,0
DA:1180,0
DA:1187,0
DA:1191,0
DA:1192,0
DA:1194,0
DA:1195,0
DA:1197,0
DA:1198,0
DA:1199,0
DA:1201,0
DA:1206,0
DA:1208,0
DA:1209,0
DA:1210,0
DA:1212,0
DA:1214,0
DA:1215,0
DA:1217,0
DA:1218,0
DA:1220,0
DA:1221,0
DA:1226,0
DA:1228,0
DA:1229,0
DA:1230,0
DA:1234,0
DA:1236,0
DA:1237,0
DA:1239,0
DA:1244,0
DA:1246,0
DA:1247,0
DA:1248,0
DA:1251,0
DA:1253,0
DA:1254,0
DA:1255,0
DA:1256,0
DA:1257,0
DA:1258,0
DA:1259,0
DA:1260,0
DA:1262,0
DA:1270,0
DA:1271,0
DA:1276,0
DA:1278,0
DA:1279,0
DA:1281,0
DA:1286,0
DA:1288,0
DA:1289,0
DA:1290,0
DA:1293,0
DA:1295,0
DA:1296,0
DA:1297,0
DA:1298,0
DA:1299,0
DA:1300,0
DA:1301,0
DA:1302,0
DA:1305,0
DA:1314,0
DA:1319,0
DA:1321,0
DA:1322,0
DA:1323,0
DA:1325,0
DA:1326,0
DA:1327,0
DA:1328,0
DA:1329,0
DA:1332,0
DA:1338,0
DA:1340,0
DA:1341,0
DA:1342,0
DA:1343,0
DA:1344,0
DA:1349,0
DA:1351,0
DA:1352,0
DA:1353,0
DA:1355,0
DA:1356,0
DA:1358,0
DA:1359,0
DA:1364,0
DA:1366,0
DA:1367,0
DA:1368,0
DA:1369,0
DA:1370,0
DA:1371,0
DA:1373,0
DA:1374,0
DA:1375,0
DA:1377,0
DA:1378,0
DA:1380,0
DA:1383,0
DA:1388,0
DA:1390,0
DA:1393,0
DA:1394,0
DA:1403,0
DA:1405,0
DA:1406,0
DA:1408,0
DA:1410,0
DA:1412,0
DA:1414,0
DA:1415,0
DA:1417,0
DA:1422,0
DA:1428,0
DA:1430,0
DA:1432,0
DA:1433,0
DA:1434,0
DA:1435,0
DA:1439,0
DA:1444,0
DA:1446,0
DA:1448,0
DA:1449,0
DA:1451,0
DA:1453,0
DA:1458,0
DA:1460,0
DA:1462,0
DA:1463,0
DA:1464,0
DA:1465,0
DA:1467,0
DA:1468,0
DA:1469,0
DA:1470,0
DA:1472,0
DA:1473,0
DA:1475,0
DA:1476,0
DA:1481,0
DA:1486,0
DA:1488,0
DA:1489,0
DA:1491,0
DA:1492,0
DA:1493,0
DA:1499,0
DA:1501,0
DA:1502,0
DA:1503,0
DA:1504,0
DA:1508,0
DA:1514,0
DA:1516,0
DA:1517,0
DA:1518,0
DA:1520,0
DA:1526,0
DA:1528,0
DA:1529,0
DA:1530,0
DA:1531,0
DA:1532,0
DA:1533,0
DA:1534,0
DA:1536,0
DA:1537,0
DA:1538,0
DA:1544,0
DA:1550,0
DA:1552,0
DA:1553,0
DA:1554,0
DA:1556,0
DA:1558,0
DA:1559,0
DA:1561,0
DA:1563,0
DA:1564,0
DA:1565,0
DA:1566,0
DA:1568,0
DA:1569,0
DA:1570,0
DA:1572,0
DA:1573,0
DA:1582,0
DA:1583,0
DA:1586,0
DA:1587,0
DA:1599,0
DA:1601,0
DA:1602,0
DA:1604,0
DA:1605,0
DA:1606,0
DA:1607,0
DA:1608,0
DA:1610,0
DA:1613,0
end_of_record
SF:/usr/include/c++/9/bits/stl_construct.h
DA:74,0
DA:75,0
DA:97,0
DA:98,0
DA:105,0
DA:107,0
DA:108,0
DA:117,0
DA:127,0
DA:137,0
DA:203,0
DA:206,0
end_of_record
TN:
SF:/usr/include/c++/9/bits/stl_iterator_base_funcs.h
DA:98,0
DA:104,0
DA:138,0
DA:141,0
end_of_record
SF:/usr/include/c++/9/bits/std_abs.h
DA:61,0
end_of_record
SF:/usr/include/c++/9/ext/new_allocator.h
DA:89,0
DA:119,0
DA:128,0
end_of_record
SF:/usr/include/c++/9/ext/type_traits.h
DA:152,0
end_of_record
SF:/usr/include/c++/9/bits/move.h
DA:47,0
DA:138,0
DA:139,0
end_of_record
SF:/usr/include/c++/9/bits/basic_string.h
DA:150,0
DA:178,0
DA:179,0
DA:182,0
DA:183,0
DA:186,0
DA:200,0
DA:203,0
DA:210,0
DA:211,0
DA:214,0
DA:216,0
DA:217,0
DA:221,0
DA:222,0
DA:229,0
DA:231,0
DA:232,0
DA:236,0
DA:237,0
DA:286,0
DA:287,0
DA:346,0
DA:348,0
DA:349,0
DA:351,0
DA:396,0
DA:398,0
DA:657,0
DA:658,0
DA:665,0
DA:696,0
DA:930,0
DA:936,0
DA:1364,0
DA:1366,0
DA:2300,0
DA:2301,0
DA:2393,0
DA:2396,0
end_of_record
SF:/workspace/vtr-verilog-to-routing/libs/EXTERNAL/libargparse/src/argparse_value.hpp
DA:50,0
end_of_record
SF:/usr/include/c++/9/iostream
end_of_record
SF:/usr/include/c++/9/bits/alloc_traits.h
DA:469,0
DA:470,0
end_of_record
SF:/usr/include/x86_64-linux-gnu/bits/string_fortified.h
DA:31,0
DA:34,0
DA:88,0
DA:90,0
DA:126,0
DA:128,0
end_of_record
SF:/usr/include/c++/9/ostream
DA:108,0
DA:113,0
DA:565,0
DA:568,0
DA:570,0
DA:571,0
end_of_record
SF:/usr/include/c++/9/bits/ptr_traits.h
DA:146,0
DA:147,0
end_of_record
SF:/usr/include/c++/9/bits/basic_string.tcc
FN:206,_ZNSt7__cxx1112basic_stringIcSt11char_traitsIcESaIcEE12_M_constructIPKcEEvT_S8_St20forward_iterator_tag
FNDA:0,_ZNSt7__cxx1112basic_stringIcSt11char_traitsIcESaIcEE12_M_constructIPKcEEvT_S8_St20forward_iterator_tag
DA:206,0
DA:211,0
DA:212,0
DA:215,0
DA:217,0
DA:219,0
DA:220,0
DA:225,0
DA:232,0
DA:233,0
end_of_record
SF:/usr/include/x86_64-linux-gnu/bits/stdio2.h
DA:34,0
DA:36,0
DA:37,0
DA:64,0
DA:67,0
DA:105,0
DA:107,0
end_of_record
SF:/usr/include/c++/9/cmath
DA:350,0
DA:351,0
end_of_record
SF:/usr/include/c++/9/bits/locale_facets.h
FN:872,_ZNKSt5ctypeIcE5widenEc
FNDA:0,_ZNKSt5ctypeIcE5widenEc
FN:1084,_ZNKSt5ctypeIcE8do_widenEc
FNDA:0,_ZNKSt5ctypeIcE8do_widenEc
DA:872,0
DA:874,0
DA:875,0
DA:876,0
DA:877,0
DA:1084,0
DA:1085,0
end_of_record
SF:/usr/include/c++/9/bits/char_traits.h
DA:299,0
DA:300,0
DA:329,0
DA:335,0
DA:361,0
DA:363,0
DA:365,0
end_of_record
SF:/workspace/vtr-verilog-to-routing/ODIN_II/SRC/lib_ast/ast_util.cpp
FN:49,_Z15update_tree_tagP12ast_node_t_tii
FNDA:0,_Z15update_tree_tagP12ast_node_t_tii
FN:71,_Z12add_tag_datav
FNDA:0,_Z12add_tag_datav
FN:96,_Z18create_node_w_type3idsii
FNDA:0,_Z18create_node_w_type3idsii
FN:123,_Z34free_assignement_of_node_keep_treeP12ast_node_t_t
FNDA:0,_Z34free_assignement_of_node_keep_treeP12ast_node_t_t
FN:148,_Z16free_single_nodeP12ast_node_t_t
FNDA:0,_Z16free_single_nodeP12ast_node_t_t
FN:162,_Z15free_whole_treeP12ast_node_t_t
FNDA:0,_Z15free_whole_treeP12ast_node_t_t
FN:176,_Z19create_tree_node_idPcii
FNDA:0,_Z19create_tree_node_idPcii
FN:187,_Z33create_tree_node_long_long_numberxiii
FNDA:0,_Z33create_tree_node_long_long_numberxiii
FN:213,_Z23create_tree_node_numberNSt7__cxx1112basic_stringIcSt11char_traitsIcESaIcEEE5bases10signednessii
FNDA:0,_Z23create_tree_node_numberNSt7__cxx1112basic_stringIcSt11char_traitsIcESaIcEEE5bases10signednessii
FN:309,_Z25allocate_children_to_nodeP12ast_node_t_tiz
FNDA:0,_Z25allocate_children_to_nodeP12ast_node_t_tiz
FN:330,_Z17add_child_to_nodeP12ast_node_t_tS0_
FNDA:0,_Z17add_child_to_nodeP12ast_node_t_tS0_
FN:345,_Z38add_child_at_the_beginning_of_the_nodeP12ast_node_t_tS0_
FNDA:0,_Z38add_child_at_the_beginning_of_the_nodeP12ast_node_t_tS0_
FN:375,_Z9get_rangeP12ast_node_t_t
FNDA:0,_Z9get_rangeP12ast_node_t_t
FN:406,_Z32make_concat_into_list_of_stringsP12ast_node_t_tPc
FNDA:0,_Z32make_concat_into_list_of_stringsP12ast_node_t_tPc
FN:528,_Z21change_to_number_nodeP12ast_node_t_tx
FNDA:0,_Z21change_to_number_nodeP12ast_node_t_tx
FN:554,_Z30get_name_of_var_declare_at_bitP12ast_node_t_ti
FNDA:0,_Z30get_name_of_var_declare_at_bitP12ast_node_t_ti
FN:582,_Z22get_name_of_pin_at_bitP12ast_node_t_tiPc
FNDA:0,_Z22get_name_of_pin_at_bitP12ast_node_t_tiPc
FN:693,_Z23get_name_of_pins_numberP12ast_node_t_tii
FNDA:0,_Z23get_name_of_pins_numberP12ast_node_t_tii
FN:726,_Z16get_name_of_pinsP12ast_node_t_tPc
FNDA:0,_Z16get_name_of_pinsP12ast_node_t_tPc
FN:869,_Z28get_name_of_pins_with_prefixP12ast_node_t_tPc
FNDA:0,_Z28get_name_of_pins_with_prefixP12ast_node_t_tPc
FN:895,_Z12resolve_nodeP12STRING_CACHEsPcP12ast_node_t_t
FNDA:0,_Z12resolve_nodeP12STRING_CACHEsPcP12ast_node_t_t
FN:960,_Z22make_module_param_nameP12ast_node_t_tPc
FNDA:0,_Z22make_module_param_nameP12ast_node_t_tPc
FN:988,_Z13move_ast_nodeP12ast_node_t_tS0_S0_
FNDA:0,_Z13move_ast_nodeP12ast_node_t_tS0_S0_
FN:1012,_Z18ast_node_deep_copyP12ast_node_t_t
FNDA:0,_Z18ast_node_deep_copyP12ast_node_t_t
FN:1043,_Z10fold_unaryP12ast_node_t_t14operation_list
FNDA:0,_Z10fold_unaryP12ast_node_t_t14operation_list
FN:1130,_Z11fold_binaryP12ast_node_t_tS0_14operation_list
FNDA:0,_Z11fold_binaryP12ast_node_t_tS0_14operation_list
FN:1306,_Z16node_is_constantP12ast_node_t_t
FNDA:0,_Z16node_is_constantP12ast_node_t_t
FN:1331,_Z12initial_nodeP12ast_node_t_t3idsiii
FNDA:0,_Z12initial_nodeP12ast_node_t_t3idsiii
FN:1352,_Z11get_range2DP12ast_node_t_t
FNDA:0,_Z11get_range2DP12ast_node_t_t
DA:49,0
DA:51,0
DA:52,0
DA:53,0
DA:55,0
DA:56,0
DA:58,0
DA:59,0
DA:60,0
DA:63,0
DA:64,0
DA:66,0
DA:71,0
DA:73,0
DA:74,0
DA:76,0
DA:77,0
DA:79,0
DA:81,0
DA:86,0
DA:87,0
DA:89,0
DA:96,0
DA:98,0
DA:100,0
DA:102,0
DA:103,0
DA:104,0
DA:106,0
DA:107,0
DA:109,0
DA:110,0
DA:111,0
DA:113,0
DA:114,0
DA:116,0
DA:123,0
DA:125,0
DA:126,0
DA:127,0
DA:128,0
DA:129,0
DA:130,0
DA:131,0
DA:132,0
DA:135,0
DA:136,0
DA:143,0
DA:148,0
DA:150,0
DA:151,0
DA:152,0
DA:153,0
DA:155,0
DA:162,0
DA:164,0
DA:166,0
DA:167,0
DA:168,0
DA:170,0
DA:176,0
DA:178,0
DA:179,0
DA:181,0
DA:187,0
DA:189,0
DA:190,0
DA:191,0
DA:192,0
DA:194,0
DA:196,0
DA:197,0
DA:200,0
DA:201,0
DA:203,0
DA:204,0
DA:205,0
DA:207,0
DA:213,0
DA:215,0
DA:216,0
DA:217,0
DA:219,0
DA:221,0
DA:223,0
DA:224,0
DA:225,0
DA:227,0
DA:228,0
DA:231,0
DA:236,0
DA:238,0
DA:239,0
DA:241,0
DA:243,0
DA:244,0
DA:245,0
DA:247,0
DA:252,0
DA:253,0
DA:255,0
DA:256,0
DA:257,0
DA:261,0
DA:263,0
DA:265,0
DA:266,0
DA:267,0
DA:269,0
DA:270,0
DA:271,0
DA:272,0
DA:274,0
DA:277,0
DA:281,0
DA:282,0
DA:283,0
DA:285,0
DA:286,0
DA:288,0
DA:289,0
DA:291,0
DA:294,0
DA:295,0
DA:297,0
DA:298,0
DA:302,0
DA:309,0
DA:311,0
DA:312,0
DA:315,0
DA:316,0
DA:319,0
DA:321,0
DA:323,0
DA:325,0
DA:330,0
DA:333,0
DA:337,0
DA:338,0
DA:339,0
DA:345,0
DA:347,0
DA:348,0
DA:350,0
DA:356,0
DA:357,0
DA:359,0
DA:361,0
DA:362,0
DA:363,0
DA:364,0
DA:367,0
DA:375,0
DA:377,0
DA:381,0
DA:386,0
DA:389,0
DA:392,0
DA:393,0
DA:394,0
DA:397,0
DA:406,0
DA:408,0
DA:409,0
DA:410,0
DA:412,0
DA:413,0
DA:416,0
DA:418,0
DA:420,0
DA:424,0
DA:426,0
DA:428,0
DA:429,0
DA:430,0
DA:432,0
DA:434,0
DA:436,0
DA:437,0
DA:438,0
DA:440,0
DA:443,0
DA:444,0
DA:445,0
DA:452,0
DA:454,0
DA:455,0
DA:456,0
DA:459,0
DA:461,0
DA:465,0
DA:468,0
DA:470,0
DA:471,0
DA:472,0
DA:474,0
DA:476,0
DA:477,0
DA:478,0
DA:479,0
DA:480,0
DA:484,0
DA:486,0
DA:487,0
DA:488,0
DA:489,0
DA:492,0
DA:494,0
DA:496,0
DA:500,0
DA:502,0
DA:503,0
DA:504,0
DA:507,0
DA:510,0
DA:512,0
DA:513,0
DA:514,0
DA:518,0
DA:521,0
DA:528,0
DA:531,0
DA:532,0
DA:533,0
DA:535,0
DA:536,0
DA:537,0
DA:539,0
DA:540,0
DA:542,0
DA:545,0
DA:546,0
DA:548,0
DA:554,0
DA:556,0
DA:559,0
DA:561,0
DA:562,0
DA:564,0
DA:566,0
DA:567,0
DA:569,0
DA:572,0
DA:575,0
DA:582,0
DA:584,0
DA:585,0
DA:587,0
DA:589,0
DA:590,0
DA:591,0
DA:593,0
DA:595,0
DA:596,0
DA:597,0
DA:598,0
DA:599,0
DA:601,0
DA:603,0
DA:605,0
DA:607,0
DA:609,0
DA:610,0
DA:612,0
DA:616,0
DA:617,0
DA:620,0
DA:624,0
DA:626,0
DA:627,0
DA:630,0
DA:632,0
DA:634,0
DA:636,0
DA:637,0
DA:639,0
DA:641,0
DA:643,0
DA:644,0
DA:646,0
DA:648,0
DA:649,0
DA:653,0
DA:654,0
DA:659,0
DA:660,0
DA:663,0
DA:665,0
DA:667,0
DA:668,0
DA:672,0
DA:675,0
DA:678,0
DA:679,0
DA:684,0
DA:686,0
DA:687,0
DA:690,0
DA:693,0
DA:695,0
DA:696,0
DA:698,0
DA:699,0
DA:700,0
DA:703,0
DA:705,0
DA:706,0
DA:708,0
DA:709,0
DA:710,0
DA:711,0
DA:716,0
DA:718,0
DA:726,0
DA:728,0
DA:729,0
DA:730,0
DA:732,0
DA:733,0
DA:735,0
DA:737,0
DA:738,0
DA:739,0
DA:740,0
DA:741,0
DA:742,0
DA:744,0
DA:746,0
DA:747,0
DA:748,0
DA:749,0
DA:750,0
DA:751,0
DA:753,0
DA:754,0
DA:755,0
DA:759,0
DA:760,0
DA:763,0
DA:766,0
DA:767,0
DA:770,0
DA:772,0
DA:774,0
DA:776,0
DA:778,0
DA:780,0
DA:782,0
DA:785,0
DA:787,0
DA:789,0
DA:791,0
DA:792,0
DA:793,0
DA:795,0
DA:797,0
DA:798,0
DA:799,0
DA:800,0
DA:801,0
DA:802,0
DA:803,0
DA:805,0
DA:806,0
DA:807,0
DA:810,0
DA:812,0
DA:822,0
DA:823,0
DA:824,0
DA:827,0
DA:829,0
DA:830,0
DA:832,0
DA:834,0
DA:836,0
DA:840,0
DA:843,0
DA:846,0
DA:847,0
DA:848,0
DA:850,0
DA:851,0
DA:857,0
DA:860,0
DA:861,0
DA:863,0
DA:869,0
DA:871,0
DA:872,0
DA:875,0
DA:877,0
DA:879,0
DA:882,0
DA:895,0
DA:897,0
DA:899,0
DA:900,0
DA:901,0
DA:902,0
DA:904,0
DA:905,0
DA:906,0
DA:908,0
DA:909,0
DA:910,0
DA:912,0
DA:913,0
DA:914,0
DA:915,0
DA:916,0
DA:917,0
DA:919,0
DA:922,0
DA:923,0
DA:924,0
DA:928,0
DA:929,0
DA:930,0
DA:934,0
DA:935,0
DA:936,0
DA:942,0
DA:943,0
DA:944,0
DA:947,0
DA:948,0
DA:950,0
DA:960,0
DA:962,0
DA:963,0
DA:965,0
DA:967,0
DA:968,0
DA:969,0
DA:970,0
DA:972,0
DA:974,0
DA:978,0
DA:988,0
DA:990,0
DA:991,0
DA:992,0
DA:993,0
DA:995,0
DA:997,0
DA:998,0
DA:999,0
DA:1001,0
DA:1005,0
DA:1006,0
DA:1012,0
DA:1013,0
DA:1014,0
DA:1016,0
DA:1021,0
DA:1022,0
DA:1025,0
DA:1026,0
DA:1027,0
DA:1030,0
DA:1031,0
DA:1043,0
DA:1044,0
DA:1045,0
DA:1046,0
DA:1047,0
DA:1048,0
DA:1049,0
DA:1050,0
DA:1052,0
DA:1053,0
DA:1054,0
DA:1055,0
DA:1056,0
DA:1058,0
DA:1059,0
DA:1060,0
DA:1061,0
DA:1063,0
DA:1064,0
DA:1065,0
DA:1066,0
DA:1068,0
DA:1069,0
DA:1070,0
DA:1071,0
DA:1074,0
DA:1075,0
DA:1076,0
DA:1084,0
DA:1085,0
DA:1086,0
DA:1087,0
DA:1092,0
DA:1093,0
DA:1094,0
DA:1095,0
DA:1100,0
DA:1101,0
DA:1102,0
DA:1103,0
DA:1108,0
DA:1109,0
DA:1110,0
DA:1111,0
DA:1119,0
DA:1120,0
DA:1121,0
DA:1130,0
DA:1133,0
DA:1134,0
DA:1135,0
DA:1136,0
DA:1137,0
DA:1139,0
DA:1140,0
DA:1141,0
DA:1142,0
DA:1144,0
DA:1145,0
DA:1147,0
DA:1148,0
DA:1149,0
DA:1150,0
DA:1151,0
DA:1153,0
DA:1154,0
DA:1155,0
DA:1156,0
DA:1158,0
DA:1159,0
DA:1160,0
DA:1161,0
DA:1163,0
DA:1164,0
DA:1165,0
DA:1166,0
DA:1168,0
DA:1169,0
DA:1170,0
DA:1171,0
DA:1173,0
DA:1174,0
DA:1175,0
DA:1176,0
DA:1178,0
DA:1179,0
DA:1180,0
DA:1181,0
DA:1183,0
DA:1184,0
DA:1185,0
DA:1186,0
DA:1188,0
DA:1189,0
DA:1190,0
DA:1191,0
DA:1193,0
DA:1194,0
DA:1195,0
DA:1196,0
DA:1198,0
DA:1199,0
DA:1200,0
DA:1201,0
DA:1203,0
DA:1204,0
DA:1205,0
DA:1206,0
DA:1208,0
DA:1209,0
DA:1210,0
DA:1211,0
DA:1213,0
DA:1214,0
DA:1215,0
DA:1216,0
DA:1218,0
DA:1219,0
DA:1220,0
DA:1221,0
DA:1223,0
DA:1224,0
DA:1225,0
DA:1226,0
DA:1228,0
DA:1229,0
DA:1230,0
DA:1231,0
DA:1233,0
DA:1234,0
DA:1235,0
DA:1236,0
DA:1238,0
DA:1239,0
DA:1240,0
DA:1241,0
DA:1243,0
DA:1244,0
DA:1245,0
DA:1246,0
DA:1248,0
DA:1249,0
DA:1250,0
DA:1251,0
DA:1253,0
DA:1254,0
DA:1255,0
DA:1257,0
DA:1262,0
DA:1263,0
DA:1264,0
DA:1272,0
DA:1273,0
DA:1274,0
DA:1276,0
DA:1281,0
DA:1282,0
DA:1283,0
DA:1294,0
DA:1295,0
DA:1296,0
DA:1297,0
DA:1306,0
DA:1307,0
DA:1309,0
DA:1310,0
DA:1311,0
DA:1312,0
DA:1313,0
DA:1314,0
DA:1318,0
DA:1319,0
DA:1331,0
DA:1333,0
DA:1334,0
DA:1335,0
DA:1336,0
DA:1337,0
DA:1338,0
DA:1339,0
DA:1340,0
DA:1341,0
DA:1342,0
DA:1343,0
DA:1344,0
DA:1346,0
DA:1352,0
DA:1354,0
DA:1356,0
DA:1357,0
DA:1358,0
DA:1359,0
DA:1365,0
DA:1368,0
DA:1371,0
DA:1372,0
DA:1373,0
DA:1376,0
DA:1379,0
DA:1382,0
DA:1383,0
DA:1384,0
DA:1387,0
end_of_record
SF:/usr/include/c++/9/bits/allocator.h
DA:153,0
end_of_record
TN:
SF:/usr/include/c++/9/bits/allocator.h
DA:138,0
DA:141,0
DA:142,0
DA:153,0
end_of_record
SF:/workspace/vtr-verilog-to-routing/ODIN_II/SRC/lib_ast/parse_making_ast.cpp
FN:87,_Z21graphVizOutputPreprocP8_IO_FILENSt7__cxx1112basic_stringIcSt11char_traitsIcESaIcEEEPc
FNDA:0,_Z21graphVizOutputPreprocP8_IO_FILENSt7__cxx1112basic_stringIcSt11char_traitsIcESaIcEEEPc
FN:116,_Z12parse_to_astv
FNDA:0,_Z12parse_to_astv
FN:222,_Z19cleanup_hard_blocksv
FNDA:0,_Z19cleanup_hard_blocksv
FN:247,_Z11init_parserv
FNDA:0,_Z11init_parserv
FN:279,_Z14cleanup_parserv
FNDA:0,_Z14cleanup_parserv
FN:298,_Z20init_parser_for_filev
FNDA:0,_Z20init_parser_for_filev
FN:314,_Z24clean_up_parser_for_filev
FNDA:0,_Z24clean_up_parser_for_filev
FN:323,_Z24next_parsed_verilog_fileP12ast_node_t_t
FNDA:0,_Z24next_parsed_verilog_fileP12ast_node_t_t
FN:348,_Z13newSymbolNodePci
FNDA:0,_Z13newSymbolNodePci
FN:385,_Z13newNumberNodeNSt7__cxx1112basic_stringIcSt11char_traitsIcESaIcEEE5bases10signednessi
FNDA:0,_Z13newNumberNodeNSt7__cxx1112basic_stringIcSt11char_traitsIcESaIcEEE5bases10signednessi
FN:394,_Z7newList3idsP12ast_node_t_t
FNDA:0,_Z7newList3idsP12ast_node_t_t
FN:404,_Z15newfunctionList3idsP12ast_node_t_t
FNDA:0,_Z15newfunctionList3idsP12ast_node_t_t
FN:418,_Z13newList_entryP12ast_node_t_tS0_
FNDA:0,_Z13newList_entryP12ast_node_t_tS0_
FN:432,_Z16newListReplicateP12ast_node_t_tS0_
FNDA:0,_Z16newListReplicateP12ast_node_t_tS0_
FN:450,_Z28markAndProcessSymbolListWith3idsS_P12ast_node_t_t
FNDA:0,_Z28markAndProcessSymbolListWith3idsS_P12ast_node_t_t
FN:847,_Z11newArrayRefPcP12ast_node_t_ti
FNDA:0,_Z11newArrayRefPcP12ast_node_t_ti
FN:862,_Z11newRangeRefPcP12ast_node_t_tS1_i
FNDA:0,_Z11newRangeRefPcP12ast_node_t_tS1_i
FN:879,_Z18newBinaryOperation14operation_listP12ast_node_t_tS1_i
FNDA:0,_Z18newBinaryOperation14operation_listP12ast_node_t_tS1_i
FN:893,_Z14newExpandPower14operation_listP12ast_node_t_tS1_i
FNDA:0,_Z14newExpandPower14operation_listP12ast_node_t_tS1_i
FN:938,_Z17newUnaryOperation14operation_listP12ast_node_t_ti
FNDA:0,_Z17newUnaryOperation14operation_listP12ast_node_t_ti
FN:956,_Z16newNegedgeSymbolPci
FNDA:0,_Z16newNegedgeSymbolPci
FN:971,_Z16newPosedgeSymbolPci
FNDA:0,_Z16newPosedgeSymbolPci
FN:986,_Z11newCaseItemP12ast_node_t_tS0_i
FNDA:0,_Z11newCaseItemP12ast_node_t_tS0_i
FN:999,_Z14newDefaultCaseP12ast_node_t_ti
FNDA:0,_Z14newDefaultCaseP12ast_node_t_ti
FN:1012,_Z21newParallelConnectionP12ast_node_t_tS0_i
FNDA:0,_Z21newParallelConnectionP12ast_node_t_tS0_i
FN:1024,_Z14newNonBlockingP12ast_node_t_tS0_i
FNDA:0,_Z14newNonBlockingP12ast_node_t_tS0_i
FN:1037,_Z10newInitialP12ast_node_t_ti
FNDA:0,_Z10newInitialP12ast_node_t_ti
FN:1049,_Z11newBlockingP12ast_node_t_tS0_i
FNDA:0,_Z11newBlockingP12ast_node_t_tS0_i
FN:1061,_Z20newFunctionAssigningP12ast_node_t_tS0_i
FNDA:0,_Z20newFunctionAssigningP12ast_node_t_tS0_i
FN:1086,_Z6newForP12ast_node_t_tS0_S0_S0_i
FNDA:0,_Z6newForP12ast_node_t_tS0_S0_S0_i
FN:1099,_Z8newWhileP12ast_node_t_tS0_i
FNDA:0,_Z8newWhileP12ast_node_t_tS0_i
FN:1116,_Z5newIfP12ast_node_t_tS0_S0_i
FNDA:0,_Z5newIfP12ast_node_t_tS0_S0_i
FN:1129,_Z13newIfQuestionP12ast_node_t_tS0_S0_i
FNDA:0,_Z13newIfQuestionP12ast_node_t_tS0_S0_i
FN:1141,_Z7newCaseP12ast_node_t_tS0_i
FNDA:0,_Z7newCaseP12ast_node_t_tS0_i
FN:1154,_Z9newAlwaysP12ast_node_t_tS0_i
FNDA:0,_Z9newAlwaysP12ast_node_t_tS0_i
FN:1167,_Z19newModuleConnectionPcP12ast_node_t_ti
FNDA:0,_Z19newModuleConnectionPcP12ast_node_t_ti
FN:1190,_Z18newModuleParameterPcP12ast_node_t_ti
FNDA:0,_Z18newModuleParameterPcP12ast_node_t_ti
FN:1223,_Z22newModuleNamedInstancePcP12ast_node_t_tS1_i
FNDA:0,_Z22newModuleNamedInstancePcP12ast_node_t_tS1_i
FN:1238,_Z24newFunctionNamedInstanceP12ast_node_t_tS0_i
FNDA:0,_Z24newFunctionNamedInstanceP12ast_node_t_tS0_i
FN:1261,_Z20newHardBlockInstancePcP12ast_node_t_ti
FNDA:0,_Z20newHardBlockInstancePcP12ast_node_t_ti
FN:1281,_Z17newModuleInstancePcP12ast_node_t_ti
FNDA:0,_Z17newModuleInstancePcP12ast_node_t_ti
FN:1341,_Z19newFunctionInstancePcP12ast_node_t_ti
FNDA:0,_Z19newFunctionInstancePcP12ast_node_t_ti
FN:1375,_Z15newGateInstancePcP12ast_node_t_tS1_S1_i
FNDA:0,_Z15newGateInstancePcP12ast_node_t_tS1_S1_i
FN:1406,_Z29newMultipleInputsGateInstancePcP12ast_node_t_tS1_S1_i
FNDA:0,_Z29newMultipleInputsGateInstancePcP12ast_node_t_tS1_S1_i
FN:1452,_Z7newGate14operation_listP12ast_node_t_ti
FNDA:0,_Z7newGate14operation_listP12ast_node_t_ti
FN:1469,_Z13newVarDeclarePcP12ast_node_t_tS1_S1_S1_S1_i
FNDA:0,_Z13newVarDeclarePcP12ast_node_t_tS1_S1_S1_S1_i
FN:1486,_Z24newIntegerTypeVarDeclarePcP12ast_node_t_tS1_S1_S1_S1_i
FNDA:0,_Z24newIntegerTypeVarDeclarePcP12ast_node_t_tS1_S1_S1_S1_i
FN:1506,_Z9newModulePcP12ast_node_t_tS1_i
FNDA:0,_Z9newModulePcP12ast_node_t_tS1_i
FN:1562,_Z11newFunctionP12ast_node_t_tS0_i
FNDA:0,_Z11newFunctionP12ast_node_t_tS0_i
FN:1645,_Z13next_functionv
FNDA:0,_Z13next_functionv
FN:1668,_Z11next_modulev
FNDA:0,_Z11next_modulev
FN:1697,_Z11newDefparam3idsP12ast_node_t_ti
FNDA:0,_Z11newDefparam3idsP12ast_node_t_ti
FN:1766,_Z11newConstantPcP12ast_node_t_ti
FNDA:0,_Z11newConstantPcP12ast_node_t_ti
FN:1793,_Z17graphVizOutputAstNSt7__cxx1112basic_stringIcSt11char_traitsIcESaIcEEEP12ast_node_t_t
FNDA:0,_Z17graphVizOutputAstNSt7__cxx1112basic_stringIcSt11char_traitsIcESaIcEEEP12ast_node_t_t
FN:1818,_Z31graphVizOutputAst_traverse_nodeP8_IO_FILEP12ast_node_t_tS2_i
FNDA:0,_Z31graphVizOutputAst_traverse_nodeP8_IO_FILEP12ast_node_t_tS2_i
FN:2139,_Z19calculate_operationP12ast_node_t_t
FNDA:0,_Z19calculate_operationP12ast_node_t_t
FN:2157,_Z15newVarDeclare2DPcP12ast_node_t_tS1_S1_S1_S1_S1_S1_i
FNDA:0,_Z15newVarDeclare2DPcP12ast_node_t_tS1_S1_S1_S1_S1_S1_i
FN:2171,_Z13newArrayRef2DPcP12ast_node_t_tS1_i
FNDA:0,_Z13newArrayRef2DPcP12ast_node_t_tS1_i
FN:2184,_Z13newRangeRef2DPcP12ast_node_t_tS1_S1_S1_i
FNDA:0,_Z13newRangeRef2DPcP12ast_node_t_tS1_S1_S1_i
DA:87,0
DA:89,0
DA:90,0
DA:91,0
DA:94,0
DA:95,0
DA:96,0
DA:97,0
DA:100,0
DA:101,0
DA:103,0
DA:104,0
DA:105,0
DA:106,0
DA:107,0
DA:108,0
DA:109,0
DA:110,0
DA:116,0
DA:118,0
DA:119,0
DA:120,0
DA:123,0
DA:126,0
DA:129,0
DA:132,0
DA:133,0
DA:134,0
DA:136,0
DA:137,0
DA:139,0
DA:143,0
DA:144,0
DA:145,0
DA:148,0
DA:149,0
DA:152,0
DA:155,0
DA:157,0
DA:159,0
DA:161,0
DA:163,0
DA:166,0
DA:168,0
DA:169,0
DA:171,0
DA:175,0
DA:176,0
DA:177,0
DA:180,0
DA:181,0
DA:184,0
DA:187,0
DA:190,0
DA:192,0
DA:194,0
DA:196,0
DA:201,0
DA:204,0
DA:205,0
DA:222,0
DA:224,0
DA:225,0
DA:226,0
DA:228,0
DA:230,0
DA:231,0
DA:232,0
DA:233,0
DA:234,0
DA:236,0
DA:238,0
DA:241,0
DA:247,0
DA:249,0
DA:251,0
DA:253,0
DA:255,0
DA:256,0
DA:257,0
DA:258,0
DA:259,0
DA:260,0
DA:261,0
DA:262,0
DA:263,0
DA:264,0
DA:265,0
DA:266,0
DA:267,0
DA:268,0
DA:269,0
DA:272,0
DA:273,0
DA:274,0
DA:279,0
DA:281,0
DA:284,0
DA:286,0
DA:288,0
DA:291,0
DA:293,0
DA:298,0
DA:301,0
DA:302,0
DA:305,0
DA:306,0
DA:307,0
DA:308,0
DA:309,0
DA:314,0
DA:317,0
DA:318,0
DA:323,0
DA:325,0
DA:327,0
DA:328,0
DA:329,0
DA:332,0
DA:334,0
DA:335,0
DA:340,0
DA:341,0
DA:342,0
DA:343,0
DA:348,0
DA:350,0
DA:351,0
DA:353,0
DA:354,0
DA:360,0
DA:362,0
DA:366,0
DA:371,0
DA:375,0
DA:385,0
DA:387,0
DA:388,0
DA:394,0
DA:397,0
DA:399,0
DA:401,0
DA:404,0
DA:407,0
DA:409,0
DA:411,0
DA:413,0
DA:418,0
DA:421,0
DA:423,0
DA:432,0
DA:435,0
DA:437,0
DA:440,0
DA:442,0
DA:443,0
DA:445,0
DA:448,0
DA:450,0
DA:452,0
DA:453,0
DA:454,0
DA:455,0
DA:456,0
DA:457,0
DA:458,0
DA:461,0
DA:465,0
DA:467,0
DA:469,0
DA:470,0
DA:471,0
DA:478,0
DA:480,0
DA:482,0
DA:483,0
DA:485,0
DA:486,0
DA:489,0
DA:490,0
DA:493,0
DA:494,0
DA:496,0
DA:498,0
DA:499,0
DA:501,0
DA:503,0
DA:504,0
DA:507,0
DA:509,0
DA:511,0
DA:512,0
DA:514,0
DA:515,0
DA:518,0
DA:519,0
DA:522,0
DA:523,0
DA:525,0
DA:527,0
DA:528,0
DA:530,0
DA:532,0
DA:533,0
DA:536,0
DA:537,0
DA:539,0
DA:540,0
DA:544,0
DA:546,0
DA:547,0
DA:550,0
DA:552,0
DA:553,0
DA:554,0
DA:556,0
DA:559,0
DA:561,0
DA:562,0
DA:563,0
DA:565,0
DA:567,0
DA:568,0
DA:569,0
DA:572,0
DA:574,0
DA:578,0
DA:579,0
DA:580,0
DA:581,0
DA:583,0
DA:587,0
DA:590,0
DA:591,0
DA:592,0
DA:594,0
DA:598,0
DA:603,0
DA:605,0
DA:606,0
DA:607,0
DA:609,0
DA:610,0
DA:612,0
DA:614,0
DA:615,0
DA:617,0
DA:618,0
DA:620,0
DA:622,0
DA:625,0
DA:626,0
DA:627,0
DA:628,0
DA:630,0
DA:632,0
DA:635,0
DA:636,0
DA:637,0
DA:638,0
DA:639,0
DA:640,0
DA:641,0
DA:642,0
DA:643,0
DA:644,0
DA:645,0
DA:646,0
DA:647,0
DA:648,0
DA:649,0
DA:650,0
DA:651,0
DA:654,0
DA:656,0
DA:657,0
DA:658,0
DA:661,0
DA:663,0
DA:665,0
DA:666,0
DA:668,0
DA:669,0
DA:672,0
DA:673,0
DA:676,0
DA:677,0
DA:679,0
DA:681,0
DA:682,0
DA:684,0
DA:686,0
DA:687,0
DA:690,0
DA:692,0
DA:694,0
DA:695,0
DA:697,0
DA:698,0
DA:701,0
DA:702,0
DA:705,0
DA:706,0
DA:708,0
DA:710,0
DA:711,0
DA:713,0
DA:715,0
DA:716,0
DA:719,0
DA:720,0
DA:722,0
DA:723,0
DA:728,0
DA:730,0
DA:731,0
DA:734,0
DA:736,0
DA:737,0
DA:738,0
DA:740,0
DA:743,0
DA:745,0
DA:746,0
DA:747,0
DA:750,0
DA:752,0
DA:753,0
DA:754,0
DA:757,0
DA:759,0
DA:763,0
DA:764,0
DA:765,0
DA:766,0
DA:768,0
DA:772,0
DA:775,0
DA:776,0
DA:777,0
DA:779,0
DA:783,0
DA:788,0
DA:790,0
DA:791,0
DA:792,0
DA:794,0
DA:795,0
DA:797,0
DA:799,0
DA:800,0
DA:802,0
DA:803,0
DA:805,0
DA:807,0
DA:810,0
DA:811,0
DA:812,0
DA:813,0
DA:815,0
DA:817,0
DA:820,0
DA:821,0
DA:822,0
DA:823,0
DA:824,0
DA:825,0
DA:826,0
DA:827,0
DA:828,0
DA:829,0
DA:830,0
DA:831,0
DA:832,0
DA:833,0
DA:834,0
DA:835,0
DA:836,0
DA:842,0
DA:847,0
DA:850,0
DA:852,0
DA:854,0
DA:856,0
DA:862,0
DA:865,0
DA:867,0
DA:869,0
DA:871,0
DA:873,0
DA:879,0
DA:882,0
DA:884,0
DA:886,0
DA:889,0
DA:890,0
DA:893,0
DA:896,0
DA:897,0
DA:900,0
DA:903,0
DA:904,0
DA:905,0
DA:906,0
DA:907,0
DA:908,0
DA:910,0
DA:911,0
DA:914,0
DA:915,0
DA:916,0
DA:918,0
DA:920,0
DA:921,0
DA:928,0
DA:931,0
DA:933,0
DA:938,0
DA:941,0
DA:943,0
DA:945,0
DA:948,0
DA:950,0
DA:956,0
DA:959,0
DA:961,0
DA:963,0
DA:965,0
DA:971,0
DA:974,0
DA:976,0
DA:978,0
DA:980,0
DA:986,0
DA:989,0
DA:991,0
DA:993,0
DA:999,0
DA:1002,0
DA:1004,0
DA:1006,0
DA:1012,0
DA:1015,0
DA:1017,0
DA:1019,0
DA:1024,0
DA:1027,0
DA:1029,0
DA:1031,0
DA:1037,0
DA:1040,0
DA:1042,0
DA:1044,0
DA:1049,0
DA:1052,0
DA:1054,0
DA:1056,0
DA:1061,0
DA:1063,0
DA:1064,0
DA:1066,0
DA:1068,0
DA:1070,0
DA:1072,0
DA:1075,0
DA:1078,0
DA:1080,0
DA:1086,0
DA:1089,0
DA:1091,0
DA:1093,0
DA:1099,0
DA:1102,0
DA:1104,0
DA:1107,0
DA:1108,0
DA:1116,0
DA:1119,0
DA:1121,0
DA:1123,0
DA:1129,0
DA:1132,0
DA:1134,0
DA:1136,0
DA:1141,0
DA:1144,0
DA:1146,0
DA:1148,0
DA:1154,0
DA:1157,0
DA:1159,0
DA:1161,0
DA:1167,0
DA:1169,0
DA:1171,0
DA:1172,0
DA:1174,0
DA:1182,0
DA:1184,0
DA:1190,0
DA:1192,0
DA:1194,0
DA:1195,0
DA:1197,0
DA:1204,0
DA:1206,0
DA:1212,0
DA:1215,0
DA:1217,0
DA:1223,0
DA:1225,0
DA:1228,0
DA:1230,0
DA:1232,0
DA:1238,0
DA:1240,0
DA:1241,0
DA:1243,0
DA:1244,0
DA:1245,0
DA:1246,0
DA:1247,0
DA:1249,0
DA:1252,0
DA:1254,0
DA:1256,0
DA:1261,0
DA:1263,0
DA:1266,0
DA:1268,0
DA:1271,0
DA:1272,0
DA:1273,0
DA:1275,0
DA:1281,0
DA:1283,0
DA:1285,0
DA:1286,0
DA:1287,0
DA:1289,0
DA:1290,0
DA:1291,0
DA:1294,0
DA:1298,0
DA:1299,0
DA:1300,0
DA:1303,0
DA:1306,0
DA:1307,0
DA:1312,0
DA:1313,0
DA:1314,0
DA:1315,0
DA:1316,0
DA:1317,0
DA:1318,0
DA:1323,0
DA:1325,0
DA:1326,0
DA:1327,0
DA:1330,0
DA:1331,0
DA:1332,0
DA:1335,0
DA:1336,0
DA:1341,0
DA:1343,0
DA:1345,0
DA:1346,0
DA:1347,0
DA:1350,0
DA:1354,0
DA:1356,0
DA:1357,0
DA:1360,0
DA:1362,0
DA:1365,0
DA:1366,0
DA:1367,0
DA:1369,0
DA:1375,0
DA:1378,0
DA:1379,0
DA:1381,0
DA:1383,0
DA:1386,0
DA:1387,0
DA:1388,0
DA:1389,0
DA:1390,0
DA:1391,0
DA:1392,0
DA:1393,0
DA:1396,0
DA:1398,0
DA:1399,0
DA:1401,0
DA:1403,0
DA:1406,0
DA:1408,0
DA:1410,0
DA:1412,0
DA:1414,0
DA:1416,0
DA:1419,0
DA:1421,0
DA:1423,0
DA:1425,0
DA:1427,0
DA:1429,0
DA:1431,0
DA:1432,0
DA:1435,0
DA:1438,0
DA:1440,0
DA:1442,0
DA:1445,0
DA:1447,0
DA:1452,0
DA:1455,0
DA:1457,0
DA:1459,0
DA:1461,0
DA:1469,0
DA:1471,0
DA:1474,0
DA:1477,0
DA:1479,0
DA:1486,0
DA:1488,0
DA:1490,0
DA:1492,0
DA:1495,0
DA:1498,0
DA:1500,0
DA:1506,0
DA:1508,0
DA:1509,0
DA:1510,0
DA:1511,0
DA:1514,0
DA:1516,0
DA:1518,0
DA:1521,0
DA:1522,0
DA:1523,0
DA:1524,0
DA:1526,0
DA:1527,0
DA:1528,0
DA:1529,0
DA:1531,0
DA:1532,0
DA:1533,0
DA:1535,0
DA:1536,0
DA:1537,0
DA:1538,0
DA:1542,0
DA:1545,0
DA:1547,0
DA:1550,0
DA:1553,0
DA:1555,0
DA:1562,0
DA:1565,0
DA:1566,0
DA:1567,0
DA:1568,0
DA:1569,0
DA:1570,0
DA:1573,0
DA:1574,0
DA:1576,0
DA:1578,0
DA:1580,0
DA:1582,0
DA:1584,0
DA:1586,0
DA:1588,0
DA:1590,0
DA:1592,0
DA:1594,0
DA:1597,0
DA:1598,0
DA:1599,0
DA:1600,0
DA:1601,0
DA:1602,0
DA:1603,0
DA:1604,0
DA:1610,0
DA:1613,0
DA:1616,0
DA:1619,0
DA:1622,0
DA:1623,0
DA:1624,0
DA:1627,0
DA:1628,0
DA:1630,0
DA:1632,0
DA:1635,0
DA:1638,0
DA:1640,0
DA:1645,0
DA:1647,0
DA:1651,0
DA:1652,0
DA:1655,0
DA:1656,0
DA:1659,0
DA:1660,0
DA:1662,0
DA:1663,0
DA:1664,0
DA:1668,0
DA:1670,0
DA:1671,0
DA:1674,0
DA:1675,0
DA:1678,0
DA:1679,0
DA:1681,0
DA:1682,0
DA:1684,0
DA:1685,0
DA:1687,0
DA:1688,0
DA:1690,0
DA:1691,0
DA:1692,0
DA:1697,0
DA:1699,0
DA:1700,0
DA:1701,0
DA:1702,0
DA:1703,0
DA:1704,0
DA:1706,0
DA:1708,0
DA:1710,0
DA:1712,0
DA:1713,0
DA:1714,0
DA:1715,0
DA:1716,0
DA:1719,0
DA:1720,0
DA:1723,0
DA:1724,0
DA:1725,0
DA:1726,0
DA:1727,0
DA:1728,0
DA:1729,0
DA:1733,0
DA:1734,0
DA:1736,0
DA:1738,0
DA:1739,0
DA:1741,0
DA:1742,0
DA:1745,0
DA:1746,0
DA:1747,0
DA:1754,0
DA:1756,0
DA:1757,0
DA:1766,0
DA:1768,0
DA:1771,0
DA:1773,0
DA:1776,0
DA:1778,0
DA:1779,0
DA:1793,0
DA:1795,0
DA:1796,0
DA:1797,0
DA:1800,0
DA:1801,0
DA:1802,0
DA:1805,0
DA:1806,0
DA:1808,0
DA:1811,0
DA:1812,0
DA:1813,0
DA:1818,0
DA:1820,0
DA:1821,0
DA:1824,0
DA:1826,0
DA:1832,0
DA:1834,0
DA:1835,0
DA:1837,0
DA:1838,0
DA:1840,0
DA:1841,0
DA:1843,0
DA:1844,0
DA:1845,0
DA:1846,0
DA:1848,0
DA:1850,0
DA:1852,0
DA:1854,0
DA:1856,0
DA:1858,0
DA:1860,0
DA:1862,0
DA:1864,0
DA:1866,0
DA:1868,0
DA:1870,0
DA:1872,0
DA:1874,0
DA:1876,0
DA:1877,0
DA:1878,0
DA:1880,0
DA:1881,0
DA:1883,0
DA:1884,0
DA:1886,0
DA:1887,0
DA:1889,0
DA:1890,0
DA:1892,0
DA:1893,0
DA:1895,0
DA:1896,0
DA:1898,0
DA:1899,0
DA:1901,0
DA:1902,0
DA:1904,0
DA:1905,0
DA:1907,0
DA:1908,0
DA:1910,0
DA:1911,0
DA:1913,0
DA:1914,0
DA:1916,0
DA:1917,0
DA:1919,0
DA:1920,0
DA:1922,0
DA:1923,0
DA:1925,0
DA:1926,0
DA:1928,0
DA:1929,0
DA:1931,0
DA:1932,0
DA:1934,0
DA:1935,0
DA:1937,0
DA:1938,0
DA:1940,0
DA:1941,0
DA:1943,0
DA:1944,0
DA:1946,0
DA:1947,0
DA:1949,0
DA:1950,0
DA:1952,0
DA:1953,0
DA:1955,0
DA:1956,0
DA:1958,0
DA:1959,0
DA:1961,0
DA:1962,0
DA:1964,0
DA:1965,0
DA:1967,0
DA:1968,0
DA:1970,0
DA:1971,0
DA:1973,0
DA:1974,0
DA:1976,0
DA:1977,0
DA:1979,0
DA:1980,0
DA:1982,0
DA:1983,0
DA:1985,0
DA:1986,0
DA:1988,0
DA:1989,0
DA:1991,0
DA:1992,0
DA:1994,0
DA:1995,0
DA:1997,0
DA:1998,0
DA:2000,0
DA:2001,0
DA:2003,0
DA:2004,0
DA:2006,0
DA:2007,0
DA:2009,0
DA:2010,0
DA:2012,0
DA:2013,0
DA:2015,0
DA:2016,0
DA:2018,0
DA:2019,0
DA:2021,0
DA:2022,0
DA:2024,0
DA:2025,0
DA:2027,0
DA:2028,0
DA:2030,0
DA:2031,0
DA:2033,0
DA:2034,0
DA:2036,0
DA:2037,0
DA:2039,0
DA:2040,0
DA:2042,0
DA:2043,0
DA:2049,0
DA:2050,0
DA:2052,0
DA:2053,0
DA:2055,0
DA:2056,0
DA:2058,0
DA:2059,0
DA:2061,0
DA:2062,0
DA:2064,0
DA:2065,0
DA:2067,0
DA:2068,0
DA:2070,0
DA:2071,0
DA:2073,0
DA:2074,0
DA:2076,0
DA:2077,0
DA:2079,0
DA:2080,0
DA:2086,0
DA:2087,0
DA:2089,0
DA:2090,0
DA:2092,0
DA:2093,0
DA:2095,0
DA:2096,0
DA:2098,0
DA:2099,0
DA:2101,0
DA:2102,0
DA:2104,0
DA:2105,0
DA:2107,0
DA:2108,0
DA:2110,0
DA:2111,0
DA:2113,0
DA:2114,0
DA:2116,0
DA:2117,0
DA:2121,0
DA:2122,0
DA:2126,0
DA:2129,0
DA:2130,0
DA:2132,0
DA:2134,0
DA:2137,0
DA:2139,0
DA:2140,0
DA:2141,0
DA:2142,0
DA:2143,0
DA:2146,0
DA:2147,0
DA:2150,0
DA:2151,0
DA:2157,0
DA:2159,0
DA:2162,0
DA:2165,0
DA:2166,0
DA:2171,0
DA:2174,0
DA:2176,0
DA:2178,0
DA:2179,0
DA:2184,0
DA:2187,0
DA:2189,0
DA:2191,0
DA:2194,0
DA:2196,0
end_of_record
SF:/usr/include/c++/9/bits/locale_facets.h
FN:872,_ZNKSt5ctypeIcE5widenEc
FNDA:0,_ZNKSt5ctypeIcE5widenEc
FN:1084,_ZNKSt5ctypeIcE8do_widenEc
FNDA:0,_ZNKSt5ctypeIcE8do_widenEc
DA:872,0
DA:874,0
DA:875,0
DA:876,0
DA:877,0
DA:1084,0
DA:1085,0
end_of_record
SF:/usr/include/c++/9/bits/char_traits.h
DA:299,0
DA:300,0
DA:329,0
DA:335,0
DA:361,0
DA:363,0
DA:365,0
end_of_record
SF:/usr/include/c++/9/bits/basic_string.tcc
FN:206,_ZNSt7__cxx1112basic_stringIcSt11char_traitsIcESaIcEE12_M_constructIPcEEvT_S7_St20forward_iterator_tag
FNDA:0,_ZNSt7__cxx1112basic_stringIcSt11char_traitsIcESaIcEE12_M_constructIPcEEvT_S7_St20forward_iterator_tag
FN:206,_ZNSt7__cxx1112basic_stringIcSt11char_traitsIcESaIcEE12_M_constructIPKcEEvT_S8_St20forward_iterator_tag
FNDA:0,_ZNSt7__cxx1112basic_stringIcSt11char_traitsIcESaIcEE12_M_constructIPKcEEvT_S8_St20forward_iterator_tag
DA:206,0
DA:211,0
DA:212,0
DA:215,0
DA:217,0
DA:219,0
DA:220,0
DA:225,0
DA:232,0
DA:233,0
DA:206,0
DA:211,0
DA:212,0
DA:215,0
DA:217,0
DA:219,0
DA:220,0
DA:225,0
DA:232,0
DA:233,0
end_of_record
SF:/usr/include/c++/9/bits/ptr_traits.h
DA:146,0
DA:147,0
end_of_record
SF:/usr/include/c++/9/cmath
DA:415,0
DA:418,0
end_of_record
SF:/usr/include/x86_64-linux-gnu/bits/stdio2.h
DA:34,0
DA:36,0
DA:37,0
DA:98,0
DA:100,0
DA:101,0
DA:105,0
DA:107,0
DA:255,0
DA:257,0
DA:259,0
DA:262,0
DA:265,0
end_of_record
SF:/usr/include/c++/9/bits/alloc_traits.h
DA:469,0
DA:470,0
DA:514,0
DA:515,0
end_of_record
SF:/usr/include/c++/9/ext/alloc_traits.h
DA:97,0
DA:98,0
end_of_record
SF:/usr/include/x86_64-linux-gnu/bits/string_fortified.h
DA:88,0
DA:90,0
DA:126,0
DA:128,0
end_of_record
SF:/usr/include/c++/9/ostream
DA:108,0
DA:113,0
DA:565,0
DA:568,0
DA:570,0
DA:571,0
end_of_record
SF:/usr/include/c++/9/bits/basic_string.h
DA:150,0
DA:159,0
DA:160,0
DA:178,0
DA:179,0
DA:182,0
DA:183,0
DA:186,0
DA:190,0
DA:193,0
DA:200,0
DA:203,0
DA:210,0
DA:211,0
DA:214,0
DA:216,0
DA:217,0
DA:221,0
DA:222,0
DA:229,0
DA:231,0
DA:232,0
DA:236,0
DA:237,0
DA:243,0
DA:247,0
DA:263,0
DA:266,0
DA:286,0
DA:287,0
DA:290,0
DA:291,0
DA:346,0
DA:348,0
DA:349,0
DA:351,0
DA:392,0
DA:393,0
DA:396,0
DA:398,0
DA:448,0
DA:450,0
DA:451,0
DA:657,0
DA:658,0
DA:936,0
DA:2300,0
DA:2301,0
end_of_record
SF:/workspace/vtr-verilog-to-routing/libs/EXTERNAL/libargparse/src/argparse_value.hpp
DA:50,0
DA:53,0
end_of_record
SF:/usr/include/c++/9/iostream
end_of_record
SF:/usr/include/string.h
DA:240,0
DA:242,0
end_of_record
SF:/usr/include/c++/9/bits/move.h
DA:47,0
DA:99,0
DA:138,0
DA:139,0
end_of_record
SF:/usr/include/c++/9/ext/new_allocator.h
DA:80,0
DA:83,0
DA:89,0
DA:119,0
DA:128,0
end_of_record
SF:/usr/include/c++/9/bits/stl_iterator_base_funcs.h
DA:98,0
DA:104,0
DA:138,0
DA:141,0
end_of_record
SF:/usr/include/c++/9/ext/type_traits.h
DA:152,0
end_of_record
TN:
SF:/usr/include/c++/9/bits/locale_facets.h
FN:872,_ZNKSt5ctypeIcE5widenEc
FNDA:0,_ZNKSt5ctypeIcE5widenEc
FN:1084,_ZNKSt5ctypeIcE8do_widenEc
FNDA:0,_ZNKSt5ctypeIcE8do_widenEc
DA:872,0
DA:874,0
DA:875,0
DA:876,0
DA:877,0
DA:1084,0
DA:1085,0
end_of_record
SF:/usr/include/c++/9/bits/char_traits.h
DA:329,0
DA:335,0
end_of_record
SF:/usr/include/x86_64-linux-gnu/bits/stdio2.h
DA:34,0
DA:36,0
DA:98,0
DA:100,0
DA:101,0
end_of_record
SF:/workspace/vtr-verilog-to-routing/ODIN_II/SRC/lib_blif/output_blif.cpp
FN:58,_Z11output_blifPcP11netlist_t_t
FNDA:0,_Z11output_blifPcP11netlist_t_t
FN:238,_Z31depth_first_traversal_to_outputsP8_IO_FILEP11netlist_t_t
FNDA:0,_Z31depth_first_traversal_to_outputsP8_IO_FILEP11netlist_t_t
FN:263,_Z26depth_traverse_output_blifP9nnode_t_tiP8_IO_FILE
FNDA:0,_Z26depth_traverse_output_blifP9nnode_t_tiP8_IO_FILE
FN:309,_Z11output_nodeP9nnode_t_tsP8_IO_FILE
FNDA:0,_Z11output_nodeP9nnode_t_tsP8_IO_FILE
FN:412,_Z23define_logical_functionP9nnode_t_tsP8_IO_FILE
FNDA:0,_Z23define_logical_functionP9nnode_t_tsP8_IO_FILE
FN:585,_Z33define_set_input_logical_functionP9nnode_t_tPKcP8_IO_FILE
FNDA:0,_Z33define_set_input_logical_functionP9nnode_t_tPKcP8_IO_FILE
FN:673,_Z9define_ffP9nnode_t_tP8_IO_FILE
FNDA:0,_Z9define_ffP9nnode_t_tP8_IO_FILE
FN:785,_Z18define_decoded_muxP9nnode_t_tP8_IO_FILE
FNDA:0,_Z18define_decoded_muxP9nnode_t_tP8_IO_FILE
FN:885,_Z28add_the_blackbox_for_latchesP8_IO_FILE
FNDA:0,_Z28add_the_blackbox_for_latchesP8_IO_FILE
FN:910,_Z23output_blif_pin_connectP9nnode_t_tP8_IO_FILE
FNDA:0,_Z23output_blif_pin_connectP9nnode_t_tP8_IO_FILE
DA:58,0
DA:60,0
DA:61,0
DA:62,0
DA:63,0
DA:64,0
DA:65,0
DA:68,0
DA:70,0
DA:71,0
DA:72,0
DA:76,0
DA:79,0
DA:81,0
DA:84,0
DA:87,0
DA:89,0
DA:91,0
DA:92,0
DA:95,0
DA:97,0
DA:98,0
DA:102,0
DA:103,0
DA:108,0
DA:110,0
DA:115,0
DA:116,0
DA:121,0
DA:123,0
DA:124,0
DA:126,0
DA:128,0
DA:132,0
DA:134,0
DA:135,0
DA:138,0
DA:140,0
DA:141,0
DA:145,0
DA:146,0
DA:151,0
DA:152,0
DA:156,0
DA:157,0
DA:162,0
DA:165,0
DA:166,0
DA:169,0
DA:171,0
DA:175,0
DA:179,0
DA:182,0
DA:183,0
DA:185,0
DA:187,0
DA:190,0
DA:193,0
DA:204,0
DA:205,0
DA:206,0
DA:207,0
DA:210,0
DA:214,0
DA:218,0
DA:219,0
DA:222,0
DA:223,0
DA:226,0
DA:228,0
DA:231,0
DA:232,0
DA:233,0
DA:238,0
DA:240,0
DA:242,0
DA:243,0
DA:244,0
DA:246,0
DA:247,0
DA:248,0
DA:251,0
DA:253,0
DA:255,0
DA:258,0
DA:263,0
DA:265,0
DA:266,0
DA:267,0
DA:269,0
DA:278,0
DA:281,0
DA:283,0
DA:285,0
DA:286,0
DA:288,0
DA:289,0
DA:291,0
DA:292,0
DA:294,0
DA:295,0
DA:296,0
DA:299,0
DA:309,0
DA:311,0
DA:313,0
DA:314,0
DA:315,0
DA:316,0
DA:318,0
DA:319,0
DA:320,0
DA:321,0
DA:323,0
DA:324,0
DA:325,0
DA:326,0
DA:327,0
DA:328,0
DA:329,0
DA:330,0
DA:331,0
DA:333,0
DA:334,0
DA:335,0
DA:336,0
DA:337,0
DA:338,0
DA:339,0
DA:340,0
DA:341,0
DA:342,0
DA:343,0
DA:345,0
DA:346,0
DA:347,0
DA:349,0
DA:350,0
DA:351,0
DA:353,0
DA:354,0
DA:355,0
DA:356,0
DA:358,0
DA:361,0
DA:362,0
DA:363,0
DA:364,0
DA:365,0
DA:367,0
DA:368,0
DA:369,0
DA:370,0
DA:373,0
DA:374,0
DA:375,0
DA:376,0
DA:386,0
DA:387,0
DA:388,0
DA:389,0
DA:390,0
DA:391,0
DA:392,0
DA:393,0
DA:394,0
DA:395,0
DA:396,0
DA:397,0
DA:398,0
DA:399,0
DA:400,0
DA:401,0
DA:402,0
DA:404,0
DA:405,0
DA:407,0
DA:412,0
DA:414,0
DA:415,0
DA:416,0
DA:418,0
DA:421,0
DA:424,0
DA:427,0
DA:428,0
DA:430,0
DA:433,0
DA:434,0
DA:436,0
DA:441,0
DA:445,0
DA:446,0
DA:448,0
DA:450,0
DA:451,0
DA:452,0
DA:453,0
DA:456,0
DA:460,0
DA:465,0
DA:470,0
DA:471,0
DA:473,0
DA:477,0
DA:479,0
DA:481,0
DA:484,0
DA:489,0
DA:491,0
DA:493,0
DA:499,0
DA:501,0
DA:503,0
DA:504,0
DA:506,0
DA:508,0
DA:515,0
DA:517,0
DA:519,0
DA:520,0
DA:522,0
DA:524,0
DA:532,0
DA:534,0
DA:536,0
DA:539,0
DA:540,0
DA:541,0
DA:542,0
DA:544,0
DA:546,0
DA:548,0
DA:549,0
DA:550,0
DA:551,0
DA:556,0
DA:557,0
DA:558,0
DA:559,0
DA:560,0
DA:562,0
DA:564,0
DA:565,0
DA:566,0
DA:567,0
DA:572,0
DA:573,0
DA:577,0
DA:578,0
DA:580,0
DA:585,0
DA:587,0
DA:588,0
DA:590,0
DA:592,0
DA:593,0
DA:596,0
DA:599,0
DA:602,0
DA:603,0
DA:605,0
DA:609,0
DA:610,0
DA:612,0
DA:613,0
DA:616,0
DA:618,0
DA:620,0
DA:625,0
DA:627,0
DA:629,0
DA:633,0
DA:634,0
DA:635,0
DA:636,0
DA:639,0
DA:643,0
DA:648,0
DA:654,0
DA:655,0
DA:658,0
DA:660,0
DA:662,0
DA:665,0
DA:667,0
DA:673,0
DA:675,0
DA:676,0
DA:680,0
DA:683,0
DA:684,0
DA:687,0
DA:688,0
DA:692,0
DA:694,0
DA:696,0
DA:698,0
DA:701,0
DA:703,0
DA:706,0
DA:711,0
DA:714,0
DA:716,0
DA:719,0
DA:725,0
DA:727,0
DA:729,0
DA:731,0
DA:735,0
DA:740,0
DA:742,0
DA:744,0
DA:748,0
DA:752,0
DA:754,0
DA:756,0
DA:758,0
DA:762,0
DA:767,0
DA:769,0
DA:771,0
DA:775,0
DA:779,0
DA:780,0
DA:785,0
DA:787,0
DA:789,0
DA:791,0
DA:793,0
DA:796,0
DA:799,0
DA:801,0
DA:805,0
DA:809,0
DA:810,0
DA:812,0
DA:817,0
DA:821,0
DA:823,0
DA:826,0
DA:827,0
DA:829,0
DA:833,0
DA:835,0
DA:836,0
DA:837,0
DA:838,0
DA:841,0
DA:845,0
DA:850,0
DA:856,0
DA:858,0
DA:860,0
DA:863,0
DA:865,0
DA:867,0
DA:868,0
DA:869,0
DA:870,0
DA:871,0
DA:872,0
DA:874,0
DA:876,0
DA:879,0
DA:880,0
DA:885,0
DA:887,0
DA:890,0
DA:891,0
DA:892,0
DA:895,0
DA:896,0
DA:897,0
DA:899,0
DA:900,0
DA:901,0
DA:904,0
DA:910,0
DA:912,0
DA:915,0
DA:918,0
DA:919,0
DA:922,0
end_of_record
SF:/usr/include/c++/9/ostream
DA:108,0
DA:113,0
DA:565,0
DA:568,0
DA:570,0
DA:571,0
end_of_record
SF:/workspace/vtr-verilog-to-routing/libs/EXTERNAL/libargparse/src/argparse_value.hpp
DA:50,0
DA:53,0
end_of_record
SF:/usr/include/c++/9/bits/basic_string.h
DA:186,0
DA:2300,0
DA:2301,0
end_of_record
SF:/usr/include/c++/9/iostream
end_of_record
TN:
SF:/usr/include/string.h
DA:213,0
DA:215,0
DA:317,0
DA:319,0
end_of_record
SF:/usr/include/x86_64-linux-gnu/bits/string_fortified.h
DA:126,0
DA:128,0
end_of_record
SF:/usr/include/c++/9/iostream
end_of_record
SF:/usr/include/x86_64-linux-gnu/bits/stdio2.h
DA:34,0
DA:36,0
DA:105,0
DA:107,0
end_of_record
SF:/workspace/vtr-verilog-to-routing/ODIN_II/SRC/lib_blif/read_blif.cpp
FN:138,_Z9read_blifPc
FNDA:0,_Z9read_blifPc
FN:191,_Z11read_tokensPcP17hard_block_modelsP8_IO_FILEP13hashtable_t_t
FNDA:0,_Z11read_tokensPcP17hard_block_modelsP8_IO_FILEP13hashtable_t_t
FN:249,_Z31assign_node_type_from_node_namePc
FNDA:0,_Z31assign_node_type_from_node_namePc
FN:319,_Z28create_latch_node_and_driverP8_IO_FILEP13hashtable_t_t
FNDA:0,_Z28create_latch_node_and_driverP8_IO_FILEP13hashtable_t_t
FN:430,_Z17search_clock_nameP8_IO_FILE
FNDA:0,_Z17search_clock_nameP8_IO_FILE
FN:498,_Z23create_hard_block_nodesP17hard_block_modelsP8_IO_FILEP13hashtable_t_t
FNDA:0,_Z23create_hard_block_nodesP17hard_block_modelsP8_IO_FILEP13hashtable_t_t
FN:650,_Z31create_internal_node_and_driverP8_IO_FILEP13hashtable_t_t
FNDA:0,_Z31create_internal_node_and_driverP8_IO_FILEP13hashtable_t_t
FN:781,_Z30read_bit_map_find_unknown_gateiP9nnode_t_tP8_IO_FILE
FNDA:0,_Z30read_bit_map_find_unknown_gateiP9nnode_t_tP8_IO_FILE
FN:1021,_Z19add_top_input_nodesP8_IO_FILEP13hashtable_t_t
FNDA:0,_Z19add_top_input_nodesP8_IO_FILEP13hashtable_t_t
FN:1073,_Z26rb_create_top_output_nodesP8_IO_FILE
FNDA:0,_Z26rb_create_top_output_nodesP8_IO_FILE
FN:1114,_Z18rb_look_for_clocksv
FNDA:0,_Z18rb_look_for_clocksv
FN:1136,_Z25rb_create_top_driver_netsPKcP13hashtable_t_t
FNDA:0,_Z25rb_create_top_driver_netsPKcP13hashtable_t_t
FN:1212,_Z12hook_up_netsP13hashtable_t_t
FNDA:0,_Z12hook_up_netsP13hashtable_t_t
FN:1235,_Z12hook_up_nodeP9nnode_t_tP13hashtable_t_t
FNDA:0,_Z12hook_up_nodeP9nnode_t_tP13hashtable_t_t
FN:1256,_Z21read_hard_block_modelPcP16hard_block_portsP8_IO_FILE
FNDA:0,_Z21read_hard_block_modelPcP16hard_block_portsP8_IO_FILE
FN:1356,_ZL28compare_hard_block_pin_namesPKvS0_
FNDA:0,_ZL28compare_hard_block_pin_namesPKvS0_
FN:1384,_Z11index_namesPPci
FNDA:0,_Z11index_namesPPci
FN:1400,_Z15associate_namesPPcS0_i
FNDA:0,_Z15associate_namesPPcS0_i
FN:1416,_Z20get_hard_block_portsPPci
FNDA:0,_Z20get_hard_block_portsPPci
FN:1453,_Z37verify_hard_block_ports_against_modelP16hard_block_portsP16hard_block_model
FNDA:0,_Z37verify_hard_block_ports_against_modelP16hard_block_portsP16hard_block_model
FN:1508,_Z35generate_hard_block_ports_signatureP16hard_block_ports
FNDA:0,_Z35generate_hard_block_ports_signatureP16hard_block_ports
FN:1533,_Z24get_hard_block_port_namePc
FNDA:0,_Z24get_hard_block_port_namePc
FN:1550,_Z25get_hard_block_pin_numberPc
FNDA:0,_Z25get_hard_block_pin_numberPc
FN:1572,_Z20add_hard_block_modelP16hard_block_modelP16hard_block_portsP17hard_block_models
FNDA:0,_Z20add_hard_block_modelP16hard_block_modelP16hard_block_portsP17hard_block_models
FN:1587,_Z20get_hard_block_modelPcP16hard_block_portsP17hard_block_models
FNDA:0,_Z20get_hard_block_modelPcP16hard_block_portsP17hard_block_models
FN:1599,_Z24create_hard_block_modelsv
FNDA:0,_Z24create_hard_block_modelsv
FN:1613,_Z16count_blif_linesP8_IO_FILE
FNDA:0,_Z16count_blif_linesP8_IO_FILE
FN:1631,_Z22free_hard_block_modelsP17hard_block_models
FNDA:0,_Z22free_hard_block_modelsP17hard_block_models
FN:1646,_Z21free_hard_block_modelP16hard_block_model
FNDA:0,_Z21free_hard_block_modelP16hard_block_model
FN:1660,_Z20free_hard_block_pinsP15hard_block_pins
FNDA:0,_Z20free_hard_block_pinsP15hard_block_pins
FN:1674,_Z21free_hard_block_portsP16hard_block_ports
FNDA:0,_Z21free_hard_block_portsP16hard_block_ports
DA:138,0
DA:140,0
DA:141,0
DA:143,0
DA:145,0
DA:147,0
DA:149,0
DA:151,0
DA:153,0
DA:156,0
DA:158,0
DA:159,0
DA:160,0
DA:161,0
DA:163,0
DA:164,0
DA:165,0
DA:166,0
DA:168,0
DA:170,0
DA:172,0
DA:174,0
DA:175,0
DA:178,0
DA:179,0
DA:180,0
DA:181,0
DA:191,0
DA:195,0
DA:197,0
DA:199,0
DA:201,0
DA:205,0
DA:206,0
DA:208,0
DA:210,0
DA:212,0
DA:214,0
DA:216,0
DA:218,0
DA:220,0
DA:222,0
DA:224,0
DA:226,0
DA:230,0
DA:231,0
DA:233,0
DA:236,0
DA:249,0
DA:252,0
DA:253,0
DA:254,0
DA:255,0
DA:257,0
DA:260,0
DA:261,0
DA:262,0
DA:264,0
DA:267,0
DA:269,0
DA:270,0
DA:271,0
DA:272,0
DA:273,0
DA:274,0
DA:275,0
DA:276,0
DA:277,0
DA:278,0
DA:279,0
DA:280,0
DA:281,0
DA:282,0
DA:283,0
DA:284,0
DA:285,0
DA:286,0
DA:287,0
DA:288,0
DA:289,0
DA:290,0
DA:291,0
DA:292,0
DA:293,0
DA:294,0
DA:295,0
DA:296,0
DA:297,0
DA:298,0
DA:299,0
DA:300,0
DA:301,0
DA:302,0
DA:303,0
DA:304,0
DA:305,0
DA:306,0
DA:307,0
DA:308,0
DA:309,0
DA:310,0
DA:311,0
DA:319,0
DA:322,0
DA:323,0
DA:325,0
DA:326,0
DA:327,0
DA:329,0
DA:330,0
DA:332,0
DA:333,0
DA:337,0
DA:340,0
DA:342,0
DA:343,0
DA:344,0
DA:346,0
DA:347,0
DA:349,0
DA:350,0
DA:354,0
DA:358,0
DA:359,0
DA:360,0
DA:370,0
DA:371,0
DA:372,0
DA:373,0
DA:377,0
DA:378,0
DA:381,0
DA:385,0
DA:387,0
DA:391,0
DA:392,0
DA:393,0
DA:394,0
DA:396,0
DA:397,0
DA:398,0
DA:399,0
DA:402,0
DA:405,0
DA:406,0
DA:409,0
DA:410,0
DA:412,0
DA:413,0
DA:414,0
DA:415,0
DA:416,0
DA:418,0
DA:421,0
DA:422,0
DA:423,0
DA:430,0
DA:432,0
DA:433,0
DA:434,0
DA:435,0
DA:440,0
DA:442,0
DA:443,0
DA:446,0
DA:449,0
DA:450,0
DA:452,0
DA:455,0
DA:458,0
DA:460,0
DA:461,0
DA:464,0
DA:466,0
DA:469,0
DA:471,0
DA:473,0
DA:474,0
DA:479,0
DA:481,0
DA:485,0
DA:486,0
DA:488,0
DA:489,0
DA:498,0
DA:500,0
DA:501,0
DA:508,0
DA:510,0
DA:511,0
DA:515,0
DA:516,0
DA:518,0
DA:520,0
DA:521,0
DA:525,0
DA:528,0
DA:530,0
DA:531,0
DA:533,0
DA:536,0
DA:539,0
DA:540,0
DA:543,0
DA:545,0
DA:548,0
DA:551,0
DA:552,0
DA:553,0
DA:556,0
DA:557,0
DA:558,0
DA:559,0
DA:560,0
DA:561,0
DA:562,0
DA:563,0
DA:565,0
DA:566,0
DA:569,0
DA:570,0
DA:571,0
DA:572,0
DA:573,0
DA:575,0
DA:576,0
DA:577,0
DA:581,0
DA:582,0
DA:583,0
DA:584,0
DA:587,0
DA:589,0
DA:590,0
DA:592,0
DA:593,0
DA:595,0
DA:596,0
DA:597,0
DA:598,0
DA:600,0
DA:604,0
DA:606,0
DA:607,0
DA:609,0
DA:611,0
DA:612,0
DA:613,0
DA:614,0
DA:616,0
DA:618,0
DA:619,0
DA:621,0
DA:624,0
DA:628,0
DA:629,0
DA:630,0
DA:631,0
DA:634,0
DA:635,0
DA:637,0
DA:638,0
DA:639,0
DA:640,0
DA:643,0
DA:650,0
DA:653,0
DA:654,0
DA:655,0
DA:656,0
DA:657,0
DA:659,0
DA:660,0
DA:664,0
DA:665,0
DA:668,0
DA:669,0
DA:670,0
DA:671,0
DA:674,0
DA:679,0
DA:681,0
DA:683,0
DA:684,0
DA:687,0
DA:689,0
DA:690,0
DA:694,0
DA:696,0
DA:699,0
DA:701,0
DA:702,0
DA:707,0
DA:708,0
DA:714,0
DA:716,0
DA:717,0
DA:718,0
DA:719,0
DA:723,0
DA:725,0
DA:726,0
DA:728,0
DA:729,0
DA:730,0
DA:731,0
DA:734,0
DA:736,0
DA:737,0
DA:739,0
DA:740,0
DA:741,0
DA:742,0
DA:746,0
DA:747,0
DA:750,0
DA:753,0
DA:754,0
DA:758,0
DA:759,0
DA:760,0
DA:762,0
DA:764,0
DA:765,0
DA:767,0
DA:769,0
DA:772,0
DA:774,0
DA:781,0
DA:783,0
DA:784,0
DA:785,0
DA:786,0
DA:787,0
DA:789,0
DA:791,0
DA:792,0
DA:794,0
DA:795,0
DA:797,0
DA:798,0
DA:799,0
DA:807,0
DA:808,0
DA:810,0
DA:811,0
DA:814,0
DA:815,0
DA:816,0
DA:817,0
DA:820,0
DA:822,0
DA:823,0
DA:824,0
DA:828,0
DA:829,0
DA:830,0
DA:833,0
DA:834,0
DA:837,0
DA:841,0
DA:844,0
DA:848,0
DA:853,0
DA:855,0
DA:857,0
DA:859,0
DA:864,0
DA:868,0
DA:869,0
DA:871,0
DA:873,0
DA:878,0
DA:881,0
DA:883,0
DA:885,0
DA:888,0
DA:889,0
DA:890,0
DA:891,0
DA:892,0
DA:896,0
DA:897,0
DA:898,0
DA:899,0
DA:900,0
DA:904,0
DA:906,0
DA:907,0
DA:908,0
DA:912,0
DA:913,0
DA:914,0
DA:915,0
DA:916,0
DA:922,0
DA:926,0
DA:928,0
DA:931,0
DA:932,0
DA:935,0
DA:944,0
DA:948,0
DA:950,0
DA:953,0
DA:954,0
DA:957,0
DA:965,0
DA:970,0
DA:973,0
DA:975,0
DA:976,0
DA:977,0
DA:981,0
DA:983,0
DA:984,0
DA:985,0
DA:992,0
DA:1001,0
DA:1011,0
DA:1012,0
DA:1013,0
DA:1021,0
DA:1023,0
DA:1024,0
DA:1025,0
DA:1027,0
DA:1031,0
DA:1033,0
DA:1034,0
DA:1037,0
DA:1040,0
DA:1041,0
DA:1044,0
DA:1045,0
DA:1046,0
DA:1049,0
DA:1051,0
DA:1052,0
DA:1054,0
DA:1056,0
DA:1057,0
DA:1065,0
DA:1067,0
DA:1073,0
DA:1075,0
DA:1076,0
DA:1078,0
DA:1080,0
DA:1085,0
DA:1086,0
DA:1087,0
DA:1090,0
DA:1093,0
DA:1094,0
DA:1097,0
DA:1098,0
DA:1100,0
DA:1104,0
DA:1105,0
DA:1107,0
DA:1114,0
DA:1116,0
DA:1117,0
DA:1119,0
DA:1121,0
DA:1125,0
DA:1136,0
DA:1138,0
DA:1143,0
DA:1144,0
DA:1145,0
DA:1146,0
DA:1147,0
DA:1148,0
DA:1149,0
DA:1150,0
DA:1153,0
DA:1154,0
DA:1155,0
DA:1156,0
DA:1157,0
DA:1158,0
DA:1159,0
DA:1160,0
DA:1163,0
DA:1164,0
DA:1165,0
DA:1166,0
DA:1167,0
DA:1168,0
DA:1169,0
DA:1170,0
DA:1173,0
DA:1174,0
DA:1176,0
DA:1178,0
DA:1181,0
DA:1182,0
DA:1184,0
DA:1186,0
DA:1189,0
DA:1190,0
DA:1192,0
DA:1194,0
DA:1195,0
DA:1203,0
DA:1212,0
DA:1214,0
DA:1215,0
DA:1216,0
DA:1219,0
DA:1220,0
DA:1223,0
DA:1225,0
DA:1226,0
DA:1229,0
DA:1235,0
DA:1237,0
DA:1238,0
DA:1240,0
DA:1242,0
DA:1244,0
DA:1245,0
DA:1247,0
DA:1249,0
DA:1256,0
DA:1259,0
DA:1260,0
DA:1261,0
DA:1263,0
DA:1265,0
DA:1266,0
DA:1269,0
DA:1270,0
DA:1272,0
DA:1274,0
DA:1276,0
DA:1277,0
DA:1278,0
DA:1279,0
DA:1280,0
DA:1282,0
DA:1283,0
DA:1284,0
DA:1287,0
DA:1289,0
DA:1290,0
DA:1292,0
DA:1293,0
DA:1295,0
DA:1296,0
DA:1299,0
DA:1301,0
DA:1302,0
DA:1304,0
DA:1305,0
DA:1308,0
DA:1317,0
DA:1318,0
DA:1321,0
DA:1322,0
DA:1325,0
DA:1326,0
DA:1329,0
DA:1330,0
DA:1333,0
DA:1339,0
DA:1341,0
DA:1344,0
DA:1345,0
DA:1347,0
DA:1356,0
DA:1358,0
DA:1359,0
DA:1361,0
DA:1362,0
DA:1363,0
DA:1364,0
DA:1365,0
DA:1368,0
DA:1370,0
DA:1371,0
DA:1372,0
DA:1384,0
DA:1386,0
DA:1387,0
DA:1388,0
DA:1390,0
DA:1391,0
DA:1392,0
DA:1394,0
DA:1400,0
DA:1402,0
DA:1403,0
DA:1404,0
DA:1405,0
DA:1407,0
DA:1416,0
DA:1419,0
DA:1420,0
DA:1421,0
DA:1422,0
DA:1423,0
DA:1424,0
DA:1425,0
DA:1427,0
DA:1429,0
DA:1431,0
DA:1432,0
DA:1434,0
DA:1435,0
DA:1436,0
DA:1439,0
DA:1440,0
DA:1443,0
DA:1444,0
DA:1446,0
DA:1453,0
DA:1455,0
DA:1456,0
DA:1457,0
DA:1459,0
DA:1460,0
DA:1461,0
DA:1464,0
DA:1465,0
DA:1466,0
DA:1468,0
DA:1475,0
DA:1477,0
DA:1485,0
DA:1486,0
DA:1487,0
DA:1488,0
DA:1491,0
DA:1492,0
DA:1493,0
DA:1495,0
DA:1508,0
DA:1510,0
DA:1511,0
DA:1513,0
DA:1515,0
DA:1516,0
DA:1518,0
DA:1519,0
DA:1520,0
DA:1522,0
DA:1533,0
DA:1535,0
DA:1536,0
DA:1537,0
DA:1550,0
DA:1552,0
DA:1555,0
DA:1556,0
DA:1557,0
DA:1558,0
DA:1559,0
DA:1561,0
DA:1562,0
DA:1564,0
DA:1572,0
DA:1574,0
DA:1575,0
DA:1576,0
DA:1577,0
DA:1578,0
DA:1579,0
DA:1580,0
DA:1581,0
DA:1587,0
DA:1589,0
DA:1590,0
DA:1591,0
DA:1592,0
DA:1593,0
DA:1599,0
DA:1601,0
DA:1602,0
DA:1603,0
DA:1604,0
DA:1606,0
DA:1613,0
DA:1615,0
DA:1616,0
DA:1617,0
DA:1619,0
DA:1621,0
DA:1623,0
DA:1624,0
DA:1631,0
DA:1633,0
DA:1634,0
DA:1635,0
DA:1636,0
DA:1638,0
DA:1639,0
DA:1640,0
DA:1646,0
DA:1648,0
DA:1649,0
DA:1651,0
DA:1652,0
DA:1654,0
DA:1655,0
DA:1660,0
DA:1662,0
DA:1663,0
DA:1665,0
DA:1667,0
DA:1668,0
DA:1669,0
DA:1674,0
DA:1676,0
DA:1677,0
DA:1679,0
DA:1680,0
DA:1681,0
DA:1683,0
DA:1684,0
DA:1685,0
end_of_record
SF:/usr/include/stdlib.h
DA:361,0
DA:363,0
end_of_record
TN:
SF:/usr/include/c++/9/bits/char_traits.h
DA:299,0
DA:300,0
DA:329,0
DA:335,0
DA:361,0
DA:363,0
DA:365,0
end_of_record
SF:/usr/include/c++/9/bits/locale_facets.h
FN:872,_ZNKSt5ctypeIcE5widenEc
FNDA:0,_ZNKSt5ctypeIcE5widenEc
FN:1084,_ZNKSt5ctypeIcE8do_widenEc
FNDA:0,_ZNKSt5ctypeIcE8do_widenEc
DA:872,0
DA:874,0
DA:875,0
DA:876,0
DA:877,0
DA:1084,0
DA:1085,0
end_of_record
SF:/usr/include/c++/9/bits/allocator.h
DA:138,0
DA:153,0
end_of_record
SF:/usr/include/x86_64-linux-gnu/bits/stdio2.h
DA:34,0
DA:36,0
DA:98,0
DA:100,0
DA:105,0
DA:107,0
end_of_record
SF:/usr/include/c++/9/bits/basic_string.tcc
FN:206,_ZNSt7__cxx1112basic_stringIcSt11char_traitsIcESaIcEE12_M_constructIPKcEEvT_S8_St20forward_iterator_tag
FNDA:0,_ZNSt7__cxx1112basic_stringIcSt11char_traitsIcESaIcEE12_M_constructIPKcEEvT_S8_St20forward_iterator_tag
DA:206,0
DA:211,0
DA:212,0
DA:215,0
DA:217,0
DA:219,0
DA:220,0
DA:225,0
DA:232,0
DA:233,0
end_of_record
SF:/usr/include/c++/9/bits/ptr_traits.h
DA:146,0
DA:147,0
end_of_record
SF:/usr/include/c++/9/iostream
end_of_record
SF:/usr/include/c++/9/bits/basic_string.h
DA:150,0
DA:178,0
DA:179,0
DA:182,0
DA:183,0
DA:186,0
DA:200,0
DA:203,0
DA:210,0
DA:211,0
DA:214,0
DA:216,0
DA:217,0
DA:221,0
DA:222,0
DA:229,0
DA:231,0
DA:232,0
DA:236,0
DA:237,0
DA:286,0
DA:287,0
DA:346,0
DA:348,0
DA:349,0
DA:351,0
DA:396,0
DA:398,0
DA:657,0
DA:658,0
DA:704,0
DA:705,0
DA:2300,0
DA:2301,0
DA:6175,0
DA:6177,0
end_of_record
SF:/usr/include/c++/9/ostream
DA:108,0
DA:113,0
DA:565,0
DA:568,0
DA:570,0
DA:571,0
end_of_record
SF:/usr/include/c++/9/bits/alloc_traits.h
DA:469,0
DA:470,0
end_of_record
SF:/usr/include/c++/9/ext/type_traits.h
DA:152,0
end_of_record
SF:/usr/include/c++/9/ext/new_allocator.h
DA:80,0
DA:89,0
DA:119,0
DA:128,0
end_of_record
SF:/workspace/vtr-verilog-to-routing/ODIN_II/SRC/lib_blocks/adders.cpp
FN:65,_Z21init_add_distributionv
FNDA:0,_Z21init_add_distributionv
FN:79,_Z23record_add_distributionP9nnode_t_t
FNDA:0,_Z23record_add_distributionP9nnode_t_t
FN:100,_Z23report_add_distributionv
FNDA:0,_Z23report_add_distributionv
FN:128,_Z16find_hard_addersv
FNDA:0,_Z16find_hard_addersv
FN:154,_Z18declare_hard_adderP9nnode_t_t
FNDA:0,_Z18declare_hard_adderP9nnode_t_t
FN:192,_Z22instantiate_hard_adderP9nnode_t_tsP11netlist_t_t
FNDA:0,_Z22instantiate_hard_adderP9nnode_t_tsP11netlist_t_t
FN:232,_Z25add_the_blackbox_for_addsP8_IO_FILE
FNDA:0,_Z25add_the_blackbox_for_addsP8_IO_FILE
FN:331,_Z19define_add_functionP9nnode_t_tsP8_IO_FILE
FNDA:0,_Z19define_add_functionP9nnode_t_tsP8_IO_FILE
FN:419,_Z16init_split_adderP9nnode_t_tS0_iiiiiiiiP11netlist_t_t
FNDA:0,_Z16init_split_adderP9nnode_t_tS0_iiiiiiiiP11netlist_t_t
FN:713,_Z11split_adderP9nnode_t_tiiiiiiiP11netlist_t_t
FNDA:0,_Z11split_adderP9nnode_t_tiiiiiiiP11netlist_t_t
FN:917,_Z14iterate_addersP11netlist_t_t
FNDA:0,_Z14iterate_addersP11netlist_t_t
FN:976,_Z12clean_addersv
FNDA:0,_Z12clean_addersv
FN:989,_Z17reduce_operationsP11netlist_t_t14operation_list
FNDA:0,_Z17reduce_operationsP11netlist_t_t14operation_list
FN:1025,_Z13traverse_list14operation_listPN3vtr13t_linked_vptrE
FNDA:0,_Z13traverse_list14operation_listPN3vtr13t_linked_vptrE
FN:1037,_Z10match_nodePN3vtr13t_linked_vptrE14operation_list
FNDA:0,_Z10match_nodePN3vtr13t_linked_vptrE14operation_list
FN:1083,_Z11match_portsP9nnode_t_tS0_14operation_list
FNDA:0,_Z11match_portsP9nnode_t_tS0_14operation_list
FN:1146,_Z23traverse_operation_nodeP12ast_node_t_tPPc14operation_listPi
FNDA:0,_Z23traverse_operation_nodeP12ast_node_t_tPPc14operation_listPi
FN:1180,_Z11merge_nodesP9nnode_t_tS0_
FNDA:0,_Z11merge_nodesP9nnode_t_tS0_
FN:1192,_Z16remove_list_nodePN3vtr13t_linked_vptrES1_
FNDA:0,_Z16remove_list_nodePN3vtr13t_linked_vptrES1_
FN:1205,_Z18remove_fanout_pinsP9nnode_t_t
FNDA:0,_Z18remove_fanout_pinsP9nnode_t_t
FN:1230,_Z15reallocate_pinsP9nnode_t_tS0_
FNDA:0,_Z15reallocate_pinsP9nnode_t_tS0_
FN:1257,_Z13free_op_nodesP9nnode_t_t
FNDA:0,_Z13free_op_nodesP9nnode_t_t
FN:1273,_Z10match_pinsP9nnode_t_tS0_
FNDA:0,_Z10match_pinsP9nnode_t_tS0_
FN:1315,_Z26connect_output_pin_to_nodePiiiP9nnode_t_tS1_s
FNDA:0,_Z26connect_output_pin_to_nodePiiiP9nnode_t_tS1_s
FN:1340,_Z13make_mux_2to1P9nnode_t_tS0_S0_S0_s
FNDA:0,_Z13make_mux_2to1P9nnode_t_tS0_S0_S0_s
FN:1358,_Z8make_bec14operation_listP9nnode_t_tS1_PiiP11netlist_t_tS1_ss
FNDA:0,_Z8make_bec14operation_listP9nnode_t_tS1_PiiP11netlist_t_tS1_ss
FN:1405,_Z10make_adder14operation_listP9nnode_t_tS1_PiiP11netlist_t_tS1_ss
FNDA:0,_Z10make_adder14operation_listP9nnode_t_tS1_PiiP11netlist_t_tS1_ss
FN:1518,_Z29instantiate_add_w_carry_blockPiP9nnode_t_tsP11netlist_t_ts
FNDA:0,_Z29instantiate_add_w_carry_blockPiP9nnode_t_tsP11netlist_t_ts
DA:65,0
DA:67,0
DA:68,0
DA:69,0
DA:70,0
DA:71,0
DA:72,0
DA:73,0
DA:79,0
DA:81,0
DA:82,0
DA:83,0
DA:84,0
DA:100,0
DA:102,0
DA:105,0
DA:106,0
DA:107,0
DA:108,0
DA:110,0
DA:111,0
DA:113,0
DA:114,0
DA:116,0
DA:117,0
DA:119,0
DA:120,0
DA:128,0
DA:130,0
DA:133,0
DA:135,0
DA:137,0
DA:139,0
DA:140,0
DA:144,0
DA:154,0
DA:156,0
DA:157,0
DA:160,0
DA:162,0
DA:164,0
DA:165,0
DA:166,0
DA:167,0
DA:169,0
DA:171,0
DA:174,0
DA:178,0
DA:179,0
DA:180,0
DA:181,0
DA:182,0
DA:183,0
DA:184,0
DA:185,0
DA:186,0
DA:192,0
DA:194,0
DA:195,0
DA:197,0
DA:200,0
DA:201,0
DA:202,0
DA:208,0
DA:210,0
DA:211,0
DA:214,0
DA:216,0
DA:218,0
DA:219,0
DA:220,0
DA:221,0
DA:225,0
DA:226,0
DA:232,0
DA:234,0
DA:235,0
DA:236,0
DA:237,0
DA:238,0
DA:239,0
DA:240,0
DA:243,0
DA:244,0
DA:247,0
DA:248,0
DA:249,0
DA:250,0
DA:251,0
DA:252,0
DA:254,0
DA:255,0
DA:256,0
DA:257,0
DA:260,0
DA:261,0
DA:265,0
DA:271,0
DA:274,0
DA:275,0
DA:276,0
DA:278,0
DA:280,0
DA:282,0
DA:284,0
DA:288,0
DA:290,0
DA:291,0
DA:293,0
DA:295,0
DA:298,0
DA:299,0
DA:300,0
DA:302,0
DA:304,0
DA:308,0
DA:311,0
DA:313,0
DA:314,0
DA:317,0
DA:319,0
DA:320,0
DA:321,0
DA:322,0
DA:324,0
DA:331,0
DA:333,0
DA:334,0
DA:335,0
DA:337,0
DA:338,0
DA:339,0
DA:340,0
DA:341,0
DA:342,0
DA:343,0
DA:346,0
DA:348,0
DA:352,0
DA:356,0
DA:358,0
DA:360,0
DA:362,0
DA:363,0
DA:365,0
DA:367,0
DA:369,0
DA:370,0
DA:372,0
DA:376,0
DA:377,0
DA:379,0
DA:382,0
DA:384,0
DA:387,0
DA:391,0
DA:393,0
DA:394,0
DA:396,0
DA:397,0
DA:399,0
DA:402,0
DA:405,0
DA:406,0
DA:419,0
DA:421,0
DA:422,0
DA:423,0
DA:424,0
DA:427,0
DA:428,0
DA:429,0
DA:430,0
DA:431,0
DA:434,0
DA:436,0
DA:437,0
DA:438,0
DA:440,0
DA:447,0
DA:448,0
DA:449,0
DA:452,0
DA:454,0
DA:461,0
DA:462,0
DA:463,0
DA:468,0
DA:471,0
DA:472,0
DA:475,0
DA:480,0
DA:481,0
DA:482,0
DA:483,0
DA:484,0
DA:485,0
DA:486,0
DA:487,0
DA:490,0
DA:491,0
DA:493,0
DA:496,0
DA:497,0
DA:499,0
DA:501,0
DA:502,0
DA:504,0
DA:506,0
DA:508,0
DA:509,0
DA:510,0
DA:512,0
DA:513,0
DA:514,0
DA:516,0
DA:517,0
DA:522,0
DA:524,0
DA:525,0
DA:526,0
DA:528,0
DA:529,0
DA:534,0
DA:536,0
DA:538,0
DA:539,0
DA:541,0
DA:543,0
DA:544,0
DA:545,0
DA:551,0
DA:553,0
DA:554,0
DA:555,0
DA:561,0
DA:563,0
DA:565,0
DA:566,0
DA:567,0
DA:572,0
DA:573,0
DA:576,0
DA:577,0
DA:579,0
DA:580,0
DA:581,0
DA:589,0
DA:591,0
DA:592,0
DA:594,0
DA:596,0
DA:598,0
DA:599,0
DA:601,0
DA:603,0
DA:604,0
DA:605,0
DA:607,0
DA:608,0
DA:613,0
DA:615,0
DA:616,0
DA:617,0
DA:619,0
DA:620,0
DA:625,0
DA:627,0
DA:629,0
DA:630,0
DA:632,0
DA:634,0
DA:635,0
DA:636,0
DA:642,0
DA:644,0
DA:645,0
DA:646,0
DA:652,0
DA:654,0
DA:656,0
DA:657,0
DA:658,0
DA:663,0
DA:664,0
DA:667,0
DA:668,0
DA:670,0
DA:671,0
DA:672,0
DA:680,0
DA:682,0
DA:686,0
DA:687,0
DA:688,0
DA:690,0
DA:692,0
DA:693,0
DA:694,0
DA:695,0
DA:697,0
DA:713,0
DA:715,0
DA:716,0
DA:717,0
DA:718,0
DA:719,0
DA:722,0
DA:723,0
DA:725,0
DA:727,0
DA:729,0
DA:730,0
DA:731,0
DA:732,0
DA:735,0
DA:736,0
DA:739,0
DA:746,0
DA:747,0
DA:750,0
DA:752,0
DA:753,0
DA:757,0
DA:758,0
DA:763,0
DA:766,0
DA:769,0
DA:771,0
DA:772,0
DA:774,0
DA:775,0
DA:776,0
DA:777,0
DA:779,0
DA:782,0
DA:783,0
DA:785,0
DA:786,0
DA:789,0
DA:792,0
DA:794,0
DA:797,0
DA:800,0
DA:802,0
DA:804,0
DA:805,0
DA:810,0
DA:812,0
DA:813,0
DA:815,0
DA:816,0
DA:821,0
DA:822,0
DA:825,0
DA:827,0
DA:829,0
DA:831,0
DA:832,0
DA:835,0
DA:836,0
DA:839,0
DA:840,0
DA:845,0
DA:846,0
DA:847,0
DA:853,0
DA:854,0
DA:855,0
DA:857,0
DA:858,0
DA:861,0
DA:863,0
DA:865,0
DA:866,0
DA:869,0
DA:871,0
DA:875,0
DA:877,0
DA:881,0
DA:883,0
DA:884,0
DA:885,0
DA:888,0
DA:890,0
DA:896,0
DA:897,0
DA:898,0
DA:901,0
DA:902,0
DA:903,0
DA:904,0
DA:905,0
DA:917,0
DA:919,0
DA:920,0
DA:921,0
DA:922,0
DA:923,0
DA:926,0
DA:929,0
DA:930,0
DA:931,0
DA:933,0
DA:935,0
DA:937,0
DA:938,0
DA:939,0
DA:940,0
DA:941,0
DA:943,0
DA:945,0
DA:946,0
DA:947,0
DA:948,0
DA:949,0
DA:952,0
DA:954,0
DA:956,0
DA:959,0
DA:960,0
DA:961,0
DA:965,0
DA:976,0
DA:978,0
DA:979,0
DA:980,0
DA:989,0
DA:991,0
DA:992,0
DA:993,0
DA:995,0
DA:996,0
DA:997,0
DA:998,0
DA:1000,0
DA:1001,0
DA:1002,0
DA:1003,0
DA:1005,0
DA:1006,0
DA:1007,0
DA:1008,0
DA:1016,0
DA:1018,0
DA:1025,0
DA:1027,0
DA:1029,0
DA:1030,0
DA:1032,0
DA:1037,0
DA:1039,0
DA:1040,0
DA:1041,0
DA:1042,0
DA:1043,0
DA:1044,0
DA:1045,0
DA:1046,0
DA:1047,0
DA:1048,0
DA:1050,0
DA:1051,0
DA:1052,0
DA:1053,0
DA:1055,0
DA:1057,0
DA:1058,0
DA:1060,0
DA:1061,0
DA:1063,0
DA:1064,0
DA:1069,0
DA:1070,0
DA:1073,0
DA:1074,0
DA:1078,0
DA:1083,0
DA:1085,0
DA:1086,0
DA:1087,0
DA:1088,0
DA:1089,0
DA:1090,0
DA:1091,0
DA:1092,0
DA:1093,0
DA:1094,0
DA:1095,0
DA:1097,0
DA:1098,0
DA:1100,0
DA:1101,0
DA:1103,0
DA:1105,0
DA:1106,0
DA:1107,0
DA:1108,0
DA:1109,0
DA:1110,0
DA:1113,0
DA:1114,0
DA:1115,0
DA:1117,0
DA:1118,0
DA:1122,0
DA:1123,0
DA:1124,0
DA:1125,0
DA:1126,0
DA:1127,0
DA:1138,0
DA:1146,0
DA:1148,0
DA:1150,0
DA:1153,0
DA:1155,0
DA:1157,0
DA:1158,0
DA:1160,0
DA:1161,0
DA:1165,0
DA:1166,0
DA:1168,0
DA:1169,0
DA:1180,0
DA:1183,0
DA:1184,0
DA:1185,0
DA:1187,0
DA:1192,0
DA:1194,0
DA:1195,0
DA:1197,0
DA:1198,0
DA:1200,0
DA:1205,0
DA:1207,0
DA:1208,0
DA:1210,0
DA:1211,0
DA:1213,0
DA:1216,0
DA:1218,0
DA:1219,0
DA:1221,0
DA:1222,0
DA:1225,0
DA:1230,0
DA:1232,0
DA:1233,0
DA:1234,0
DA:1235,0
DA:1236,0
DA:1237,0
DA:1239,0
DA:1241,0
DA:1243,0
DA:1244,0
DA:1245,0
DA:1246,0
DA:1247,0
DA:1252,0
DA:1257,0
DA:1259,0
DA:1260,0
DA:1262,0
DA:1263,0
DA:1264,0
DA:1266,0
DA:1268,0
DA:1273,0
DA:1275,0
DA:1276,0
DA:1277,0
DA:1278,0
DA:1280,0
DA:1281,0
DA:1282,0
DA:1284,0
DA:1289,0
DA:1295,0
DA:1299,0
DA:1315,0
DA:1318,0
DA:1320,0
DA:1324,0
DA:1325,0
DA:1327,0
DA:1331,0
DA:1332,0
DA:1335,0
DA:1340,0
DA:1342,0
DA:1345,0
DA:1346,0
DA:1349,0
DA:1350,0
DA:1353,0
DA:1354,0
DA:1355,0
DA:1358,0
DA:1360,0
DA:1361,0
DA:1363,0
DA:1365,0
DA:1366,0
DA:1368,0
DA:1370,0
DA:1373,0
DA:1375,0
DA:1379,0
DA:1381,0
DA:1386,0
DA:1388,0
DA:1389,0
DA:1390,0
DA:1392,0
DA:1394,0
DA:1395,0
DA:1396,0
DA:1399,0
DA:1405,0
DA:1408,0
DA:1409,0
DA:1412,0
DA:1414,0
DA:1415,0
DA:1416,0
DA:1417,0
DA:1419,0
DA:1421,0
DA:1422,0
DA:1423,0
DA:1424,0
DA:1428,0
DA:1429,0
DA:1430,0
DA:1431,0
DA:1432,0
DA:1433,0
DA:1437,0
DA:1439,0
DA:1440,0
DA:1446,0
DA:1448,0
DA:1449,0
DA:1451,0
DA:1452,0
DA:1454,0
DA:1456,0
DA:1457,0
DA:1461,0
DA:1466,0
DA:1470,0
DA:1473,0
DA:1474,0
DA:1476,0
DA:1477,0
DA:1478,0
DA:1480,0
DA:1482,0
DA:1483,0
DA:1484,0
DA:1488,0
DA:1490,0
DA:1491,0
DA:1492,0
DA:1496,0
DA:1502,0
DA:1503,0
DA:1506,0
DA:1518,0
DA:1521,0
DA:1522,0
DA:1523,0
DA:1525,0
DA:1526,0
DA:1527,0
DA:1529,0
DA:1530,0
DA:1532,0
DA:1535,0
DA:1537,0
DA:1538,0
DA:1542,0
DA:1543,0
DA:1545,0
DA:1547,0
DA:1548,0
DA:1549,0
DA:1553,0
DA:1554,0
DA:1555,0
DA:1557,0
DA:1560,0
DA:1561,0
DA:1563,0
DA:1566,0
DA:1568,0
DA:1569,0
DA:1570,0
DA:1572,0
DA:1575,0
DA:1577,0
DA:1578,0
DA:1579,0
DA:1581,0
DA:1582,0
DA:1583,0
DA:1585,0
DA:1587,0
DA:1588,0
DA:1590,0
DA:1593,0
DA:1595,0
DA:1596,0
DA:1597,0
DA:1599,0
DA:1600,0
DA:1601,0
DA:1603,0
DA:1605,0
DA:1606,0
DA:1608,0
DA:1612,0
DA:1613,0
DA:1625,0
DA:1629,0
end_of_record
SF:/usr/include/c++/9/bits/stl_iterator_base_funcs.h
DA:98,0
DA:104,0
DA:138,0
DA:141,0
end_of_record
SF:/usr/include/c++/9/bits/move.h
DA:47,0
DA:138,0
DA:139,0
end_of_record
TN:
SF:/usr/include/c++/9/bits/locale_facets.h
FN:872,_ZNKSt5ctypeIcE5widenEc
FNDA:0,_ZNKSt5ctypeIcE5widenEc
FN:1084,_ZNKSt5ctypeIcE8do_widenEc
FNDA:0,_ZNKSt5ctypeIcE8do_widenEc
DA:872,0
DA:874,0
DA:875,0
DA:876,0
DA:877,0
DA:1084,0
DA:1085,0
end_of_record
SF:/usr/include/c++/9/bits/char_traits.h
DA:329,0
DA:335,0
end_of_record
SF:/usr/include/x86_64-linux-gnu/bits/stdio2.h
DA:34,0
DA:36,0
DA:98,0
DA:100,0
DA:105,0
DA:107,0
end_of_record
SF:/usr/include/c++/9/iostream
end_of_record
SF:/usr/include/c++/9/ostream
DA:108,0
DA:113,0
DA:565,0
DA:568,0
DA:570,0
DA:571,0
end_of_record
SF:/workspace/vtr-verilog-to-routing/ODIN_II/SRC/lib_blocks/hard_blocks.cpp
FN:41,_Z21register_hb_port_sizeP13t_model_portsi
FNDA:0,_Z21register_hb_port_sizeP13t_model_portsi
FN:52,_Z14get_model_portP13t_model_portsPKc
FNDA:0,_Z14get_model_portP13t_model_portsPKc
FN:60,_Z22cache_hard_block_namesv
FNDA:0,_Z22cache_hard_block_namesv
FN:74,_Z20register_hard_blocksv
FNDA:0,_Z20register_hard_blocksv
FN:128,_Z22deregister_hard_blocksv
FNDA:0,_Z22deregister_hard_blocksv
FN:134,_Z15find_hard_blockPKc
FNDA:0,_Z15find_hard_blockPKc
FN:148,_Z17define_hard_blockP9nnode_t_tsP8_IO_FILE
FNDA:0,_Z17define_hard_blockP9nnode_t_tsP8_IO_FILE
FN:231,_Z18output_hard_blocksP8_IO_FILE
FNDA:0,_Z18output_hard_blocksP8_IO_FILE
FN:300,_Z22instantiate_hard_blockP9nnode_t_tsP11netlist_t_t
FNDA:0,_Z22instantiate_hard_blockP9nnode_t_tsP11netlist_t_t
FN:324,_Z20hard_block_port_sizeP7t_modelPc
FNDA:0,_Z20hard_block_port_sizeP7t_modelPc
FN:359,_Z25hard_block_port_directionP7t_modelPc
FNDA:0,_Z25hard_block_port_directionP7t_modelPc
DA:41,0
DA:43,0
DA:44,0
DA:50,0
DA:52,0
DA:54,0
DA:55,0
DA:57,0
DA:60,0
DA:62,0
DA:64,0
DA:65,0
DA:66,0
DA:68,0
DA:69,0
DA:71,0
DA:74,0
DA:76,0
DA:77,0
DA:78,0
DA:80,0
DA:82,0
DA:84,0
DA:88,0
DA:93,0
DA:98,0
DA:100,0
DA:102,0
DA:105,0
DA:109,0
DA:112,0
DA:117,0
DA:119,0
DA:122,0
DA:126,0
DA:128,0
DA:130,0
DA:131,0
DA:134,0
DA:136,0
DA:138,0
DA:139,0
DA:140,0
DA:141,0
DA:143,0
DA:148,0
DA:150,0
DA:151,0
DA:152,0
DA:153,0
DA:156,0
DA:157,0
DA:160,0
DA:163,0
DA:164,0
DA:165,0
DA:168,0
DA:169,0
DA:172,0
DA:174,0
DA:175,0
DA:178,0
DA:179,0
DA:182,0
DA:183,0
DA:185,0
DA:188,0
DA:190,0
DA:193,0
DA:195,0
DA:196,0
DA:198,0
DA:199,0
DA:205,0
DA:207,0
DA:208,0
DA:210,0
DA:212,0
DA:214,0
DA:217,0
DA:219,0
DA:220,0
DA:222,0
DA:223,0
DA:227,0
DA:231,0
DA:233,0
DA:234,0
DA:235,0
DA:236,0
DA:237,0
DA:239,0
DA:240,0
DA:241,0
DA:243,0
DA:246,0
DA:248,0
DA:252,0
DA:253,0
DA:254,0
DA:255,0
DA:257,0
DA:259,0
DA:260,0
DA:262,0
DA:264,0
DA:265,0
DA:267,0
DA:269,0
DA:272,0
DA:273,0
DA:274,0
DA:276,0
DA:278,0
DA:279,0
DA:281,0
DA:283,0
DA:284,0
DA:286,0
DA:288,0
DA:291,0
DA:293,0
DA:296,0
DA:300,0
DA:302,0
DA:304,0
DA:306,0
DA:308,0
DA:309,0
DA:311,0
DA:312,0
DA:319,0
DA:320,0
DA:324,0
DA:326,0
DA:328,0
DA:335,0
DA:336,0
DA:341,0
DA:342,0
DA:343,0
DA:344,0
DA:346,0
DA:348,0
DA:349,0
DA:350,0
DA:351,0
DA:353,0
DA:359,0
DA:361,0
DA:363,0
DA:366,0
DA:367,0
DA:368,0
DA:369,0
DA:371,0
DA:373,0
DA:374,0
DA:375,0
DA:376,0
DA:378,0
end_of_record
TN:
SF:/usr/include/c++/9/iostream
end_of_record
SF:/workspace/vtr-verilog-to-routing/ODIN_II/SRC/lib_blocks/implicit_memory.cpp
FN:45,_Z22lookup_implicit_memoryPcS_
FNDA:0,_Z22lookup_implicit_memoryPcS_
FN:54,_Z36lookup_implicit_memory_reference_astPcP12ast_node_t_t
FNDA:0,_Z36lookup_implicit_memory_reference_astPcP12ast_node_t_t
FN:69,_Z38is_valid_implicit_memory_reference_astPcP12ast_node_t_t
FNDA:0,_Z38is_valid_implicit_memory_reference_astPcP12ast_node_t_t
FN:84,_Z28create_implicit_memory_blockixPcS_
FNDA:0,_Z28create_implicit_memory_blockixPcS_
FN:122,_Z33add_input_port_to_implicit_memoryP15implicit_memoryP15signal_list_t_tPKc
FNDA:0,_Z33add_input_port_to_implicit_memoryP15implicit_memoryP15signal_list_t_tPKc
FN:132,_Z34add_output_port_to_implicit_memoryP15implicit_memoryP15signal_list_t_tPKc
FNDA:0,_Z34add_output_port_to_implicit_memoryP15implicit_memoryP15signal_list_t_tPKc
FN:142,_Z28lookup_implicit_memory_inputPc
FNDA:0,_Z28lookup_implicit_memory_inputPc
FN:151,_Z30register_implicit_memory_inputPcP15implicit_memory
FNDA:0,_Z30register_implicit_memory_inputPcP15implicit_memory
FN:162,_Z26init_implicit_memory_indexv
FNDA:0,_Z26init_implicit_memory_indexv
FN:173,_Z48free_implicit_memory_index_and_finalize_memoriesv
FNDA:0,_Z48free_implicit_memory_index_and_finalize_memoriesv
FN:199,_Z39add_dummy_input_port_to_implicit_memoryP15implicit_memoryiPKc
FNDA:0,_Z39add_dummy_input_port_to_implicit_memoryP15implicit_memoryiPKc
FN:215,_Z40add_dummy_output_port_to_implicit_memoryP15implicit_memoryiPKc
FNDA:0,_Z40add_dummy_output_port_to_implicit_memoryP15implicit_memoryiPKc
FN:238,_Z24finalize_implicit_memoryP15implicit_memory
FNDA:0,_Z24finalize_implicit_memoryP15implicit_memory
FN:335,_Z43collapse_implicit_memory_to_single_port_ramP15implicit_memory
FNDA:0,_Z43collapse_implicit_memory_to_single_port_ramP15implicit_memory
DA:45,0
DA:47,0
DA:48,0
DA:54,0
DA:56,0
DA:57,0
DA:58,0
DA:59,0
DA:60,0
DA:61,0
DA:69,0
DA:71,0
DA:72,0
DA:74,0
DA:75,0
DA:78,0
DA:84,0
DA:86,0
DA:87,0
DA:88,0
DA:89,0
DA:91,0
DA:92,0
DA:94,0
DA:95,0
DA:96,0
DA:99,0
DA:100,0
DA:101,0
DA:102,0
DA:104,0
DA:106,0
DA:107,0
DA:108,0
DA:109,0
DA:110,0
DA:111,0
DA:112,0
DA:114,0
DA:116,0
DA:122,0
DA:124,0
DA:126,0
DA:127,0
DA:132,0
DA:134,0
DA:136,0
DA:137,0
DA:142,0
DA:144,0
DA:151,0
DA:153,0
DA:154,0
DA:156,0
DA:157,0
DA:162,0
DA:164,0
DA:165,0
DA:166,0
DA:173,0
DA:175,0
DA:177,0
DA:178,0
DA:181,0
DA:183,0
DA:185,0
DA:186,0
DA:187,0
DA:189,0
DA:190,0
DA:191,0
DA:193,0
DA:199,0
DA:201,0
DA:202,0
DA:203,0
DA:204,0
DA:206,0
DA:208,0
DA:209,0
DA:215,0
DA:217,0
DA:218,0
DA:219,0
DA:220,0
DA:222,0
DA:224,0
DA:225,0
DA:228,0
DA:230,0
DA:231,0
DA:238,0
DA:240,0
DA:242,0
DA:243,0
DA:244,0
DA:245,0
DA:246,0
DA:247,0
DA:248,0
DA:249,0
DA:250,0
DA:253,0
DA:254,0
DA:256,0
DA:257,0
DA:259,0
DA:261,0
DA:263,0
DA:265,0
DA:267,0
DA:269,0
DA:270,0
DA:274,0
DA:276,0
DA:277,0
DA:279,0
DA:280,0
DA:283,0
DA:285,0
DA:286,0
DA:289,0
DA:290,0
DA:292,0
DA:294,0
DA:295,0
DA:296,0
DA:297,0
DA:300,0
DA:302,0
DA:303,0
DA:304,0
DA:305,0
DA:308,0
DA:309,0
DA:318,0
DA:319,0
DA:320,0
DA:321,0
DA:323,0
DA:324,0
DA:326,0
DA:335,0
DA:337,0
DA:341,0
DA:342,0
DA:344,0
DA:345,0
DA:346,0
DA:351,0
DA:353,0
DA:354,0
DA:357,0
DA:358,0
DA:359,0
end_of_record
TN:
SF:/usr/include/c++/9/bits/locale_facets.h
FN:872,_ZNKSt5ctypeIcE5widenEc
FNDA:0,_ZNKSt5ctypeIcE5widenEc
FN:1084,_ZNKSt5ctypeIcE8do_widenEc
FNDA:0,_ZNKSt5ctypeIcE8do_widenEc
DA:872,0
DA:874,0
DA:875,0
DA:876,0
DA:877,0
DA:1084,0
DA:1085,0
end_of_record
SF:/usr/include/c++/9/bits/char_traits.h
DA:329,0
DA:335,0
end_of_record
SF:/workspace/vtr-verilog-to-routing/ODIN_II/SRC/lib_blocks/memories.cpp
FN:61,_Z16get_sp_ram_depthP9nnode_t_t
FNDA:0,_Z16get_sp_ram_depthP9nnode_t_t
FN:69,_Z16get_dp_ram_depthP9nnode_t_t
FNDA:0,_Z16get_dp_ram_depthP9nnode_t_t
FN:78,_Z16get_sp_ram_widthP9nnode_t_t
FNDA:0,_Z16get_sp_ram_widthP9nnode_t_t
FN:86,_Z16get_dp_ram_widthP9nnode_t_t
FNDA:0,_Z16get_dp_ram_widthP9nnode_t_t
FN:95,_Z20get_memory_port_sizePKc
FNDA:0,_Z20get_memory_port_sizePKc
FN:109,_Z25copy_input_port_to_memoryP9nnode_t_tP15signal_list_t_tPKc
FNDA:0,_Z25copy_input_port_to_memoryP9nnode_t_tP15signal_list_t_tPKc
FN:116,_Z26copy_output_port_to_memoryP9nnode_t_tP15signal_list_t_tPKc
FNDA:0,_Z26copy_output_port_to_memoryP9nnode_t_tP15signal_list_t_tPKc
FN:126,_Z26remap_input_port_to_memoryP9nnode_t_tP15signal_list_t_tPKc
FNDA:0,_Z26remap_input_port_to_memoryP9nnode_t_tP15signal_list_t_tPKc
FN:160,_Z24add_input_port_to_memoryP9nnode_t_tP15signal_list_t_tPKc
FNDA:0,_Z24add_input_port_to_memoryP9nnode_t_tP15signal_list_t_tPKc
FN:197,_Z27remap_output_port_to_memoryP9nnode_t_tP15signal_list_t_tPc
FNDA:0,_Z27remap_output_port_to_memoryP9nnode_t_tP15signal_list_t_tPc
FN:231,_Z25add_output_port_to_memoryP9nnode_t_tP15signal_list_t_tPKc
FNDA:0,_Z25add_output_port_to_memoryP9nnode_t_tP15signal_list_t_tPKc
FN:265,_Z38check_memories_and_report_distributionv
FNDA:0,_Z38check_memories_and_report_distributionv
FN:349,_Z21split_sp_memory_depthP9nnode_t_ti
FNDA:0,_Z21split_sp_memory_depthP9nnode_t_ti
FN:466,_Z21split_dp_memory_depthP9nnode_t_ti
FNDA:0,_Z21split_dp_memory_depthP9nnode_t_ti
FN:632,_Z21split_sp_memory_widthP9nnode_t_ti
FNDA:0,_Z21split_sp_memory_widthP9nnode_t_ti
FN:736,_Z21split_dp_memory_widthP9nnode_t_ti
FNDA:0,_Z21split_dp_memory_widthP9nnode_t_ti
FN:912,_Z22get_sp_ram_split_depthv
FNDA:0,_Z22get_sp_ram_split_depthv
FN:934,_Z22get_dp_ram_split_depthv
FNDA:0,_Z22get_dp_ram_split_depthv
FN:956,_Z22get_sp_ram_split_widthv
FNDA:0,_Z22get_sp_ram_split_widthv
FN:975,_Z22get_dp_ram_split_widthv
FNDA:0,_Z22get_dp_ram_split_widthv
FN:995,_Z36filter_memories_by_soft_logic_cutoffv
FNDA:0,_Z36filter_memories_by_soft_logic_cutoffv
FN:1045,_Z16iterate_memoriesP11netlist_t_t
FNDA:0,_Z16iterate_memoriesP11netlist_t_t
FN:1151,_Z17free_memory_listsv
FNDA:0,_Z17free_memory_listsv
FN:1162,_Z19pad_dp_memory_widthP9nnode_t_tP11netlist_t_t
FNDA:0,_Z19pad_dp_memory_widthP9nnode_t_tP11netlist_t_t
FN:1179,_Z19pad_sp_memory_widthP9nnode_t_tP11netlist_t_t
FNDA:0,_Z19pad_sp_memory_widthP9nnode_t_tP11netlist_t_t
FN:1194,_Z22pad_memory_output_portP9nnode_t_tP11netlist_t_tP7t_modelPKc
FNDA:0,_Z22pad_memory_output_portP9nnode_t_tP11netlist_t_tP7t_modelPKc
FN:1233,_Z21pad_memory_input_portP9nnode_t_tP11netlist_t_tP7t_modelPKc
FNDA:0,_Z21pad_memory_input_portP9nnode_t_tP11netlist_t_tP7t_modelPKc
FN:1271,_Z9is_sp_ramP9nnode_t_t
FNDA:0,_Z9is_sp_ramP9nnode_t_t
FN:1278,_Z9is_dp_ramP9nnode_t_t
FNDA:0,_Z9is_dp_ramP9nnode_t_t
FN:1285,_Z13is_ast_sp_ramP12ast_node_t_t
FNDA:0,_Z13is_ast_sp_ramP12ast_node_t_t
FN:1294,_Z13is_ast_dp_ramP12ast_node_t_t
FNDA:0,_Z13is_ast_dp_ramP12ast_node_t_t
FN:1303,_Z18get_sp_ram_signalsP9nnode_t_t
FNDA:0,_Z18get_sp_ram_signalsP9nnode_t_t
FN:1357,_Z19free_sp_ram_signalsP14sp_ram_signals
FNDA:0,_Z19free_sp_ram_signalsP14sp_ram_signals
FN:1366,_Z18get_dp_ram_signalsP9nnode_t_t
FNDA:0,_Z18get_dp_ram_signalsP9nnode_t_t
FN:1437,_Z19free_dp_ram_signalsP14dp_ram_signals
FNDA:0,_Z19free_dp_ram_signalsP14dp_ram_signals
FN:1452,_Z32instantiate_soft_single_port_ramP9nnode_t_tsP11netlist_t_t
FNDA:0,_Z32instantiate_soft_single_port_ramP9nnode_t_tsP11netlist_t_t
FN:1541,_Z30instantiate_soft_dual_port_ramP9nnode_t_tsP11netlist_t_t
FNDA:0,_Z30instantiate_soft_dual_port_ramP9nnode_t_tsP11netlist_t_t
FN:1676,_Z14create_decoderP9nnode_t_tsP15signal_list_t_t
FNDA:0,_Z14create_decoderP9nnode_t_tsP15signal_list_t_t
DA:61,0
DA:63,0
DA:64,0
DA:65,0
DA:66,0
DA:69,0
DA:71,0
DA:72,0
DA:73,0
DA:74,0
DA:75,0
DA:78,0
DA:80,0
DA:81,0
DA:82,0
DA:83,0
DA:86,0
DA:88,0
DA:89,0
DA:90,0
DA:91,0
DA:92,0
DA:95,0
DA:97,0
DA:99,0
DA:100,0
DA:102,0
DA:103,0
DA:104,0
DA:109,0
DA:111,0
DA:112,0
DA:113,0
DA:114,0
DA:116,0
DA:118,0
DA:119,0
DA:120,0
DA:121,0
DA:126,0
DA:128,0
DA:129,0
DA:132,0
DA:134,0
DA:135,0
DA:137,0
DA:143,0
DA:144,0
DA:147,0
DA:149,0
DA:150,0
DA:151,0
DA:153,0
DA:160,0
DA:162,0
DA:163,0
DA:166,0
DA:168,0
DA:169,0
DA:171,0
DA:177,0
DA:178,0
DA:181,0
DA:183,0
DA:186,0
DA:190,0
DA:192,0
DA:197,0
DA:199,0
DA:200,0
DA:203,0
DA:205,0
DA:206,0
DA:208,0
DA:214,0
DA:215,0
DA:218,0
DA:220,0
DA:221,0
DA:222,0
DA:224,0
DA:231,0
DA:233,0
DA:234,0
DA:237,0
DA:239,0
DA:240,0
DA:242,0
DA:248,0
DA:249,0
DA:252,0
DA:254,0
DA:255,0
DA:256,0
DA:258,0
DA:265,0
DA:267,0
DA:270,0
DA:271,0
DA:274,0
DA:275,0
DA:276,0
DA:277,0
DA:279,0
DA:280,0
DA:282,0
DA:284,0
DA:285,0
DA:287,0
DA:288,0
DA:290,0
DA:292,0
DA:294,0
DA:296,0
DA:299,0
DA:303,0
DA:306,0
DA:307,0
DA:309,0
DA:311,0
DA:312,0
DA:314,0
DA:315,0
DA:317,0
DA:318,0
DA:320,0
DA:321,0
DA:324,0
DA:328,0
DA:331,0
DA:332,0
DA:333,0
DA:334,0
DA:335,0
DA:349,0
DA:351,0
DA:353,0
DA:356,0
DA:358,0
DA:359,0
DA:360,0
DA:363,0
DA:364,0
DA:365,0
DA:366,0
DA:369,0
DA:370,0
DA:373,0
DA:374,0
DA:377,0
DA:378,0
DA:379,0
DA:380,0
DA:381,0
DA:382,0
DA:385,0
DA:386,0
DA:387,0
DA:388,0
DA:391,0
DA:392,0
DA:395,0
DA:396,0
DA:397,0
DA:398,0
DA:399,0
DA:401,0
DA:402,0
DA:403,0
DA:405,0
DA:406,0
DA:407,0
DA:409,0
DA:411,0
DA:412,0
DA:413,0
DA:417,0
DA:418,0
DA:419,0
DA:422,0
DA:423,0
DA:425,0
DA:426,0
DA:429,0
DA:431,0
DA:432,0
DA:433,0
DA:434,0
DA:435,0
DA:437,0
DA:438,0
DA:439,0
DA:441,0
DA:443,0
DA:444,0
DA:446,0
DA:447,0
DA:450,0
DA:451,0
DA:453,0
DA:455,0
DA:456,0
DA:466,0
DA:468,0
DA:470,0
DA:473,0
DA:475,0
DA:476,0
DA:477,0
DA:480,0
DA:482,0
DA:483,0
DA:484,0
DA:486,0
DA:487,0
DA:488,0
DA:491,0
DA:492,0
DA:495,0
DA:496,0
DA:499,0
DA:500,0
DA:501,0
DA:502,0
DA:503,0
DA:504,0
DA:507,0
DA:508,0
DA:509,0
DA:510,0
DA:511,0
DA:512,0
DA:515,0
DA:516,0
DA:517,0
DA:518,0
DA:521,0
DA:522,0
DA:523,0
DA:524,0
DA:525,0
DA:527,0
DA:528,0
DA:529,0
DA:531,0
DA:532,0
DA:533,0
DA:535,0
DA:536,0
DA:537,0
DA:539,0
DA:540,0
DA:541,0
DA:542,0
DA:544,0
DA:545,0
DA:546,0
DA:548,0
DA:549,0
DA:550,0
DA:552,0
DA:554,0
DA:555,0
DA:556,0
DA:560,0
DA:561,0
DA:562,0
DA:565,0
DA:566,0
DA:567,0
DA:569,0
DA:570,0
DA:571,0
DA:574,0
DA:576,0
DA:577,0
DA:578,0
DA:579,0
DA:580,0
DA:582,0
DA:583,0
DA:584,0
DA:586,0
DA:588,0
DA:589,0
DA:591,0
DA:592,0
DA:596,0
DA:598,0
DA:599,0
DA:600,0
DA:601,0
DA:602,0
DA:604,0
DA:606,0
DA:607,0
DA:608,0
DA:610,0
DA:612,0
DA:613,0
DA:615,0
DA:616,0
DA:619,0
DA:620,0
DA:621,0
DA:622,0
DA:624,0
DA:625,0
DA:632,0
DA:634,0
DA:635,0
DA:637,0
DA:639,0
DA:641,0
DA:643,0
DA:646,0
DA:653,0
DA:655,0
DA:656,0
DA:657,0
DA:660,0
DA:661,0
DA:662,0
DA:663,0
DA:665,0
DA:666,0
DA:667,0
DA:669,0
DA:673,0
DA:676,0
DA:679,0
DA:680,0
DA:681,0
DA:683,0
DA:684,0
DA:685,0
DA:686,0
DA:687,0
DA:688,0
DA:690,0
DA:692,0
DA:697,0
DA:699,0
DA:700,0
DA:702,0
DA:703,0
DA:705,0
DA:706,0
DA:707,0
DA:717,0
DA:719,0
DA:720,0
DA:721,0
DA:722,0
DA:723,0
DA:724,0
DA:728,0
DA:730,0
DA:736,0
DA:738,0
DA:739,0
DA:740,0
DA:741,0
DA:743,0
DA:744,0
DA:746,0
DA:747,0
DA:749,0
DA:750,0
DA:751,0
DA:752,0
DA:754,0
DA:755,0
DA:757,0
DA:758,0
DA:760,0
DA:761,0
DA:762,0
DA:764,0
DA:766,0
DA:769,0
DA:778,0
DA:780,0
DA:781,0
DA:782,0
DA:785,0
DA:786,0
DA:787,0
DA:788,0
DA:790,0
DA:791,0
DA:792,0
DA:796,0
DA:799,0
DA:802,0
DA:803,0
DA:804,0
DA:806,0
DA:807,0
DA:808,0
DA:809,0
DA:810,0
DA:811,0
DA:813,0
DA:815,0
DA:817,0
DA:820,0
DA:821,0
DA:822,0
DA:824,0
DA:825,0
DA:826,0
DA:827,0
DA:828,0
DA:829,0
DA:831,0
DA:833,0
DA:838,0
DA:840,0
DA:841,0
DA:843,0
DA:844,0
DA:846,0
DA:847,0
DA:848,0
DA:853,0
DA:854,0
DA:858,0
DA:861,0
DA:864,0
DA:865,0
DA:866,0
DA:868,0
DA:869,0
DA:870,0
DA:871,0
DA:872,0
DA:873,0
DA:875,0
DA:877,0
DA:879,0
DA:882,0
DA:883,0
DA:884,0
DA:886,0
DA:887,0
DA:888,0
DA:889,0
DA:890,0
DA:891,0
DA:893,0
DA:895,0
DA:899,0
DA:904,0
DA:906,0
DA:912,0
DA:914,0
DA:915,0
DA:916,0
DA:917,0
DA:918,0
DA:919,0
DA:920,0
DA:923,0
DA:925,0
DA:927,0
DA:934,0
DA:936,0
DA:937,0
DA:938,0
DA:939,0
DA:940,0
DA:941,0
DA:942,0
DA:945,0
DA:947,0
DA:949,0
DA:956,0
DA:958,0
DA:964,0
DA:965,0
DA:966,0
DA:967,0
DA:975,0
DA:977,0
DA:983,0
DA:984,0
DA:985,0
DA:986,0
DA:995,0
DA:997,0
DA:999,0
DA:1000,0
DA:1001,0
DA:1003,0
DA:1004,0
DA:1005,0
DA:1006,0
DA:1008,0
DA:1009,0
DA:1010,0
DA:1011,0
DA:1016,0
DA:1018,0
DA:1019,0
DA:1020,0
DA:1022,0
DA:1023,0
DA:1024,0
DA:1025,0
DA:1027,0
DA:1028,0
DA:1029,0
DA:1030,0
DA:1033,0
DA:1045,0
DA:1048,0
DA:1051,0
DA:1053,0
DA:1056,0
DA:1057,0
DA:1058,0
DA:1059,0
DA:1061,0
DA:1062,0
DA:1063,0
DA:1064,0
DA:1065,0
DA:1069,0
DA:1070,0
DA:1071,0
DA:1072,0
DA:1074,0
DA:1075,0
DA:1076,0
DA:1077,0
DA:1078,0
DA:1082,0
DA:1085,0
DA:1086,0
DA:1087,0
DA:1089,0
DA:1090,0
DA:1091,0
DA:1092,0
DA:1093,0
DA:1094,0
DA:1098,0
DA:1101,0
DA:1102,0
DA:1103,0
DA:1104,0
DA:1106,0
DA:1107,0
DA:1108,0
DA:1109,0
DA:1110,0
DA:1114,0
DA:1115,0
DA:1116,0
DA:1117,0
DA:1119,0
DA:1120,0
DA:1121,0
DA:1122,0
DA:1123,0
DA:1127,0
DA:1130,0
DA:1131,0
DA:1132,0
DA:1134,0
DA:1135,0
DA:1136,0
DA:1137,0
DA:1138,0
DA:1139,0
DA:1140,0
DA:1143,0
DA:1151,0
DA:1153,0
DA:1154,0
DA:1155,0
DA:1156,0
DA:1157,0
DA:1162,0
DA:1164,0
DA:1165,0
DA:1167,0
DA:1168,0
DA:1170,0
DA:1171,0
DA:1173,0
DA:1174,0
DA:1179,0
DA:1181,0
DA:1182,0
DA:1184,0
DA:1186,0
DA:1188,0
DA:1189,0
DA:1194,0
DA:1196,0
DA:1198,0
DA:1199,0
DA:1201,0
DA:1203,0
DA:1205,0
DA:1206,0
DA:1208,0
DA:1210,0
DA:1213,0
DA:1214,0
DA:1215,0
DA:1217,0
DA:1220,0
DA:1222,0
DA:1223,0
DA:1224,0
DA:1226,0
DA:1228,0
DA:1233,0
DA:1235,0
DA:1236,0
DA:1238,0
DA:1239,0
DA:1241,0
DA:1242,0
DA:1244,0
DA:1246,0
DA:1248,0
DA:1249,0
DA:1252,0
DA:1254,0
DA:1257,0
DA:1258,0
DA:1259,0
DA:1261,0
DA:1263,0
DA:1264,0
DA:1267,0
DA:1269,0
DA:1271,0
DA:1273,0
DA:1274,0
DA:1275,0
DA:1278,0
DA:1280,0
DA:1281,0
DA:1282,0
DA:1285,0
DA:1287,0
DA:1288,0
DA:1291,0
DA:1294,0
DA:1296,0
DA:1297,0
DA:1300,0
DA:1303,0
DA:1305,0
DA:1307,0
DA:1308,0
DA:1311,0
DA:1312,0
DA:1313,0
DA:1314,0
DA:1315,0
DA:1317,0
DA:1318,0
DA:1320,0
DA:1321,0
DA:1322,0
DA:1323,0
DA:1324,0
DA:1325,0
DA:1326,0
DA:1327,0
DA:1328,0
DA:1330,0
DA:1335,0
DA:1336,0
DA:1337,0
DA:1338,0
DA:1339,0
DA:1341,0
DA:1343,0
DA:1344,0
DA:1345,0
DA:1347,0
DA:1352,0
DA:1354,0
DA:1357,0
DA:1359,0
DA:1360,0
DA:1361,0
DA:1363,0
DA:1364,0
DA:1366,0
DA:1368,0
DA:1370,0
DA:1371,0
DA:1374,0
DA:1375,0
DA:1376,0
DA:1377,0
DA:1378,0
DA:1379,0
DA:1380,0
DA:1381,0
DA:1382,0
DA:1384,0
DA:1385,0
DA:1387,0
DA:1388,0
DA:1389,0
DA:1390,0
DA:1391,0
DA:1392,0
DA:1393,0
DA:1394,0
DA:1395,0
DA:1396,0
DA:1397,0
DA:1398,0
DA:1399,0
DA:1400,0
DA:1401,0
DA:1403,0
DA:1409,0
DA:1410,0
DA:1411,0
DA:1412,0
DA:1413,0
DA:1414,0
DA:1415,0
DA:1418,0
DA:1420,0
DA:1421,0
DA:1422,0
DA:1423,0
DA:1424,0
DA:1426,0
DA:1431,0
DA:1432,0
DA:1434,0
DA:1437,0
DA:1439,0
DA:1440,0
DA:1441,0
DA:1442,0
DA:1443,0
DA:1444,0
DA:1446,0
DA:1447,0
DA:1452,0
DA:1454,0
DA:1456,0
DA:1459,0
DA:1462,0
DA:1464,0
DA:1466,0
DA:1467,0
DA:1469,0
DA:1472,0
DA:1473,0
DA:1475,0
DA:1476,0
DA:1478,0
DA:1482,0
DA:1484,0
DA:1487,0
DA:1489,0
DA:1490,0
DA:1492,0
DA:1495,0
DA:1496,0
DA:1497,0
DA:1498,0
DA:1499,0
DA:1500,0
DA:1501,0
DA:1504,0
DA:1505,0
DA:1506,0
DA:1507,0
DA:1510,0
DA:1513,0
DA:1516,0
DA:1519,0
DA:1522,0
DA:1524,0
DA:1525,0
DA:1528,0
DA:1531,0
DA:1532,0
DA:1535,0
DA:1536,0
DA:1541,0
DA:1543,0
DA:1545,0
DA:1548,0
DA:1549,0
DA:1551,0
DA:1554,0
DA:1555,0
DA:1558,0
DA:1559,0
DA:1560,0
DA:1562,0
DA:1563,0
DA:1565,0
DA:1566,0
DA:1569,0
DA:1570,0
DA:1572,0
DA:1573,0
DA:1576,0
DA:1577,0
DA:1579,0
DA:1580,0
DA:1582,0
DA:1583,0
DA:1586,0
DA:1587,0
DA:1588,0
DA:1590,0
DA:1593,0
DA:1595,0
DA:1596,0
DA:1599,0
DA:1600,0
DA:1602,0
DA:1603,0
DA:1605,0
DA:1606,0
DA:1609,0
DA:1611,0
DA:1612,0
DA:1613,0
DA:1614,0
DA:1615,0
DA:1616,0
DA:1618,0
DA:1619,0
DA:1622,0
DA:1623,0
DA:1624,0
DA:1625,0
DA:1628,0
DA:1629,0
DA:1630,0
DA:1631,0
DA:1634,0
DA:1637,0
DA:1638,0
DA:1641,0
DA:1642,0
DA:1645,0
DA:1646,0
DA:1649,0
DA:1650,0
DA:1652,0
DA:1653,0
DA:1656,0
DA:1657,0
DA:1660,0
DA:1661,0
DA:1662,0
DA:1665,0
DA:1666,0
DA:1667,0
DA:1670,0
DA:1671,0
DA:1676,0
DA:1678,0
DA:1680,0
DA:1683,0
DA:1684,0
DA:1685,0
DA:1687,0
DA:1688,0
DA:1689,0
DA:1690,0
DA:1691,0
DA:1692,0
DA:1693,0
DA:1694,0
DA:1695,0
DA:1697,0
DA:1698,0
DA:1700,0
DA:1702,0
DA:1706,0
DA:1707,0
DA:1710,0
DA:1712,0
DA:1713,0
DA:1716,0
DA:1717,0
DA:1720,0
DA:1721,0
DA:1724,0
DA:1728,0
DA:1729,0
DA:1730,0
DA:1731,0
DA:1732,0
DA:1733,0
DA:1736,0
DA:1739,0
DA:1740,0
end_of_record
SF:/usr/include/x86_64-linux-gnu/bits/stdio2.h
DA:105,0
DA:107,0
end_of_record
SF:/usr/include/c++/9/iostream
end_of_record
SF:/usr/include/c++/9/ostream
DA:108,0
DA:113,0
DA:565,0
DA:568,0
DA:570,0
DA:571,0
end_of_record
TN:
SF:/usr/include/x86_64-linux-gnu/bits/stdio2.h
DA:34,0
DA:36,0
DA:98,0
DA:100,0
DA:105,0
DA:107,0
end_of_record
SF:/usr/include/c++/9/bits/char_traits.h
DA:329,0
DA:335,0
end_of_record
SF:/usr/include/c++/9/bits/locale_facets.h
FN:872,_ZNKSt5ctypeIcE5widenEc
FNDA:0,_ZNKSt5ctypeIcE5widenEc
FN:1084,_ZNKSt5ctypeIcE8do_widenEc
FNDA:0,_ZNKSt5ctypeIcE8do_widenEc
DA:872,0
DA:874,0
DA:875,0
DA:876,0
DA:877,0
DA:1084,0
DA:1085,0
end_of_record
SF:/workspace/vtr-verilog-to-routing/ODIN_II/SRC/lib_blocks/multipliers.cpp
FN:76,_Z34instantiate_simple_soft_multiplierP9nnode_t_tsP11netlist_t_t
FNDA:0,_Z34instantiate_simple_soft_multiplierP9nnode_t_tsP11netlist_t_t
FN:259,_Z22init_mult_distributionv
FNDA:0,_Z22init_mult_distributionv
FN:274,_Z24record_mult_distributionP9nnode_t_t
FNDA:0,_Z24record_mult_distributionP9nnode_t_t
FN:291,_Z24report_mult_distributionv
FNDA:0,_Z24report_mult_distributionv
FN:320,_Z21find_hard_multipliersv
FNDA:0,_Z21find_hard_multipliersv
FN:343,_Z23declare_hard_multiplierP9nnode_t_t
FNDA:0,_Z23declare_hard_multiplierP9nnode_t_t
FN:384,_Z27instantiate_hard_multiplierP9nnode_t_tsP11netlist_t_t
FNDA:0,_Z27instantiate_hard_multiplierP9nnode_t_tsP11netlist_t_t
FN:427,_Z26add_the_blackbox_for_multsP8_IO_FILE
FNDA:0,_Z26add_the_blackbox_for_multsP8_IO_FILE
FN:508,_Z20define_mult_functionP9nnode_t_tsP8_IO_FILE
FNDA:0,_Z20define_mult_functionP9nnode_t_tsP8_IO_FILE
FN:603,_Z21init_split_multiplierP9nnode_t_tS0_iiii
FNDA:0,_Z21init_split_multiplierP9nnode_t_tS0_iiii
FN:651,_Z18init_cascade_adderP9nnode_t_tS0_i
FNDA:0,_Z18init_cascade_adderP9nnode_t_tS0_i
FN:715,_Z16split_multiplierP9nnode_t_tiiii
FNDA:0,_Z16split_multiplierP9nnode_t_tiiii
FN:821,_Z18split_multiplier_aP9nnode_t_tiii
FNDA:0,_Z18split_multiplier_aP9nnode_t_tiii
FN:897,_Z18split_multiplier_bP9nnode_t_tiii
FNDA:0,_Z18split_multiplier_bP9nnode_t_tiii
FN:964,_Z14pad_multiplierP9nnode_t_tP11netlist_t_t
FNDA:0,_Z14pad_multiplierP9nnode_t_tP11netlist_t_t
FN:1080,_Z19iterate_multipliersP11netlist_t_t
FNDA:0,_Z19iterate_multipliersP11netlist_t_t
FN:1166,_Z17clean_multipliersv
FNDA:0,_Z17clean_multipliersv
DA:76,0
DA:78,0
DA:79,0
DA:80,0
DA:81,0
DA:82,0
DA:83,0
DA:84,0
DA:85,0
DA:86,0
DA:87,0
DA:88,0
DA:93,0
DA:94,0
DA:95,0
DA:96,0
DA:97,0
DA:98,0
DA:99,0
DA:100,0
DA:101,0
DA:103,0
DA:104,0
DA:106,0
DA:109,0
DA:112,0
DA:115,0
DA:117,0
DA:119,0
DA:122,0
DA:125,0
DA:130,0
DA:132,0
DA:135,0
DA:138,0
DA:143,0
DA:147,0
DA:150,0
DA:155,0
DA:161,0
DA:163,0
DA:166,0
DA:169,0
DA:172,0
DA:177,0
DA:180,0
DA:183,0
DA:187,0
DA:190,0
DA:193,0
DA:197,0
DA:204,0
DA:206,0
DA:209,0
DA:211,0
DA:214,0
DA:216,0
DA:219,0
DA:224,0
DA:225,0
DA:230,0
DA:232,0
DA:236,0
DA:238,0
DA:241,0
DA:244,0
DA:246,0
DA:249,0
DA:251,0
DA:253,0
DA:259,0
DA:261,0
DA:263,0
DA:264,0
DA:265,0
DA:266,0
DA:267,0
DA:268,0
DA:274,0
DA:276,0
DA:278,0
DA:279,0
DA:281,0
DA:282,0
DA:284,0
DA:285,0
DA:291,0
DA:293,0
DA:294,0
DA:296,0
DA:299,0
DA:300,0
DA:301,0
DA:303,0
DA:305,0
DA:307,0
DA:308,0
DA:312,0
DA:313,0
DA:320,0
DA:322,0
DA:323,0
DA:324,0
DA:326,0
DA:328,0
DA:329,0
DA:333,0
DA:343,0
DA:345,0
DA:346,0
DA:349,0
DA:351,0
DA:353,0
DA:354,0
DA:355,0
DA:356,0
DA:357,0
DA:359,0
DA:360,0
DA:361,0
DA:363,0
DA:365,0
DA:368,0
DA:372,0
DA:373,0
DA:374,0
DA:375,0
DA:376,0
DA:377,0
DA:378,0
DA:384,0
DA:386,0
DA:387,0
DA:389,0
DA:392,0
DA:393,0
DA:394,0
DA:397,0
DA:398,0
DA:400,0
DA:402,0
DA:403,0
DA:406,0
DA:408,0
DA:410,0
DA:412,0
DA:413,0
DA:414,0
DA:415,0
DA:417,0
DA:418,0
DA:419,0
DA:420,0
DA:427,0
DA:429,0
DA:430,0
DA:431,0
DA:432,0
DA:433,0
DA:434,0
DA:435,0
DA:438,0
DA:439,0
DA:442,0
DA:443,0
DA:444,0
DA:445,0
DA:446,0
DA:449,0
DA:450,0
DA:454,0
DA:457,0
DA:458,0
DA:460,0
DA:463,0
DA:464,0
DA:465,0
DA:467,0
DA:469,0
DA:473,0
DA:476,0
DA:477,0
DA:479,0
DA:481,0
DA:484,0
DA:485,0
DA:487,0
DA:488,0
DA:490,0
DA:491,0
DA:494,0
DA:496,0
DA:497,0
DA:498,0
DA:499,0
DA:501,0
DA:508,0
DA:510,0
DA:511,0
DA:512,0
DA:514,0
DA:515,0
DA:516,0
DA:517,0
DA:518,0
DA:520,0
DA:522,0
DA:524,0
DA:528,0
DA:530,0
DA:533,0
DA:537,0
DA:540,0
DA:544,0
DA:546,0
DA:548,0
DA:549,0
DA:550,0
DA:552,0
DA:553,0
DA:555,0
DA:559,0
DA:560,0
DA:561,0
DA:563,0
DA:564,0
DA:565,0
DA:567,0
DA:568,0
DA:570,0
DA:573,0
DA:575,0
DA:578,0
DA:582,0
DA:584,0
DA:585,0
DA:587,0
DA:590,0
DA:593,0
DA:594,0
DA:603,0
DA:605,0
DA:608,0
DA:609,0
DA:610,0
DA:611,0
DA:614,0
DA:615,0
DA:616,0
DA:617,0
DA:618,0
DA:619,0
DA:620,0
DA:623,0
DA:624,0
DA:625,0
DA:627,0
DA:628,0
DA:630,0
DA:632,0
DA:633,0
DA:637,0
DA:638,0
DA:639,0
DA:640,0
DA:642,0
DA:651,0
DA:653,0
DA:655,0
DA:656,0
DA:657,0
DA:658,0
DA:661,0
DA:662,0
DA:665,0
DA:666,0
DA:667,0
DA:668,0
DA:669,0
DA:670,0
DA:671,0
DA:674,0
DA:675,0
DA:676,0
DA:677,0
DA:678,0
DA:681,0
DA:682,0
DA:683,0
DA:684,0
DA:686,0
DA:687,0
DA:715,0
DA:717,0
DA:718,0
DA:721,0
DA:722,0
DA:725,0
DA:726,0
DA:727,0
DA:728,0
DA:729,0
DA:730,0
DA:733,0
DA:734,0
DA:735,0
DA:736,0
DA:737,0
DA:738,0
DA:741,0
DA:742,0
DA:743,0
DA:744,0
DA:745,0
DA:746,0
DA:749,0
DA:750,0
DA:751,0
DA:752,0
DA:753,0
DA:754,0
DA:757,0
DA:758,0
DA:759,0
DA:760,0
DA:761,0
DA:764,0
DA:765,0
DA:766,0
DA:767,0
DA:768,0
DA:769,0
DA:772,0
DA:773,0
DA:774,0
DA:775,0
DA:778,0
DA:779,0
DA:780,0
DA:781,0
DA:782,0
DA:783,0
DA:784,0
DA:785,0
DA:788,0
DA:789,0
DA:792,0
DA:793,0
DA:794,0
DA:797,0
DA:798,0
DA:799,0
DA:801,0
DA:821,0
DA:823,0
DA:824,0
DA:827,0
DA:828,0
DA:831,0
DA:832,0
DA:833,0
DA:834,0
DA:835,0
DA:836,0
DA:839,0
DA:840,0
DA:841,0
DA:842,0
DA:843,0
DA:844,0
DA:847,0
DA:848,0
DA:849,0
DA:850,0
DA:851,0
DA:854,0
DA:855,0
DA:856,0
DA:857,0
DA:858,0
DA:859,0
DA:862,0
DA:863,0
DA:865,0
DA:866,0
DA:869,0
DA:870,0
DA:871,0
DA:874,0
DA:875,0
DA:876,0
DA:877,0
DA:897,0
DA:899,0
DA:900,0
DA:903,0
DA:904,0
DA:907,0
DA:908,0
DA:909,0
DA:910,0
DA:911,0
DA:912,0
DA:915,0
DA:916,0
DA:917,0
DA:918,0
DA:919,0
DA:920,0
DA:923,0
DA:924,0
DA:925,0
DA:926,0
DA:927,0
DA:930,0
DA:931,0
DA:932,0
DA:933,0
DA:934,0
DA:935,0
DA:938,0
DA:939,0
DA:941,0
DA:942,0
DA:945,0
DA:946,0
DA:947,0
DA:950,0
DA:951,0
DA:952,0
DA:953,0
DA:964,0
DA:966,0
DA:967,0
DA:968,0
DA:970,0
DA:972,0
DA:974,0
DA:975,0
DA:977,0
DA:978,0
DA:979,0
DA:980,0
DA:983,0
DA:984,0
DA:985,0
DA:987,0
DA:988,0
DA:990,0
DA:991,0
DA:992,0
DA:994,0
DA:996,0
DA:997,0
DA:999,0
DA:1000,0
DA:1001,0
DA:1002,0
DA:1003,0
DA:1004,0
DA:1006,0
DA:1007,0
DA:1008,0
DA:1014,0
DA:1016,0
DA:1019,0
DA:1021,0
DA:1023,0
DA:1027,0
DA:1029,0
DA:1030,0
DA:1032,0
DA:1035,0
DA:1038,0
DA:1041,0
DA:1043,0
DA:1044,0
DA:1046,0
DA:1049,0
DA:1054,0
DA:1056,0
DA:1057,0
DA:1060,0
DA:1062,0
DA:1063,0
DA:1065,0
DA:1068,0
DA:1080,0
DA:1082,0
DA:1083,0
DA:1084,0
DA:1085,0
DA:1088,0
DA:1091,0
DA:1092,0
DA:1093,0
DA:1095,0
DA:1096,0
DA:1097,0
DA:1100,0
DA:1102,0
DA:1103,0
DA:1105,0
DA:1107,0
DA:1108,0
DA:1110,0
DA:1112,0
DA:1113,0
DA:1114,0
DA:1116,0
DA:1117,0
DA:1118,0
DA:1122,0
DA:1124,0
DA:1125,0
DA:1126,0
DA:1127,0
DA:1128,0
DA:1130,0
DA:1132,0
DA:1133,0
DA:1134,0
DA:1136,0
DA:1138,0
DA:1139,0
DA:1140,0
DA:1142,0
DA:1145,0
DA:1146,0
DA:1153,0
DA:1166,0
DA:1168,0
DA:1169,0
DA:1170,0
end_of_record
SF:/usr/include/c++/9/ostream
DA:108,0
DA:113,0
DA:565,0
DA:568,0
DA:570,0
DA:571,0
end_of_record
SF:/usr/include/x86_64-linux-gnu/bits/string_fortified.h
DA:88,0
DA:90,0
DA:126,0
DA:128,0
end_of_record
SF:/usr/include/c++/9/iostream
end_of_record
TN:
SF:/usr/include/x86_64-linux-gnu/bits/stdio2.h
DA:34,0
DA:36,0
DA:105,0
DA:107,0
end_of_record
SF:/workspace/vtr-verilog-to-routing/ODIN_II/SRC/lib_blocks/subtractions.cpp
FN:59,_Z23report_sub_distributionv
FNDA:0,_Z23report_sub_distributionv
FN:84,_Z26declare_hard_adder_for_subP9nnode_t_t
FNDA:0,_Z26declare_hard_adder_for_subP9nnode_t_t
FN:122,_Z34instantiate_hard_adder_subtractionP9nnode_t_tsP11netlist_t_t
FNDA:0,_Z34instantiate_hard_adder_subtractionP9nnode_t_tsP11netlist_t_t
FN:164,_Z24init_split_adder_for_subP9nnode_t_tS0_iiiiiiii
FNDA:0,_Z24init_split_adder_for_subP9nnode_t_tS0_iiiiiiii
FN:361,_Z19split_adder_for_subP9nnode_t_tiiiiiiiP11netlist_t_t
FNDA:0,_Z19split_adder_for_subP9nnode_t_tiiiiiiiP11netlist_t_t
FN:661,_Z22iterate_adders_for_subP11netlist_t_t
FNDA:0,_Z22iterate_adders_for_subP11netlist_t_t
FN:732,_Z20clean_adders_for_subv
FNDA:0,_Z20clean_adders_for_subv
DA:59,0
DA:61,0
DA:64,0
DA:65,0
DA:66,0
DA:67,0
DA:69,0
DA:70,0
DA:72,0
DA:73,0
DA:75,0
DA:76,0
DA:84,0
DA:86,0
DA:87,0
DA:90,0
DA:92,0
DA:94,0
DA:95,0
DA:96,0
DA:97,0
DA:99,0
DA:101,0
DA:104,0
DA:108,0
DA:109,0
DA:110,0
DA:111,0
DA:112,0
DA:113,0
DA:114,0
DA:115,0
DA:116,0
DA:122,0
DA:124,0
DA:125,0
DA:127,0
DA:130,0
DA:131,0
DA:132,0
DA:136,0
DA:140,0
DA:141,0
DA:144,0
DA:146,0
DA:148,0
DA:149,0
DA:150,0
DA:151,0
DA:155,0
DA:156,0
DA:164,0
DA:166,0
DA:167,0
DA:168,0
DA:169,0
DA:170,0
DA:173,0
DA:174,0
DA:175,0
DA:176,0
DA:179,0
DA:181,0
DA:182,0
DA:183,0
DA:185,0
DA:192,0
DA:193,0
DA:194,0
DA:200,0
DA:203,0
DA:204,0
DA:207,0
DA:212,0
DA:213,0
DA:214,0
DA:215,0
DA:216,0
DA:217,0
DA:218,0
DA:219,0
DA:222,0
DA:223,0
DA:225,0
DA:228,0
DA:229,0
DA:232,0
DA:234,0
DA:235,0
DA:237,0
DA:239,0
DA:240,0
DA:242,0
DA:244,0
DA:246,0
DA:247,0
DA:249,0
DA:251,0
DA:252,0
DA:253,0
DA:255,0
DA:256,0
DA:261,0
DA:263,0
DA:264,0
DA:265,0
DA:267,0
DA:268,0
DA:273,0
DA:275,0
DA:277,0
DA:278,0
DA:280,0
DA:282,0
DA:283,0
DA:284,0
DA:290,0
DA:292,0
DA:293,0
DA:294,0
DA:300,0
DA:302,0
DA:304,0
DA:305,0
DA:306,0
DA:311,0
DA:312,0
DA:314,0
DA:315,0
DA:316,0
DA:322,0
DA:323,0
DA:326,0
DA:328,0
DA:332,0
DA:333,0
DA:334,0
DA:336,0
DA:338,0
DA:339,0
DA:340,0
DA:341,0
DA:343,0
DA:361,0
DA:363,0
DA:364,0
DA:365,0
DA:366,0
DA:367,0
DA:368,0
DA:371,0
DA:373,0
DA:374,0
DA:378,0
DA:379,0
DA:382,0
DA:383,0
DA:385,0
DA:387,0
DA:388,0
DA:389,0
DA:391,0
DA:394,0
DA:396,0
DA:397,0
DA:398,0
DA:399,0
DA:401,0
DA:402,0
DA:405,0
DA:412,0
DA:413,0
DA:416,0
DA:418,0
DA:419,0
DA:423,0
DA:424,0
DA:429,0
DA:432,0
DA:435,0
DA:437,0
DA:438,0
DA:440,0
DA:441,0
DA:442,0
DA:443,0
DA:445,0
DA:447,0
DA:451,0
DA:453,0
DA:454,0
DA:455,0
DA:457,0
DA:459,0
DA:460,0
DA:461,0
DA:464,0
DA:469,0
DA:471,0
DA:474,0
DA:475,0
DA:479,0
DA:481,0
DA:482,0
DA:483,0
DA:485,0
DA:487,0
DA:488,0
DA:489,0
DA:492,0
DA:496,0
DA:498,0
DA:499,0
DA:502,0
DA:504,0
DA:508,0
DA:510,0
DA:511,0
DA:512,0
DA:514,0
DA:516,0
DA:517,0
DA:518,0
DA:521,0
DA:527,0
DA:529,0
DA:530,0
DA:531,0
DA:533,0
DA:535,0
DA:536,0
DA:537,0
DA:540,0
DA:546,0
DA:549,0
DA:550,0
DA:552,0
DA:553,0
DA:557,0
DA:558,0
DA:560,0
DA:564,0
DA:566,0
DA:567,0
DA:569,0
DA:571,0
DA:572,0
DA:574,0
DA:580,0
DA:581,0
DA:583,0
DA:585,0
DA:587,0
DA:588,0
DA:591,0
DA:593,0
DA:599,0
DA:601,0
DA:602,0
DA:605,0
DA:607,0
DA:612,0
DA:615,0
DA:617,0
DA:619,0
DA:620,0
DA:623,0
DA:625,0
DA:630,0
DA:632,0
DA:638,0
DA:639,0
DA:640,0
DA:643,0
DA:644,0
DA:645,0
DA:646,0
DA:647,0
DA:648,0
DA:661,0
DA:663,0
DA:664,0
DA:665,0
DA:666,0
DA:667,0
DA:670,0
DA:675,0
DA:676,0
DA:677,0
DA:679,0
DA:681,0
DA:683,0
DA:684,0
DA:686,0
DA:687,0
DA:689,0
DA:690,0
DA:691,0
DA:694,0
DA:696,0
DA:699,0
DA:700,0
DA:702,0
DA:704,0
DA:705,0
DA:707,0
DA:709,0
DA:713,0
DA:715,0
DA:719,0
DA:732,0
DA:734,0
DA:735,0
DA:736,0
DA:737,0
DA:738,0
end_of_record
SF:/usr/include/c++/9/bits/locale_facets.h
FN:872,_ZNKSt5ctypeIcE5widenEc
FNDA:0,_ZNKSt5ctypeIcE5widenEc
FN:1084,_ZNKSt5ctypeIcE8do_widenEc
FNDA:0,_ZNKSt5ctypeIcE8do_widenEc
DA:872,0
DA:874,0
DA:875,0
DA:876,0
DA:877,0
DA:1084,0
DA:1085,0
end_of_record
SF:/usr/include/c++/9/bits/char_traits.h
DA:329,0
DA:335,0
end_of_record
SF:/usr/include/c++/9/ostream
DA:108,0
DA:113,0
DA:565,0
DA:568,0
DA:570,0
DA:571,0
end_of_record
SF:/usr/include/c++/9/iostream
end_of_record
TN:
SF:/usr/include/c++/9/bits/allocator.h
DA:141,0
DA:142,0
DA:153,0
end_of_record
SF:/usr/include/c++/9/bits/char_traits.h
DA:299,0
DA:300,0
DA:329,0
DA:335,0
DA:361,0
DA:363,0
DA:365,0
end_of_record
SF:/usr/include/c++/9/bits/locale_facets.h
FN:872,_ZNKSt5ctypeIcE5widenEc
FNDA:0,_ZNKSt5ctypeIcE5widenEc
FN:1084,_ZNKSt5ctypeIcE8do_widenEc
FNDA:0,_ZNKSt5ctypeIcE8do_widenEc
DA:872,0
DA:874,0
DA:875,0
DA:876,0
DA:877,0
DA:1084,0
DA:1085,0
end_of_record
SF:/usr/include/c++/9/bits/ptr_traits.h
DA:146,0
DA:147,0
end_of_record
SF:/usr/include/c++/9/bits/basic_string.tcc
FN:206,_ZNSt7__cxx1112basic_stringIcSt11char_traitsIcESaIcEE12_M_constructIPcEEvT_S7_St20forward_iterator_tag
FNDA:0,_ZNSt7__cxx1112basic_stringIcSt11char_traitsIcESaIcEE12_M_constructIPcEEvT_S7_St20forward_iterator_tag
DA:206,0
DA:211,0
DA:212,0
DA:215,0
DA:217,0
DA:219,0
DA:220,0
DA:225,0
DA:232,0
DA:233,0
end_of_record
SF:/usr/include/c++/9/ostream
DA:108,0
DA:113,0
DA:565,0
DA:568,0
DA:570,0
DA:571,0
end_of_record
SF:/usr/include/c++/9/bits/alloc_traits.h
DA:469,0
DA:470,0
DA:514,0
DA:515,0
end_of_record
SF:/usr/include/c++/9/ext/alloc_traits.h
DA:97,0
DA:98,0
end_of_record
SF:/usr/include/c++/9/iostream
end_of_record
SF:/usr/include/c++/9/bits/basic_string.h
DA:150,0
DA:159,0
DA:160,0
DA:178,0
DA:179,0
DA:182,0
DA:183,0
DA:186,0
DA:190,0
DA:193,0
DA:200,0
DA:203,0
DA:210,0
DA:211,0
DA:214,0
DA:216,0
DA:217,0
DA:221,0
DA:222,0
DA:229,0
DA:231,0
DA:232,0
DA:236,0
DA:237,0
DA:243,0
DA:247,0
DA:263,0
DA:266,0
DA:286,0
DA:287,0
DA:290,0
DA:291,0
DA:346,0
DA:348,0
DA:349,0
DA:351,0
DA:392,0
DA:393,0
DA:448,0
DA:450,0
DA:451,0
DA:657,0
DA:658,0
DA:936,0
end_of_record
SF:/usr/include/c++/9/bits/move.h
DA:47,0
DA:99,0
DA:138,0
DA:139,0
end_of_record
SF:/workspace/vtr-verilog-to-routing/ODIN_II/SRC/lib_netlist/netlist_check.cpp
FN:53,_Z13check_netlistP11netlist_t_t
FNDA:0,_Z13check_netlistP11netlist_t_t
FN:67,_Z54levelize_and_check_for_combinational_loop_and_livenesssP11netlist_t_t
FNDA:0,_Z54levelize_and_check_for_combinational_loop_and_livenesssP11netlist_t_t
FN:90,_Z24sequential_levelized_dfssP11netlist_t_t
FNDA:0,_Z24sequential_levelized_dfssP11netlist_t_t
FN:166,_Z44depth_first_traverse_until_next_ff_or_outputP9nnode_t_tS0_iiP11netlist_t_t
FNDA:0,_Z44depth_first_traverse_until_next_ff_or_outputP9nnode_t_tS0_iiP11netlist_t_t
FN:244,_Z46depth_first_traversal_check_if_forward_leveledsP11netlist_t_t
FNDA:0,_Z46depth_first_traversal_check_if_forward_leveledsP11netlist_t_t
FN:266,_Z45depth_first_traverse_check_if_forward_leveledP9nnode_t_ti
FNDA:0,_Z45depth_first_traverse_check_if_forward_leveledP9nnode_t_ti
FN:315,_Z17levelize_forwardsP11netlist_t_t
FNDA:0,_Z17levelize_forwardsP11netlist_t_t
FN:476,_Z60levelize_forwards_clean_checking_for_combo_loop_and_livenesssP11netlist_t_t
FNDA:0,_Z60levelize_forwards_clean_checking_for_combo_loop_and_livenesssP11netlist_t_t
FN:577,_Z18levelize_backwardsP11netlist_t_t
FNDA:0,_Z18levelize_backwardsP11netlist_t_t
FN:709,_Z46levelize_backwards_clean_checking_for_livenesssP11netlist_t_t
FNDA:0,_Z46levelize_backwards_clean_checking_for_livenesssP11netlist_t_t
FN:793,_Z30find_node_at_top_of_combo_loopP9nnode_t_t
FNDA:0,_Z30find_node_at_top_of_combo_loopP9nnode_t_t
DA:53,0
DA:56,0
DA:59,0
DA:61,0
DA:67,0
DA:70,0
DA:73,0
DA:76,0
DA:79,0
DA:81,0
DA:84,0
DA:85,0
DA:90,0
DA:92,0
DA:94,0
DA:95,0
DA:96,0
DA:97,0
DA:98,0
DA:99,0
DA:102,0
DA:105,0
DA:107,0
DA:109,0
DA:110,0
DA:112,0
DA:117,0
DA:119,0
DA:120,0
DA:122,0
DA:124,0
DA:126,0
DA:127,0
DA:129,0
DA:132,0
DA:138,0
DA:139,0
DA:140,0
DA:141,0
DA:142,0
DA:145,0
DA:146,0
DA:147,0
DA:148,0
DA:149,0
DA:152,0
DA:154,0
DA:158,0
DA:161,0
DA:166,0
DA:168,0
DA:169,0
DA:170,0
DA:173,0
DA:176,0
DA:179,0
DA:180,0
DA:181,0
DA:183,0
DA:187,0
DA:192,0
DA:197,0
DA:201,0
DA:202,0
DA:205,0
DA:206,0
DA:207,0
DA:209,0
DA:216,0
DA:217,0
DA:219,0
DA:221,0
DA:222,0
DA:224,0
DA:225,0
DA:227,0
DA:228,0
DA:230,0
DA:231,0
DA:232,0
DA:235,0
DA:244,0
DA:246,0
DA:249,0
DA:251,0
DA:253,0
DA:257,0
DA:258,0
DA:259,0
DA:260,0
DA:261,0
DA:266,0
DA:268,0
DA:269,0
DA:270,0
DA:272,0
DA:281,0
DA:283,0
DA:285,0
DA:286,0
DA:288,0
DA:289,0
DA:291,0
DA:292,0
DA:294,0
DA:295,0
DA:296,0
DA:298,0
DA:300,0
DA:301,0
DA:305,0
DA:315,0
DA:317,0
DA:318,0
DA:319,0
DA:320,0
DA:323,0
DA:324,0
DA:325,0
DA:326,0
DA:327,0
DA:328,0
DA:329,0
DA:331,0
DA:334,0
DA:335,0
DA:336,0
DA:337,0
DA:339,0
DA:342,0
DA:343,0
DA:344,0
DA:345,0
DA:347,0
DA:350,0
DA:351,0
DA:352,0
DA:353,0
DA:355,0
DA:357,0
DA:359,0
DA:361,0
DA:362,0
DA:363,0
DA:364,0
DA:367,0
DA:369,0
DA:371,0
DA:372,0
DA:373,0
DA:374,0
DA:378,0
DA:381,0
DA:382,0
DA:383,0
DA:384,0
DA:385,0
DA:388,0
DA:390,0
DA:391,0
DA:392,0
DA:395,0
DA:397,0
DA:398,0
DA:399,0
DA:401,0
DA:403,0
DA:405,0
DA:406,0
DA:408,0
DA:410,0
DA:411,0
DA:413,0
DA:416,0
DA:418,0
DA:420,0
DA:423,0
DA:424,0
DA:429,0
DA:434,0
DA:437,0
DA:438,0
DA:440,0
DA:447,0
DA:450,0
DA:451,0
DA:452,0
DA:454,0
DA:461,0
DA:464,0
DA:472,0
DA:476,0
DA:478,0
DA:479,0
DA:480,0
DA:481,0
DA:483,0
DA:485,0
DA:488,0
DA:490,0
DA:491,0
DA:492,0
DA:495,0
DA:497,0
DA:498,0
DA:499,0
DA:501,0
DA:503,0
DA:504,0
DA:507,0
DA:509,0
DA:510,0
DA:512,0
DA:514,0
DA:518,0
DA:520,0
DA:521,0
DA:522,0
DA:525,0
DA:526,0
DA:528,0
DA:535,0
DA:538,0
DA:539,0
DA:541,0
DA:544,0
DA:545,0
DA:548,0
DA:550,0
DA:551,0
DA:553,0
DA:560,0
DA:563,0
DA:571,0
DA:577,0
DA:579,0
DA:580,0
DA:581,0
DA:582,0
DA:585,0
DA:586,0
DA:587,0
DA:588,0
DA:589,0
DA:590,0
DA:591,0
DA:593,0
DA:595,0
DA:596,0
DA:597,0
DA:598,0
DA:601,0
DA:603,0
DA:605,0
DA:606,0
DA:607,0
DA:608,0
DA:612,0
DA:615,0
DA:616,0
DA:617,0
DA:618,0
DA:619,0
DA:622,0
DA:624,0
DA:625,0
DA:626,0
DA:629,0
DA:631,0
DA:632,0
DA:633,0
DA:636,0
DA:638,0
DA:640,0
DA:642,0
DA:644,0
DA:646,0
DA:649,0
DA:650,0
DA:655,0
DA:656,0
DA:660,0
DA:662,0
DA:666,0
DA:667,0
DA:669,0
DA:676,0
DA:679,0
DA:682,0
DA:683,0
DA:684,0
DA:687,0
DA:693,0
DA:696,0
DA:704,0
DA:709,0
DA:711,0
DA:712,0
DA:713,0
DA:714,0
DA:716,0
DA:718,0
DA:721,0
DA:723,0
DA:724,0
DA:725,0
DA:728,0
DA:730,0
DA:731,0
DA:732,0
DA:735,0
DA:737,0
DA:740,0
DA:745,0
DA:746,0
DA:747,0
DA:750,0
DA:751,0
DA:753,0
DA:760,0
DA:763,0
DA:764,0
DA:766,0
DA:770,0
DA:771,0
DA:777,0
DA:780,0
DA:788,0
DA:793,0
DA:795,0
DA:796,0
DA:797,0
DA:798,0
DA:799,0
DA:801,0
DA:803,0
DA:804,0
DA:805,0
DA:808,0
DA:809,0
DA:811,0
DA:813,0
DA:814,0
DA:815,0
DA:819,0
DA:821,0
DA:824,0
DA:830,0
end_of_record
SF:/usr/include/c++/9/ext/type_traits.h
DA:152,0
end_of_record
SF:/usr/include/c++/9/bits/stl_iterator_base_funcs.h
DA:98,0
DA:104,0
DA:138,0
DA:141,0
end_of_record
SF:/usr/include/c++/9/ext/new_allocator.h
DA:83,0
DA:89,0
DA:119,0
DA:128,0
end_of_record
TN:
SF:/usr/include/c++/9/iostream
end_of_record
SF:/workspace/vtr-verilog-to-routing/ODIN_II/SRC/lib_netlist/netlist_cleanup.cpp
FN:67,_Z16insert_node_listP13node_list_t_tP9nnode_t_t
FNDA:0,_Z16insert_node_listP13node_list_t_tP9nnode_t_t
FN:74,_Z17traverse_backwardP9nnode_t_t
FNDA:0,_Z17traverse_backwardP9nnode_t_t
FN:92,_Z16traverse_forwardP9nnode_t_tii
FNDA:0,_Z16traverse_forwardP9nnode_t_tii
FN:137,_Z24mark_output_dependenciesP11netlist_t_t
FNDA:0,_Z24mark_output_dependenciesP11netlist_t_t
FN:146,_Z21identify_unused_nodesP11netlist_t_t
FNDA:0,_Z21identify_unused_nodesP11netlist_t_t
FN:165,_Z19remove_unused_nodesP13node_list_t_t
FNDA:0,_Z19remove_unused_nodesP13node_list_t_t
FN:192,_Z27calculate_addsub_statisticsP13node_list_t_t
FNDA:0,_Z27calculate_addsub_statisticsP13node_list_t_t
FN:232,_Z19remove_unused_logicP11netlist_t_t
FNDA:0,_Z19remove_unused_logicP11netlist_t_t
DA:67,0
DA:68,0
DA:69,0
DA:70,0
DA:74,0
DA:75,0
DA:76,0
DA:77,0
DA:78,0
DA:79,0
DA:80,0
DA:92,0
DA:93,0
DA:94,0
DA:98,0
DA:101,0
DA:103,0
DA:105,0
DA:108,0
DA:110,0
DA:111,0
DA:117,0
DA:118,0
DA:119,0
DA:120,0
DA:121,0
DA:122,0
DA:124,0
DA:125,0
DA:137,0
DA:138,0
DA:139,0
DA:140,0
DA:142,0
DA:146,0
DA:148,0
DA:149,0
DA:151,0
DA:152,0
DA:154,0
DA:155,0
DA:156,0
DA:157,0
DA:158,0
DA:159,0
DA:161,0
DA:165,0
DA:166,0
DA:168,0
DA:169,0
DA:170,0
DA:172,0
DA:173,0
DA:175,0
DA:192,0
DA:193,0
DA:197,0
DA:198,0
DA:199,0
DA:202,0
DA:205,0
DA:206,0
DA:207,0
DA:209,0
DA:210,0
DA:211,0
DA:212,0
DA:213,0
DA:215,0
DA:216,0
DA:217,0
DA:218,0
DA:221,0
DA:222,0
DA:225,0
DA:228,0
DA:229,0
DA:232,0
DA:233,0
DA:234,0
DA:235,0
DA:236,0
DA:237,0
end_of_record
SF:/usr/include/c++/9/cmath
DA:350,0
DA:351,0
end_of_record
TN:
SF:/usr/include/string.h
DA:317,0
DA:319,0
end_of_record
SF:/usr/include/c++/9/ostream
DA:108,0
DA:113,0
DA:565,0
DA:568,0
DA:570,0
DA:571,0
end_of_record
SF:/usr/include/x86_64-linux-gnu/bits/string_fortified.h
DA:88,0
DA:90,0
DA:103,0
DA:106,0
DA:126,0
DA:128,0
end_of_record
SF:/usr/include/c++/9/iostream
end_of_record
SF:/workspace/vtr-verilog-to-routing/libs/EXTERNAL/libargparse/src/argparse_value.hpp
DA:50,0
end_of_record
SF:/usr/include/x86_64-linux-gnu/bits/stdio2.h
DA:34,0
DA:36,0
DA:105,0
DA:107,0
end_of_record
SF:/workspace/vtr-verilog-to-routing/ODIN_II/SRC/lib_netlist/netlist_create_from_ast.cpp
FN:157,_Z29create_param_table_for_moduleP12ast_node_t_tS0_Pc
FNDA:0,_Z29create_param_table_for_moduleP12ast_node_t_tS0_Pc
FN:321,_Z14create_netlistv
FNDA:0,_Z14create_netlistv
FN:403,_Z15look_for_clocksP11netlist_t_t
FNDA:0,_Z15look_for_clocksP11netlist_t_t
FN:421,_Z15find_top_modulev
FNDA:0,_Z15find_top_modulev
FN:483,_Z44convert_ast_to_netlist_recursing_via_modulesP12ast_node_t_tPci
FNDA:0,_Z44convert_ast_to_netlist_recursing_via_modulesP12ast_node_t_tPci
FN:620,_Z28netlist_expand_ast_of_moduleP12ast_node_t_tPc
FNDA:0,_Z28netlist_expand_ast_of_moduleP12ast_node_t_tPc
FN:978,_Z24concatenate_signal_listsPP15signal_list_t_ti
FNDA:0,_Z24concatenate_signal_listsPP15signal_list_t_ti
FN:1007,_Z37create_all_driver_nets_in_this_modulePc
FNDA:0,_Z37create_all_driver_nets_in_this_modulePc
FN:1045,_Z39create_all_driver_nets_in_this_functionPc
FNDA:0,_Z39create_all_driver_nets_in_this_functionPc
FN:1083,_Z22create_top_driver_netsP12ast_node_t_tPc
FNDA:0,_Z22create_top_driver_netsP12ast_node_t_tPc
FN:1193,_Z23create_top_output_nodesP12ast_node_t_tPc
FNDA:0,_Z23create_top_output_nodesP12ast_node_t_tPc
FN:1315,_Z23define_nets_with_driverP12ast_node_t_tPc
FNDA:0,_Z23define_nets_with_driverP12ast_node_t_tPc
FN:1485,_Z33define_nodes_and_nets_with_driverP12ast_node_t_tPc
FNDA:0,_Z33define_nodes_and_nets_with_driverP12ast_node_t_tPc
FN:1595,_Z30create_symbol_table_for_moduleP12ast_node_t_tPc
FNDA:0,_Z30create_symbol_table_for_moduleP12ast_node_t_tPc
FN:1744,_Z32create_symbol_table_for_functionP12ast_node_t_tPc
FNDA:0,_Z32create_symbol_table_for_functionP12ast_node_t_tPc
FN:1862,_Z27check_for_initial_reg_valueP12ast_node_t_tPx
FNDA:0,_Z27check_for_initial_reg_valueP12ast_node_t_tPx
FN:1881,_Z24connect_memory_and_aliasP12ast_node_t_tPc
FNDA:0,_Z24connect_memory_and_aliasP12ast_node_t_tPc
FN:2019,_Z28connect_hard_block_and_aliasP12ast_node_t_tPci
FNDA:0,_Z28connect_hard_block_and_aliasP12ast_node_t_tPci
FN:2172,_Z38connect_module_instantiation_and_aliassP12ast_node_t_tPc
FNDA:0,_Z38connect_module_instantiation_and_aliassP12ast_node_t_tPc
FN:2489,_Z40connect_function_instantiation_and_aliassP12ast_node_t_tPc
FNDA:0,_Z40connect_function_instantiation_and_aliassP12ast_node_t_tPc
FN:2847,_Z11create_pinsP12ast_node_t_tPcS1_
FNDA:0,_Z11create_pinsP12ast_node_t_tPcS1_
FN:2945,_Z17create_output_pinP12ast_node_t_tPc
FNDA:0,_Z17create_output_pinP12ast_node_t_tPc
FN:2968,_Z16assignment_aliasP12ast_node_t_tPc
FNDA:0,_Z16assignment_aliasP12ast_node_t_tPc
FN:3247,_Z52define_latchs_initial_value_inside_initial_statementP12ast_node_t_tPc
FNDA:0,_Z52define_latchs_initial_value_inside_initial_statementP12ast_node_t_tPc
FN:3283,_Z31terminate_registered_assignmentP12ast_node_t_tP15signal_list_t_tS2_Pc
FNDA:0,_Z31terminate_registered_assignmentP12ast_node_t_tP15signal_list_t_tS2_Pc
FN:3499,_Z31terminate_continuous_assignmentP12ast_node_t_tP15signal_list_t_tPc
FNDA:0,_Z31terminate_continuous_assignmentP12ast_node_t_tP15signal_list_t_tPc
FN:3582,_Z34alias_output_assign_pins_to_inputsP13char_list_t_tP15signal_list_t_tP12ast_node_t_t
FNDA:0,_Z34alias_output_assign_pins_to_inputsP13char_list_t_tP15signal_list_t_tP12ast_node_t_t
FN:3612,_Z11create_gateP12ast_node_t_tPc
FNDA:0,_Z11create_gateP12ast_node_t_tPc
FN:3721,_Z21create_operation_nodeP12ast_node_t_tPP15signal_list_t_tiPc
FNDA:0,_Z21create_operation_nodeP12ast_node_t_tPP15signal_list_t_tiPc
FN:3950,_Z25evaluate_sensitivity_listP12ast_node_t_tPc
FNDA:0,_Z25evaluate_sensitivity_listP12ast_node_t_tPc
FN:4017,_Z22create_if_for_questionP12ast_node_t_tPc
FNDA:0,_Z22create_if_for_questionP12ast_node_t_tPc
FN:4041,_Z34create_if_question_mux_expressionsP12ast_node_t_tP9nnode_t_tPc
FNDA:0,_Z34create_if_question_mux_expressionsP12ast_node_t_tP9nnode_t_tPc
FN:4073,_Z9create_ifP12ast_node_t_tPc
FNDA:0,_Z9create_ifP12ast_node_t_tPc
FN:4097,_Z25create_if_control_signalsP12ast_node_t_tP9nnode_t_tPc
FNDA:0,_Z25create_if_control_signalsP12ast_node_t_tP9nnode_t_tPc
FN:4157,_Z24create_if_mux_statementsP12ast_node_t_tP9nnode_t_tPc
FNDA:0,_Z24create_if_mux_statementsP12ast_node_t_tP9nnode_t_tPc
FN:4191,_Z11create_caseP12ast_node_t_tPc
FNDA:0,_Z11create_caseP12ast_node_t_tPc
FN:4223,_Z27create_case_control_signalsP12ast_node_t_tS0_P9nnode_t_tPc
FNDA:0,_Z27create_case_control_signalsP12ast_node_t_tS0_P9nnode_t_tPc
FN:4291,_Z26create_case_mux_statementsP12ast_node_t_tP9nnode_t_tPc
FNDA:0,_Z26create_case_mux_statementsP12ast_node_t_tP9nnode_t_tPc
FN:4330,_Z21create_mux_statementsPP15signal_list_t_tP9nnode_t_tiPc
FNDA:0,_Z21create_mux_statementsPP15signal_list_t_tP9nnode_t_tiPc
FN:4444,_Z22create_mux_expressionsPP15signal_list_t_tP9nnode_t_tiPc
FNDA:0,_Z22create_mux_expressionsPP15signal_list_t_tP9nnode_t_tiPc
FN:4519,_Z27find_smallest_non_numericalP12ast_node_t_tPP15signal_list_t_ti
FNDA:0,_Z27find_smallest_non_numericalP12ast_node_t_tPP15signal_list_t_ti
FN:4582,_Z14pad_with_zerosP12ast_node_t_tP15signal_list_t_tiPc
FNDA:0,_Z14pad_with_zerosP12ast_node_t_tP15signal_list_t_tiPc
FN:4609,_Z26create_dual_port_ram_blockP12ast_node_t_tPcP7t_model
FNDA:0,_Z26create_dual_port_ram_blockP12ast_node_t_tPcP7t_model
FN:4784,_Z28create_single_port_ram_blockP12ast_node_t_tPcP7t_model
FNDA:0,_Z28create_single_port_ram_blockP12ast_node_t_tPcP7t_model
FN:4972,_Z33create_soft_single_port_ram_blockP12ast_node_t_tPc
FNDA:0,_Z33create_soft_single_port_ram_blockP12ast_node_t_tPc
FN:5122,_Z31create_soft_dual_port_ram_blockP12ast_node_t_tPc
FNDA:0,_Z31create_soft_dual_port_ram_blockP12ast_node_t_tPc
FN:5280,_Z17create_hard_blockP12ast_node_t_tPc
FNDA:0,_Z17create_hard_blockP12ast_node_t_tPc
FN:5611,_Z41convert_multi_to_single_dimentional_arrayP12ast_node_t_t
FNDA:0,_Z41convert_multi_to_single_dimentional_arrayP12ast_node_t_t
DA:157,0
DA:160,0
DA:161,0
DA:162,0
DA:163,0
DA:164,0
DA:165,0
DA:166,0
DA:168,0
DA:169,0
DA:171,0
DA:172,0
DA:175,0
DA:177,0
DA:179,0
DA:182,0
DA:184,0
DA:186,0
DA:189,0
DA:190,0
DA:192,0
DA:193,0
DA:195,0
DA:197,0
DA:199,0
DA:201,0
DA:202,0
DA:203,0
DA:204,0
DA:206,0
DA:212,0
DA:215,0
DA:217,0
DA:219,0
DA:220,0
DA:221,0
DA:222,0
DA:223,0
DA:227,0
DA:230,0
DA:232,0
DA:234,0
DA:235,0
DA:236,0
DA:237,0
DA:238,0
DA:243,0
DA:244,0
DA:245,0
DA:248,0
DA:250,0
DA:252,0
DA:254,0
DA:256,0
DA:257,0
DA:259,0
DA:260,0
DA:262,0
DA:265,0
DA:267,0
DA:270,0
DA:272,0
DA:273,0
DA:274,0
DA:275,0
DA:276,0
DA:280,0
DA:281,0
DA:282,0
DA:283,0
DA:286,0
DA:290,0
DA:292,0
DA:301,0
DA:303,0
DA:307,0
DA:309,0
DA:321,0
DA:328,0
DA:330,0
DA:331,0
DA:333,0
DA:336,0
DA:337,0
DA:338,0
DA:340,0
DA:341,0
DA:342,0
DA:343,0
DA:344,0
DA:345,0
DA:347,0
DA:348,0
DA:349,0
DA:351,0
DA:352,0
DA:353,0
DA:354,0
DA:355,0
DA:356,0
DA:357,0
DA:359,0
DA:360,0
DA:362,0
DA:367,0
DA:368,0
DA:371,0
DA:381,0
DA:382,0
DA:384,0
DA:387,0
DA:390,0
DA:391,0
DA:392,0
DA:393,0
DA:394,0
DA:397,0
DA:398,0
DA:403,0
DA:405,0
DA:407,0
DA:409,0
DA:411,0
DA:414,0
DA:421,0
DA:423,0
DA:424,0
DA:425,0
DA:426,0
DA:429,0
DA:431,0
DA:436,0
DA:439,0
DA:440,0
DA:442,0
DA:446,0
DA:450,0
DA:456,0
DA:458,0
DA:460,0
DA:462,0
DA:464,0
DA:470,0
DA:472,0
DA:475,0
DA:483,0
DA:485,0
DA:488,0
DA:489,0
DA:491,0
DA:499,0
DA:501,0
DA:503,0
DA:505,0
DA:507,0
DA:508,0
DA:510,0
DA:512,0
DA:513,0
DA:516,0
DA:518,0
DA:522,0
DA:523,0
DA:524,0
DA:531,0
DA:533,0
DA:540,0
DA:546,0
DA:547,0
DA:548,0
DA:551,0
DA:553,0
DA:555,0
DA:556,0
DA:559,0
DA:561,0
DA:563,0
DA:567,0
DA:570,0
DA:572,0
DA:578,0
DA:579,0
DA:580,0
DA:583,0
DA:585,0
DA:587,0
DA:588,0
DA:591,0
DA:594,0
DA:596,0
DA:601,0
DA:604,0
DA:608,0
DA:611,0
DA:612,0
DA:620,0
DA:623,0
DA:624,0
DA:625,0
DA:626,0
DA:627,0
DA:629,0
DA:637,0
DA:639,0
DA:640,0
DA:645,0
DA:647,0
DA:648,0
DA:650,0
DA:652,0
DA:653,0
DA:654,0
DA:655,0
DA:657,0
DA:658,0
DA:659,0
DA:661,0
DA:665,0
DA:666,0
DA:667,0
DA:668,0
DA:669,0
DA:672,0
DA:674,0
DA:676,0
DA:681,0
DA:684,0
DA:686,0
DA:692,0
DA:697,0
DA:700,0
DA:704,0
DA:706,0
DA:708,0
DA:715,0
DA:716,0
DA:717,0
DA:721,0
DA:722,0
DA:723,0
DA:727,0
DA:730,0
DA:731,0
DA:732,0
DA:733,0
DA:734,0
DA:737,0
DA:740,0
DA:742,0
DA:745,0
DA:748,0
DA:758,0
DA:759,0
DA:760,0
DA:761,0
DA:762,0
DA:764,0
DA:766,0
DA:767,0
DA:770,0
DA:771,0
DA:772,0
DA:773,0
DA:774,0
DA:776,0
DA:777,0
DA:778,0
DA:779,0
DA:781,0
DA:782,0
DA:783,0
DA:784,0
DA:787,0
DA:790,0
DA:792,0
DA:793,0
DA:794,0
DA:795,0
DA:800,0
DA:801,0
DA:802,0
DA:804,0
DA:805,0
DA:810,0
DA:811,0
DA:812,0
DA:814,0
DA:816,0
DA:817,0
DA:818,0
DA:819,0
DA:820,0
DA:821,0
DA:822,0
DA:823,0
DA:824,0
DA:825,0
DA:826,0
DA:827,0
DA:828,0
DA:829,0
DA:830,0
DA:831,0
DA:833,0
DA:834,0
DA:835,0
DA:836,0
DA:842,0
DA:845,0
DA:847,0
DA:850,0
DA:857,0
DA:859,0
DA:860,0
DA:862,0
DA:863,0
DA:864,0
DA:865,0
DA:866,0
DA:867,0
DA:868,0
DA:870,0
DA:872,0
DA:874,0
DA:877,0
DA:884,0
DA:885,0
DA:887,0
DA:889,0
DA:890,0
DA:895,0
DA:896,0
DA:897,0
DA:901,0
DA:902,0
DA:903,0
DA:904,0
DA:908,0
DA:909,0
DA:913,0
DA:914,0
DA:915,0
DA:919,0
DA:921,0
DA:924,0
DA:926,0
DA:928,0
DA:932,0
DA:933,0
DA:936,0
DA:937,0
DA:938,0
DA:939,0
DA:940,0
DA:941,0
DA:942,0
DA:943,0
DA:944,0
DA:945,0
DA:946,0
DA:947,0
DA:948,0
DA:949,0
DA:950,0
DA:951,0
DA:952,0
DA:961,0
DA:963,0
DA:965,0
DA:967,0
DA:970,0
DA:978,0
DA:980,0
DA:982,0
DA:983,0
DA:986,0
DA:987,0
DA:990,0
DA:992,0
DA:993,0
DA:995,0
DA:998,0
DA:1007,0
DA:1010,0
DA:1013,0
DA:1015,0
DA:1016,0
DA:1018,0
DA:1020,0
DA:1021,0
DA:1022,0
DA:1025,0
DA:1026,0
DA:1028,0
DA:1033,0
DA:1037,0
DA:1045,0
DA:1048,0
DA:1051,0
DA:1053,0
DA:1054,0
DA:1056,0
DA:1058,0
DA:1059,0
DA:1060,0
DA:1063,0
DA:1064,0
DA:1066,0
DA:1071,0
DA:1075,0
DA:1083,0
DA:1086,0
DA:1087,0
DA:1088,0
DA:1089,0
DA:1091,0
DA:1094,0
DA:1096,0
DA:1098,0
DA:1101,0
DA:1103,0
DA:1105,0
DA:1113,0
DA:1117,0
DA:1118,0
DA:1119,0
DA:1120,0
DA:1121,0
DA:1122,0
DA:1123,0
DA:1124,0
DA:1126,0
DA:1127,0
DA:1128,0
DA:1129,0
DA:1130,0
DA:1131,0
DA:1132,0
DA:1133,0
DA:1135,0
DA:1136,0
DA:1137,0
DA:1138,0
DA:1139,0
DA:1140,0
DA:1141,0
DA:1142,0
DA:1145,0
DA:1146,0
DA:1147,0
DA:1149,0
DA:1150,0
DA:1152,0
DA:1155,0
DA:1156,0
DA:1159,0
DA:1160,0
DA:1161,0
DA:1163,0
DA:1164,0
DA:1166,0
DA:1169,0
DA:1170,0
DA:1173,0
DA:1174,0
DA:1175,0
DA:1177,0
DA:1178,0
DA:1180,0
DA:1183,0
DA:1184,0
DA:1185,0
DA:1193,0
DA:1196,0
DA:1197,0
DA:1198,0
DA:1199,0
DA:1200,0
DA:1202,0
DA:1205,0
DA:1207,0
DA:1209,0
DA:1212,0
DA:1214,0
DA:1216,0
DA:1217,0
DA:1218,0
DA:1221,0
DA:1225,0
DA:1228,0
DA:1230,0
DA:1234,0
DA:1236,0
DA:1239,0
DA:1240,0
DA:1241,0
DA:1242,0
DA:1244,0
DA:1245,0
DA:1248,0
DA:1251,0
DA:1252,0
DA:1253,0
DA:1255,0
DA:1257,0
DA:1258,0
DA:1259,0
DA:1261,0
DA:1264,0
DA:1267,0
DA:1269,0
DA:1272,0
DA:1274,0
DA:1277,0
DA:1278,0
DA:1279,0
DA:1280,0
DA:1282,0
DA:1283,0
DA:1286,0
DA:1289,0
DA:1290,0
DA:1291,0
DA:1297,0
DA:1307,0
DA:1309,0
DA:1315,0
DA:1317,0
DA:1318,0
DA:1319,0
DA:1320,0
DA:1324,0
DA:1329,0
DA:1332,0
DA:1335,0
DA:1336,0
DA:1338,0
DA:1342,0
DA:1343,0
DA:1346,0
DA:1347,0
DA:1349,0
DA:1352,0
DA:1354,0
DA:1355,0
DA:1358,0
DA:1361,0
DA:1362,0
DA:1363,0
DA:1368,0
DA:1371,0
DA:1374,0
DA:1376,0
DA:1377,0
DA:1379,0
DA:1383,0
DA:1384,0
DA:1387,0
DA:1388,0
DA:1390,0
DA:1392,0
DA:1397,0
DA:1399,0
DA:1400,0
DA:1402,0
DA:1403,0
DA:1405,0
DA:1406,0
DA:1408,0
DA:1410,0
DA:1411,0
DA:1413,0
DA:1414,0
DA:1417,0
DA:1419,0
DA:1420,0
DA:1422,0
DA:1423,0
DA:1426,0
DA:1428,0
DA:1429,0
DA:1431,0
DA:1433,0
DA:1435,0
DA:1436,0
DA:1438,0
DA:1439,0
DA:1441,0
DA:1442,0
DA:1444,0
DA:1445,0
DA:1446,0
DA:1448,0
DA:1450,0
DA:1451,0
DA:1453,0
DA:1454,0
DA:1457,0
DA:1459,0
DA:1460,0
DA:1462,0
DA:1463,0
DA:1465,0
DA:1466,0
DA:1469,0
DA:1471,0
DA:1472,0
DA:1474,0
DA:1477,0
DA:1485,0
DA:1487,0
DA:1488,0
DA:1489,0
DA:1490,0
DA:1491,0
DA:1492,0
DA:1494,0
DA:1499,0
DA:1501,0
DA:1503,0
DA:1504,0
DA:1506,0
DA:1510,0
DA:1511,0
DA:1514,0
DA:1515,0
DA:1516,0
DA:1518,0
DA:1519,0
DA:1521,0
DA:1522,0
DA:1525,0
DA:1526,0
DA:1529,0
DA:1530,0
DA:1531,0
DA:1533,0
DA:1536,0
DA:1537,0
DA:1538,0
DA:1541,0
DA:1544,0
DA:1547,0
DA:1549,0
DA:1550,0
DA:1552,0
DA:1556,0
DA:1557,0
DA:1560,0
DA:1561,0
DA:1563,0
DA:1564,0
DA:1565,0
DA:1567,0
DA:1568,0
DA:1571,0
DA:1572,0
DA:1575,0
DA:1576,0
DA:1577,0
DA:1580,0
DA:1583,0
DA:1584,0
DA:1587,0
DA:1595,0
DA:1598,0
DA:1599,0
DA:1600,0
DA:1601,0
DA:1604,0
DA:1606,0
DA:1608,0
DA:1611,0
DA:1613,0
DA:1616,0
DA:1617,0
DA:1619,0
DA:1620,0
DA:1624,0
DA:1627,0
DA:1629,0
DA:1630,0
DA:1636,0
DA:1637,0
DA:1639,0
DA:1643,0
DA:1647,0
DA:1650,0
DA:1653,0
DA:1654,0
DA:1655,0
DA:1656,0
DA:1659,0
DA:1662,0
DA:1663,0
DA:1665,0
DA:1667,0
DA:1668,0
DA:1669,0
DA:1670,0
DA:1673,0
DA:1675,0
DA:1681,0
DA:1684,0
DA:1685,0
DA:1686,0
DA:1689,0
DA:1690,0
DA:1691,0
DA:1692,0
DA:1695,0
DA:1698,0
DA:1700,0
DA:1702,0
DA:1703,0
DA:1705,0
DA:1706,0
DA:1708,0
DA:1711,0
DA:1714,0
DA:1715,0
DA:1716,0
DA:1720,0
DA:1721,0
DA:1723,0
DA:1724,0
DA:1735,0
DA:1737,0
DA:1744,0
DA:1747,0
DA:1748,0
DA:1749,0
DA:1750,0
DA:1753,0
DA:1755,0
DA:1757,0
DA:1760,0
DA:1762,0
DA:1765,0
DA:1766,0
DA:1768,0
DA:1769,0
DA:1772,0
DA:1775,0
DA:1777,0
DA:1779,0
DA:1785,0
DA:1786,0
DA:1788,0
DA:1792,0
DA:1796,0
DA:1799,0
DA:1802,0
DA:1803,0
DA:1804,0
DA:1805,0
DA:1808,0
DA:1811,0
DA:1812,0
DA:1814,0
DA:1817,0
DA:1818,0
DA:1819,0
DA:1820,0
DA:1825,0
DA:1831,0
DA:1834,0
DA:1835,0
DA:1836,0
DA:1839,0
DA:1840,0
DA:1841,0
DA:1842,0
DA:1845,0
DA:1852,0
DA:1854,0
DA:1862,0
DA:1863,0
DA:1865,0
DA:1866,0
DA:1867,0
DA:1881,0
DA:1883,0
DA:1884,0
DA:1885,0
DA:1886,0
DA:1887,0
DA:1890,0
DA:1891,0
DA:1893,0
DA:1895,0
DA:1896,0
DA:1897,0
DA:1902,0
DA:1903,0
DA:1904,0
DA:1906,0
DA:1907,0
DA:1908,0
DA:1910,0
DA:1911,0
DA:1912,0
DA:1913,0
DA:1914,0
DA:1915,0
DA:1916,0
DA:1919,0
DA:1920,0
DA:1921,0
DA:1923,0
DA:1930,0
DA:1932,0
DA:1933,0
DA:1934,0
DA:1936,0
DA:1937,0
DA:1938,0
DA:1939,0
DA:1943,0
DA:1944,0
DA:1945,0
DA:1946,0
DA:1948,0
DA:1949,0
DA:1950,0
DA:1951,0
DA:1955,0
DA:1958,0
DA:1962,0
DA:1966,0
DA:1968,0
DA:1973,0
DA:1980,0
DA:1981,0
DA:1985,0
DA:1986,0
DA:1990,0
DA:1991,0
DA:1995,0
DA:1997,0
DA:2000,0
DA:2001,0
DA:2006,0
DA:2019,0
DA:2021,0
DA:2022,0
DA:2023,0
DA:2024,0
DA:2025,0
DA:2026,0
DA:2029,0
DA:2030,0
DA:2031,0
DA:2033,0
DA:2037,0
DA:2038,0
DA:2040,0
DA:2041,0
DA:2042,0
DA:2043,0
DA:2044,0
DA:2047,0
DA:2048,0
DA:2050,0
DA:2051,0
DA:2052,0
DA:2054,0
DA:2056,0
DA:2058,0
DA:2059,0
DA:2062,0
DA:2068,0
DA:2069,0
DA:2070,0
DA:2073,0
DA:2075,0
DA:2076,0
DA:2077,0
DA:2079,0
DA:2080,0
DA:2081,0
DA:2082,0
DA:2086,0
DA:2087,0
DA:2088,0
DA:2089,0
DA:2091,0
DA:2092,0
DA:2093,0
DA:2094,0
DA:2098,0
DA:2101,0
DA:2105,0
DA:2109,0
DA:2111,0
DA:2116,0
DA:2123,0
DA:2124,0
DA:2129,0
DA:2131,0
DA:2132,0
DA:2137,0
DA:2138,0
DA:2142,0
DA:2144,0
DA:2148,0
DA:2149,0
DA:2154,0
DA:2172,0
DA:2174,0
DA:2175,0
DA:2176,0
DA:2177,0
DA:2178,0
DA:2179,0
DA:2180,0
DA:2181,0
DA:2182,0
DA:2184,0
DA:2187,0
DA:2189,0
DA:2193,0
DA:2194,0
DA:2196,0
DA:2197,0
DA:2199,0
DA:2201,0
DA:2203,0
DA:2206,0
DA:2208,0
DA:2210,0
DA:2212,0
DA:2214,0
DA:2216,0
DA:2218,0
DA:2221,0
DA:2225,0
DA:2229,0
DA:2231,0
DA:2233,0
DA:2235,0
DA:2237,0
DA:2238,0
DA:2239,0
DA:2240,0
DA:2242,0
DA:2243,0
DA:2245,0
DA:2247,0
DA:2249,0
DA:2251,0
DA:2253,0
DA:2254,0
DA:2255,0
DA:2256,0
DA:2257,0
DA:2258,0
DA:2260,0
DA:2261,0
DA:2262,0
DA:2266,0
DA:2269,0
DA:2270,0
DA:2272,0
DA:2275,0
DA:2282,0
DA:2283,0
DA:2284,0
DA:2286,0
DA:2289,0
DA:2290,0
DA:2291,0
DA:2294,0
DA:2295,0
DA:2296,0
DA:2297,0
DA:2300,0
DA:2304,0
DA:2307,0
DA:2308,0
DA:2309,0
DA:2311,0
DA:2312,0
DA:2313,0
DA:2314,0
DA:2317,0
DA:2324,0
DA:2327,0
DA:2328,0
DA:2332,0
DA:2334,0
DA:2335,0
DA:2337,0
DA:2339,0
DA:2340,0
DA:2343,0
DA:2346,0
DA:2349,0
DA:2352,0
DA:2357,0
DA:2363,0
DA:2364,0
DA:2366,0
DA:2369,0
DA:2371,0
DA:2373,0
DA:2376,0
DA:2378,0
DA:2383,0
DA:2385,0
DA:2386,0
DA:2389,0
DA:2397,0
DA:2398,0
DA:2400,0
DA:2404,0
DA:2405,0
DA:2406,0
DA:2410,0
DA:2413,0
DA:2414,0
DA:2415,0
DA:2417,0
DA:2418,0
DA:2419,0
DA:2420,0
DA:2421,0
DA:2425,0
DA:2427,0
DA:2428,0
DA:2429,0
DA:2431,0
DA:2432,0
DA:2433,0
DA:2434,0
DA:2435,0
DA:2440,0
DA:2442,0
DA:2451,0
DA:2457,0
DA:2458,0
DA:2459,0
DA:2460,0
DA:2461,0
DA:2462,0
DA:2467,0
DA:2470,0
DA:2472,0
DA:2474,0
DA:2482,0
DA:2483,0
DA:2487,0
DA:2489,0
DA:2491,0
DA:2493,0
DA:2494,0
DA:2496,0
DA:2497,0
DA:2498,0
DA:2499,0
DA:2500,0
DA:2501,0
DA:2502,0
DA:2504,0
DA:2507,0
DA:2509,0
DA:2513,0
DA:2514,0
DA:2516,0
DA:2517,0
DA:2519,0
DA:2521,0
DA:2523,0
DA:2526,0
DA:2529,0
DA:2531,0
DA:2532,0
DA:2534,0
DA:2536,0
DA:2538,0
DA:2540,0
DA:2543,0
DA:2547,0
DA:2551,0
DA:2553,0
DA:2555,0
DA:2557,0
DA:2560,0
DA:2561,0
DA:2562,0
DA:2563,0
DA:2565,0
DA:2566,0
DA:2569,0
DA:2571,0
DA:2573,0
DA:2575,0
DA:2578,0
DA:2579,0
DA:2580,0
DA:2581,0
DA:2582,0
DA:2583,0
DA:2585,0
DA:2586,0
DA:2587,0
DA:2592,0
DA:2595,0
DA:2596,0
DA:2598,0
DA:2600,0
DA:2607,0
DA:2608,0
DA:2609,0
DA:2611,0
DA:2614,0
DA:2615,0
DA:2616,0
DA:2619,0
DA:2620,0
DA:2621,0
DA:2622,0
DA:2625,0
DA:2629,0
DA:2632,0
DA:2635,0
DA:2636,0
DA:2638,0
DA:2639,0
DA:2640,0
DA:2641,0
DA:2644,0
DA:2648,0
DA:2653,0
DA:2654,0
DA:2655,0
DA:2661,0
DA:2663,0
DA:2664,0
DA:2666,0
DA:2668,0
DA:2669,0
DA:2672,0
DA:2675,0
DA:2678,0
DA:2681,0
DA:2686,0
DA:2692,0
DA:2693,0
DA:2695,0
DA:2698,0
DA:2700,0
DA:2702,0
DA:2705,0
DA:2707,0
DA:2713,0
DA:2715,0
DA:2716,0
DA:2719,0
DA:2727,0
DA:2728,0
DA:2730,0
DA:2734,0
DA:2735,0
DA:2736,0
DA:2740,0
DA:2746,0
DA:2751,0
DA:2753,0
DA:2754,0
DA:2755,0
DA:2757,0
DA:2768,0
DA:2772,0
DA:2774,0
DA:2775,0
DA:2776,0
DA:2778,0
DA:2782,0
DA:2784,0
DA:2789,0
DA:2797,0
DA:2798,0
DA:2799,0
DA:2800,0
DA:2801,0
DA:2802,0
DA:2804,0
DA:2805,0
DA:2806,0
DA:2807,0
DA:2812,0
DA:2815,0
DA:2828,0
DA:2829,0
DA:2834,0
DA:2847,0
DA:2849,0
DA:2850,0
DA:2851,0
DA:2852,0
DA:2853,0
DA:2854,0
DA:2855,0
DA:2857,0
DA:2860,0
DA:2862,0
DA:2865,0
DA:2866,0
DA:2867,0
DA:2868,0
DA:2872,0
DA:2875,0
DA:2877,0
DA:2878,0
DA:2881,0
DA:2883,0
DA:2884,0
DA:2885,0
DA:2887,0
DA:2889,0
DA:2890,0
DA:2891,0
DA:2897,0
DA:2899,0
DA:2901,0
DA:2902,0
DA:2906,0
DA:2908,0
DA:2911,0
DA:2913,0
DA:2916,0
DA:2918,0
DA:2920,0
DA:2924,0
DA:2926,0
DA:2932,0
DA:2935,0
DA:2936,0
DA:2945,0
DA:2947,0
DA:2948,0
DA:2949,0
DA:2950,0
DA:2953,0
DA:2954,0
DA:2955,0
DA:2957,0
DA:2958,0
DA:2960,0
DA:2962,0
DA:2968,0
DA:2970,0
DA:2971,0
DA:2972,0
DA:2973,0
DA:2974,0
DA:2977,0
DA:2981,0
DA:2982,0
DA:2985,0
DA:2986,0
DA:2988,0
DA:2990,0
DA:2991,0
DA:2995,0
DA:2997,0
DA:2998,0
DA:3001,0
DA:3003,0
DA:3006,0
DA:3008,0
DA:3009,0
DA:3010,0
DA:3011,0
DA:3014,0
DA:3017,0
DA:3018,0
DA:3019,0
DA:3022,0
DA:3023,0
DA:3024,0
DA:3025,0
DA:3026,0
DA:3030,0
DA:3031,0
DA:3032,0
DA:3034,0
DA:3035,0
DA:3036,0
DA:3041,0
DA:3042,0
DA:3043,0
DA:3045,0
DA:3046,0
DA:3047,0
DA:3048,0
DA:3049,0
DA:3050,0
DA:3051,0
DA:3053,0
DA:3055,0
DA:3056,0
DA:3058,0
DA:3059,0
DA:3060,0
DA:3064,0
DA:3065,0
DA:3068,0
DA:3070,0
DA:3072,0
DA:3073,0
DA:3077,0
DA:3079,0
DA:3080,0
DA:3085,0
DA:3087,0
DA:3091,0
DA:3094,0
DA:3095,0
DA:3096,0
DA:3097,0
DA:3100,0
DA:3102,0
DA:3103,0
DA:3104,0
DA:3106,0
DA:3109,0
DA:3110,0
DA:3111,0
DA:3112,0
DA:3115,0
DA:3117,0
DA:3118,0
DA:3119,0
DA:3121,0
DA:3122,0
DA:3123,0
DA:3124,0
DA:3125,0
DA:3127,0
DA:3128,0
DA:3129,0
DA:3131,0
DA:3133,0
DA:3135,0
DA:3136,0
DA:3137,0
DA:3139,0
DA:3141,0
DA:3143,0
DA:3144,0
DA:3145,0
DA:3147,0
DA:3149,0
DA:3154,0
DA:3160,0
DA:3161,0
DA:3163,0
DA:3165,0
DA:3167,0
DA:3170,0
DA:3172,0
DA:3173,0
DA:3174,0
DA:3175,0
DA:3177,0
DA:3181,0
DA:3185,0
DA:3186,0
DA:3188,0
DA:3196,0
DA:3197,0
DA:3201,0
DA:3205,0
DA:3207,0
DA:3208,0
DA:3210,0
DA:3213,0
DA:3215,0
DA:3216,0
DA:3218,0
DA:3219,0
DA:3221,0
DA:3222,0
DA:3223,0
DA:3229,0
DA:3233,0
DA:3235,0
DA:3236,0
DA:3238,0
DA:3247,0
DA:3249,0
DA:3250,0
DA:3251,0
DA:3255,0
DA:3256,0
DA:3259,0
DA:3262,0
DA:3265,0
DA:3266,0
DA:3268,0
DA:3272,0
DA:3273,0
DA:3278,0
DA:3283,0
DA:3285,0
DA:3287,0
DA:3288,0
DA:3290,0
DA:3293,0
DA:3295,0
DA:3297,0
DA:3298,0
DA:3300,0
DA:3301,0
DA:3303,0
DA:3304,0
DA:3306,0
DA:3310,0
DA:3314,0
DA:3315,0
DA:3317,0
DA:3321,0
DA:3323,0
DA:3326,0
DA:3327,0
DA:3329,0
DA:3332,0
DA:3333,0
DA:3339,0
DA:3341,0
DA:3342,0
DA:3343,0
DA:3344,0
DA:3346,0
DA:3347,0
DA:3348,0
DA:3350,0
DA:3355,0
DA:3356,0
DA:3358,0
DA:3361,0
DA:3363,0
DA:3364,0
DA:3367,0
DA:3368,0
DA:3370,0
DA:3374,0
DA:3375,0
DA:3376,0
DA:3377,0
DA:3380,0
DA:3381,0
DA:3382,0
DA:3384,0
DA:3385,0
DA:3387,0
DA:3388,0
DA:3389,0
DA:3394,0
DA:3395,0
DA:3397,0
DA:3398,0
DA:3403,0
DA:3404,0
DA:3405,0
DA:3406,0
DA:3412,0
DA:3413,0
DA:3414,0
DA:3417,0
DA:3420,0
DA:3421,0
DA:3423,0
DA:3425,0
DA:3428,0
DA:3430,0
DA:3431,0
DA:3432,0
DA:3436,0
DA:3438,0
DA:3439,0
DA:3441,0
DA:3442,0
DA:3444,0
DA:3446,0
DA:3447,0
DA:3448,0
DA:3451,0
DA:3452,0
DA:3456,0
DA:3457,0
DA:3461,0
DA:3462,0
DA:3463,0
DA:3465,0
DA:3466,0
DA:3467,0
DA:3469,0
DA:3471,0
DA:3472,0
DA:3474,0
DA:3475,0
DA:3476,0
DA:3480,0
DA:3482,0
DA:3483,0
DA:3484,0
DA:3485,0
DA:3486,0
DA:3487,0
DA:3488,0
DA:3491,0
DA:3493,0
DA:3494,0
DA:3499,0
DA:3501,0
DA:3502,0
DA:3503,0
DA:3505,0
DA:3506,0
DA:3507,0
DA:3509,0
DA:3514,0
DA:3515,0
DA:3517,0
DA:3521,0
DA:3523,0
DA:3524,0
DA:3526,0
DA:3527,0
DA:3529,0
DA:3531,0
DA:3533,0
DA:3534,0
DA:3535,0
DA:3536,0
DA:3538,0
DA:3539,0
DA:3542,0
DA:3543,0
DA:3545,0
DA:3547,0
DA:3551,0
DA:3555,0
DA:3557,0
DA:3558,0
DA:3559,0
DA:3561,0
DA:3562,0
DA:3564,0
DA:3565,0
DA:3567,0
DA:3568,0
DA:3569,0
DA:3573,0
DA:3575,0
DA:3576,0
DA:3582,0
DA:3584,0
DA:3586,0
DA:3587,0
DA:3588,0
DA:3589,0
DA:3591,0
DA:3594,0
DA:3595,0
DA:3596,0
DA:3597,0
DA:3600,0
DA:3601,0
DA:3604,0
DA:3612,0
DA:3615,0
DA:3616,0
DA:3617,0
DA:3619,0
DA:3620,0
DA:3622,0
DA:3624,0
DA:3626,0
DA:3631,0
DA:3633,0
DA:3634,0
DA:3637,0
DA:3639,0
DA:3640,0
DA:3641,0
DA:3642,0
DA:3644,0
DA:3645,0
DA:3646,0
DA:3647,0
DA:3650,0
DA:3652,0
DA:3654,0
DA:3662,0
DA:3663,0
DA:3664,0
DA:3668,0
DA:3670,0
DA:3671,0
DA:3674,0
DA:3677,0
DA:3679,0
DA:3680,0
DA:3682,0
DA:3684,0
DA:3687,0
DA:3688,0
DA:3689,0
DA:3692,0
DA:3693,0
DA:3696,0
DA:3697,0
DA:3701,0
DA:3703,0
DA:3704,0
DA:3707,0
DA:3713,0
DA:3721,0
DA:3723,0
DA:3724,0
DA:3725,0
DA:3726,0
DA:3727,0
DA:3728,0
DA:3729,0
DA:3732,0
DA:3734,0
DA:3735,0
DA:3736,0
DA:3738,0
DA:3741,0
DA:3743,0
DA:3749,0
DA:3756,0
DA:3758,0
DA:3759,0
DA:3760,0
DA:3762,0
DA:3763,0
DA:3764,0
DA:3766,0
DA:3767,0
DA:3768,0
DA:3770,0
DA:3771,0
DA:3773,0
DA:3774,0
DA:3777,0
DA:3778,0
DA:3779,0
DA:3780,0
DA:3781,0
DA:3782,0
DA:3783,0
DA:3784,0
DA:3786,0
DA:3793,0
DA:3799,0
DA:3801,0
DA:3802,0
DA:3803,0
DA:3804,0
DA:3806,0
DA:3807,0
DA:3808,0
DA:3809,0
DA:3810,0
DA:3811,0
DA:3813,0
DA:3814,0
DA:3815,0
DA:3816,0
DA:3817,0
DA:3818,0
DA:3819,0
DA:3820,0
DA:3821,0
DA:3822,0
DA:3823,0
DA:3825,0
DA:3836,0
DA:3838,0
DA:3841,0
DA:3842,0
DA:3851,0
DA:3852,0
DA:3853,0
DA:3854,0
DA:3855,0
DA:3856,0
DA:3857,0
DA:3858,0
DA:3859,0
DA:3862,0
DA:3863,0
DA:3865,0
DA:3867,0
DA:3870,0
DA:3871,0
DA:3872,0
DA:3873,0
DA:3876,0
DA:3879,0
DA:3881,0
DA:3883,0
DA:3886,0
DA:3890,0
DA:3892,0
DA:3895,0
DA:3896,0
DA:3902,0
DA:3904,0
DA:3907,0
DA:3909,0
DA:3915,0
DA:3916,0
DA:3919,0
DA:3921,0
DA:3922,0
DA:3923,0
DA:3924,0
DA:3925,0
DA:3926,0
DA:3927,0
DA:3929,0
DA:3931,0
DA:3933,0
DA:3936,0
DA:3939,0
DA:3941,0
DA:3944,0
DA:3950,0
DA:3952,0
DA:3953,0
DA:3954,0
DA:3955,0
DA:3957,0
DA:3960,0
DA:3961,0
DA:3962,0
DA:3964,0
DA:3967,0
DA:3969,0
DA:3971,0
DA:3972,0
DA:3973,0
DA:3975,0
DA:3977,0
DA:3978,0
DA:3980,0
DA:3981,0
DA:3983,0
DA:3990,0
DA:3996,0
DA:3998,0
DA:4000,0
DA:4002,0
DA:4003,0
DA:4004,0
DA:4006,0
DA:4008,0
DA:4017,0
DA:4019,0
DA:4020,0
DA:4023,0
DA:4025,0
DA:4026,0
DA:4027,0
DA:4030,0
DA:4033,0
DA:4035,0
DA:4041,0
DA:4043,0
DA:4044,0
DA:4045,0
DA:4048,0
DA:4051,0
DA:4053,0
DA:4056,0
DA:4060,0
DA:4065,0
DA:4067,0
DA:4073,0
DA:4075,0
DA:4076,0
DA:4079,0
DA:4081,0
DA:4082,0
DA:4083,0
DA:4086,0
DA:4089,0
DA:4091,0
DA:4097,0
DA:4099,0
DA:4100,0
DA:4101,0
DA:4102,0
DA:4103,0
DA:4106,0
DA:4108,0
DA:4111,0
DA:4112,0
DA:4114,0
DA:4116,0
DA:4117,0
DA:4119,0
DA:4120,0
DA:4123,0
DA:4125,0
DA:4130,0
DA:4131,0
DA:4135,0
DA:4138,0
DA:4141,0
DA:4142,0
DA:4146,0
DA:4149,0
DA:4151,0
DA:4152,0
DA:4157,0
DA:4159,0
DA:4160,0
DA:4161,0
DA:4164,0
DA:4167,0
DA:4169,0
DA:4172,0
DA:4173,0
DA:4178,0
DA:4183,0
DA:4185,0
DA:4191,0
DA:4193,0
DA:4194,0
DA:4195,0
DA:4196,0
DA:4199,0
DA:4201,0
DA:4202,0
DA:4203,0
DA:4206,0
DA:4209,0
DA:4212,0
DA:4215,0
DA:4217,0
DA:4223,0
DA:4225,0
DA:4226,0
DA:4229,0
DA:4231,0
DA:4234,0
DA:4236,0
DA:4239,0
DA:4240,0
DA:4241,0
DA:4242,0
DA:4245,0
DA:4246,0
DA:4249,0
DA:4250,0
DA:4253,0
DA:4256,0
DA:4259,0
DA:4261,0
DA:4263,0
DA:4266,0
DA:4267,0
DA:4269,0
DA:4272,0
DA:4273,0
DA:4276,0
DA:4279,0
DA:4283,0
DA:4286,0
DA:4291,0
DA:4293,0
DA:4294,0
DA:4295,0
DA:4298,0
DA:4301,0
DA:4303,0
DA:4306,0
DA:4307,0
DA:4309,0
DA:4311,0
DA:4312,0
DA:4313,0
DA:4317,0
DA:4322,0
DA:4324,0
DA:4330,0
DA:4332,0
DA:4333,0
DA:4334,0
DA:4335,0
DA:4336,0
DA:4337,0
DA:4340,0
DA:4343,0
DA:4344,0
DA:4346,0
DA:4348,0
DA:4349,0
DA:4350,0
DA:4351,0
DA:4352,0
DA:4353,0
DA:4354,0
DA:4357,0
DA:4359,0
DA:4362,0
DA:4363,0
DA:4365,0
DA:4367,0
DA:4369,0
DA:4371,0
DA:4374,0
DA:4376,0
DA:4379,0
DA:4380,0
DA:4381,0
DA:4385,0
DA:4387,0
DA:4388,0
DA:4393,0
DA:4396,0
DA:4398,0
DA:4401,0
DA:4406,0
DA:4407,0
DA:4409,0
DA:4411,0
DA:4414,0
DA:4417,0
DA:4419,0
DA:4422,0
DA:4426,0
DA:4427,0
DA:4428,0
DA:4432,0
DA:4434,0
DA:4436,0
DA:4438,0
DA:4444,0
DA:4446,0
DA:4447,0
DA:4448,0
DA:4451,0
DA:4453,0
DA:4459,0
DA:4461,0
DA:4462,0
DA:4463,0
DA:4464,0
DA:4465,0
DA:4466,0
DA:4469,0
DA:4471,0
DA:4474,0
DA:4475,0
DA:4477,0
DA:4479,0
DA:4481,0
DA:4483,0
DA:4486,0
DA:4488,0
DA:4491,0
DA:4494,0
DA:4502,0
DA:4508,0
DA:4510,0
DA:4513,0
DA:4519,0
DA:4521,0
DA:4522,0
DA:4523,0
DA:4524,0
DA:4525,0
DA:4527,0
DA:4533,0
DA:4535,0
DA:4538,0
DA:4540,0
DA:4542,0
DA:4543,0
DA:4547,0
DA:4549,0
DA:4554,0
DA:4557,0
DA:4559,0
DA:4565,0
DA:4566,0
DA:4576,0
DA:4582,0
DA:4584,0
DA:4586,0
DA:4588,0
DA:4590,0
DA:4591,0
DA:4593,0
DA:4596,0
DA:4598,0
DA:4599,0
DA:4602,0
DA:4609,0
DA:4611,0
DA:4612,0
DA:4614,0
DA:4616,0
DA:4617,0
DA:4618,0
DA:4621,0
DA:4623,0
DA:4624,0
DA:4625,0
DA:4628,0
DA:4631,0
DA:4632,0
DA:4633,0
DA:4635,0
DA:4636,0
DA:4637,0
DA:4639,0
DA:4640,0
DA:4642,0
DA:4644,0
DA:4645,0
DA:4646,0
DA:4649,0
DA:4650,0
DA:4653,0
DA:4656,0
DA:4657,0
DA:4658,0
DA:4659,0
DA:4660,0
DA:4662,0
DA:4663,0
DA:4665,0
DA:4666,0
DA:4667,0
DA:4668,0
DA:4669,0
DA:4671,0
DA:4674,0
DA:4675,0
DA:4676,0
DA:4677,0
DA:4678,0
DA:4679,0
DA:4681,0
DA:4682,0
DA:4683,0
DA:4686,0
DA:4688,0
DA:4691,0
DA:4694,0
DA:4696,0
DA:4700,0
DA:4701,0
DA:4703,0
DA:4704,0
DA:4705,0
DA:4707,0
DA:4708,0
DA:4709,0
DA:4711,0
DA:4712,0
DA:4715,0
DA:4717,0
DA:4719,0
DA:4720,0
DA:4722,0
DA:4724,0
DA:4725,0
DA:4728,0
DA:4729,0
DA:4730,0
DA:4731,0
DA:4734,0
DA:4735,0
DA:4737,0
DA:4739,0
DA:4740,0
DA:4746,0
DA:4747,0
DA:4748,0
DA:4749,0
DA:4750,0
DA:4751,0
DA:4753,0
DA:4755,0
DA:4757,0
DA:4760,0
DA:4763,0
DA:4764,0
DA:4766,0
DA:4770,0
DA:4771,0
DA:4773,0
DA:4774,0
DA:4776,0
DA:4784,0
DA:4786,0
DA:4787,0
DA:4790,0
DA:4791,0
DA:4792,0
DA:4795,0
DA:4797,0
DA:4798,0
DA:4799,0
DA:4800,0
DA:4801,0
DA:4803,0
DA:4804,0
DA:4808,0
DA:4811,0
DA:4812,0
DA:4813,0
DA:4814,0
DA:4815,0
DA:4817,0
DA:4818,0
DA:4819,0
DA:4821,0
DA:4822,0
DA:4824,0
DA:4826,0
DA:4827,0
DA:4828,0
DA:4831,0
DA:4832,0
DA:4835,0
DA:4839,0
DA:4840,0
DA:4841,0
DA:4843,0
DA:4844,0
DA:4847,0
DA:4848,0
DA:4850,0
DA:4851,0
DA:4854,0
DA:4855,0
DA:4857,0
DA:4858,0
DA:4859,0
DA:4861,0
DA:4862,0
DA:4864,0
DA:4865,0
DA:4866,0
DA:4867,0
DA:4868,0
DA:4870,0
DA:4873,0
DA:4874,0
DA:4875,0
DA:4876,0
DA:4878,0
DA:4879,0
DA:4880,0
DA:4883,0
DA:4885,0
DA:4888,0
DA:4891,0
DA:4893,0
DA:4898,0
DA:4900,0
DA:4901,0
DA:4902,0
DA:4904,0
DA:4906,0
DA:4907,0
DA:4909,0
DA:4911,0
DA:4912,0
DA:4915,0
DA:4916,0
DA:4917,0
DA:4918,0
DA:4921,0
DA:4922,0
DA:4924,0
DA:4925,0
DA:4926,0
DA:4931,0
DA:4932,0
DA:4933,0
DA:4934,0
DA:4936,0
DA:4937,0
DA:4939,0
DA:4941,0
DA:4943,0
DA:4946,0
DA:4949,0
DA:4950,0
DA:4952,0
DA:4956,0
DA:4958,0
DA:4961,0
DA:4962,0
DA:4963,0
DA:4965,0
DA:4972,0
DA:4974,0
DA:4976,0
DA:4977,0
DA:4979,0
DA:4982,0
DA:4984,0
DA:4985,0
DA:4986,0
DA:4987,0
DA:4988,0
DA:4991,0
DA:4994,0
DA:4995,0
DA:4996,0
DA:4997,0
DA:4998,0
DA:5000,0
DA:5001,0
DA:5002,0
DA:5004,0
DA:5006,0
DA:5009,0
DA:5010,0
DA:5011,0
DA:5012,0
DA:5014,0
DA:5015,0
DA:5016,0
DA:5019,0
DA:5022,0
DA:5025,0
DA:5028,0
DA:5030,0
DA:5034,0
DA:5035,0
DA:5036,0
DA:5038,0
DA:5039,0
DA:5041,0
DA:5043,0
DA:5044,0
DA:5046,0
DA:5049,0
DA:5050,0
DA:5052,0
DA:5053,0
DA:5054,0
DA:5055,0
DA:5058,0
DA:5059,0
DA:5061,0
DA:5062,0
DA:5064,0
DA:5066,0
DA:5067,0
DA:5072,0
DA:5075,0
DA:5076,0
DA:5080,0
DA:5081,0
DA:5082,0
DA:5084,0
DA:5086,0
DA:5087,0
DA:5090,0
DA:5092,0
DA:5094,0
DA:5097,0
DA:5100,0
DA:5101,0
DA:5103,0
DA:5107,0
DA:5108,0
DA:5110,0
DA:5112,0
DA:5113,0
DA:5115,0
DA:5122,0
DA:5124,0
DA:5125,0
DA:5127,0
DA:5128,0
DA:5130,0
DA:5133,0
DA:5135,0
DA:5136,0
DA:5137,0
DA:5138,0
DA:5139,0
DA:5142,0
DA:5145,0
DA:5146,0
DA:5147,0
DA:5148,0
DA:5149,0
DA:5150,0
DA:5152,0
DA:5153,0
DA:5154,0
DA:5156,0
DA:5158,0
DA:5160,0
DA:5163,0
DA:5164,0
DA:5166,0
DA:5168,0
DA:5169,0
DA:5171,0
DA:5172,0
DA:5173,0
DA:5176,0
DA:5179,0
DA:5182,0
DA:5185,0
DA:5188,0
DA:5192,0
DA:5194,0
DA:5195,0
DA:5196,0
DA:5198,0
DA:5199,0
DA:5201,0
DA:5202,0
DA:5203,0
DA:5205,0
DA:5207,0
DA:5213,0
DA:5215,0
DA:5216,0
DA:5218,0
DA:5219,0
DA:5220,0
DA:5221,0
DA:5224,0
DA:5225,0
DA:5227,0
DA:5235,0
DA:5236,0
DA:5237,0
DA:5239,0
DA:5241,0
DA:5242,0
DA:5245,0
DA:5247,0
DA:5249,0
DA:5252,0
DA:5255,0
DA:5256,0
DA:5258,0
DA:5262,0
DA:5263,0
DA:5265,0
DA:5267,0
DA:5268,0
DA:5271,0
DA:5280,0
DA:5282,0
DA:5283,0
DA:5284,0
DA:5285,0
DA:5286,0
DA:5287,0
DA:5288,0
DA:5289,0
DA:5290,0
DA:5291,0
DA:5292,0
DA:5293,0
DA:5294,0
DA:5296,0
DA:5299,0
DA:5303,0
DA:5305,0
DA:5306,0
DA:5308,0
DA:5312,0
DA:5314,0
DA:5315,0
DA:5317,0
DA:5320,0
DA:5322,0
DA:5327,0
DA:5331,0
DA:5333,0
DA:5336,0
DA:5337,0
DA:5338,0
DA:5341,0
DA:5343,0
DA:5344,0
DA:5345,0
DA:5348,0
DA:5349,0
DA:5353,0
DA:5356,0
DA:5358,0
DA:5359,0
DA:5360,0
DA:5361,0
DA:5362,0
DA:5363,0
DA:5365,0
DA:5366,0
DA:5367,0
DA:5370,0
DA:5372,0
DA:5373,0
DA:5374,0
DA:5378,0
DA:5381,0
DA:5382,0
DA:5384,0
DA:5385,0
DA:5387,0
DA:5388,0
DA:5389,0
DA:5390,0
DA:5391,0
DA:5393,0
DA:5395,0
DA:5398,0
DA:5401,0
DA:5402,0
DA:5408,0
DA:5410,0
DA:5411,0
DA:5412,0
DA:5416,0
DA:5418,0
DA:5419,0
DA:5420,0
DA:5426,0
DA:5427,0
DA:5430,0
DA:5432,0
DA:5435,0
DA:5438,0
DA:5439,0
DA:5440,0
DA:5446,0
DA:5448,0
DA:5449,0
DA:5452,0
DA:5454,0
DA:5455,0
DA:5456,0
DA:5457,0
DA:5458,0
DA:5460,0
DA:5461,0
DA:5463,0
DA:5465,0
DA:5466,0
DA:5468,0
DA:5469,0
DA:5470,0
DA:5471,0
DA:5473,0
DA:5475,0
DA:5477,0
DA:5480,0
DA:5483,0
DA:5484,0
DA:5486,0
DA:5493,0
DA:5495,0
DA:5496,0
DA:5499,0
DA:5501,0
DA:5502,0
DA:5503,0
DA:5504,0
DA:5505,0
DA:5507,0
DA:5508,0
DA:5510,0
DA:5512,0
DA:5513,0
DA:5514,0
DA:5516,0
DA:5518,0
DA:5519,0
DA:5520,0
DA:5522,0
DA:5524,0
DA:5526,0
DA:5529,0
DA:5532,0
DA:5533,0
DA:5535,0
DA:5538,0
DA:5541,0
DA:5542,0
DA:5545,0
DA:5547,0
DA:5548,0
DA:5549,0
DA:5550,0
DA:5551,0
DA:5553,0
DA:5554,0
DA:5555,0
DA:5557,0
DA:5559,0
DA:5561,0
DA:5562,0
DA:5566,0
DA:5567,0
DA:5569,0
DA:5574,0
DA:5575,0
DA:5576,0
DA:5580,0
DA:5582,0
DA:5584,0
DA:5587,0
DA:5590,0
DA:5591,0
DA:5593,0
DA:5596,0
DA:5598,0
DA:5602,0
DA:5603,0
DA:5605,0
DA:5606,0
DA:5611,0
DA:5613,0
DA:5614,0
DA:5615,0
DA:5616,0
DA:5617,0
DA:5618,0
DA:5619,0
DA:5621,0
DA:5622,0
DA:5623,0
DA:5626,0
DA:5628,0
DA:5629,0
DA:5630,0
DA:5631,0
DA:5632,0
DA:5635,0
DA:5637,0
DA:5638,0
DA:5639,0
DA:5640,0
DA:5641,0
DA:5642,0
DA:5643,0
DA:5646,0
DA:5648,0
DA:5649,0
DA:5650,0
DA:5651,0
DA:5652,0
DA:5653,0
DA:5654,0
DA:5658,0
DA:5659,0
DA:5660,0
DA:5662,0
DA:5663,0
DA:5664,0
DA:5665,0
DA:5667,0
DA:5668,0
DA:5670,0
end_of_record
SF:/usr/include/c++/9/bits/char_traits.h
DA:329,0
DA:335,0
end_of_record
SF:/usr/include/c++/9/bits/locale_facets.h
FN:872,_ZNKSt5ctypeIcE5widenEc
FNDA:0,_ZNKSt5ctypeIcE5widenEc
FN:1084,_ZNKSt5ctypeIcE8do_widenEc
FNDA:0,_ZNKSt5ctypeIcE8do_widenEc
DA:872,0
DA:874,0
DA:875,0
DA:876,0
DA:877,0
DA:1084,0
DA:1085,0
end_of_record
TN:
SF:/usr/include/c++/9/bits/char_traits.h
DA:329,0
DA:335,0
end_of_record
SF:/usr/include/c++/9/bits/locale_facets.h
FN:872,_ZNKSt5ctypeIcE5widenEc
FNDA:0,_ZNKSt5ctypeIcE5widenEc
FN:1084,_ZNKSt5ctypeIcE8do_widenEc
FNDA:0,_ZNKSt5ctypeIcE8do_widenEc
DA:872,0
DA:874,0
DA:875,0
DA:876,0
DA:877,0
DA:1084,0
DA:1085,0
end_of_record
SF:/workspace/vtr-verilog-to-routing/ODIN_II/SRC/lib_netlist/netlist_utils.cpp
FN:41,_Z14allocate_nnodev
FNDA:0,_Z14allocate_nnodev
FN:96,_Z10free_nnodeP9nnode_t_t
FNDA:0,_Z10free_nnodeP9nnode_t_t
FN:125,_Z24allocate_more_input_pinsP9nnode_t_ti
FNDA:0,_Z24allocate_more_input_pinsP9nnode_t_ti
FN:147,_Z25allocate_more_output_pinsP9nnode_t_ti
FNDA:0,_Z25allocate_more_output_pinsP9nnode_t_ti
FN:168,_Z27add_output_port_informationP9nnode_t_ti
FNDA:0,_Z27add_output_port_informationP9nnode_t_ti
FN:178,_Z26add_input_port_informationP9nnode_t_ti
FNDA:0,_Z26add_input_port_informationP9nnode_t_ti
FN:188,_Z13allocate_npinv
FNDA:0,_Z13allocate_npinv
FN:217,_Z16copy_output_npinP8npin_t_t
FNDA:0,_Z16copy_output_npinP8npin_t_t
FN:234,_Z15copy_input_npinP8npin_t_t
FNDA:0,_Z15copy_input_npinP8npin_t_t
FN:254,_Z13allocate_nnetv
FNDA:0,_Z13allocate_nnetv
FN:276,_Z15move_output_pinP9nnode_t_tii
FNDA:0,_Z15move_output_pinP9nnode_t_tii
FN:296,_Z14move_input_pinP9nnode_t_tii
FNDA:0,_Z14move_input_pinP9nnode_t_tii
FN:316,_Z21add_input_pin_to_nodeP9nnode_t_tP8npin_t_ti
FNDA:0,_Z21add_input_pin_to_nodeP9nnode_t_tP8npin_t_ti
FN:332,_Z21add_fanout_pin_to_netP8nnet_t_tP8npin_t_t
FNDA:0,_Z21add_fanout_pin_to_netP8nnet_t_tP8npin_t_t
FN:350,_Z22add_output_pin_to_nodeP9nnode_t_tP8npin_t_ti
FNDA:0,_Z22add_output_pin_to_nodeP9nnode_t_tP8npin_t_ti
FN:366,_Z21add_driver_pin_to_netP8nnet_t_tP8npin_t_t
FNDA:0,_Z21add_driver_pin_to_netP8nnet_t_tP8npin_t_t
FN:384,_Z12combine_netsP8nnet_t_tS0_P11netlist_t_t
FNDA:0,_Z12combine_netsP8nnet_t_tS0_P11netlist_t_t
FN:420,_Z9join_netsP8nnet_t_tS0_
FNDA:0,_Z9join_netsP8nnet_t_tS0_
FN:448,_Z20remap_pin_to_new_netP8npin_t_tP8nnet_t_t
FNDA:0,_Z20remap_pin_to_new_netP8npin_t_tP8nnet_t_t
FN:469,_Z21remap_pin_to_new_nodeP8npin_t_tP9nnode_t_ti
FNDA:0,_Z21remap_pin_to_new_nodeP8npin_t_tP9nnode_t_ti
FN:489,_Z13connect_nodesP9nnode_t_tiS0_i
FNDA:0,_Z13connect_nodesP9nnode_t_tiS0_i
FN:529,_Z16init_signal_listv
FNDA:0,_Z16init_signal_listv
FN:546,_Z22add_pin_to_signal_listP15signal_list_t_tP8npin_t_t
FNDA:0,_Z22add_pin_to_signal_listP15signal_list_t_tP8npin_t_t
FN:556,_Z13combine_listsPP15signal_list_t_ti
FNDA:0,_Z13combine_listsPP15signal_list_t_ti
FN:574,_Z39combine_lists_without_freeing_originalsPP15signal_list_t_ti
FNDA:0,_Z39combine_lists_without_freeing_originalsPP15signal_list_t_ti
FN:592,_Z18copy_input_signalsP15signal_list_t_t
FNDA:0,_Z18copy_input_signalsP15signal_list_t_t
FN:606,_Z19copy_output_signalsP15signal_list_t_t
FNDA:0,_Z19copy_output_signalsP15signal_list_t_t
FN:624,_ZL20compare_npin_t_namesPKvS0_
FNDA:0,_ZL20compare_npin_t_namesPKvS0_
FN:631,_Z31sort_signal_list_alphabeticallyP15signal_list_t_t
FNDA:0,_Z31sort_signal_list_alphabeticallyP15signal_list_t_t
FN:642,_Z34make_output_pins_for_existing_nodeP9nnode_t_ti
FNDA:0,_Z34make_output_pins_for_existing_nodeP9nnode_t_ti
FN:675,_Z16free_signal_listP15signal_list_t_t
FNDA:0,_Z16free_signal_listP15signal_list_t_t
FN:688,_Z34hookup_input_pins_from_signal_listP9nnode_t_tiP15signal_list_t_tiiP11netlist_t_t
FNDA:0,_Z34hookup_input_pins_from_signal_listP9nnode_t_tiP15signal_list_t_tiiP11netlist_t_t
FN:717,_Z37hookup_hb_input_pins_from_signal_listP9nnode_t_tiP15signal_list_t_tiiP11netlist_t_t
FNDA:0,_Z37hookup_hb_input_pins_from_signal_listP9nnode_t_tiP15signal_list_t_tiiP11netlist_t_t
FN:743,_Z35hookup_output_pins_from_signal_listP9nnode_t_tiP15signal_list_t_tii
FNDA:0,_Z35hookup_output_pins_from_signal_listP9nnode_t_tiP15signal_list_t_tii
FN:772,_Z22count_nodes_in_netlistP11netlist_t_t
FNDA:0,_Z22count_nodes_in_netlistP11netlist_t_t
FN:795,_Z20depth_traverse_countP9nnode_t_tPii
FNDA:0,_Z20depth_traverse_countP9nnode_t_tPii
FN:837,_Z16allocate_netlistv
FNDA:0,_Z16allocate_netlistv
FN:886,_Z12free_netlistP11netlist_t_t
FNDA:0,_Z12free_netlistP11netlist_t_t
FN:896,_Z19add_node_to_netlistP11netlist_t_tP9nnode_t_ts
FNDA:0,_Z19add_node_to_netlistP11netlist_t_tP9nnode_t_ts
FN:949,_Z15mark_clock_nodeP11netlist_t_tPKc
FNDA:0,_Z15mark_clock_nodeP11netlist_t_tPKc
FN:978,_Z33get_output_pin_index_from_mappingP9nnode_t_tPKc
FNDA:0,_Z33get_output_pin_index_from_mappingP9nnode_t_tPKc
FN:995,_Z34get_output_port_index_from_mappingP9nnode_t_tPKc
FNDA:0,_Z34get_output_port_index_from_mappingP9nnode_t_tPKc
FN:1015,_Z32get_input_pin_index_from_mappingP9nnode_t_tPKc
FNDA:0,_Z32get_input_pin_index_from_mappingP9nnode_t_tPKc
FN:1032,_Z33get_input_port_index_from_mappingP9nnode_t_tPKc
FNDA:0,_Z33get_input_port_index_from_mappingP9nnode_t_tPKc
FN:1049,_Z19allocate_chain_infov
FNDA:0,_Z19allocate_chain_infov
FN:1061,_Z27remove_fanout_pins_from_netP8nnet_t_tP8npin_t_ti
FNDA:0,_Z27remove_fanout_pins_from_netP8nnet_t_tP8npin_t_ti
DA:41,0
DA:42,0
DA:44,0
DA:45,0
DA:46,0
DA:47,0
DA:48,0
DA:50,0
DA:51,0
DA:52,0
DA:53,0
DA:55,0
DA:56,0
DA:57,0
DA:58,0
DA:60,0
DA:61,0
DA:63,0
DA:64,0
DA:65,0
DA:66,0
DA:68,0
DA:70,0
DA:72,0
DA:73,0
DA:75,0
DA:76,0
DA:78,0
DA:80,0
DA:81,0
DA:83,0
DA:85,0
DA:86,0
DA:88,0
DA:90,0
DA:96,0
DA:98,0
DA:102,0
DA:103,0
DA:105,0
DA:107,0
DA:108,0
DA:110,0
DA:112,0
DA:113,0
DA:114,0
DA:118,0
DA:125,0
DA:127,0
DA:129,0
DA:131,0
DA:132,0
DA:135,0
DA:136,0
DA:138,0
DA:140,0
DA:147,0
DA:149,0
DA:151,0
DA:153,0
DA:154,0
DA:157,0
DA:158,0
DA:160,0
DA:162,0
DA:168,0
DA:170,0
DA:171,0
DA:172,0
DA:173,0
DA:178,0
DA:180,0
DA:181,0
DA:182,0
DA:183,0
DA:188,0
DA:189,0
DA:191,0
DA:193,0
DA:194,0
DA:195,0
DA:196,0
DA:197,0
DA:198,0
DA:199,0
DA:201,0
DA:202,0
DA:204,0
DA:206,0
DA:207,0
DA:209,0
DA:211,0
DA:217,0
DA:219,0
DA:220,0
DA:222,0
DA:223,0
DA:224,0
DA:225,0
DA:226,0
DA:227,0
DA:234,0
DA:236,0
DA:237,0
DA:239,0
DA:240,0
DA:241,0
DA:242,0
DA:243,0
DA:245,0
DA:248,0
DA:254,0
DA:256,0
DA:258,0
DA:259,0
DA:260,0
DA:261,0
DA:262,0
DA:264,0
DA:265,0
DA:267,0
DA:268,0
DA:270,0
DA:276,0
DA:278,0
DA:280,0
DA:281,0
DA:282,0
DA:284,0
DA:285,0
DA:286,0
DA:288,0
DA:289,0
DA:290,0
DA:291,0
DA:296,0
DA:298,0
DA:300,0
DA:301,0
DA:302,0
DA:304,0
DA:305,0
DA:306,0
DA:308,0
DA:309,0
DA:310,0
DA:311,0
DA:316,0
DA:318,0
DA:319,0
DA:320,0
DA:322,0
DA:324,0
DA:325,0
DA:326,0
DA:327,0
DA:332,0
DA:334,0
DA:335,0
DA:336,0
DA:338,0
DA:339,0
DA:340,0
DA:342,0
DA:343,0
DA:344,0
DA:345,0
DA:350,0
DA:352,0
DA:353,0
DA:354,0
DA:356,0
DA:358,0
DA:359,0
DA:360,0
DA:361,0
DA:366,0
DA:368,0
DA:369,0
DA:370,0
DA:372,0
DA:374,0
DA:375,0
DA:376,0
DA:384,0
DA:388,0
DA:391,0
DA:394,0
DA:396,0
DA:399,0
DA:400,0
DA:403,0
DA:405,0
DA:407,0
DA:409,0
DA:413,0
DA:414,0
DA:420,0
DA:422,0
DA:424,0
DA:425,0
DA:427,0
DA:428,0
DA:429,0
DA:431,0
DA:436,0
DA:438,0
DA:440,0
DA:443,0
DA:448,0
DA:450,0
DA:453,0
DA:455,0
DA:457,0
DA:460,0
DA:462,0
DA:464,0
DA:469,0
DA:471,0
DA:473,0
DA:475,0
DA:477,0
DA:479,0
DA:481,0
DA:483,0
DA:489,0
DA:491,0
DA:493,0
DA:494,0
DA:496,0
DA:499,0
DA:501,0
DA:504,0
DA:505,0
DA:506,0
DA:507,0
DA:510,0
DA:512,0
DA:514,0
DA:520,0
DA:522,0
DA:529,0
DA:531,0
DA:532,0
DA:534,0
DA:535,0
DA:536,0
DA:537,0
DA:539,0
DA:546,0
DA:548,0
DA:549,0
DA:550,0
DA:551,0
DA:556,0
DA:558,0
DA:559,0
DA:562,0
DA:563,0
DA:565,0
DA:568,0
DA:574,0
DA:576,0
DA:578,0
DA:579,0
DA:581,0
DA:582,0
DA:583,0
DA:584,0
DA:587,0
DA:592,0
DA:594,0
DA:595,0
DA:596,0
DA:598,0
DA:599,0
DA:600,0
DA:602,0
DA:606,0
DA:608,0
DA:609,0
DA:610,0
DA:612,0
DA:613,0
DA:615,0
DA:624,0
DA:626,0
DA:627,0
DA:628,0
DA:631,0
DA:633,0
DA:634,0
DA:635,0
DA:642,0
DA:644,0
DA:645,0
DA:647,0
DA:649,0
DA:651,0
DA:652,0
DA:653,0
DA:654,0
DA:655,0
DA:656,0
DA:657,0
DA:659,0
DA:661,0
DA:663,0
DA:666,0
DA:669,0
DA:675,0
DA:677,0
DA:678,0
DA:679,0
DA:681,0
DA:682,0
DA:688,0
DA:690,0
DA:692,0
DA:694,0
DA:696,0
DA:697,0
DA:698,0
DA:704,0
DA:706,0
DA:707,0
DA:710,0
DA:717,0
DA:719,0
DA:721,0
DA:723,0
DA:725,0
DA:726,0
DA:731,0
DA:733,0
DA:734,0
DA:737,0
DA:743,0
DA:745,0
DA:746,0
DA:748,0
DA:750,0
DA:753,0
DA:755,0
DA:758,0
DA:762,0
DA:766,0
DA:772,0
DA:774,0
DA:775,0
DA:778,0
DA:779,0
DA:780,0
DA:783,0
DA:784,0
DA:785,0
DA:789,0
DA:795,0
DA:797,0
DA:798,0
DA:799,0
DA:801,0
DA:808,0
DA:811,0
DA:813,0
DA:815,0
DA:816,0
DA:818,0
DA:819,0
DA:821,0
DA:822,0
DA:823,0
DA:824,0
DA:825,0
DA:828,0
DA:837,0
DA:839,0
DA:841,0
DA:843,0
DA:844,0
DA:845,0
DA:846,0
DA:847,0
DA:848,0
DA:849,0
DA:850,0
DA:851,0
DA:852,0
DA:853,0
DA:854,0
DA:855,0
DA:856,0
DA:857,0
DA:858,0
DA:860,0
DA:861,0
DA:862,0
DA:863,0
DA:864,0
DA:865,0
DA:866,0
DA:867,0
DA:868,0
DA:869,0
DA:870,0
DA:871,0
DA:874,0
DA:875,0
DA:876,0
DA:878,0
DA:880,0
DA:886,0
DA:888,0
DA:889,0
DA:890,0
DA:891,0
DA:896,0
DA:898,0
DA:901,0
DA:903,0
DA:904,0
DA:905,0
DA:907,0
DA:910,0
DA:914,0
DA:915,0
DA:916,0
DA:918,0
DA:921,0
DA:922,0
DA:923,0
DA:925,0
DA:927,0
DA:928,0
DA:929,0
DA:931,0
DA:933,0
DA:934,0
DA:935,0
DA:939,0
DA:940,0
DA:941,0
DA:943,0
DA:949,0
DA:954,0
DA:955,0
DA:956,0
DA:959,0
DA:961,0
DA:963,0
DA:964,0
DA:966,0
DA:967,0
DA:968,0
DA:971,0
DA:972,0
DA:978,0
DA:980,0
DA:981,0
DA:983,0
DA:984,0
DA:985,0
DA:995,0
DA:997,0
DA:998,0
DA:999,0
DA:1002,0
DA:1004,0
DA:1005,0
DA:1006,0
DA:1015,0
DA:1017,0
DA:1018,0
DA:1020,0
DA:1021,0
DA:1022,0
DA:1032,0
DA:1034,0
DA:1035,0
DA:1036,0
DA:1039,0
DA:1041,0
DA:1042,0
DA:1043,0
DA:1049,0
DA:1051,0
DA:1053,0
DA:1055,0
DA:1056,0
DA:1058,0
DA:1061,0
DA:1064,0
DA:1065,0
DA:1067,0
DA:1068,0
DA:1069,0
DA:1071,0
DA:1072,0
DA:1073,0
end_of_record
SF:/usr/include/c++/9/iostream
end_of_record
SF:/workspace/vtr-verilog-to-routing/libs/EXTERNAL/libargparse/src/argparse_value.hpp
DA:50,0
end_of_record
SF:/usr/include/c++/9/ostream
DA:108,0
DA:113,0
DA:565,0
DA:568,0
DA:570,0
DA:571,0
end_of_record
TN:
SF:/usr/include/c++/9/bits/char_traits.h
DA:329,0
DA:335,0
end_of_record
SF:/usr/include/c++/9/bits/locale_facets.h
FN:872,_ZNKSt5ctypeIcE5widenEc
FNDA:0,_ZNKSt5ctypeIcE5widenEc
FN:1084,_ZNKSt5ctypeIcE8do_widenEc
FNDA:0,_ZNKSt5ctypeIcE8do_widenEc
DA:872,0
DA:874,0
DA:875,0
DA:876,0
DA:877,0
DA:1084,0
DA:1085,0
end_of_record
SF:/workspace/vtr-verilog-to-routing/ODIN_II/SRC/lib_netlist/node_creation_library.cpp
FN:40,_Z11get_pad_pinP11netlist_t_t
FNDA:0,_Z11get_pad_pinP11netlist_t_t
FN:52,_Z12get_zero_pinP11netlist_t_t
FNDA:0,_Z12get_zero_pinP11netlist_t_t
FN:64,_Z11get_one_pinP11netlist_t_t
FNDA:0,_Z11get_one_pinP11netlist_t_t
FN:77,_Z24make_not_gate_with_inputP8npin_t_tP9nnode_t_ts
FNDA:0,_Z24make_not_gate_with_inputP8npin_t_tP9nnode_t_ts
FN:94,_Z13make_not_gateP9nnode_t_ts
FNDA:0,_Z13make_not_gateP9nnode_t_ts
FN:115,_Z15make_1port_gate14operation_listiiP9nnode_t_ts
FNDA:0,_Z15make_1port_gate14operation_listiiP9nnode_t_ts
FN:138,_Z21make_1port_logic_gate14operation_listiP9nnode_t_ts
FNDA:0,_Z21make_1port_logic_gate14operation_listiP9nnode_t_ts
FN:149,_Z33make_1port_logic_gate_with_inputs14operation_listiP15signal_list_t_tP9nnode_t_ts
FNDA:0,_Z33make_1port_logic_gate_with_inputs14operation_listiP15signal_list_t_tP9nnode_t_ts
FN:169,_Z15make_3port_gate14operation_listiiiiP9nnode_t_ts
FNDA:0,_Z15make_3port_gate14operation_listiiiiP9nnode_t_ts
FN:196,_Z15make_2port_gate14operation_listiiiP9nnode_t_ts
FNDA:0,_Z15make_2port_gate14operation_listiiiP9nnode_t_ts
FN:220,_Z15make_nport_gate14operation_listiiiP9nnode_t_ts
FNDA:0,_Z15make_nport_gate14operation_listiiiP9nnode_t_ts
FN:290,_Z21node_name_based_on_opP9nnode_t_t
FNDA:0,_Z21node_name_based_on_opP9nnode_t_t
FN:434,_Z14hard_node_nameP9nnode_t_tPcS1_S1_
FNDA:0,_Z14hard_node_nameP9nnode_t_tPcS1_S1_
FN:450,_Z9node_nameP9nnode_t_tPc
FNDA:0,_Z9node_nameP9nnode_t_tPc
FN:468,_Z15make_mult_blockP9nnode_t_ts
FNDA:0,_Z15make_mult_blockP9nnode_t_ts
DA:40,0
DA:42,0
DA:43,0
DA:44,0
DA:45,0
DA:52,0
DA:54,0
DA:55,0
DA:56,0
DA:57,0
DA:64,0
DA:66,0
DA:67,0
DA:68,0
DA:69,0
DA:77,0
DA:79,0
DA:81,0
DA:84,0
DA:86,0
DA:94,0
DA:96,0
DA:98,0
DA:99,0
DA:100,0
DA:101,0
DA:102,0
DA:104,0
DA:105,0
DA:107,0
DA:115,0
DA:117,0
DA:119,0
DA:120,0
DA:121,0
DA:122,0
DA:123,0
DA:126,0
DA:127,0
DA:129,0
DA:130,0
DA:132,0
DA:138,0
DA:140,0
DA:142,0
DA:149,0
DA:151,0
DA:152,0
DA:154,0
DA:157,0
DA:159,0
DA:162,0
DA:169,0
DA:171,0
DA:172,0
DA:173,0
DA:174,0
DA:175,0
DA:178,0
DA:179,0
DA:180,0
DA:181,0
DA:182,0
DA:183,0
DA:185,0
DA:186,0
DA:188,0
DA:196,0
DA:198,0
DA:199,0
DA:200,0
DA:201,0
DA:202,0
DA:205,0
DA:206,0
DA:207,0
DA:208,0
DA:210,0
DA:211,0
DA:213,0
DA:220,0
DA:222,0
DA:223,0
DA:224,0
DA:225,0
DA:226,0
DA:227,0
DA:230,0
DA:231,0
DA:232,0
DA:237,0
DA:238,0
DA:240,0
DA:290,0
DA:292,0
DA:294,0
DA:296,0
DA:297,0
DA:298,0
DA:299,0
DA:300,0
DA:301,0
DA:302,0
DA:303,0
DA:304,0
DA:305,0
DA:306,0
DA:307,0
DA:308,0
DA:309,0
DA:310,0
DA:311,0
DA:312,0
DA:313,0
DA:314,0
DA:315,0
DA:316,0
DA:317,0
DA:318,0
DA:319,0
DA:320,0
DA:321,0
DA:322,0
DA:323,0
DA:324,0
DA:325,0
DA:326,0
DA:327,0
DA:328,0
DA:329,0
DA:330,0
DA:331,0
DA:332,0
DA:333,0
DA:334,0
DA:335,0
DA:336,0
DA:337,0
DA:338,0
DA:339,0
DA:340,0
DA:341,0
DA:342,0
DA:343,0
DA:344,0
DA:345,0
DA:346,0
DA:347,0
DA:348,0
DA:349,0
DA:350,0
DA:351,0
DA:352,0
DA:353,0
DA:354,0
DA:355,0
DA:356,0
DA:357,0
DA:358,0
DA:359,0
DA:360,0
DA:361,0
DA:362,0
DA:363,0
DA:364,0
DA:365,0
DA:366,0
DA:367,0
DA:368,0
DA:369,0
DA:370,0
DA:371,0
DA:372,0
DA:373,0
DA:374,0
DA:375,0
DA:376,0
DA:377,0
DA:378,0
DA:379,0
DA:380,0
DA:381,0
DA:382,0
DA:383,0
DA:384,0
DA:385,0
DA:386,0
DA:387,0
DA:388,0
DA:389,0
DA:390,0
DA:391,0
DA:392,0
DA:393,0
DA:394,0
DA:395,0
DA:396,0
DA:397,0
DA:398,0
DA:399,0
DA:400,0
DA:401,0
DA:402,0
DA:403,0
DA:404,0
DA:405,0
DA:406,0
DA:407,0
DA:408,0
DA:409,0
DA:410,0
DA:411,0
DA:412,0
DA:413,0
DA:414,0
DA:415,0
DA:416,0
DA:417,0
DA:418,0
DA:419,0
DA:420,0
DA:421,0
DA:422,0
DA:423,0
DA:424,0
DA:427,0
DA:434,0
DA:436,0
DA:439,0
DA:441,0
DA:443,0
DA:450,0
DA:452,0
DA:455,0
DA:459,0
DA:461,0
DA:468,0
DA:470,0
DA:472,0
DA:473,0
DA:474,0
DA:475,0
DA:476,0
DA:477,0
DA:478,0
DA:479,0
DA:480,0
DA:482,0
DA:483,0
DA:485,0
end_of_record
SF:/usr/include/c++/9/ostream
DA:108,0
DA:113,0
DA:565,0
DA:568,0
DA:570,0
DA:571,0
end_of_record
SF:/usr/include/c++/9/iostream
end_of_record
TN:
SF:/usr/include/c++/9/ostream
DA:108,0
DA:113,0
DA:565,0
DA:568,0
DA:570,0
DA:571,0
end_of_record
SF:/usr/include/c++/9/bits/basic_string.h
DA:186,0
DA:2300,0
DA:2301,0
end_of_record
SF:/usr/include/c++/9/iostream
end_of_record
SF:/workspace/vtr-verilog-to-routing/ODIN_II/SRC/lib_netlist/partial_map.cpp
FN:68,_Z15partial_map_topP11netlist_t_t
FNDA:0,_Z15partial_map_topP11netlist_t_t
FN:81,_Z36depth_first_traversal_to_partial_mapsP11netlist_t_t
FNDA:0,_Z36depth_first_traversal_to_partial_mapsP11netlist_t_t
FN:102,_Z32depth_first_traverse_parital_mapP9nnode_t_tiP11netlist_t_t
FNDA:0,_Z32depth_first_traverse_parital_mapP9nnode_t_tiP11netlist_t_t
FN:143,_Z16partial_map_nodeP9nnode_t_tsP11netlist_t_t
FNDA:0,_Z16partial_map_nodeP9nnode_t_tsP11netlist_t_t
FN:311,_Z26instantiate_soft_logic_ramP9nnode_t_tsP11netlist_t_t
FNDA:0,_Z26instantiate_soft_logic_ramP9nnode_t_tsP11netlist_t_t
FN:326,_Z26instantiate_multi_port_muxP9nnode_t_tsP11netlist_t_t
FNDA:0,_Z26instantiate_multi_port_muxP9nnode_t_tsP11netlist_t_t
FN:367,_Z21instantiate_not_logicP9nnode_t_tsP11netlist_t_t
FNDA:0,_Z21instantiate_not_logicP9nnode_t_tsP11netlist_t_t
FN:395,_Z18instantiate_bufferP9nnode_t_tsP11netlist_t_t
FNDA:0,_Z18instantiate_bufferP9nnode_t_tsP11netlist_t_t
FN:416,_Z25instantiate_logical_logicP9nnode_t_t14operation_listsP11netlist_t_t
FNDA:0,_Z25instantiate_logical_logicP9nnode_t_t14operation_listsP11netlist_t_t
FN:479,_Z29instantiate_bitwise_reductionP9nnode_t_t14operation_listsP11netlist_t_t
FNDA:0,_Z29instantiate_bitwise_reductionP9nnode_t_t14operation_listsP11netlist_t_t
FN:548,_Z25instantiate_bitwise_logicP9nnode_t_t14operation_listsP11netlist_t_t
FNDA:0,_Z25instantiate_bitwise_logicP9nnode_t_t14operation_listsP11netlist_t_t
FN:612,_Z23instantiate_add_w_carryP9nnode_t_tsP11netlist_t_t
FNDA:0,_Z23instantiate_add_w_carryP9nnode_t_tsP11netlist_t_t
FN:639,_Z23instantiate_sub_w_carryP9nnode_t_tsP11netlist_t_t
FNDA:0,_Z23instantiate_sub_w_carryP9nnode_t_tsP11netlist_t_t
FN:669,_Z21instantiate_unary_subP9nnode_t_tsP11netlist_t_t
FNDA:0,_Z21instantiate_unary_subP9nnode_t_tsP11netlist_t_t
FN:680,_Z17instantiate_EQUALP9nnode_t_tssP11netlist_t_t
FNDA:0,_Z17instantiate_EQUALP9nnode_t_tssP11netlist_t_t
FN:766,_Z14instantiate_GTP9nnode_t_tssP11netlist_t_t
FNDA:0,_Z14instantiate_GTP9nnode_t_tssP11netlist_t_t
FN:916,_Z14instantiate_GEP9nnode_t_tssP11netlist_t_t
FNDA:0,_Z14instantiate_GEP9nnode_t_tssP11netlist_t_t
FN:997,_Z31instantiate_shift_left_or_rightP9nnode_t_tssP11netlist_t_t
FNDA:0,_Z31instantiate_shift_left_or_rightP9nnode_t_tssP11netlist_t_t
DA:68,0
DA:71,0
DA:74,0
DA:76,0
DA:81,0
DA:83,0
DA:86,0
DA:88,0
DA:90,0
DA:94,0
DA:95,0
DA:96,0
DA:97,0
DA:102,0
DA:104,0
DA:105,0
DA:106,0
DA:108,0
DA:113,0
DA:115,0
DA:117,0
DA:118,0
DA:120,0
DA:121,0
DA:123,0
DA:124,0
DA:126,0
DA:127,0
DA:128,0
DA:131,0
DA:136,0
DA:138,0
DA:143,0
DA:145,0
DA:147,0
DA:148,0
DA:149,0
DA:150,0
DA:151,0
DA:152,0
DA:154,0
DA:155,0
DA:156,0
DA:157,0
DA:158,0
DA:159,0
DA:160,0
DA:162,0
DA:164,0
DA:166,0
DA:169,0
DA:172,0
DA:173,0
DA:174,0
DA:175,0
DA:176,0
DA:177,0
DA:178,0
DA:180,0
DA:188,0
DA:189,0
DA:191,0
DA:193,0
DA:196,0
DA:197,0
DA:199,0
DA:201,0
DA:202,0
DA:203,0
DA:205,0
DA:207,0
DA:209,0
DA:211,0
DA:213,0
DA:216,0
DA:219,0
DA:221,0
DA:223,0
DA:225,0
DA:228,0
DA:232,0
DA:233,0
DA:234,0
DA:235,0
DA:236,0
DA:237,0
DA:238,0
DA:239,0
DA:240,0
DA:241,0
DA:242,0
DA:243,0
DA:244,0
DA:245,0
DA:246,0
DA:247,0
DA:248,0
DA:249,0
DA:250,0
DA:251,0
DA:252,0
DA:253,0
DA:255,0
DA:259,0
DA:260,0
DA:261,0
DA:262,0
DA:263,0
DA:265,0
DA:266,0
DA:269,0
DA:271,0
DA:275,0
DA:276,0
DA:281,0
DA:285,0
DA:286,0
DA:288,0
DA:301,0
DA:302,0
DA:303,0
DA:304,0
DA:305,0
DA:306,0
DA:307,0
DA:309,0
DA:311,0
DA:313,0
DA:314,0
DA:315,0
DA:316,0
DA:318,0
DA:319,0
DA:326,0
DA:328,0
DA:329,0
DA:330,0
DA:331,0
DA:332,0
DA:335,0
DA:336,0
DA:337,0
DA:339,0
DA:340,0
DA:342,0
DA:345,0
DA:347,0
DA:350,0
DA:353,0
DA:354,0
DA:356,0
DA:360,0
DA:362,0
DA:367,0
DA:369,0
DA:370,0
DA:371,0
DA:373,0
DA:375,0
DA:377,0
DA:381,0
DA:384,0
DA:385,0
DA:388,0
DA:389,0
DA:395,0
DA:397,0
DA:398,0
DA:401,0
DA:403,0
DA:406,0
DA:409,0
DA:411,0
DA:416,0
DA:418,0
DA:419,0
DA:420,0
DA:421,0
DA:422,0
DA:423,0
DA:424,0
DA:426,0
DA:427,0
DA:428,0
DA:430,0
DA:431,0
DA:432,0
DA:435,0
DA:436,0
DA:437,0
DA:440,0
DA:443,0
DA:445,0
DA:453,0
DA:456,0
DA:458,0
DA:467,0
DA:468,0
DA:470,0
DA:471,0
DA:473,0
DA:474,0
DA:479,0
DA:481,0
DA:482,0
DA:483,0
DA:484,0
DA:486,0
DA:487,0
DA:488,0
DA:490,0
DA:492,0
DA:498,0
DA:499,0
DA:500,0
DA:501,0
DA:502,0
DA:503,0
DA:504,0
DA:505,0
DA:506,0
DA:507,0
DA:508,0
DA:509,0
DA:510,0
DA:511,0
DA:512,0
DA:513,0
DA:514,0
DA:515,0
DA:516,0
DA:517,0
DA:518,0
DA:519,0
DA:520,0
DA:524,0
DA:527,0
DA:530,0
DA:532,0
DA:541,0
DA:542,0
DA:548,0
DA:550,0
DA:552,0
DA:554,0
DA:555,0
DA:557,0
DA:577,0
DA:578,0
DA:579,0
DA:584,0
DA:586,0
DA:587,0
DA:589,0
DA:592,0
DA:593,0
DA:597,0
DA:599,0
DA:602,0
DA:604,0
DA:612,0
DA:615,0
DA:617,0
DA:619,0
DA:621,0
DA:622,0
DA:624,0
DA:626,0
DA:627,0
DA:629,0
DA:631,0
DA:632,0
DA:639,0
DA:642,0
DA:644,0
DA:646,0
DA:647,0
DA:649,0
DA:651,0
DA:652,0
DA:654,0
DA:656,0
DA:657,0
DA:660,0
DA:662,0
DA:663,0
DA:669,0
DA:671,0
DA:672,0
DA:680,0
DA:682,0
DA:683,0
DA:684,0
DA:685,0
DA:686,0
DA:687,0
DA:688,0
DA:690,0
DA:691,0
DA:692,0
DA:693,0
DA:694,0
DA:695,0
DA:696,0
DA:699,0
DA:701,0
DA:702,0
DA:706,0
DA:707,0
DA:713,0
DA:716,0
DA:718,0
DA:721,0
DA:726,0
DA:730,0
DA:732,0
DA:736,0
DA:741,0
DA:746,0
DA:750,0
DA:752,0
DA:753,0
DA:755,0
DA:758,0
DA:759,0
DA:766,0
DA:768,0
DA:769,0
DA:770,0
DA:771,0
DA:772,0
DA:773,0
DA:774,0
DA:775,0
DA:776,0
DA:777,0
DA:778,0
DA:779,0
DA:780,0
DA:782,0
DA:783,0
DA:784,0
DA:785,0
DA:786,0
DA:787,0
DA:788,0
DA:791,0
DA:793,0
DA:794,0
DA:795,0
DA:796,0
DA:798,0
DA:800,0
DA:801,0
DA:802,0
DA:803,0
DA:807,0
DA:808,0
DA:809,0
DA:810,0
DA:811,0
DA:815,0
DA:817,0
DA:819,0
DA:821,0
DA:823,0
DA:825,0
DA:826,0
DA:828,0
DA:833,0
DA:836,0
DA:839,0
DA:840,0
DA:841,0
DA:846,0
DA:847,0
DA:848,0
DA:851,0
DA:855,0
DA:856,0
DA:857,0
DA:867,0
DA:870,0
DA:873,0
DA:878,0
DA:882,0
DA:883,0
DA:889,0
DA:893,0
DA:895,0
DA:897,0
DA:902,0
DA:903,0
DA:905,0
DA:906,0
DA:907,0
DA:908,0
DA:909,0
DA:916,0
DA:918,0
DA:919,0
DA:920,0
DA:921,0
DA:922,0
DA:923,0
DA:924,0
DA:925,0
DA:926,0
DA:928,0
DA:929,0
DA:930,0
DA:931,0
DA:932,0
DA:933,0
DA:934,0
DA:935,0
DA:937,0
DA:938,0
DA:941,0
DA:943,0
DA:944,0
DA:946,0
DA:949,0
DA:952,0
DA:955,0
DA:956,0
DA:961,0
DA:962,0
DA:965,0
DA:969,0
DA:970,0
DA:979,0
DA:980,0
DA:983,0
DA:984,0
DA:987,0
DA:989,0
DA:990,0
DA:991,0
DA:997,0
DA:1000,0
DA:1001,0
DA:1002,0
DA:1003,0
DA:1005,0
DA:1007,0
DA:1010,0
DA:1014,0
DA:1015,0
DA:1018,0
DA:1020,0
DA:1025,0
DA:1028,0
DA:1032,0
DA:1035,0
DA:1038,0
DA:1041,0
DA:1042,0
DA:1050,0
DA:1053,0
DA:1057,0
DA:1060,0
DA:1062,0
DA:1065,0
DA:1066,0
DA:1070,0
DA:1072,0
DA:1075,0
DA:1076,0
end_of_record
SF:/usr/include/c++/9/bits/locale_facets.h
FN:872,_ZNKSt5ctypeIcE5widenEc
FNDA:0,_ZNKSt5ctypeIcE5widenEc
FN:1084,_ZNKSt5ctypeIcE8do_widenEc
FNDA:0,_ZNKSt5ctypeIcE8do_widenEc
DA:872,0
DA:874,0
DA:875,0
DA:876,0
DA:877,0
DA:1084,0
DA:1085,0
end_of_record
SF:/usr/include/c++/9/bits/char_traits.h
DA:329,0
DA:335,0
end_of_record
SF:/usr/include/x86_64-linux-gnu/bits/stdio2.h
DA:105,0
DA:107,0
end_of_record
TN:
SF:/workspace/vtr-verilog-to-routing/libs/libarchfpga/src/physical_types.h
DA:1189,0
end_of_record
SF:/usr/include/c++/9/bits/allocated_ptr.h
DA:52,0
DA:53,0
DA:70,0
DA:73,0
DA:78,0
DA:80,0
DA:85,0
DA:95,0
DA:97,0
end_of_record
SF:/usr/include/c++/9/ext/alloc_traits.h
DA:97,0
DA:98,0
end_of_record
SF:/usr/include/c++/9/bits/alloc_traits.h
DA:443,0
DA:444,0
DA:469,0
DA:470,0
DA:482,0
DA:484,0
DA:495,0
DA:497,0
DA:505,0
DA:506,0
DA:514,0
DA:515,0
end_of_record
SF:/usr/include/c++/9/bits/ios_base.h
DA:165,0
DA:166,0
end_of_record
SF:/usr/include/c++/9/iostream
end_of_record
SF:/workspace/vtr-verilog-to-routing/libs/EXTERNAL/libargparse/src/argparse_value.hpp
FN:64,_ZN8argparse8ArgValueIPcE3setENS_14ConvertedValueIS1_EENS_10ProvenanceE
FNDA:0,_ZN8argparse8ArgValueIPcE3setENS_14ConvertedValueIS1_EENS_10ProvenanceE
FN:64,_ZN8argparse8ArgValueIbE3setENS_14ConvertedValueIbEENS_10ProvenanceE
FNDA:0,_ZN8argparse8ArgValueIbE3setENS_14ConvertedValueIbEENS_10ProvenanceE
FN:64,_ZN8argparse8ArgValueIiE3setENS_14ConvertedValueIiEENS_10ProvenanceE
FNDA:0,_ZN8argparse8ArgValueIiE3setENS_14ConvertedValueIiEENS_10ProvenanceE
DA:9,0
DA:13,0
DA:14,0
DA:16,0
DA:17,0
DA:19,0
DA:20,0
DA:50,0
DA:56,0
DA:61,0
DA:64,0
DA:65,0
DA:68,0
DA:70,0
DA:71,0
DA:72,0
DA:64,0
DA:65,0
DA:68,0
DA:70,0
DA:71,0
DA:72,0
DA:64,0
DA:65,0
DA:68,0
DA:70,0
DA:71,0
DA:72,0
DA:74,0
DA:75,0
DA:76,0
DA:84,0
DA:85,0
DA:86,0
DA:88,0
DA:89,0
DA:90,0
end_of_record
SF:/usr/include/c++/9/bits/basic_string.h
FN:6097,_ZStplIcSt11char_traitsIcESaIcEENSt7__cxx1112basic_stringIT_T0_T1_EEOS8_S9_
FNDA:0,_ZStplIcSt11char_traitsIcESaIcEENSt7__cxx1112basic_stringIT_T0_T1_EEOS8_S9_
FN:6109,_ZStplIcSt11char_traitsIcESaIcEENSt7__cxx1112basic_stringIT_T0_T1_EEPKS5_OS8_
FNDA:0,_ZStplIcSt11char_traitsIcESaIcEENSt7__cxx1112basic_stringIT_T0_T1_EEPKS5_OS8_
FN:6121,_ZStplIcSt11char_traitsIcESaIcEENSt7__cxx1112basic_stringIT_T0_T1_EEOS8_PKS5_
FNDA:0,_ZStplIcSt11char_traitsIcESaIcEENSt7__cxx1112basic_stringIT_T0_T1_EEOS8_PKS5_
FN:6149,_ZSteqIcEN9__gnu_cxx11__enable_ifIXsrSt9__is_charIT_E7__valueEbE6__typeERKNSt7__cxx1112basic_stringIS3_St11char_traitsIS3_ESaIS3_EEESE_
FNDA:0,_ZSteqIcEN9__gnu_cxx11__enable_ifIXsrSt9__is_charIT_E7__valueEbE6__typeERKNSt7__cxx1112basic_stringIS3_St11char_traitsIS3_ESaIS3_EEESE_
DA:150,0
DA:159,0
DA:160,0
DA:178,0
DA:179,0
DA:182,0
DA:183,0
DA:186,0
DA:190,0
DA:193,0
DA:200,0
DA:203,0
DA:210,0
DA:211,0
DA:214,0
DA:216,0
DA:217,0
DA:221,0
DA:222,0
DA:229,0
DA:231,0
DA:232,0
DA:236,0
DA:237,0
DA:243,0
DA:247,0
DA:263,0
DA:266,0
DA:286,0
DA:287,0
DA:290,0
DA:291,0
DA:346,0
DA:348,0
DA:349,0
DA:351,0
DA:392,0
DA:393,0
DA:396,0
DA:398,0
DA:431,0
DA:433,0
DA:434,0
DA:448,0
DA:450,0
DA:451,0
DA:552,0
DA:553,0
DA:555,0
DA:557,0
DA:562,0
DA:563,0
DA:569,0
DA:570,0
DA:571,0
DA:657,0
DA:658,0
DA:665,0
DA:696,0
DA:930,0
DA:936,0
DA:993,0
DA:995,0
DA:1031,0
DA:1032,0
DA:1221,0
DA:1222,0
DA:1364,0
DA:1366,0
DA:1639,0
DA:1641,0
DA:2312,0
DA:2313,0
DA:6097,0
DA:6100,0
DA:6101,0
DA:6102,0
DA:6103,0
DA:6104,0
DA:6109,0
DA:6111,0
DA:6121,0
DA:6123,0
DA:6149,0
DA:6151,0
DA:6152,0
DA:6153,0
DA:6175,0
DA:6177,0
DA:6416,0
DA:6421,0
end_of_record
SF:/usr/include/c++/9/ext/aligned_buffer.h
DA:64,0
DA:65,0
DA:72,0
DA:73,0
DA:102,0
DA:104,0
DA:114,0
DA:115,0
end_of_record
SF:/usr/include/c++/9/initializer_list
DA:71,0
DA:75,0
DA:79,0
end_of_record
SF:/workspace/vtr-verilog-to-routing/libs/EXTERNAL/libargparse/src/argparse.tpp
FN:7,_ZN8argparse25make_singlevalue_argumentIi17ParseInitRegStateEESt10shared_ptrINS_8ArgumentEERNS_8ArgValueIT_EENSt7__cxx1112basic_stringIcSt11char_traitsIcESaIcEEESE_
FNDA:0,_ZN8argparse25make_singlevalue_argumentIi17ParseInitRegStateEESt10shared_ptrINS_8ArgumentEERNS_8ArgValueIT_EENSt7__cxx1112basic_stringIcSt11char_traitsIcESaIcEEESE_
FN:7,_ZN8argparse25make_singlevalue_argumentIiNS_16DefaultConverterIiEEEESt10shared_ptrINS_8ArgumentEERNS_8ArgValueIT_EENSt7__cxx1112basic_stringIcSt11char_traitsIcESaIcEEESF_
FNDA:0,_ZN8argparse25make_singlevalue_argumentIiNS_16DefaultConverterIiEEEESt10shared_ptrINS_8ArgumentEERNS_8ArgValueIT_EENSt7__cxx1112basic_stringIcSt11char_traitsIcESaIcEEESF_
FN:7,_ZN8argparse25make_singlevalue_argumentIbNS_16DefaultConverterIbEEEESt10shared_ptrINS_8ArgumentEERNS_8ArgValueIT_EENSt7__cxx1112basic_stringIcSt11char_traitsIcESaIcEEESF_
FNDA:0,_ZN8argparse25make_singlevalue_argumentIbNS_16DefaultConverterIbEEEESt10shared_ptrINS_8ArgumentEERNS_8ArgValueIT_EENSt7__cxx1112basic_stringIcSt11char_traitsIcESaIcEEESF_
FN:7,_ZN8argparse25make_singlevalue_argumentIPcNS_16DefaultConverterIS1_EEEESt10shared_ptrINS_8ArgumentEERNS_8ArgValueIT_EENSt7__cxx1112basic_stringIcSt11char_traitsIcESaIcEEESG_
FNDA:0,_ZN8argparse25make_singlevalue_argumentIPcNS_16DefaultConverterIS1_EEEESt10shared_ptrINS_8ArgumentEERNS_8ArgValueIT_EENSt7__cxx1112basic_stringIcSt11char_traitsIcESaIcEEESG_
FN:61,_ZN8argparse13ArgumentGroup12add_argumentIi17ParseInitRegStateEERNS_8ArgumentERNS_8ArgValueIT_EENSt7__cxx1112basic_stringIcSt11char_traitsIcESaIcEEE
FNDA:0,_ZN8argparse13ArgumentGroup12add_argumentIi17ParseInitRegStateEERNS_8ArgumentERNS_8ArgValueIT_EENSt7__cxx1112basic_stringIcSt11char_traitsIcESaIcEEE
FN:61,_ZN8argparse13ArgumentGroup12add_argumentIiNS_16DefaultConverterIiEEEERNS_8ArgumentERNS_8ArgValueIT_EENSt7__cxx1112basic_stringIcSt11char_traitsIcESaIcEEE
FNDA:0,_ZN8argparse13ArgumentGroup12add_argumentIiNS_16DefaultConverterIiEEEERNS_8ArgumentERNS_8ArgValueIT_EENSt7__cxx1112basic_stringIcSt11char_traitsIcESaIcEEE
FN:61,_ZN8argparse13ArgumentGroup12add_argumentIbNS_16DefaultConverterIbEEEERNS_8ArgumentERNS_8ArgValueIT_EENSt7__cxx1112basic_stringIcSt11char_traitsIcESaIcEEE
FNDA:0,_ZN8argparse13ArgumentGroup12add_argumentIbNS_16DefaultConverterIbEEEERNS_8ArgumentERNS_8ArgValueIT_EENSt7__cxx1112basic_stringIcSt11char_traitsIcESaIcEEE
FN:61,_ZN8argparse13ArgumentGroup12add_argumentIPcNS_16DefaultConverterIS2_EEEERNS_8ArgumentERNS_8ArgValueIT_EENSt7__cxx1112basic_stringIcSt11char_traitsIcESaIcEEE
FNDA:0,_ZN8argparse13ArgumentGroup12add_argumentIPcNS_16DefaultConverterIS2_EEEERNS_8ArgumentERNS_8ArgValueIT_EENSt7__cxx1112basic_stringIcSt11char_traitsIcESaIcEEE
FN:66,_ZN8argparse13ArgumentGroup12add_argumentIi17ParseInitRegStateEERNS_8ArgumentERNS_8ArgValueIT_EENSt7__cxx1112basic_stringIcSt11char_traitsIcESaIcEEESE_
FNDA:0,_ZN8argparse13ArgumentGroup12add_argumentIi17ParseInitRegStateEERNS_8ArgumentERNS_8ArgValueIT_EENSt7__cxx1112basic_stringIcSt11char_traitsIcESaIcEEESE_
FN:66,_ZN8argparse13ArgumentGroup12add_argumentIiNS_16DefaultConverterIiEEEERNS_8ArgumentERNS_8ArgValueIT_EENSt7__cxx1112basic_stringIcSt11char_traitsIcESaIcEEESF_
FNDA:0,_ZN8argparse13ArgumentGroup12add_argumentIiNS_16DefaultConverterIiEEEERNS_8ArgumentERNS_8ArgValueIT_EENSt7__cxx1112basic_stringIcSt11char_traitsIcESaIcEEESF_
FN:66,_ZN8argparse13ArgumentGroup12add_argumentIbNS_16DefaultConverterIbEEEERNS_8ArgumentERNS_8ArgValueIT_EENSt7__cxx1112basic_stringIcSt11char_traitsIcESaIcEEESF_
FNDA:0,_ZN8argparse13ArgumentGroup12add_argumentIbNS_16DefaultConverterIbEEEERNS_8ArgumentERNS_8ArgValueIT_EENSt7__cxx1112basic_stringIcSt11char_traitsIcESaIcEEESF_
FN:66,_ZN8argparse13ArgumentGroup12add_argumentIPcNS_16DefaultConverterIS2_EEEERNS_8ArgumentERNS_8ArgValueIT_EENSt7__cxx1112basic_stringIcSt11char_traitsIcESaIcEEESG_
FNDA:0,_ZN8argparse13ArgumentGroup12add_argumentIPcNS_16DefaultConverterIS2_EEEERNS_8ArgumentERNS_8ArgValueIT_EENSt7__cxx1112basic_stringIcSt11char_traitsIcESaIcEEESG_
DA:7,0
DA:8,0
DA:12,0
DA:13,0
DA:14,0
DA:17,0
DA:7,0
DA:8,0
DA:12,0
DA:13,0
DA:17,0
DA:7,0
DA:8,0
DA:12,0
DA:13,0
DA:14,0
DA:17,0
DA:7,0
DA:8,0
DA:12,0
DA:13,0
DA:17,0
DA:61,0
DA:62,0
DA:61,0
DA:62,0
DA:61,0
DA:62,0
DA:61,0
DA:62,0
DA:66,0
DA:67,0
DA:69,0
DA:70,0
DA:71,0
DA:66,0
DA:67,0
DA:69,0
DA:70,0
DA:71,0
DA:66,0
DA:67,0
DA:69,0
DA:70,0
DA:71,0
DA:66,0
DA:67,0
DA:69,0
DA:70,0
DA:71,0
end_of_record
SF:/usr/include/c++/9/bits/move.h
DA:47,0
DA:74,0
DA:99,0
DA:138,0
DA:139,0
end_of_record
SF:/workspace/vtr-verilog-to-routing/ODIN_II/SRC/types.h
end_of_record
SF:/usr/include/c++/9/bits/shared_ptr_base.h
FN:131,_ZNSt16_Sp_counted_baseILN9__gnu_cxx12_Lock_policyE2EE10_M_destroyEv
FNDA:0,_ZNSt16_Sp_counted_baseILN9__gnu_cxx12_Lock_policyE2EE10_M_destroyEv
FN:148,_ZNSt16_Sp_counted_baseILN9__gnu_cxx12_Lock_policyE2EE10_M_releaseEv
FNDA:0,_ZNSt16_Sp_counted_baseILN9__gnu_cxx12_Lock_policyE2EE10_M_releaseEv
FN:404,_ZNSt15_Sp_counted_ptrIDnLN9__gnu_cxx12_Lock_policyE2EE10_M_disposeEv
FNDA:0,_ZNSt15_Sp_counted_ptrIDnLN9__gnu_cxx12_Lock_policyE2EE10_M_disposeEv
FN:552,_ZNSt23_Sp_counted_ptr_inplaceIN8argparse19SingleValueArgumentIiNS0_16DefaultConverterIiEEEESaIS4_ELN9__gnu_cxx12_Lock_policyE2EED0Ev
FNDA:0,_ZNSt23_Sp_counted_ptr_inplaceIN8argparse19SingleValueArgumentIiNS0_16DefaultConverterIiEEEESaIS4_ELN9__gnu_cxx12_Lock_policyE2EED0Ev
FN:552,_ZNSt23_Sp_counted_ptr_inplaceIN8argparse19SingleValueArgumentIi17ParseInitRegStateEESaIS3_ELN9__gnu_cxx12_Lock_policyE2EED2Ev
FNDA:0,_ZNSt23_Sp_counted_ptr_inplaceIN8argparse19SingleValueArgumentIi17ParseInitRegStateEESaIS3_ELN9__gnu_cxx12_Lock_policyE2EED2Ev
FN:552,_ZNSt23_Sp_counted_ptr_inplaceIN8argparse19SingleValueArgumentIi17ParseInitRegStateEESaIS3_ELN9__gnu_cxx12_Lock_policyE2EED0Ev
FNDA:0,_ZNSt23_Sp_counted_ptr_inplaceIN8argparse19SingleValueArgumentIi17ParseInitRegStateEESaIS3_ELN9__gnu_cxx12_Lock_policyE2EED0Ev
FN:552,_ZNSt23_Sp_counted_ptr_inplaceIN8argparse19SingleValueArgumentIiNS0_16DefaultConverterIiEEEESaIS4_ELN9__gnu_cxx12_Lock_policyE2EED2Ev
FNDA:0,_ZNSt23_Sp_counted_ptr_inplaceIN8argparse19SingleValueArgumentIiNS0_16DefaultConverterIiEEEESaIS4_ELN9__gnu_cxx12_Lock_policyE2EED2Ev
FN:552,_ZNSt23_Sp_counted_ptr_inplaceIN8argparse19SingleValueArgumentIbNS0_16DefaultConverterIbEEEESaIS4_ELN9__gnu_cxx12_Lock_policyE2EED2Ev
FNDA:0,_ZNSt23_Sp_counted_ptr_inplaceIN8argparse19SingleValueArgumentIbNS0_16DefaultConverterIbEEEESaIS4_ELN9__gnu_cxx12_Lock_policyE2EED2Ev
FN:552,_ZNSt23_Sp_counted_ptr_inplaceIN8argparse19SingleValueArgumentIbNS0_16DefaultConverterIbEEEESaIS4_ELN9__gnu_cxx12_Lock_policyE2EED0Ev
FNDA:0,_ZNSt23_Sp_counted_ptr_inplaceIN8argparse19SingleValueArgumentIbNS0_16DefaultConverterIbEEEESaIS4_ELN9__gnu_cxx12_Lock_policyE2EED0Ev
FN:552,_ZNSt23_Sp_counted_ptr_inplaceIN8argparse19SingleValueArgumentIPcNS0_16DefaultConverterIS2_EEEESaIS5_ELN9__gnu_cxx12_Lock_policyE2EED0Ev
FNDA:0,_ZNSt23_Sp_counted_ptr_inplaceIN8argparse19SingleValueArgumentIPcNS0_16DefaultConverterIS2_EEEESaIS5_ELN9__gnu_cxx12_Lock_policyE2EED0Ev
FN:552,_ZNSt23_Sp_counted_ptr_inplaceIN8argparse19SingleValueArgumentIPcNS0_16DefaultConverterIS2_EEEESaIS5_ELN9__gnu_cxx12_Lock_policyE2EED2Ev
FNDA:0,_ZNSt23_Sp_counted_ptr_inplaceIN8argparse19SingleValueArgumentIPcNS0_16DefaultConverterIS2_EEEESaIS5_ELN9__gnu_cxx12_Lock_policyE2EED2Ev
FN:555,_ZNSt23_Sp_counted_ptr_inplaceIN8argparse19SingleValueArgumentIbNS0_16DefaultConverterIbEEEESaIS4_ELN9__gnu_cxx12_Lock_policyE2EE10_M_disposeEv
FNDA:0,_ZNSt23_Sp_counted_ptr_inplaceIN8argparse19SingleValueArgumentIbNS0_16DefaultConverterIbEEEESaIS4_ELN9__gnu_cxx12_Lock_policyE2EE10_M_disposeEv
FN:555,_ZNSt23_Sp_counted_ptr_inplaceIN8argparse19SingleValueArgumentIPcNS0_16DefaultConverterIS2_EEEESaIS5_ELN9__gnu_cxx12_Lock_policyE2EE10_M_disposeEv
FNDA:0,_ZNSt23_Sp_counted_ptr_inplaceIN8argparse19SingleValueArgumentIPcNS0_16DefaultConverterIS2_EEEESaIS5_ELN9__gnu_cxx12_Lock_policyE2EE10_M_disposeEv
FN:555,_ZNSt23_Sp_counted_ptr_inplaceIN8argparse19SingleValueArgumentIi17ParseInitRegStateEESaIS3_ELN9__gnu_cxx12_Lock_policyE2EE10_M_disposeEv
FNDA:0,_ZNSt23_Sp_counted_ptr_inplaceIN8argparse19SingleValueArgumentIi17ParseInitRegStateEESaIS3_ELN9__gnu_cxx12_Lock_policyE2EE10_M_disposeEv
FN:555,_ZNSt23_Sp_counted_ptr_inplaceIN8argparse19SingleValueArgumentIiNS0_16DefaultConverterIiEEEESaIS4_ELN9__gnu_cxx12_Lock_policyE2EE10_M_disposeEv
FNDA:0,_ZNSt23_Sp_counted_ptr_inplaceIN8argparse19SingleValueArgumentIiNS0_16DefaultConverterIiEEEESaIS4_ELN9__gnu_cxx12_Lock_policyE2EE10_M_disposeEv
FN:562,_ZNSt23_Sp_counted_ptr_inplaceIN8argparse19SingleValueArgumentIbNS0_16DefaultConverterIbEEEESaIS4_ELN9__gnu_cxx12_Lock_policyE2EE10_M_destroyEv
FNDA:0,_ZNSt23_Sp_counted_ptr_inplaceIN8argparse19SingleValueArgumentIbNS0_16DefaultConverterIbEEEESaIS4_ELN9__gnu_cxx12_Lock_policyE2EE10_M_destroyEv
FN:562,_ZNSt23_Sp_counted_ptr_inplaceIN8argparse19SingleValueArgumentIi17ParseInitRegStateEESaIS3_ELN9__gnu_cxx12_Lock_policyE2EE10_M_destroyEv
FNDA:0,_ZNSt23_Sp_counted_ptr_inplaceIN8argparse19SingleValueArgumentIi17ParseInitRegStateEESaIS3_ELN9__gnu_cxx12_Lock_policyE2EE10_M_destroyEv
FN:562,_ZNSt23_Sp_counted_ptr_inplaceIN8argparse19SingleValueArgumentIiNS0_16DefaultConverterIiEEEESaIS4_ELN9__gnu_cxx12_Lock_policyE2EE10_M_destroyEv
FNDA:0,_ZNSt23_Sp_counted_ptr_inplaceIN8argparse19SingleValueArgumentIiNS0_16DefaultConverterIiEEEESaIS4_ELN9__gnu_cxx12_Lock_policyE2EE10_M_destroyEv
FN:562,_ZNSt23_Sp_counted_ptr_inplaceIN8argparse19SingleValueArgumentIPcNS0_16DefaultConverterIS2_EEEESaIS5_ELN9__gnu_cxx12_Lock_policyE2EE10_M_destroyEv
FNDA:0,_ZNSt23_Sp_counted_ptr_inplaceIN8argparse19SingleValueArgumentIPcNS0_16DefaultConverterIS2_EEEESaIS5_ELN9__gnu_cxx12_Lock_policyE2EE10_M_destroyEv
FN:575,_ZNSt23_Sp_counted_ptr_inplaceIN8argparse19SingleValueArgumentIi17ParseInitRegStateEESaIS3_ELN9__gnu_cxx12_Lock_policyE2EE14_M_get_deleterERKSt9type_info
FNDA:0,_ZNSt23_Sp_counted_ptr_inplaceIN8argparse19SingleValueArgumentIi17ParseInitRegStateEESaIS3_ELN9__gnu_cxx12_Lock_policyE2EE14_M_get_deleterERKSt9type_info
FN:575,_ZNSt23_Sp_counted_ptr_inplaceIN8argparse19SingleValueArgumentIPcNS0_16DefaultConverterIS2_EEEESaIS5_ELN9__gnu_cxx12_Lock_policyE2EE14_M_get_deleterERKSt9type_info
FNDA:0,_ZNSt23_Sp_counted_ptr_inplaceIN8argparse19SingleValueArgumentIPcNS0_16DefaultConverterIS2_EEEESaIS5_ELN9__gnu_cxx12_Lock_policyE2EE14_M_get_deleterERKSt9type_info
FN:575,_ZNSt23_Sp_counted_ptr_inplaceIN8argparse19SingleValueArgumentIbNS0_16DefaultConverterIbEEEESaIS4_ELN9__gnu_cxx12_Lock_policyE2EE14_M_get_deleterERKSt9type_info
FNDA:0,_ZNSt23_Sp_counted_ptr_inplaceIN8argparse19SingleValueArgumentIbNS0_16DefaultConverterIbEEEESaIS4_ELN9__gnu_cxx12_Lock_policyE2EE14_M_get_deleterERKSt9type_info
FN:575,_ZNSt23_Sp_counted_ptr_inplaceIN8argparse19SingleValueArgumentIiNS0_16DefaultConverterIiEEEESaIS4_ELN9__gnu_cxx12_Lock_policyE2EE14_M_get_deleterERKSt9type_info
FNDA:0,_ZNSt23_Sp_counted_ptr_inplaceIN8argparse19SingleValueArgumentIiNS0_16DefaultConverterIiEEEESaIS4_ELN9__gnu_cxx12_Lock_policyE2EE14_M_get_deleterERKSt9type_info
FN:672,_ZNSt14__shared_countILN9__gnu_cxx12_Lock_policyE2EEC2IN8argparse19SingleValueArgumentIi17ParseInitRegStateEESaIS7_EJRNS4_8ArgValueIiEERNSt7__cxx1112basic_stringIcSt11char_traitsIcESaIcEEESI_EEERPT_St20_Sp_alloc_shared_tagIT0_EDpOT1_
FNDA:0,_ZNSt14__shared_countILN9__gnu_cxx12_Lock_policyE2EEC2IN8argparse19SingleValueArgumentIi17ParseInitRegStateEESaIS7_EJRNS4_8ArgValueIiEERNSt7__cxx1112basic_stringIcSt11char_traitsIcESaIcEEESI_EEERPT_St20_Sp_alloc_shared_tagIT0_EDpOT1_
FN:672,_ZNSt14__shared_countILN9__gnu_cxx12_Lock_policyE2EEC2IN8argparse19SingleValueArgumentIiNS4_16DefaultConverterIiEEEESaIS8_EJRNS4_8ArgValueIiEERNSt7__cxx1112basic_stringIcSt11char_traitsIcESaIcEEESJ_EEERPT_St20_Sp_alloc_shared_tagIT0_EDpOT1_
FNDA:0,_ZNSt14__shared_countILN9__gnu_cxx12_Lock_policyE2EEC2IN8argparse19SingleValueArgumentIiNS4_16DefaultConverterIiEEEESaIS8_EJRNS4_8ArgValueIiEERNSt7__cxx1112basic_stringIcSt11char_traitsIcESaIcEEESJ_EEERPT_St20_Sp_alloc_shared_tagIT0_EDpOT1_
FN:672,_ZNSt14__shared_countILN9__gnu_cxx12_Lock_policyE2EEC2IN8argparse19SingleValueArgumentIbNS4_16DefaultConverterIbEEEESaIS8_EJRNS4_8ArgValueIbEERNSt7__cxx1112basic_stringIcSt11char_traitsIcESaIcEEESJ_EEERPT_St20_Sp_alloc_shared_tagIT0_EDpOT1_
FNDA:0,_ZNSt14__shared_countILN9__gnu_cxx12_Lock_policyE2EEC2IN8argparse19SingleValueArgumentIbNS4_16DefaultConverterIbEEEESaIS8_EJRNS4_8ArgValueIbEERNSt7__cxx1112basic_stringIcSt11char_traitsIcESaIcEEESJ_EEERPT_St20_Sp_alloc_shared_tagIT0_EDpOT1_
FN:672,_ZNSt14__shared_countILN9__gnu_cxx12_Lock_policyE2EEC2IN8argparse19SingleValueArgumentIPcNS4_16DefaultConverterIS6_EEEESaIS9_EJRNS4_8ArgValueIS6_EERNSt7__cxx1112basic_stringIcSt11char_traitsIcESaIcEEESK_EEERPT_St20_Sp_alloc_shared_tagIT0_EDpOT1_
FNDA:0,_ZNSt14__shared_countILN9__gnu_cxx12_Lock_policyE2EEC2IN8argparse19SingleValueArgumentIPcNS4_16DefaultConverterIS6_EEEESaIS9_EJRNS4_8ArgValueIS6_EERNSt7__cxx1112basic_stringIcSt11char_traitsIcESaIcEEESK_EEERPT_St20_Sp_alloc_shared_tagIT0_EDpOT1_
DA:117,0
DA:118,0
DA:121,0
DA:131,0
DA:132,0
DA:148,0
DA:152,0
DA:155,0
DA:167,0
DA:171,0
DA:174,0
DA:404,0
DA:412,0
DA:414,0
DA:418,0
DA:508,0
DA:510,0
DA:511,0
DA:526,0
DA:531,0
DA:533,0
DA:543,0
DA:544,0
DA:548,0
DA:550,0
DA:552,0
DA:552,0
DA:552,0
DA:552,0
DA:552,0
DA:552,0
DA:552,0
DA:552,0
DA:552,0
DA:555,0
DA:557,0
DA:558,0
DA:555,0
DA:557,0
DA:558,0
DA:555,0
DA:557,0
DA:558,0
DA:555,0
DA:557,0
DA:558,0
DA:562,0
DA:564,0
DA:565,0
DA:566,0
DA:567,0
DA:562,0
DA:564,0
DA:565,0
DA:566,0
DA:567,0
DA:562,0
DA:564,0
DA:565,0
DA:566,0
DA:567,0
DA:562,0
DA:564,0
DA:565,0
DA:566,0
DA:567,0
DA:575,0
DA:577,0
DA:583,0
DA:585,0
DA:590,0
DA:575,0
DA:577,0
DA:583,0
DA:585,0
DA:590,0
DA:575,0
DA:577,0
DA:583,0
DA:585,0
DA:590,0
DA:575,0
DA:577,0
DA:583,0
DA:585,0
DA:590,0
DA:594,0
DA:616,0
DA:672,0
DA:676,0
DA:677,0
DA:678,0
DA:679,0
DA:680,0
DA:681,0
DA:682,0
DA:683,0
DA:684,0
DA:672,0
DA:676,0
DA:677,0
DA:678,0
DA:679,0
DA:680,0
DA:681,0
DA:682,0
DA:683,0
DA:684,0
DA:672,0
DA:676,0
DA:677,0
DA:678,0
DA:679,0
DA:680,0
DA:681,0
DA:682,0
DA:683,0
DA:684,0
DA:672,0
DA:676,0
DA:677,0
DA:678,0
DA:679,0
DA:680,0
DA:681,0
DA:682,0
DA:683,0
DA:684,0
DA:727,0
DA:729,0
DA:730,0
DA:756,0
DA:758,0
DA:759,0
DA:760,0
DA:1005,0
DA:1008,0
DA:1012,0
DA:1015,0
DA:1020,0
DA:1021,0
DA:1169,0
DA:1176,0
DA:1177,0
DA:1179,0
DA:1180,0
DA:1184,0
DA:1185,0
DA:1187,0
DA:1188,0
DA:1309,0
DA:1343,0
DA:1344,0
DA:1345,0
DA:1388,0
end_of_record
SF:/usr/include/c++/9/new
DA:173,0
DA:174,0
end_of_record
SF:/usr/include/c++/9/bits/stl_uninitialized.h
FN:76,_ZNSt20__uninitialized_copyILb0EE13__uninit_copyIN9__gnu_cxx17__normal_iteratorIPKNSt7__cxx1112basic_stringIcSt11char_traitsIcESaIcEEESt6vectorIS9_SaIS9_EEEEPS9_EET0_T_SI_SH_
FNDA:0,_ZNSt20__uninitialized_copyILb0EE13__uninit_copyIN9__gnu_cxx17__normal_iteratorIPKNSt7__cxx1112basic_stringIcSt11char_traitsIcESaIcEEESt6vectorIS9_SaIS9_EEEEPS9_EET0_T_SI_SH_
FN:76,_ZNSt20__uninitialized_copyILb0EE13__uninit_copyIPKNSt7__cxx1112basic_stringIcSt11char_traitsIcESaIcEEEPS7_EET0_T_SC_SB_
FNDA:0,_ZNSt20__uninitialized_copyILb0EE13__uninit_copyIPKNSt7__cxx1112basic_stringIcSt11char_traitsIcESaIcEEEPS7_EET0_T_SC_SB_
DA:76,0
DA:79,0
DA:82,0
DA:83,0
DA:84,0
DA:86,0
DA:88,0
DA:89,0
DA:76,0
DA:79,0
DA:82,0
DA:83,0
DA:84,0
DA:86,0
DA:88,0
DA:89,0
DA:115,0
DA:134,0
DA:140,0
DA:305,0
DA:307,0
DA:958,0
DA:964,0
end_of_record
SF:/usr/include/c++/9/bits/stl_iterator_base_funcs.h
DA:98,0
DA:104,0
DA:138,0
DA:141,0
end_of_record
SF:/usr/include/c++/9/ext/new_allocator.h
FN:144,_ZN9__gnu_cxx13new_allocatorIN8argparse19SingleValueArgumentIi17ParseInitRegStateEEE9constructIS4_JRNS1_8ArgValueIiEERNSt7__cxx1112basic_stringIcSt11char_traitsIcESaIcEEESG_EEEvPT_DpOT0_
FNDA:0,_ZN9__gnu_cxx13new_allocatorIN8argparse19SingleValueArgumentIi17ParseInitRegStateEEE9constructIS4_JRNS1_8ArgValueIiEERNSt7__cxx1112basic_stringIcSt11char_traitsIcESaIcEEESG_EEEvPT_DpOT0_
FN:144,_ZN9__gnu_cxx13new_allocatorIN8argparse19SingleValueArgumentIiNS1_16DefaultConverterIiEEEEE9constructIS5_JRNS1_8ArgValueIiEERNSt7__cxx1112basic_stringIcSt11char_traitsIcESaIcEEESH_EEEvPT_DpOT0_
FNDA:0,_ZN9__gnu_cxx13new_allocatorIN8argparse19SingleValueArgumentIiNS1_16DefaultConverterIiEEEEE9constructIS5_JRNS1_8ArgValueIiEERNSt7__cxx1112basic_stringIcSt11char_traitsIcESaIcEEESH_EEEvPT_DpOT0_
FN:144,_ZN9__gnu_cxx13new_allocatorIN8argparse19SingleValueArgumentIbNS1_16DefaultConverterIbEEEEE9constructIS5_JRNS1_8ArgValueIbEERNSt7__cxx1112basic_stringIcSt11char_traitsIcESaIcEEESH_EEEvPT_DpOT0_
FNDA:0,_ZN9__gnu_cxx13new_allocatorIN8argparse19SingleValueArgumentIbNS1_16DefaultConverterIbEEEEE9constructIS5_JRNS1_8ArgValueIbEERNSt7__cxx1112basic_stringIcSt11char_traitsIcESaIcEEESH_EEEvPT_DpOT0_
FN:144,_ZN9__gnu_cxx13new_allocatorIN8argparse19SingleValueArgumentIPcNS1_16DefaultConverterIS3_EEEEE9constructIS6_JRNS1_8ArgValueIS3_EERNSt7__cxx1112basic_stringIcSt11char_traitsIcESaIcEEESI_EEEvPT_DpOT0_
FNDA:0,_ZN9__gnu_cxx13new_allocatorIN8argparse19SingleValueArgumentIPcNS1_16DefaultConverterIS3_EEEEE9constructIS6_JRNS1_8ArgValueIS3_EERNSt7__cxx1112basic_stringIcSt11char_traitsIcESaIcEEESI_EEEvPT_DpOT0_
DA:80,0
DA:83,0
DA:89,0
DA:102,0
DA:104,0
DA:114,0
DA:119,0
DA:128,0
DA:132,0
DA:144,0
DA:147,0
DA:144,0
DA:147,0
DA:144,0
DA:147,0
DA:144,0
DA:147,0
DA:144,0
DA:147,0
DA:151,0
DA:153,0
end_of_record
SF:/usr/include/c++/9/bits/stl_vector.h
FN:550,_ZNSt6vectorINSt7__cxx1112basic_stringIcSt11char_traitsIcESaIcEEESaIS5_EEC2ERKS7_
FNDA:0,_ZNSt6vectorINSt7__cxx1112basic_stringIcSt11char_traitsIcESaIcEEESaIS5_EEC2ERKS7_
FN:622,_ZNSt6vectorINSt7__cxx1112basic_stringIcSt11char_traitsIcESaIcEEESaIS5_EEC2ESt16initializer_listIS5_ERKS6_
FNDA:0,_ZNSt6vectorINSt7__cxx1112basic_stringIcSt11char_traitsIcESaIcEEESaIS5_EEC2ESt16initializer_listIS5_ERKS6_
FN:675,_ZNSt6vectorI19t_wire_switchpointsSaIS0_EED2Ev
FNDA:0,_ZNSt6vectorI19t_wire_switchpointsSaIS0_EED2Ev
FN:675,_ZNSt6vectorISt10shared_ptrIN8argparse8ArgumentEESaIS3_EED2Ev
FNDA:0,_ZNSt6vectorISt10shared_ptrIN8argparse8ArgumentEESaIS3_EED2Ev
FN:675,_ZNSt6vectorI14t_grid_loc_defSaIS0_EED2Ev
FNDA:0,_ZNSt6vectorI14t_grid_loc_defSaIS0_EED2Ev
FN:675,_ZNSt6vectorI14t_wireconn_infSaIS0_EED2Ev
FNDA:0,_ZNSt6vectorI14t_wireconn_infSaIS0_EED2Ev
FN:675,_ZNSt6vectorIN8argparse13ArgumentGroupESaIS1_EED2Ev
FNDA:0,_ZNSt6vectorIN8argparse13ArgumentGroupESaIS1_EED2Ev
FN:675,_ZNSt6vectorI10t_grid_defSaIS0_EED2Ev
FNDA:0,_ZNSt6vectorI10t_grid_defSaIS0_EED2Ev
FN:675,_ZNSt6vectorI17t_switchblock_infSaIS0_EED2Ev
FNDA:0,_ZNSt6vectorI17t_switchblock_infSaIS0_EED2Ev
FN:675,_ZNSt6vectorINSt7__cxx1112basic_stringIcSt11char_traitsIcESaIcEEESaIS5_EED2Ev
FNDA:0,_ZNSt6vectorINSt7__cxx1112basic_stringIcSt11char_traitsIcESaIcEEESaIS5_EED2Ev
FN:1753,_ZNKSt6vectorISt10shared_ptrIN8argparse8ArgumentEESaIS3_EE12_M_check_lenEmPKc
FNDA:0,_ZNKSt6vectorISt10shared_ptrIN8argparse8ArgumentEESaIS3_EE12_M_check_lenEmPKc
DA:94,0
DA:95,0
DA:125,0
DA:128,0
DA:130,0
DA:133,0
DA:134,0
DA:273,0
DA:274,0
DA:277,0
DA:278,0
DA:285,0
DA:290,0
DA:291,0
DA:300,0
DA:301,0
DA:302,0
DA:330,0
DA:332,0
DA:333,0
DA:334,0
DA:347,0
DA:350,0
DA:351,0
DA:356,0
DA:358,0
DA:359,0
DA:360,0
DA:450,0
DA:453,0
DA:462,0
DA:466,0
DA:484,0
DA:550,0
DA:552,0
DA:554,0
DA:555,0
DA:557,0
DA:558,0
DA:622,0
DA:624,0
DA:626,0
DA:628,0
DA:675,0
DA:677,0
DA:678,0
DA:680,0
DA:675,0
DA:677,0
DA:678,0
DA:680,0
DA:675,0
DA:677,0
DA:678,0
DA:680,0
DA:675,0
DA:677,0
DA:678,0
DA:680,0
DA:675,0
DA:677,0
DA:678,0
DA:680,0
DA:675,0
DA:677,0
DA:678,0
DA:680,0
DA:675,0
DA:677,0
DA:678,0
DA:680,0
DA:675,0
DA:677,0
DA:678,0
DA:680,0
DA:808,0
DA:809,0
DA:817,0
DA:818,0
DA:826,0
DA:827,0
DA:835,0
DA:836,0
DA:915,0
DA:916,0
DA:920,0
DA:921,0
DA:1004,0
DA:1005,0
DA:1040,0
DA:1043,0
DA:1200,0
DA:1201,0
DA:1753,0
DA:1755,0
DA:1756,0
DA:1758,0
DA:1759,0
DA:1773,0
DA:1780,0
DA:1781,0
end_of_record
SF:/usr/include/c++/9/bits/vector.tcc
FN:109,_ZNSt6vectorISt10shared_ptrIN8argparse8ArgumentEESaIS3_EE12emplace_backIJS3_EEEvDpOT_
FNDA:0,_ZNSt6vectorISt10shared_ptrIN8argparse8ArgumentEESaIS3_EE12emplace_backIJS3_EEEvDpOT_
FN:426,_ZNSt6vectorISt10shared_ptrIN8argparse8ArgumentEESaIS3_EE17_M_realloc_insertIJS3_EEEvN9__gnu_cxx17__normal_iteratorIPS3_S5_EEDpOT_
FNDA:0,_ZNSt6vectorISt10shared_ptrIN8argparse8ArgumentEESaIS3_EE17_M_realloc_insertIJS3_EEEvN9__gnu_cxx17__normal_iteratorIPS3_S5_EEDpOT_
DA:109,0
DA:112,0
DA:115,0
DA:117,0
DA:121,0
DA:125,0
DA:426,0
DA:435,0
DA:437,0
DA:438,0
DA:439,0
DA:440,0
DA:441,0
DA:449,0
DA:450,0
DA:456,0
DA:461,0
DA:462,0
DA:464,0
DA:466,0
DA:467,0
DA:500,0
DA:501,0
DA:502,0
DA:503,0
DA:504,0
DA:505,0
end_of_record
SF:/usr/include/c++/9/bits/allocator.h
DA:138,0
DA:141,0
DA:142,0
DA:151,0
DA:153,0
end_of_record
SF:/workspace/vtr-verilog-to-routing/libs/EXTERNAL/libargparse/src/argparse_error.hpp
DA:7,0
DA:11,0
end_of_record
SF:/usr/include/c++/9/bits/char_traits.h
DA:299,0
DA:300,0
DA:315,0
DA:317,0
DA:325,0
DA:329,0
DA:335,0
DA:361,0
DA:363,0
DA:365,0
end_of_record
SF:/workspace/vtr-verilog-to-routing/libs/EXTERNAL/libargparse/src/argparse_default_converter.hpp
FN:41,_ZN8argparse16DefaultConverterIiE8from_strENSt7__cxx1112basic_stringIcSt11char_traitsIcESaIcEEE
FNDA:0,_ZN8argparse16DefaultConverterIiE8from_strENSt7__cxx1112basic_stringIcSt11char_traitsIcESaIcEEE
FN:93,_ZN8argparse16DefaultConverterIbE8from_strENSt7__cxx1112basic_stringIcSt11char_traitsIcESaIcEEE
FNDA:0,_ZN8argparse16DefaultConverterIbE8from_strENSt7__cxx1112basic_stringIcSt11char_traitsIcESaIcEEE
FN:114,_ZN8argparse16DefaultConverterIbE15default_choicesB5cxx11Ev
FNDA:0,_ZN8argparse16DefaultConverterIbE15default_choicesB5cxx11Ev
DA:18,0
DA:41,0
DA:42,0
DA:44,0
DA:45,0
DA:47,0
DA:48,0
DA:49,0
DA:51,0
DA:52,0
DA:53,0
DA:54,0
DA:55,0
DA:56,0
DA:57,0
DA:59,0
DA:61,0
DA:65,0
DA:84,0
DA:93,0
DA:94,0
DA:96,0
DA:97,0
DA:98,0
DA:99,0
DA:100,0
DA:102,0
DA:104,0
DA:114,0
DA:115,0
DA:171,0
end_of_record
SF:/usr/include/c++/9/typeinfo
DA:120,0
DA:122,0
DA:123,0
DA:124,0
end_of_record
SF:/usr/include/x86_64-linux-gnu/bits/stdio2.h
DA:105,0
DA:107,0
end_of_record
SF:/workspace/vtr-verilog-to-routing/libs/EXTERNAL/libargparse/src/argparse.hpp
FN:269,_ZN8argparse8ArgumentD2Ev
FNDA:0,_ZN8argparse8ArgumentD2Ev
FN:269,_ZN8argparse8ArgumentD0Ev
FNDA:0,_ZN8argparse8ArgumentD0Ev
FN:297,_ZN8argparse19SingleValueArgumentIi17ParseInitRegStateEC2ERNS_8ArgValueIiEENSt7__cxx1112basic_stringIcSt11char_traitsIcESaIcEEESB_
FNDA:0,_ZN8argparse19SingleValueArgumentIi17ParseInitRegStateEC2ERNS_8ArgValueIiEENSt7__cxx1112basic_stringIcSt11char_traitsIcESaIcEEESB_
FN:297,_ZN8argparse19SingleValueArgumentIiNS_16DefaultConverterIiEEEC2ERNS_8ArgValueIiEENSt7__cxx1112basic_stringIcSt11char_traitsIcESaIcEEESC_
FNDA:0,_ZN8argparse19SingleValueArgumentIiNS_16DefaultConverterIiEEEC2ERNS_8ArgValueIiEENSt7__cxx1112basic_stringIcSt11char_traitsIcESaIcEEESC_
FN:297,_ZN8argparse19SingleValueArgumentIPcNS_16DefaultConverterIS1_EEEC2ERNS_8ArgValueIS1_EENSt7__cxx1112basic_stringIcSt11char_traitsIcESaIcEEESD_
FNDA:0,_ZN8argparse19SingleValueArgumentIPcNS_16DefaultConverterIS1_EEEC2ERNS_8ArgValueIS1_EENSt7__cxx1112basic_stringIcSt11char_traitsIcESaIcEEESD_
FN:302,_ZN8argparse19SingleValueArgumentIPcNS_16DefaultConverterIS1_EEE19set_dest_to_defaultEv
FNDA:0,_ZN8argparse19SingleValueArgumentIPcNS_16DefaultConverterIS1_EEE19set_dest_to_defaultEv
FN:302,_ZN8argparse19SingleValueArgumentIi17ParseInitRegStateE19set_dest_to_defaultEv
FNDA:0,_ZN8argparse19SingleValueArgumentIi17ParseInitRegStateE19set_dest_to_defaultEv
FN:302,_ZN8argparse19SingleValueArgumentIiNS_16DefaultConverterIiEEE19set_dest_to_defaultEv
FNDA:0,_ZN8argparse19SingleValueArgumentIiNS_16DefaultConverterIiEEE19set_dest_to_defaultEv
FN:308,_ZN8argparse19SingleValueArgumentIPcNS_16DefaultConverterIS1_EEE17set_dest_to_valueENSt7__cxx1112basic_stringIcSt11char_traitsIcESaIcEEE
FNDA:0,_ZN8argparse19SingleValueArgumentIPcNS_16DefaultConverterIS1_EEE17set_dest_to_valueENSt7__cxx1112basic_stringIcSt11char_traitsIcESaIcEEE
FN:308,_ZN8argparse19SingleValueArgumentIi17ParseInitRegStateE17set_dest_to_valueENSt7__cxx1112basic_stringIcSt11char_traitsIcESaIcEEE
FNDA:0,_ZN8argparse19SingleValueArgumentIi17ParseInitRegStateE17set_dest_to_valueENSt7__cxx1112basic_stringIcSt11char_traitsIcESaIcEEE
FN:308,_ZN8argparse19SingleValueArgumentIiNS_16DefaultConverterIiEEE17set_dest_to_valueENSt7__cxx1112basic_stringIcSt11char_traitsIcESaIcEEE
FNDA:0,_ZN8argparse19SingleValueArgumentIiNS_16DefaultConverterIiEEE17set_dest_to_valueENSt7__cxx1112basic_stringIcSt11char_traitsIcESaIcEEE
FN:319,_ZN8argparse19SingleValueArgumentIPcNS_16DefaultConverterIS1_EEE17add_value_to_destENSt7__cxx1112basic_stringIcSt11char_traitsIcESaIcEEE
FNDA:0,_ZN8argparse19SingleValueArgumentIPcNS_16DefaultConverterIS1_EEE17add_value_to_destENSt7__cxx1112basic_stringIcSt11char_traitsIcESaIcEEE
FN:319,_ZN8argparse19SingleValueArgumentIi17ParseInitRegStateE17add_value_to_destENSt7__cxx1112basic_stringIcSt11char_traitsIcESaIcEEE
FNDA:0,_ZN8argparse19SingleValueArgumentIi17ParseInitRegStateE17add_value_to_destENSt7__cxx1112basic_stringIcSt11char_traitsIcESaIcEEE
FN:319,_ZN8argparse19SingleValueArgumentIiNS_16DefaultConverterIiEEE17add_value_to_destENSt7__cxx1112basic_stringIcSt11char_traitsIcESaIcEEE
FNDA:0,_ZN8argparse19SingleValueArgumentIiNS_16DefaultConverterIiEEE17add_value_to_destENSt7__cxx1112basic_stringIcSt11char_traitsIcESaIcEEE
FN:323,_ZN8argparse19SingleValueArgumentIPcNS_16DefaultConverterIS1_EEE16set_dest_to_trueEv
FNDA:0,_ZN8argparse19SingleValueArgumentIPcNS_16DefaultConverterIS1_EEE16set_dest_to_trueEv
FN:323,_ZN8argparse19SingleValueArgumentIi17ParseInitRegStateE16set_dest_to_trueEv
FNDA:0,_ZN8argparse19SingleValueArgumentIi17ParseInitRegStateE16set_dest_to_trueEv
FN:323,_ZN8argparse19SingleValueArgumentIiNS_16DefaultConverterIiEEE16set_dest_to_trueEv
FNDA:0,_ZN8argparse19SingleValueArgumentIiNS_16DefaultConverterIiEEE16set_dest_to_trueEv
FN:326,_ZN8argparse19SingleValueArgumentIiNS_16DefaultConverterIiEEE17set_dest_to_falseEv
FNDA:0,_ZN8argparse19SingleValueArgumentIiNS_16DefaultConverterIiEEE17set_dest_to_falseEv
FN:326,_ZN8argparse19SingleValueArgumentIi17ParseInitRegStateE17set_dest_to_falseEv
FNDA:0,_ZN8argparse19SingleValueArgumentIi17ParseInitRegStateE17set_dest_to_falseEv
FN:326,_ZN8argparse19SingleValueArgumentIPcNS_16DefaultConverterIS1_EEE17set_dest_to_falseEv
FNDA:0,_ZN8argparse19SingleValueArgumentIPcNS_16DefaultConverterIS1_EEE17set_dest_to_falseEv
FN:330,_ZN8argparse19SingleValueArgumentIPcNS_16DefaultConverterIS1_EEE12valid_actionEv
FNDA:0,_ZN8argparse19SingleValueArgumentIPcNS_16DefaultConverterIS1_EEE12valid_actionEv
FN:330,_ZN8argparse19SingleValueArgumentIiNS_16DefaultConverterIiEEE12valid_actionEv
FNDA:0,_ZN8argparse19SingleValueArgumentIiNS_16DefaultConverterIiEEE12valid_actionEv
FN:330,_ZN8argparse19SingleValueArgumentIi17ParseInitRegStateE12valid_actionEv
FNDA:0,_ZN8argparse19SingleValueArgumentIi17ParseInitRegStateE12valid_actionEv
FN:346,_ZN8argparse19SingleValueArgumentIiNS_16DefaultConverterIiEEE10reset_destEv
FNDA:0,_ZN8argparse19SingleValueArgumentIiNS_16DefaultConverterIiEEE10reset_destEv
FN:346,_ZN8argparse19SingleValueArgumentIPcNS_16DefaultConverterIS1_EEE10reset_destEv
FNDA:0,_ZN8argparse19SingleValueArgumentIPcNS_16DefaultConverterIS1_EEE10reset_destEv
FN:346,_ZN8argparse19SingleValueArgumentIi17ParseInitRegStateE10reset_destEv
FNDA:0,_ZN8argparse19SingleValueArgumentIi17ParseInitRegStateE10reset_destEv
FN:350,_ZN8argparse19SingleValueArgumentIPcNS_16DefaultConverterIS1_EEE14is_valid_valueENSt7__cxx1112basic_stringIcSt11char_traitsIcESaIcEEE
FNDA:0,_ZN8argparse19SingleValueArgumentIPcNS_16DefaultConverterIS1_EEE14is_valid_valueENSt7__cxx1112basic_stringIcSt11char_traitsIcESaIcEEE
FN:350,_ZN8argparse19SingleValueArgumentIi17ParseInitRegStateE14is_valid_valueENSt7__cxx1112basic_stringIcSt11char_traitsIcESaIcEEE
FNDA:0,_ZN8argparse19SingleValueArgumentIi17ParseInitRegStateE14is_valid_valueENSt7__cxx1112basic_stringIcSt11char_traitsIcESaIcEEE
FN:350,_ZN8argparse19SingleValueArgumentIiNS_16DefaultConverterIiEEE14is_valid_valueENSt7__cxx1112basic_stringIcSt11char_traitsIcESaIcEEE
FNDA:0,_ZN8argparse19SingleValueArgumentIiNS_16DefaultConverterIiEEE14is_valid_valueENSt7__cxx1112basic_stringIcSt11char_traitsIcESaIcEEE
FN:367,_ZN8argparse19SingleValueArgumentIbNS_16DefaultConverterIbEEEC2ERNS_8ArgValueIbEENSt7__cxx1112basic_stringIcSt11char_traitsIcESaIcEEESC_
FNDA:0,_ZN8argparse19SingleValueArgumentIbNS_16DefaultConverterIbEEEC2ERNS_8ArgValueIbEENSt7__cxx1112basic_stringIcSt11char_traitsIcESaIcEEESC_
FN:372,_ZN8argparse19SingleValueArgumentIbNS_16DefaultConverterIbEEE19set_dest_to_defaultEv
FNDA:0,_ZN8argparse19SingleValueArgumentIbNS_16DefaultConverterIbEEE19set_dest_to_defaultEv
FN:378,_ZN8argparse19SingleValueArgumentIbNS_16DefaultConverterIbEEE17add_value_to_destENSt7__cxx1112basic_stringIcSt11char_traitsIcESaIcEEE
FNDA:0,_ZN8argparse19SingleValueArgumentIbNS_16DefaultConverterIbEEE17add_value_to_destENSt7__cxx1112basic_stringIcSt11char_traitsIcESaIcEEE
FN:382,_ZN8argparse19SingleValueArgumentIbNS_16DefaultConverterIbEEE17set_dest_to_valueENSt7__cxx1112basic_stringIcSt11char_traitsIcESaIcEEE
FNDA:0,_ZN8argparse19SingleValueArgumentIbNS_16DefaultConverterIbEEE17set_dest_to_valueENSt7__cxx1112basic_stringIcSt11char_traitsIcESaIcEEE
FN:393,_ZN8argparse19SingleValueArgumentIbNS_16DefaultConverterIbEEE16set_dest_to_trueEv
FNDA:0,_ZN8argparse19SingleValueArgumentIbNS_16DefaultConverterIbEEE16set_dest_to_trueEv
FN:402,_ZN8argparse19SingleValueArgumentIbNS_16DefaultConverterIbEEE17set_dest_to_falseEv
FNDA:0,_ZN8argparse19SingleValueArgumentIbNS_16DefaultConverterIbEEE17set_dest_to_falseEv
FN:411,_ZN8argparse19SingleValueArgumentIbNS_16DefaultConverterIbEEE12valid_actionEv
FNDA:0,_ZN8argparse19SingleValueArgumentIbNS_16DefaultConverterIbEEE12valid_actionEv
FN:416,_ZN8argparse19SingleValueArgumentIbNS_16DefaultConverterIbEEE10reset_destEv
FNDA:0,_ZN8argparse19SingleValueArgumentIbNS_16DefaultConverterIbEEE10reset_destEv
FN:420,_ZN8argparse19SingleValueArgumentIbNS_16DefaultConverterIbEEE14is_valid_valueENSt7__cxx1112basic_stringIcSt11char_traitsIcESaIcEEE
FNDA:0,_ZN8argparse19SingleValueArgumentIbNS_16DefaultConverterIbEEE14is_valid_valueENSt7__cxx1112basic_stringIcSt11char_traitsIcESaIcEEE
DA:269,0
DA:269,0
DA:297,0
DA:299,0
DA:300,0
DA:297,0
DA:299,0
DA:300,0
DA:297,0
DA:299,0
DA:300,0
DA:302,0
DA:303,0
DA:304,0
DA:305,0
DA:306,0
DA:302,0
DA:303,0
DA:304,0
DA:305,0
DA:306,0
DA:302,0
DA:303,0
DA:304,0
DA:305,0
DA:306,0
DA:308,0
DA:309,0
DA:310,0
DA:311,0
DA:314,0
DA:315,0
DA:316,0
DA:317,0
DA:308,0
DA:309,0
DA:310,0
DA:311,0
DA:314,0
DA:315,0
DA:316,0
DA:317,0
DA:308,0
DA:309,0
DA:310,0
DA:311,0
DA:314,0
DA:315,0
DA:316,0
DA:317,0
DA:319,0
DA:320,0
DA:319,0
DA:320,0
DA:319,0
DA:320,0
DA:323,0
DA:324,0
DA:323,0
DA:324,0
DA:323,0
DA:324,0
DA:326,0
DA:327,0
DA:326,0
DA:327,0
DA:326,0
DA:327,0
DA:330,0
DA:332,0
DA:333,0
DA:334,0
DA:335,0
DA:336,0
DA:337,0
DA:338,0
DA:339,0
DA:340,0
DA:341,0
DA:343,0
DA:330,0
DA:332,0
DA:333,0
DA:334,0
DA:335,0
DA:336,0
DA:337,0
DA:338,0
DA:339,0
DA:340,0
DA:341,0
DA:343,0
DA:330,0
DA:332,0
DA:333,0
DA:334,0
DA:335,0
DA:336,0
DA:337,0
DA:338,0
DA:339,0
DA:340,0
DA:341,0
DA:343,0
DA:346,0
DA:347,0
DA:348,0
DA:346,0
DA:347,0
DA:348,0
DA:346,0
DA:347,0
DA:348,0
DA:350,0
DA:351,0
DA:353,0
DA:356,0
DA:350,0
DA:351,0
DA:353,0
DA:356,0
DA:350,0
DA:351,0
DA:353,0
DA:356,0
DA:367,0
DA:369,0
DA:370,0
DA:372,0
DA:373,0
DA:374,0
DA:375,0
DA:376,0
DA:378,0
DA:379,0
DA:382,0
DA:383,0
DA:384,0
DA:385,0
DA:388,0
DA:389,0
DA:390,0
DA:391,0
DA:393,0
DA:394,0
DA:395,0
DA:397,0
DA:398,0
DA:399,0
DA:400,0
DA:402,0
DA:403,0
DA:404,0
DA:406,0
DA:407,0
DA:408,0
DA:409,0
DA:411,0
DA:413,0
DA:416,0
DA:417,0
DA:418,0
DA:420,0
DA:421,0
DA:423,0
DA:426,0
end_of_record
SF:/workspace/vtr-verilog-to-routing/ODIN_II/SRC/odin_ii.cpp
FN:75,main
FNDA:0,main
FN:255,_ZN17ParseInitRegState8from_strENSt7__cxx1112basic_stringIcSt11char_traitsIcESaIcEEE
FNDA:0,_ZN17ParseInitRegState8from_strENSt7__cxx1112basic_stringIcSt11char_traitsIcESaIcEEE
FN:273,_ZN17ParseInitRegState15default_choicesB5cxx11Ev
FNDA:0,_ZN17ParseInitRegState15default_choicesB5cxx11Ev
FN:281,_Z11get_optionsiPPc
FNDA:0,_Z11get_optionsiPPc
FN:444,_Z18set_default_configv
FNDA:0,_Z18set_default_configv
DA:75,0
DA:77,0
DA:78,0
DA:81,0
DA:82,0
DA:83,0
DA:86,0
DA:87,0
DA:88,0
DA:91,0
DA:94,0
DA:97,0
DA:99,0
DA:100,0
DA:104,0
DA:106,0
DA:107,0
DA:108,0
DA:109,0
DA:110,0
DA:112,0
DA:113,0
DA:114,0
DA:119,0
DA:122,0
DA:124,0
DA:125,0
DA:127,0
DA:128,0
DA:130,0
DA:133,0
DA:134,0
DA:136,0
DA:137,0
DA:139,0
DA:142,0
DA:145,0
DA:147,0
DA:152,0
DA:153,0
DA:157,0
DA:159,0
DA:162,0
DA:167,0
DA:168,0
DA:171,0
DA:172,0
DA:173,0
DA:176,0
DA:179,0
DA:180,0
DA:183,0
DA:186,0
DA:187,0
DA:188,0
DA:191,0
DA:192,0
DA:193,0
DA:198,0
DA:199,0
DA:204,0
DA:205,0
DA:208,0
DA:212,0
DA:213,0
DA:215,0
DA:217,0
DA:218,0
DA:219,0
DA:220,0
DA:223,0
DA:228,0
DA:229,0
DA:230,0
DA:231,0
DA:236,0
DA:237,0
DA:238,0
DA:239,0
DA:242,0
DA:243,0
DA:244,0
DA:245,0
DA:248,0
DA:249,0
DA:255,0
DA:256,0
DA:257,0
DA:258,0
DA:259,0
DA:260,0
DA:261,0
DA:273,0
DA:274,0
DA:281,0
DA:283,0
DA:285,0
DA:287,0
DA:288,0
DA:289,0
DA:291,0
DA:292,0
DA:293,0
DA:295,0
DA:296,0
DA:297,0
DA:299,0
DA:301,0
DA:302,0
DA:303,0
DA:304,0
DA:306,0
DA:308,0
DA:309,0
DA:310,0
DA:312,0
DA:313,0
DA:314,0
DA:316,0
DA:317,0
DA:318,0
DA:319,0
DA:321,0
DA:322,0
DA:323,0
DA:324,0
DA:326,0
DA:327,0
DA:328,0
DA:329,0
DA:331,0
DA:332,0
DA:333,0
DA:334,0
DA:336,0
DA:337,0
DA:338,0
DA:339,0
DA:342,0
DA:344,0
DA:345,0
DA:346,0
DA:348,0
DA:349,0
DA:350,0
DA:351,0
DA:353,0
DA:354,0
DA:355,0
DA:357,0
DA:358,0
DA:359,0
DA:362,0
DA:364,0
DA:365,0
DA:366,0
DA:368,0
DA:369,0
DA:370,0
DA:372,0
DA:374,0
DA:375,0
DA:376,0
DA:377,0
DA:379,0
DA:380,0
DA:381,0
DA:382,0
DA:384,0
DA:385,0
DA:386,0
DA:387,0
DA:389,0
DA:390,0
DA:391,0
DA:392,0
DA:394,0
DA:395,0
DA:396,0
DA:397,0
DA:399,0
DA:407,0
DA:408,0
DA:410,0
DA:413,0
DA:414,0
DA:415,0
DA:416,0
DA:417,0
DA:419,0
DA:420,0
DA:424,0
DA:425,0
DA:427,0
DA:428,0
DA:430,0
DA:431,0
DA:433,0
DA:434,0
DA:436,0
DA:437,0
DA:439,0
DA:444,0
DA:447,0
DA:448,0
DA:449,0
DA:450,0
DA:451,0
DA:452,0
DA:453,0
DA:454,0
DA:455,0
DA:457,0
DA:458,0
DA:460,0
DA:461,0
DA:467,0
DA:468,0
DA:469,0
end_of_record
SF:/usr/include/c++/9/bits/ptr_traits.h
DA:146,0
DA:147,0
DA:156,0
end_of_record
SF:/usr/include/c++/9/bits/basic_string.tcc
FN:206,_ZNSt7__cxx1112basic_stringIcSt11char_traitsIcESaIcEE12_M_constructIPcEEvT_S7_St20forward_iterator_tag
FNDA:0,_ZNSt7__cxx1112basic_stringIcSt11char_traitsIcESaIcEE12_M_constructIPcEEvT_S7_St20forward_iterator_tag
FN:206,_ZNSt7__cxx1112basic_stringIcSt11char_traitsIcESaIcEE12_M_constructIPKcEEvT_S8_St20forward_iterator_tag
FNDA:0,_ZNSt7__cxx1112basic_stringIcSt11char_traitsIcESaIcEE12_M_constructIPKcEEvT_S8_St20forward_iterator_tag
FN:1158,_ZStplIcSt11char_traitsIcESaIcEENSt7__cxx1112basic_stringIT_T0_T1_EEPKS5_RKS8_
FNDA:0,_ZStplIcSt11char_traitsIcESaIcEENSt7__cxx1112basic_stringIT_T0_T1_EEPKS5_RKS8_
DA:206,0
DA:211,0
DA:212,0
DA:215,0
DA:217,0
DA:219,0
DA:220,0
DA:225,0
DA:232,0
DA:233,0
DA:206,0
DA:211,0
DA:212,0
DA:215,0
DA:217,0
DA:219,0
DA:220,0
DA:225,0
DA:232,0
DA:233,0
DA:1158,0
DA:1164,0
DA:1165,0
DA:1166,0
DA:1167,0
DA:1168,0
DA:1169,0
end_of_record
SF:/usr/include/c++/9/bits/stl_pair.h
DA:208,0
end_of_record
SF:/usr/include/c++/9/ostream
DA:565,0
DA:568,0
DA:570,0
DA:571,0
end_of_record
SF:/usr/include/c++/9/sstream
DA:831,0
DA:832,0
end_of_record
SF:/usr/include/c++/9/bits/stl_iterator.h
DA:806,0
DA:807,0
DA:819,0
DA:827,0
DA:829,0
DA:830,0
DA:871,0
DA:893,0
DA:896,0
DA:907,0
DA:910,0
DA:989,0
DA:992,0
end_of_record
SF:/usr/include/c++/9/bits/stl_construct.h
DA:74,0
DA:75,0
DA:97,0
DA:98,0
DA:105,0
DA:107,0
DA:108,0
DA:127,0
DA:137,0
DA:203,0
DA:206,0
end_of_record
SF:/usr/include/c++/9/bits/unique_ptr.h
end_of_record
SF:/usr/include/c++/9/tuple
end_of_record
SF:/usr/include/c++/9/ext/type_traits.h
DA:152,0
end_of_record
SF:/usr/include/c++/9/bits/stl_tree.h
FN:1907,_ZNSt8_Rb_treeI18SB_Side_ConnectionSt4pairIKS0_St6vectorINSt7__cxx1112basic_stringIcSt11char_traitsIcESaIcEEESaIS9_EEESt10_Select1stISC_ESt4lessIS0_ESaISC_EE8_M_eraseEPSt13_Rb_tree_nodeISC_E
FNDA:0,_ZNSt8_Rb_treeI18SB_Side_ConnectionSt4pairIKS0_St6vectorINSt7__cxx1112basic_stringIcSt11char_traitsIcESaIcEEESaIS9_EEESt10_Select1stISC_ESt4lessIS0_ESaISC_EE8_M_eraseEPSt13_Rb_tree_nodeISC_E
DA:234,0
DA:235,0
DA:566,0
DA:567,0
DA:583,0
DA:584,0
DA:637,0
DA:642,0
DA:643,0
DA:648,0
DA:650,0
DA:651,0
DA:789,0
DA:797,0
DA:1907,0
DA:1911,0
DA:1913,0
DA:1914,0
DA:1915,0
DA:1916,0
DA:1918,0
end_of_record
SF:/usr/include/c++/9/bits/shared_ptr.h
DA:103,0
DA:254,0
DA:255,0
DA:263,0
DA:264,0
DA:358,0
DA:359,0
DA:699,0
DA:702,0
DA:714,0
DA:718,0
end_of_record
SF:/usr/include/c++/9/ext/atomicity.h
DA:48,0
DA:49,0
DA:65,0
DA:67,0
DA:68,0
DA:69,0
DA:78,0
DA:81,0
DA:82,0
DA:84,0
end_of_record
SF:/usr/include/c++/9/bits/stl_map.h
end_of_record
SF:/workspace/vtr-verilog-to-routing/libs/EXTERNAL/libargparse/src/argparse_util.tpp
FN:22,_ZN8argparse4joinISt6vectorINSt7__cxx1112basic_stringIcSt11char_traitsIcESaIcEEESaIS7_EEEES7_T_S7_
FNDA:0,_ZN8argparse4joinISt6vectorINSt7__cxx1112basic_stringIcSt11char_traitsIcESaIcEEESaIS7_EEEES7_T_S7_
DA:22,0
DA:23,0
DA:25,0
DA:26,0
DA:27,0
DA:28,0
DA:29,0
DA:32,0
end_of_record
SF:/usr/include/c++/9/streambuf
end_of_record
SF:/usr/include/c++/9/bits/basic_ios.h
DA:137,0
DA:190,0
DA:191,0
DA:201,0
DA:202,0
end_of_record
SF:/usr/include/c++/9/bits/stl_algobase.h
DA:198,0
DA:222,0
DA:227,0
DA:228,0
DA:280,0
end_of_record
SF:/usr/include/x86_64-linux-gnu/c++/9/bits/gthr-default.h
DA:248,0
DA:250,0
DA:252,0
end_of_record
TN:
SF:/usr/include/c++/9/bits/locale_classes.h
DA:719,0
DA:720,0
end_of_record
SF:/usr/include/c++/9/bits/stl_stack.h
DA:99,0
DA:156,0
DA:157,0
DA:193,0
DA:194,0
DA:206,0
DA:209,0
DA:233,0
DA:234,0
DA:238,0
DA:239,0
DA:266,0
DA:269,0
end_of_record
SF:/usr/include/c++/9/bits/regex_executor.h
FN:69,_ZNSt8__detail9_ExecutorIN9__gnu_cxx17__normal_iteratorIPKcNSt7__cxx1112basic_stringIcSt11char_traitsIcESaIcEEEEESaINS5_9sub_matchISB_EEENS5_12regex_traitsIcEELb1EEC2ESB_SB_RSt6vectorISD_SE_ERKNS5_11basic_regexIcSG_EENSt15regex_constants15match_flag_typeE
FNDA:0,_ZNSt8__detail9_ExecutorIN9__gnu_cxx17__normal_iteratorIPKcNSt7__cxx1112basic_stringIcSt11char_traitsIcESaIcEEEEESaINS5_9sub_matchISB_EEENS5_12regex_traitsIcEELb1EEC2ESB_SB_RSt6vectorISD_SE_ERKNS5_11basic_regexIcSG_EENSt15regex_constants15match_flag_typeE
FN:69,_ZNSt8__detail9_ExecutorIN9__gnu_cxx17__normal_iteratorIPKcNSt7__cxx1112basic_stringIcSt11char_traitsIcESaIcEEEEESaINS5_9sub_matchISB_EEENS5_12regex_traitsIcEELb0EEC2ESB_SB_RSt6vectorISD_SE_ERKNS5_11basic_regexIcSG_EENSt15regex_constants15match_flag_typeE
FNDA:0,_ZNSt8__detail9_ExecutorIN9__gnu_cxx17__normal_iteratorIPKcNSt7__cxx1112basic_stringIcSt11char_traitsIcESaIcEEEEESaINS5_9sub_matchISB_EEENS5_12regex_traitsIcEELb0EEC2ESB_SB_RSt6vectorISD_SE_ERKNS5_11basic_regexIcSG_EENSt15regex_constants15match_flag_typeE
FN:158,_ZNKSt8__detail9_ExecutorIN9__gnu_cxx17__normal_iteratorIPKcNSt7__cxx1112basic_stringIcSt11char_traitsIcESaIcEEEEESaINS5_9sub_matchISB_EEENS5_12regex_traitsIcEELb1EE10_M_is_wordEc
FNDA:0,_ZNKSt8__detail9_ExecutorIN9__gnu_cxx17__normal_iteratorIPKcNSt7__cxx1112basic_stringIcSt11char_traitsIcESaIcEEEEESaINS5_9sub_matchISB_EEENS5_12regex_traitsIcEELb1EE10_M_is_wordEc
FN:158,_ZNKSt8__detail9_ExecutorIN9__gnu_cxx17__normal_iteratorIPKcNSt7__cxx1112basic_stringIcSt11char_traitsIcESaIcEEEEESaINS5_9sub_matchISB_EEENS5_12regex_traitsIcEELb0EE10_M_is_wordEc
FNDA:0,_ZNKSt8__detail9_ExecutorIN9__gnu_cxx17__normal_iteratorIPKcNSt7__cxx1112basic_stringIcSt11char_traitsIcESaIcEEEEESaINS5_9sub_matchISB_EEENS5_12regex_traitsIcEELb0EE10_M_is_wordEc
FN:194,_ZNSt8__detail9_ExecutorIN9__gnu_cxx17__normal_iteratorIPKcNSt7__cxx1112basic_stringIcSt11char_traitsIcESaIcEEEEESaINS5_9sub_matchISB_EEENS5_12regex_traitsIcEELb0EE11_State_infoISt17integral_constantIbLb0EESt6vectorISD_SE_EEC2Elm
FNDA:0,_ZNSt8__detail9_ExecutorIN9__gnu_cxx17__normal_iteratorIPKcNSt7__cxx1112basic_stringIcSt11char_traitsIcESaIcEEEEESaINS5_9sub_matchISB_EEENS5_12regex_traitsIcEELb0EE11_State_infoISt17integral_constantIbLb0EESt6vectorISD_SE_EEC2Elm
DA:69,0
DA:77,0
DA:80,0
DA:81,0
DA:84,0
DA:85,0
DA:86,0
DA:69,0
DA:77,0
DA:80,0
DA:81,0
DA:84,0
DA:85,0
DA:86,0
DA:98,0
DA:100,0
DA:101,0
DA:148,0
DA:149,0
DA:158,0
DA:161,0
DA:162,0
DA:158,0
DA:161,0
DA:162,0
DA:166,0
DA:168,0
DA:169,0
DA:174,0
DA:176,0
DA:177,0
DA:194,0
DA:195,0
DA:196,0
DA:198,0
DA:200,0
DA:202,0
DA:206,0
DA:207,0
DA:224,0
DA:228,0
DA:231,0
end_of_record
SF:/usr/include/c++/9/bits/basic_string.tcc
FN:206,_ZNSt7__cxx1112basic_stringIcSt11char_traitsIcESaIcEE12_M_constructIN9__gnu_cxx17__normal_iteratorIPcS4_EEEEvT_SA_St20forward_iterator_tag
FNDA:0,_ZNSt7__cxx1112basic_stringIcSt11char_traitsIcESaIcEE12_M_constructIN9__gnu_cxx17__normal_iteratorIPcS4_EEEEvT_SA_St20forward_iterator_tag
FN:206,_ZNSt7__cxx1112basic_stringIcSt11char_traitsIcESaIcEE12_M_constructIPcEEvT_S7_St20forward_iterator_tag
FNDA:0,_ZNSt7__cxx1112basic_stringIcSt11char_traitsIcESaIcEE12_M_constructIPcEEvT_S7_St20forward_iterator_tag
FN:206,_ZNSt7__cxx1112basic_stringIcSt11char_traitsIcESaIcEE12_M_constructIPKcEEvT_S8_St20forward_iterator_tag
FNDA:0,_ZNSt7__cxx1112basic_stringIcSt11char_traitsIcESaIcEE12_M_constructIPKcEEvT_S8_St20forward_iterator_tag
DA:206,0
DA:211,0
DA:215,0
DA:217,0
DA:219,0
DA:220,0
DA:225,0
DA:232,0
DA:233,0
DA:206,0
DA:211,0
DA:212,0
DA:215,0
DA:217,0
DA:219,0
DA:220,0
DA:225,0
DA:232,0
DA:233,0
DA:206,0
DA:211,0
DA:212,0
DA:215,0
DA:217,0
DA:219,0
DA:220,0
DA:225,0
DA:232,0
DA:233,0
end_of_record
SF:/usr/include/c++/9/bits/regex_error.h
FN:170,_ZSt19__throw_regex_errorNSt15regex_constants10error_typeEPKc
FNDA:0,_ZSt19__throw_regex_errorNSt15regex_constants10error_typeEPKc
DA:157,0
DA:158,0
DA:170,0
DA:171,0
end_of_record
SF:/usr/include/c++/9/bits/stl_pair.h
FN:303,_ZNSt4pairINSt7__cxx1112basic_stringIcSt11char_traitsIcESaIcEEES5_EC2ERKS6_
FNDA:0,_ZNSt4pairINSt7__cxx1112basic_stringIcSt11char_traitsIcESaIcEEES5_EC2ERKS6_
DA:208,0
DA:229,0
DA:230,0
DA:303,0
DA:304,0
DA:311,0
DA:312,0
DA:325,0
DA:326,0
DA:341,0
DA:342,0
DA:378,0
DA:383,0
DA:384,0
DA:524,0
DA:529,0
end_of_record
SF:/usr/include/c++/9/bits/ptr_traits.h
DA:146,0
DA:147,0
DA:156,0
end_of_record
SF:/usr/include/x86_64-linux-gnu/bits/stdio2.h
DA:34,0
DA:36,0
DA:37,0
DA:77,0
DA:80,0
DA:98,0
DA:100,0
DA:127,0
DA:130,0
end_of_record
SF:/usr/include/c++/9/bits/regex_compiler.h
FN:140,_ZNSt8__detail9_CompilerINSt7__cxx1112regex_traitsIcEEE6_M_popEv
FNDA:0,_ZNSt8__detail9_CompilerINSt7__cxx1112regex_traitsIcEEE6_M_popEv
FN:176,_ZNSt8__detail13__compile_nfaINSt7__cxx1112regex_traitsIcEEPKcEENSt9enable_ifIXsrNS_20__is_contiguous_iterIT0_EE5valueESt10shared_ptrIKNS_4_NFAIT_EEEE4typeES8_S8_RKNSC_11locale_typeENSt15regex_constants18syntax_option_typeE
FNDA:0,_ZNSt8__detail13__compile_nfaINSt7__cxx1112regex_traitsIcEEPKcEENSt9enable_ifIXsrNS_20__is_contiguous_iterIT0_EE5valueESt10shared_ptrIKNS_4_NFAIT_EEEE4typeES8_S8_RKNSC_11locale_typeENSt15regex_constants18syntax_option_typeE
FN:212,_ZNKSt8__detail20_RegexTranslatorBaseINSt7__cxx1112regex_traitsIcEELb1ELb0EE12_M_translateEc
FNDA:0,_ZNKSt8__detail20_RegexTranslatorBaseINSt7__cxx1112regex_traitsIcEELb1ELb0EE12_M_translateEc
FN:212,_ZNKSt8__detail20_RegexTranslatorBaseINSt7__cxx1112regex_traitsIcEELb1ELb1EE12_M_translateEc
FNDA:0,_ZNKSt8__detail20_RegexTranslatorBaseINSt7__cxx1112regex_traitsIcEELb1ELb1EE12_M_translateEc
FN:223,_ZNKSt8__detail20_RegexTranslatorBaseINSt7__cxx1112regex_traitsIcEELb1ELb1EE12_M_transformEc
FNDA:0,_ZNKSt8__detail20_RegexTranslatorBaseINSt7__cxx1112regex_traitsIcEELb1ELb1EE12_M_transformEc
FN:223,_ZNKSt8__detail20_RegexTranslatorBaseINSt7__cxx1112regex_traitsIcEELb0ELb1EE12_M_transformEc
FNDA:0,_ZNKSt8__detail20_RegexTranslatorBaseINSt7__cxx1112regex_traitsIcEELb0ELb1EE12_M_transformEc
FN:238,_ZNKSt8__detail20_RegexTranslatorBaseINSt7__cxx1112regex_traitsIcEELb1ELb0EE17_M_in_range_icaseEccc
FNDA:0,_ZNKSt8__detail20_RegexTranslatorBaseINSt7__cxx1112regex_traitsIcEELb1ELb0EE17_M_in_range_icaseEccc
FN:238,_ZNKSt8__detail20_RegexTranslatorBaseINSt7__cxx1112regex_traitsIcEELb1ELb1EE17_M_in_range_icaseEccc
FNDA:0,_ZNKSt8__detail20_RegexTranslatorBaseINSt7__cxx1112regex_traitsIcEELb1ELb1EE17_M_in_range_icaseEccc
FN:346,_ZNKSt8__detail11_AnyMatcherINSt7__cxx1112regex_traitsIcEELb0ELb0ELb0EEclEc
FNDA:0,_ZNKSt8__detail11_AnyMatcherINSt7__cxx1112regex_traitsIcEELb0ELb0ELb0EEclEc
FN:346,_ZNKSt8__detail11_AnyMatcherINSt7__cxx1112regex_traitsIcEELb0ELb0ELb1EEclEc
FNDA:0,_ZNKSt8__detail11_AnyMatcherINSt7__cxx1112regex_traitsIcEELb0ELb0ELb1EEclEc
FN:346,_ZNKSt8__detail11_AnyMatcherINSt7__cxx1112regex_traitsIcEELb0ELb1ELb0EEclEc
FNDA:0,_ZNKSt8__detail11_AnyMatcherINSt7__cxx1112regex_traitsIcEELb0ELb1ELb0EEclEc
FN:346,_ZNKSt8__detail11_AnyMatcherINSt7__cxx1112regex_traitsIcEELb0ELb1ELb1EEclEc
FNDA:0,_ZNKSt8__detail11_AnyMatcherINSt7__cxx1112regex_traitsIcEELb0ELb1ELb1EEclEc
FN:371,_ZNKSt8__detail11_AnyMatcherINSt7__cxx1112regex_traitsIcEELb1ELb1ELb1EE8_M_applyEcSt17integral_constantIbLb1EE
FNDA:0,_ZNKSt8__detail11_AnyMatcherINSt7__cxx1112regex_traitsIcEELb1ELb1ELb1EE8_M_applyEcSt17integral_constantIbLb1EE
FN:371,_ZNKSt8__detail11_AnyMatcherINSt7__cxx1112regex_traitsIcEELb1ELb1ELb0EE8_M_applyEcSt17integral_constantIbLb1EE
FNDA:0,_ZNKSt8__detail11_AnyMatcherINSt7__cxx1112regex_traitsIcEELb1ELb1ELb0EE8_M_applyEcSt17integral_constantIbLb1EE
FN:437,_ZNSt8__detail15_BracketMatcherINSt7__cxx1112regex_traitsIcEELb1ELb0EE11_M_add_charEc
FNDA:0,_ZNSt8__detail15_BracketMatcherINSt7__cxx1112regex_traitsIcEELb1ELb0EE11_M_add_charEc
FN:437,_ZNSt8__detail15_BracketMatcherINSt7__cxx1112regex_traitsIcEELb1ELb1EE11_M_add_charEc
FNDA:0,_ZNSt8__detail15_BracketMatcherINSt7__cxx1112regex_traitsIcEELb1ELb1EE11_M_add_charEc
FN:444,_ZNSt8__detail15_BracketMatcherINSt7__cxx1112regex_traitsIcEELb0ELb0EE22_M_add_collate_elementERKNS1_12basic_stringIcSt11char_traitsIcESaIcEEE
FNDA:0,_ZNSt8__detail15_BracketMatcherINSt7__cxx1112regex_traitsIcEELb0ELb0EE22_M_add_collate_elementERKNS1_12basic_stringIcSt11char_traitsIcESaIcEEE
FN:444,_ZNSt8__detail15_BracketMatcherINSt7__cxx1112regex_traitsIcEELb1ELb1EE22_M_add_collate_elementERKNS1_12basic_stringIcSt11char_traitsIcESaIcEEE
FNDA:0,_ZNSt8__detail15_BracketMatcherINSt7__cxx1112regex_traitsIcEELb1ELb1EE22_M_add_collate_elementERKNS1_12basic_stringIcSt11char_traitsIcESaIcEEE
FN:444,_ZNSt8__detail15_BracketMatcherINSt7__cxx1112regex_traitsIcEELb1ELb0EE22_M_add_collate_elementERKNS1_12basic_stringIcSt11char_traitsIcESaIcEEE
FNDA:0,_ZNSt8__detail15_BracketMatcherINSt7__cxx1112regex_traitsIcEELb1ELb0EE22_M_add_collate_elementERKNS1_12basic_stringIcSt11char_traitsIcESaIcEEE
FN:444,_ZNSt8__detail15_BracketMatcherINSt7__cxx1112regex_traitsIcEELb0ELb1EE22_M_add_collate_elementERKNS1_12basic_stringIcSt11char_traitsIcESaIcEEE
FNDA:0,_ZNSt8__detail15_BracketMatcherINSt7__cxx1112regex_traitsIcEELb0ELb1EE22_M_add_collate_elementERKNS1_12basic_stringIcSt11char_traitsIcESaIcEEE
FN:457,_ZNSt8__detail15_BracketMatcherINSt7__cxx1112regex_traitsIcEELb1ELb0EE24_M_add_equivalence_classERKNS1_12basic_stringIcSt11char_traitsIcESaIcEEE
FNDA:0,_ZNSt8__detail15_BracketMatcherINSt7__cxx1112regex_traitsIcEELb1ELb0EE24_M_add_equivalence_classERKNS1_12basic_stringIcSt11char_traitsIcESaIcEEE
FN:457,_ZNSt8__detail15_BracketMatcherINSt7__cxx1112regex_traitsIcEELb0ELb0EE24_M_add_equivalence_classERKNS1_12basic_stringIcSt11char_traitsIcESaIcEEE
FNDA:0,_ZNSt8__detail15_BracketMatcherINSt7__cxx1112regex_traitsIcEELb0ELb0EE24_M_add_equivalence_classERKNS1_12basic_stringIcSt11char_traitsIcESaIcEEE
FN:457,_ZNSt8__detail15_BracketMatcherINSt7__cxx1112regex_traitsIcEELb1ELb1EE24_M_add_equivalence_classERKNS1_12basic_stringIcSt11char_traitsIcESaIcEEE
FNDA:0,_ZNSt8__detail15_BracketMatcherINSt7__cxx1112regex_traitsIcEELb1ELb1EE24_M_add_equivalence_classERKNS1_12basic_stringIcSt11char_traitsIcESaIcEEE
FN:457,_ZNSt8__detail15_BracketMatcherINSt7__cxx1112regex_traitsIcEELb0ELb1EE24_M_add_equivalence_classERKNS1_12basic_stringIcSt11char_traitsIcESaIcEEE
FNDA:0,_ZNSt8__detail15_BracketMatcherINSt7__cxx1112regex_traitsIcEELb0ELb1EE24_M_add_equivalence_classERKNS1_12basic_stringIcSt11char_traitsIcESaIcEEE
FN:472,_ZNSt8__detail15_BracketMatcherINSt7__cxx1112regex_traitsIcEELb1ELb1EE22_M_add_character_classERKNS1_12basic_stringIcSt11char_traitsIcESaIcEEEb
FNDA:0,_ZNSt8__detail15_BracketMatcherINSt7__cxx1112regex_traitsIcEELb1ELb1EE22_M_add_character_classERKNS1_12basic_stringIcSt11char_traitsIcESaIcEEEb
FN:472,_ZNSt8__detail15_BracketMatcherINSt7__cxx1112regex_traitsIcEELb0ELb0EE22_M_add_character_classERKNS1_12basic_stringIcSt11char_traitsIcESaIcEEEb
FNDA:0,_ZNSt8__detail15_BracketMatcherINSt7__cxx1112regex_traitsIcEELb0ELb0EE22_M_add_character_classERKNS1_12basic_stringIcSt11char_traitsIcESaIcEEEb
FN:472,_ZNSt8__detail15_BracketMatcherINSt7__cxx1112regex_traitsIcEELb0ELb1EE22_M_add_character_classERKNS1_12basic_stringIcSt11char_traitsIcESaIcEEEb
FNDA:0,_ZNSt8__detail15_BracketMatcherINSt7__cxx1112regex_traitsIcEELb0ELb1EE22_M_add_character_classERKNS1_12basic_stringIcSt11char_traitsIcESaIcEEEb
FN:472,_ZNSt8__detail15_BracketMatcherINSt7__cxx1112regex_traitsIcEELb1ELb0EE22_M_add_character_classERKNS1_12basic_stringIcSt11char_traitsIcESaIcEEEb
FNDA:0,_ZNSt8__detail15_BracketMatcherINSt7__cxx1112regex_traitsIcEELb1ELb0EE22_M_add_character_classERKNS1_12basic_stringIcSt11char_traitsIcESaIcEEEb
FN:488,_ZNSt8__detail15_BracketMatcherINSt7__cxx1112regex_traitsIcEELb1ELb1EE13_M_make_rangeEcc
FNDA:0,_ZNSt8__detail15_BracketMatcherINSt7__cxx1112regex_traitsIcEELb1ELb1EE13_M_make_rangeEcc
FN:488,_ZNSt8__detail15_BracketMatcherINSt7__cxx1112regex_traitsIcEELb0ELb1EE13_M_make_rangeEcc
FNDA:0,_ZNSt8__detail15_BracketMatcherINSt7__cxx1112regex_traitsIcEELb0ELb1EE13_M_make_rangeEcc
FN:488,_ZNSt8__detail15_BracketMatcherINSt7__cxx1112regex_traitsIcEELb0ELb0EE13_M_make_rangeEcc
FNDA:0,_ZNSt8__detail15_BracketMatcherINSt7__cxx1112regex_traitsIcEELb0ELb0EE13_M_make_rangeEcc
FN:488,_ZNSt8__detail15_BracketMatcherINSt7__cxx1112regex_traitsIcEELb1ELb0EE13_M_make_rangeEcc
FNDA:0,_ZNSt8__detail15_BracketMatcherINSt7__cxx1112regex_traitsIcEELb1ELb0EE13_M_make_rangeEcc
FN:499,_ZNSt8__detail15_BracketMatcherINSt7__cxx1112regex_traitsIcEELb1ELb1EE8_M_readyEv
FNDA:0,_ZNSt8__detail15_BracketMatcherINSt7__cxx1112regex_traitsIcEELb1ELb1EE8_M_readyEv
FN:499,_ZNSt8__detail15_BracketMatcherINSt7__cxx1112regex_traitsIcEELb1ELb0EE8_M_readyEv
FNDA:0,_ZNSt8__detail15_BracketMatcherINSt7__cxx1112regex_traitsIcEELb1ELb0EE8_M_readyEv
FN:499,_ZNSt8__detail15_BracketMatcherINSt7__cxx1112regex_traitsIcEELb0ELb1EE8_M_readyEv
FNDA:0,_ZNSt8__detail15_BracketMatcherINSt7__cxx1112regex_traitsIcEELb0ELb1EE8_M_readyEv
FN:499,_ZNSt8__detail15_BracketMatcherINSt7__cxx1112regex_traitsIcEELb0ELb0EE8_M_readyEv
FNDA:0,_ZNSt8__detail15_BracketMatcherINSt7__cxx1112regex_traitsIcEELb0ELb0EE8_M_readyEv
FN:530,_ZNSt8__detail15_BracketMatcherINSt7__cxx1112regex_traitsIcEELb0ELb0EE13_M_make_cacheESt17integral_constantIbLb1EE
FNDA:0,_ZNSt8__detail15_BracketMatcherINSt7__cxx1112regex_traitsIcEELb0ELb0EE13_M_make_cacheESt17integral_constantIbLb1EE
FN:530,_ZNSt8__detail15_BracketMatcherINSt7__cxx1112regex_traitsIcEELb0ELb1EE13_M_make_cacheESt17integral_constantIbLb1EE
FNDA:0,_ZNSt8__detail15_BracketMatcherINSt7__cxx1112regex_traitsIcEELb0ELb1EE13_M_make_cacheESt17integral_constantIbLb1EE
FN:530,_ZNSt8__detail15_BracketMatcherINSt7__cxx1112regex_traitsIcEELb1ELb0EE13_M_make_cacheESt17integral_constantIbLb1EE
FNDA:0,_ZNSt8__detail15_BracketMatcherINSt7__cxx1112regex_traitsIcEELb1ELb0EE13_M_make_cacheESt17integral_constantIbLb1EE
FN:530,_ZNSt8__detail15_BracketMatcherINSt7__cxx1112regex_traitsIcEELb1ELb1EE13_M_make_cacheESt17integral_constantIbLb1EE
FNDA:0,_ZNSt8__detail15_BracketMatcherINSt7__cxx1112regex_traitsIcEELb1ELb1EE13_M_make_cacheESt17integral_constantIbLb1EE
DA:69,0
DA:70,0
DA:140,0
DA:142,0
DA:143,0
DA:144,0
DA:176,0
DA:180,0
DA:181,0
DA:183,0
DA:207,0
DA:208,0
DA:212,0
DA:215,0
DA:212,0
DA:215,0
DA:212,0
DA:217,0
DA:223,0
DA:225,0
DA:226,0
DA:223,0
DA:225,0
DA:226,0
DA:238,0
DA:241,0
DA:242,0
DA:243,0
DA:244,0
DA:245,0
DA:238,0
DA:241,0
DA:242,0
DA:243,0
DA:244,0
DA:245,0
DA:257,0
DA:269,0
DA:272,0
DA:276,0
DA:280,0
DA:294,0
DA:297,0
DA:303,0
DA:315,0
DA:319,0
DA:323,0
DA:327,0
DA:328,0
DA:341,0
DA:342,0
DA:346,0
DA:348,0
DA:349,0
DA:346,0
DA:348,0
DA:349,0
DA:346,0
DA:348,0
DA:349,0
DA:346,0
DA:348,0
DA:349,0
DA:362,0
DA:363,0
DA:367,0
DA:368,0
DA:371,0
DA:373,0
DA:374,0
DA:375,0
DA:376,0
DA:371,0
DA:373,0
DA:374,0
DA:375,0
DA:376,0
DA:371,0
DA:373,0
DA:374,0
DA:375,0
DA:376,0
DA:399,0
DA:400,0
DA:404,0
DA:405,0
DA:423,0
DA:426,0
DA:430,0
DA:433,0
DA:437,0
DA:439,0
DA:441,0
DA:437,0
DA:439,0
DA:441,0
DA:437,0
DA:439,0
DA:441,0
DA:444,0
DA:446,0
DA:447,0
DA:448,0
DA:449,0
DA:451,0
DA:453,0
DA:444,0
DA:446,0
DA:447,0
DA:448,0
DA:449,0
DA:451,0
DA:453,0
DA:444,0
DA:446,0
DA:447,0
DA:448,0
DA:449,0
DA:451,0
DA:453,0
DA:444,0
DA:446,0
DA:447,0
DA:448,0
DA:449,0
DA:451,0
DA:453,0
DA:457,0
DA:459,0
DA:460,0
DA:461,0
DA:462,0
DA:464,0
DA:465,0
DA:466,0
DA:468,0
DA:457,0
DA:459,0
DA:460,0
DA:461,0
DA:462,0
DA:464,0
DA:465,0
DA:466,0
DA:468,0
DA:457,0
DA:459,0
DA:460,0
DA:461,0
DA:462,0
DA:464,0
DA:465,0
DA:466,0
DA:468,0
DA:457,0
DA:459,0
DA:460,0
DA:461,0
DA:462,0
DA:464,0
DA:465,0
DA:466,0
DA:468,0
DA:472,0
DA:474,0
DA:475,0
DA:477,0
DA:478,0
DA:480,0
DA:481,0
DA:483,0
DA:485,0
DA:472,0
DA:474,0
DA:475,0
DA:477,0
DA:478,0
DA:480,0
DA:481,0
DA:483,0
DA:485,0
DA:472,0
DA:474,0
DA:475,0
DA:477,0
DA:478,0
DA:480,0
DA:481,0
DA:483,0
DA:485,0
DA:472,0
DA:474,0
DA:475,0
DA:477,0
DA:478,0
DA:480,0
DA:481,0
DA:483,0
DA:485,0
DA:488,0
DA:490,0
DA:491,0
DA:493,0
DA:496,0
DA:488,0
DA:490,0
DA:491,0
DA:493,0
DA:496,0
DA:488,0
DA:490,0
DA:491,0
DA:493,0
DA:496,0
DA:488,0
DA:490,0
DA:491,0
DA:493,0
DA:496,0
DA:499,0
DA:501,0
DA:502,0
DA:503,0
DA:504,0
DA:506,0
DA:499,0
DA:501,0
DA:502,0
DA:503,0
DA:504,0
DA:506,0
DA:499,0
DA:501,0
DA:502,0
DA:503,0
DA:504,0
DA:506,0
DA:499,0
DA:501,0
DA:502,0
DA:503,0
DA:504,0
DA:506,0
DA:526,0
DA:527,0
DA:530,0
DA:532,0
DA:533,0
DA:534,0
DA:530,0
DA:532,0
DA:533,0
DA:534,0
DA:530,0
DA:532,0
DA:533,0
DA:534,0
DA:530,0
DA:532,0
DA:533,0
DA:534,0
end_of_record
SF:/usr/include/c++/9/typeinfo
DA:120,0
DA:122,0
DA:123,0
DA:124,0
end_of_record
SF:/usr/include/c++/9/bits/char_traits.h
DA:299,0
DA:300,0
DA:315,0
DA:317,0
DA:325,0
DA:329,0
DA:335,0
DA:361,0
DA:363,0
DA:365,0
end_of_record
SF:/usr/include/c++/9/bits/vector.tcc
FN:109,_ZNSt6vectorISt4pairINSt7__cxx1112basic_stringIcSt11char_traitsIcESaIcEEES6_ESaIS7_EE12emplace_backIJS7_EEEvDpOT_
FNDA:0,_ZNSt6vectorISt4pairINSt7__cxx1112basic_stringIcSt11char_traitsIcESaIcEEES6_ESaIS7_EE12emplace_backIJS7_EEEvDpOT_
FN:109,_ZNSt6vectorISt4pairIccESaIS1_EE12emplace_backIJS1_EEEvDpOT_
FNDA:0,_ZNSt6vectorISt4pairIccESaIS1_EE12emplace_backIJS1_EEEvDpOT_
FN:109,_ZNSt6vectorIcSaIcEE12emplace_backIJcEEEvDpOT_
FNDA:0,_ZNSt6vectorIcSaIcEE12emplace_backIJcEEEvDpOT_
FN:109,_ZNSt6vectorINSt8__detail6_StateIcEESaIS2_EE12emplace_backIJS2_EEEvDpOT_
FNDA:0,_ZNSt6vectorINSt8__detail6_StateIcEESaIS2_EE12emplace_backIJS2_EEEvDpOT_
FN:109,_ZNSt6vectorISt4pairIlS_INSt7__cxx119sub_matchIN9__gnu_cxx17__normal_iteratorIPKcNS1_12basic_stringIcSt11char_traitsIcESaIcEEEEEEESaISD_EEESaISG_EE12emplace_backIJRlRKSF_EEEvDpOT_
FNDA:0,_ZNSt6vectorISt4pairIlS_INSt7__cxx119sub_matchIN9__gnu_cxx17__normal_iteratorIPKcNS1_12basic_stringIcSt11char_traitsIcESaIcEEEEEEESaISD_EEESaISG_EE12emplace_backIJRlRKSF_EEEvDpOT_
FN:184,_ZNSt6vectorIcSaIcEE8_M_eraseEN9__gnu_cxx17__normal_iteratorIPcS1_EES5_
FNDA:0,_ZNSt6vectorIcSaIcEE8_M_eraseEN9__gnu_cxx17__normal_iteratorIPcS1_EES5_
FN:198,_ZNSt6vectorINSt7__cxx119sub_matchIN9__gnu_cxx17__normal_iteratorIPKcNS0_12basic_stringIcSt11char_traitsIcESaIcEEEEEEESaISC_EEaSERKSE_
FNDA:0,_ZNSt6vectorINSt7__cxx119sub_matchIN9__gnu_cxx17__normal_iteratorIPKcNS0_12basic_stringIcSt11char_traitsIcESaIcEEEEEEESaISC_EEaSERKSE_
FN:426,_ZNSt6vectorISt4pairINSt7__cxx1112basic_stringIcSt11char_traitsIcESaIcEEES6_ESaIS7_EE17_M_realloc_insertIJS7_EEEvN9__gnu_cxx17__normal_iteratorIPS7_S9_EEDpOT_
FNDA:0,_ZNSt6vectorISt4pairINSt7__cxx1112basic_stringIcSt11char_traitsIcESaIcEEES6_ESaIS7_EE17_M_realloc_insertIJS7_EEEvN9__gnu_cxx17__normal_iteratorIPS7_S9_EEDpOT_
FN:426,_ZNSt6vectorISt4pairIccESaIS1_EE17_M_realloc_insertIJS1_EEEvN9__gnu_cxx17__normal_iteratorIPS1_S3_EEDpOT_
FNDA:0,_ZNSt6vectorISt4pairIccESaIS1_EE17_M_realloc_insertIJS1_EEEvN9__gnu_cxx17__normal_iteratorIPS1_S3_EEDpOT_
FN:426,_ZNSt6vectorIcSaIcEE17_M_realloc_insertIJcEEEvN9__gnu_cxx17__normal_iteratorIPcS1_EEDpOT_
FNDA:0,_ZNSt6vectorIcSaIcEE17_M_realloc_insertIJcEEEvN9__gnu_cxx17__normal_iteratorIPcS1_EEDpOT_
FN:426,_ZNSt6vectorINSt7__cxx1112basic_stringIcSt11char_traitsIcESaIcEEESaIS5_EE17_M_realloc_insertIJRKS5_EEEvN9__gnu_cxx17__normal_iteratorIPS5_S7_EEDpOT_
FNDA:0,_ZNSt6vectorINSt7__cxx1112basic_stringIcSt11char_traitsIcESaIcEEESaIS5_EE17_M_realloc_insertIJRKS5_EEEvN9__gnu_cxx17__normal_iteratorIPS5_S7_EEDpOT_
FN:426,_ZNSt6vectorINSt7__cxx1112regex_traitsIcE10_RegexMaskESaIS3_EE17_M_realloc_insertIJRKS3_EEEvN9__gnu_cxx17__normal_iteratorIPS3_S5_EEDpOT_
FNDA:0,_ZNSt6vectorINSt7__cxx1112regex_traitsIcE10_RegexMaskESaIS3_EE17_M_realloc_insertIJRKS3_EEEvN9__gnu_cxx17__normal_iteratorIPS3_S5_EEDpOT_
FN:426,_ZNSt6vectorINSt8__detail6_StateIcEESaIS2_EE17_M_realloc_insertIJS2_EEEvN9__gnu_cxx17__normal_iteratorIPS2_S4_EEDpOT_
FNDA:0,_ZNSt6vectorINSt8__detail6_StateIcEESaIS2_EE17_M_realloc_insertIJS2_EEEvN9__gnu_cxx17__normal_iteratorIPS2_S4_EEDpOT_
FN:426,_ZNSt6vectorISt4pairIlS_INSt7__cxx119sub_matchIN9__gnu_cxx17__normal_iteratorIPKcNS1_12basic_stringIcSt11char_traitsIcESaIcEEEEEEESaISD_EEESaISG_EE17_M_realloc_insertIJRlRKSF_EEEvNS4_IPSG_SI_EEDpOT_
FNDA:0,_ZNSt6vectorISt4pairIlS_INSt7__cxx119sub_matchIN9__gnu_cxx17__normal_iteratorIPKcNS1_12basic_stringIcSt11char_traitsIcESaIcEEEEEEESaISD_EEESaISG_EE17_M_realloc_insertIJRlRKSF_EEEvNS4_IPSG_SI_EEDpOT_
FN:426,_ZNSt6vectorImSaImEE17_M_realloc_insertIJRKmEEEvN9__gnu_cxx17__normal_iteratorIPmS1_EEDpOT_
FNDA:0,_ZNSt6vectorImSaImEE17_M_realloc_insertIJRKmEEEvN9__gnu_cxx17__normal_iteratorIPmS1_EEDpOT_
FN:611,_ZNSt6vectorINSt7__cxx119sub_matchIN9__gnu_cxx17__normal_iteratorIPKcNS0_12basic_stringIcSt11char_traitsIcESaIcEEEEEEESaISC_EE17_M_default_appendEm
FNDA:0,_ZNSt6vectorINSt7__cxx119sub_matchIN9__gnu_cxx17__normal_iteratorIPKcNS0_12basic_stringIcSt11char_traitsIcESaIcEEEEEEESaISC_EE17_M_default_appendEm
DA:109,0
DA:112,0
DA:115,0
DA:117,0
DA:121,0
DA:125,0
DA:109,0
DA:112,0
DA:115,0
DA:117,0
DA:121,0
DA:125,0
DA:109,0
DA:112,0
DA:115,0
DA:117,0
DA:121,0
DA:125,0
DA:109,0
DA:112,0
DA:115,0
DA:117,0
DA:121,0
DA:125,0
DA:109,0
DA:112,0
DA:115,0
DA:117,0
DA:121,0
DA:125,0
DA:184,0
DA:187,0
DA:189,0
DA:190,0
DA:191,0
DA:193,0
DA:198,0
DA:201,0
DA:223,0
DA:224,0
DA:226,0
DA:228,0
DA:229,0
DA:230,0
DA:231,0
DA:232,0
DA:233,0
DA:234,0
DA:236,0
DA:238,0
DA:239,0
DA:243,0
DA:245,0
DA:248,0
DA:250,0
DA:252,0
DA:426,0
DA:435,0
DA:437,0
DA:438,0
DA:439,0
DA:440,0
DA:441,0
DA:449,0
DA:450,0
DA:456,0
DA:461,0
DA:462,0
DA:464,0
DA:466,0
DA:467,0
DA:500,0
DA:501,0
DA:502,0
DA:503,0
DA:504,0
DA:505,0
DA:426,0
DA:435,0
DA:437,0
DA:438,0
DA:439,0
DA:440,0
DA:441,0
DA:449,0
DA:450,0
DA:456,0
DA:461,0
DA:462,0
DA:464,0
DA:466,0
DA:467,0
DA:500,0
DA:501,0
DA:502,0
DA:503,0
DA:504,0
DA:505,0
DA:426,0
DA:435,0
DA:437,0
DA:438,0
DA:439,0
DA:440,0
DA:441,0
DA:449,0
DA:456,0
DA:461,0
DA:462,0
DA:464,0
DA:466,0
DA:467,0
DA:500,0
DA:501,0
DA:502,0
DA:503,0
DA:504,0
DA:505,0
DA:426,0
DA:435,0
DA:437,0
DA:438,0
DA:439,0
DA:440,0
DA:441,0
DA:449,0
DA:450,0
DA:456,0
DA:461,0
DA:462,0
DA:464,0
DA:466,0
DA:467,0
DA:485,0
DA:487,0
DA:488,0
DA:491,0
DA:492,0
DA:493,0
DA:500,0
DA:501,0
DA:502,0
DA:503,0
DA:504,0
DA:505,0
DA:426,0
DA:435,0
DA:437,0
DA:438,0
DA:439,0
DA:440,0
DA:441,0
DA:449,0
DA:450,0
DA:456,0
DA:461,0
DA:462,0
DA:464,0
DA:466,0
DA:467,0
DA:500,0
DA:501,0
DA:502,0
DA:503,0
DA:504,0
DA:505,0
DA:426,0
DA:435,0
DA:437,0
DA:438,0
DA:439,0
DA:440,0
DA:441,0
DA:449,0
DA:450,0
DA:456,0
DA:474,0
DA:475,0
DA:477,0
DA:481,0
DA:482,0
DA:485,0
DA:487,0
DA:488,0
DA:491,0
DA:492,0
DA:493,0
DA:498,0
DA:500,0
DA:501,0
DA:502,0
DA:503,0
DA:504,0
DA:505,0
DA:426,0
DA:435,0
DA:437,0
DA:438,0
DA:439,0
DA:440,0
DA:441,0
DA:449,0
DA:450,0
DA:456,0
DA:461,0
DA:462,0
DA:464,0
DA:466,0
DA:467,0
DA:485,0
DA:487,0
DA:488,0
DA:491,0
DA:492,0
DA:493,0
DA:500,0
DA:501,0
DA:502,0
DA:503,0
DA:504,0
DA:505,0
DA:426,0
DA:435,0
DA:437,0
DA:438,0
DA:439,0
DA:440,0
DA:441,0
DA:449,0
DA:450,0
DA:456,0
DA:461,0
DA:462,0
DA:464,0
DA:466,0
DA:467,0
DA:500,0
DA:501,0
DA:502,0
DA:503,0
DA:504,0
DA:505,0
DA:611,0
DA:614,0
DA:616,0
DA:617,0
DA:618,0
DA:620,0
DA:621,0
DA:623,0
DA:626,0
DA:627,0
DA:628,0
DA:633,0
DA:635,0
DA:640,0
DA:641,0
DA:648,0
DA:649,0
DA:675,0
DA:676,0
DA:677,0
DA:678,0
DA:679,0
DA:680,0
DA:683,0
end_of_record
SF:/usr/include/c++/9/bits/stl_algo.h
FN:78,_ZSt22__move_median_to_firstIN9__gnu_cxx17__normal_iteratorIPcSt6vectorIcSaIcEEEENS0_5__ops15_Iter_less_iterEEvT_S9_S9_S9_T0_
FNDA:0,_ZSt22__move_median_to_firstIN9__gnu_cxx17__normal_iteratorIPcSt6vectorIcSaIcEEEENS0_5__ops15_Iter_less_iterEEvT_S9_S9_S9_T0_
FN:112,_ZSt9__find_ifIN9__gnu_cxx17__normal_iteratorIPKNSt7__cxx1112basic_stringIcSt11char_traitsIcESaIcEEESt6vectorIS7_SaIS7_EEEENS0_5__ops16_Iter_equals_valIS8_EEET_SH_SH_T0_St26random_access_iterator_tag
FNDA:0,_ZSt9__find_ifIN9__gnu_cxx17__normal_iteratorIPKNSt7__cxx1112basic_stringIcSt11char_traitsIcESaIcEEESt6vectorIS7_SaIS7_EEEENS0_5__ops16_Iter_equals_valIS8_EEET_SH_SH_T0_St26random_access_iterator_tag
FN:962,_ZSt8__uniqueIN9__gnu_cxx17__normal_iteratorIPcSt6vectorIcSaIcEEEENS0_5__ops19_Iter_equal_to_iterEET_S9_S9_T0_
FNDA:0,_ZSt8__uniqueIN9__gnu_cxx17__normal_iteratorIPcSt6vectorIcSaIcEEEENS0_5__ops19_Iter_equal_to_iterEET_S9_S9_T0_
FN:1839,_ZSt16__insertion_sortIN9__gnu_cxx17__normal_iteratorIPcSt6vectorIcSaIcEEEENS0_5__ops15_Iter_less_iterEEvT_S9_T0_
FNDA:0,_ZSt16__insertion_sortIN9__gnu_cxx17__normal_iteratorIPcSt6vectorIcSaIcEEEENS0_5__ops15_Iter_less_iterEEvT_S9_T0_
FN:1879,_ZSt22__final_insertion_sortIN9__gnu_cxx17__normal_iteratorIPcSt6vectorIcSaIcEEEENS0_5__ops15_Iter_less_iterEEvT_S9_T0_
FNDA:0,_ZSt22__final_insertion_sortIN9__gnu_cxx17__normal_iteratorIPcSt6vectorIcSaIcEEEENS0_5__ops15_Iter_less_iterEEvT_S9_T0_
FN:1916,_ZSt27__unguarded_partition_pivotIN9__gnu_cxx17__normal_iteratorIPcSt6vectorIcSaIcEEEENS0_5__ops15_Iter_less_iterEET_S9_S9_T0_
FNDA:0,_ZSt27__unguarded_partition_pivotIN9__gnu_cxx17__normal_iteratorIPcSt6vectorIcSaIcEEEENS0_5__ops15_Iter_less_iterEET_S9_S9_T0_
FN:1939,_ZSt16__introsort_loopIN9__gnu_cxx17__normal_iteratorIPcSt6vectorIcSaIcEEEElNS0_5__ops15_Iter_less_iterEEvT_S9_T0_T1_
FNDA:0,_ZSt16__introsort_loopIN9__gnu_cxx17__normal_iteratorIPcSt6vectorIcSaIcEEEElNS0_5__ops15_Iter_less_iterEEvT_S9_T0_T1_
FN:2246,_ZSt13binary_searchIN9__gnu_cxx17__normal_iteratorIPKcSt6vectorIcSaIcEEEEcEbT_S8_RKT0_
FNDA:0,_ZSt13binary_searchIN9__gnu_cxx17__normal_iteratorIPKcSt6vectorIcSaIcEEEEcEbT_S8_RKT0_
FN:3930,_ZSt4findIN9__gnu_cxx17__normal_iteratorIPKNSt7__cxx1112basic_stringIcSt11char_traitsIcESaIcEEESt6vectorIS7_SaIS7_EEEES7_ET_SE_SE_RKT0_
FNDA:0,_ZSt4findIN9__gnu_cxx17__normal_iteratorIPKNSt7__cxx1112basic_stringIcSt11char_traitsIcESaIcEEESt6vectorIS7_SaIS7_EEEES7_ET_SE_SE_RKT0_
DA:78,0
DA:81,0
DA:83,0
DA:84,0
DA:85,0
DA:86,0
DA:88,0
DA:90,0
DA:91,0
DA:92,0
DA:93,0
DA:95,0
DA:96,0
DA:112,0
DA:116,0
DA:118,0
DA:120,0
DA:121,0
DA:122,0
DA:124,0
DA:125,0
DA:126,0
DA:128,0
DA:129,0
DA:130,0
DA:132,0
DA:133,0
DA:134,0
DA:137,0
DA:139,0
DA:140,0
DA:141,0
DA:142,0
DA:143,0
DA:144,0
DA:145,0
DA:146,0
DA:147,0
DA:148,0
DA:149,0
DA:150,0
DA:151,0
DA:153,0
DA:159,0
DA:161,0
DA:945,0
DA:948,0
DA:951,0
DA:953,0
DA:962,0
DA:966,0
DA:967,0
DA:968,0
DA:971,0
DA:972,0
DA:973,0
DA:974,0
DA:975,0
DA:976,0
DA:995,0
DA:1004,0
DA:1820,0
DA:1824,0
DA:1825,0
DA:1826,0
DA:1827,0
DA:1829,0
DA:1830,0
DA:1831,0
DA:1833,0
DA:1839,0
DA:1842,0
DA:1844,0
DA:1846,0
DA:1849,0
DA:1850,0
DA:1851,0
DA:1854,0
DA:1855,0
DA:1862,0
DA:1865,0
DA:1866,0
DA:1879,0
DA:1882,0
DA:1884,0
DA:1885,0
DA:1889,0
DA:1890,0
DA:1895,0
DA:1901,0
DA:1902,0
DA:1903,0
DA:1904,0
DA:1905,0
DA:1906,0
DA:1908,0
DA:1909,0
DA:1916,0
DA:1919,0
DA:1920,0
DA:1922,0
DA:1927,0
DA:1932,0
DA:1933,0
DA:1939,0
DA:1943,0
DA:1945,0
DA:1947,0
DA:1948,0
DA:1950,0
DA:1952,0
DA:1953,0
DA:1954,0
DA:2246,0
DA:2257,0
DA:2259,0
DA:3930,0
DA:3938,0
DA:3939,0
DA:4395,0
DA:4407,0
DA:4408,0
DA:4409,0
DA:4857,0
DA:4867,0
end_of_record
SF:/usr/include/c++/9/bits/allocator.h
DA:138,0
DA:141,0
DA:142,0
DA:151,0
DA:153,0
end_of_record
SF:/usr/include/c++/9/bits/stl_vector.h
FN:507,_ZNSt6vectorISt4pairIN9__gnu_cxx17__normal_iteratorIPKcNSt7__cxx1112basic_stringIcSt11char_traitsIcESaIcEEEEEiESaISC_EEC2EmRKSD_
FNDA:0,_ZNSt6vectorISt4pairIN9__gnu_cxx17__normal_iteratorIPKcNSt7__cxx1112basic_stringIcSt11char_traitsIcESaIcEEEEEiESaISC_EEC2EmRKSD_
FN:550,_ZNSt6vectorINSt7__cxx119sub_matchIN9__gnu_cxx17__normal_iteratorIPKcNS0_12basic_stringIcSt11char_traitsIcESaIcEEEEEEESaISC_EEC2ERKSE_
FNDA:0,_ZNSt6vectorINSt7__cxx119sub_matchIN9__gnu_cxx17__normal_iteratorIPKcNS0_12basic_stringIcSt11char_traitsIcESaIcEEEEEEESaISC_EEC2ERKSE_
FN:550,_ZNSt6vectorIcSaIcEEC2ERKS1_
FNDA:0,_ZNSt6vectorIcSaIcEEC2ERKS1_
FN:550,_ZNSt6vectorINSt7__cxx1112basic_stringIcSt11char_traitsIcESaIcEEESaIS5_EEC2ERKS7_
FNDA:0,_ZNSt6vectorINSt7__cxx1112basic_stringIcSt11char_traitsIcESaIcEEESaIS5_EEC2ERKS7_
FN:550,_ZNSt6vectorISt4pairIccESaIS1_EEC2ERKS3_
FNDA:0,_ZNSt6vectorISt4pairIccESaIS1_EEC2ERKS3_
FN:550,_ZNSt6vectorINSt7__cxx1112regex_traitsIcE10_RegexMaskESaIS3_EEC2ERKS5_
FNDA:0,_ZNSt6vectorINSt7__cxx1112regex_traitsIcE10_RegexMaskESaIS3_EEC2ERKS5_
FN:550,_ZNSt6vectorISt4pairINSt7__cxx1112basic_stringIcSt11char_traitsIcESaIcEEES6_ESaIS7_EEC2ERKS9_
FNDA:0,_ZNSt6vectorISt4pairINSt7__cxx1112basic_stringIcSt11char_traitsIcESaIcEEES6_ESaIS7_EEC2ERKS9_
FN:650,_ZNSt6vectorIcSaIcEEC2IPKcvEET_S5_RKS0_
FNDA:0,_ZNSt6vectorIcSaIcEEC2IPKcvEET_S5_RKS0_
FN:675,_ZNSt6vectorINSt8__detail6_StateIcEESaIS2_EED2Ev
FNDA:0,_ZNSt6vectorINSt8__detail6_StateIcEESaIS2_EED2Ev
FN:675,_ZNSt6vectorISt4pairIlS_INSt7__cxx119sub_matchIN9__gnu_cxx17__normal_iteratorIPKcNS1_12basic_stringIcSt11char_traitsIcESaIcEEEEEEESaISD_EEESaISG_EED2Ev
FNDA:0,_ZNSt6vectorISt4pairIlS_INSt7__cxx119sub_matchIN9__gnu_cxx17__normal_iteratorIPKcNS1_12basic_stringIcSt11char_traitsIcESaIcEEEEEEESaISD_EEESaISG_EED2Ev
FN:675,_ZNSt6vectorISt4pairINSt7__cxx1112basic_stringIcSt11char_traitsIcESaIcEEES6_ESaIS7_EED2Ev
FNDA:0,_ZNSt6vectorISt4pairINSt7__cxx1112basic_stringIcSt11char_traitsIcESaIcEEES6_ESaIS7_EED2Ev
FN:675,_ZNSt6vectorINSt7__cxx1112basic_stringIcSt11char_traitsIcESaIcEEESaIS5_EED2Ev
FNDA:0,_ZNSt6vectorINSt7__cxx1112basic_stringIcSt11char_traitsIcESaIcEEESaIS5_EED2Ev
FN:934,_ZNSt6vectorINSt7__cxx119sub_matchIN9__gnu_cxx17__normal_iteratorIPKcNS0_12basic_stringIcSt11char_traitsIcESaIcEEEEEEESaISC_EE6resizeEm
FNDA:0,_ZNSt6vectorINSt7__cxx119sub_matchIN9__gnu_cxx17__normal_iteratorIPKcNS0_12basic_stringIcSt11char_traitsIcESaIcEEEEEEESaISC_EE6resizeEm
FN:1184,_ZNSt6vectorINSt7__cxx1112basic_stringIcSt11char_traitsIcESaIcEEESaIS5_EE9push_backERKS5_
FNDA:0,_ZNSt6vectorINSt7__cxx1112basic_stringIcSt11char_traitsIcESaIcEEESaIS5_EE9push_backERKS5_
FN:1184,_ZNSt6vectorINSt7__cxx1112regex_traitsIcE10_RegexMaskESaIS3_EE9push_backERKS3_
FNDA:0,_ZNSt6vectorINSt7__cxx1112regex_traitsIcE10_RegexMaskESaIS3_EE9push_backERKS3_
FN:1184,_ZNSt6vectorImSaImEE9push_backERKm
FNDA:0,_ZNSt6vectorImSaImEE9push_backERKm
FN:1753,_ZNKSt6vectorINSt7__cxx1112regex_traitsIcE10_RegexMaskESaIS3_EE12_M_check_lenEmPKc
FNDA:0,_ZNKSt6vectorINSt7__cxx1112regex_traitsIcE10_RegexMaskESaIS3_EE12_M_check_lenEmPKc
FN:1753,_ZNKSt6vectorINSt7__cxx119sub_matchIN9__gnu_cxx17__normal_iteratorIPKcNS0_12basic_stringIcSt11char_traitsIcESaIcEEEEEEESaISC_EE12_M_check_lenEmS5_
FNDA:0,_ZNKSt6vectorINSt7__cxx119sub_matchIN9__gnu_cxx17__normal_iteratorIPKcNS0_12basic_stringIcSt11char_traitsIcESaIcEEEEEEESaISC_EE12_M_check_lenEmS5_
FN:1753,_ZNKSt6vectorImSaImEE12_M_check_lenEmPKc
FNDA:0,_ZNKSt6vectorImSaImEE12_M_check_lenEmPKc
FN:1753,_ZNKSt6vectorISt4pairIlS_INSt7__cxx119sub_matchIN9__gnu_cxx17__normal_iteratorIPKcNS1_12basic_stringIcSt11char_traitsIcESaIcEEEEEEESaISD_EEESaISG_EE12_M_check_lenEmS6_
FNDA:0,_ZNKSt6vectorISt4pairIlS_INSt7__cxx119sub_matchIN9__gnu_cxx17__normal_iteratorIPKcNS1_12basic_stringIcSt11char_traitsIcESaIcEEEEEEESaISD_EEESaISG_EE12_M_check_lenEmS6_
FN:1753,_ZNKSt6vectorINSt8__detail6_StateIcEESaIS2_EE12_M_check_lenEmPKc
FNDA:0,_ZNKSt6vectorINSt8__detail6_StateIcEESaIS2_EE12_M_check_lenEmPKc
FN:1753,_ZNKSt6vectorISt4pairINSt7__cxx1112basic_stringIcSt11char_traitsIcESaIcEEES6_ESaIS7_EE12_M_check_lenEmPKc
FNDA:0,_ZNKSt6vectorISt4pairINSt7__cxx1112basic_stringIcSt11char_traitsIcESaIcEEES6_ESaIS7_EE12_M_check_lenEmPKc
FN:1753,_ZNKSt6vectorINSt7__cxx1112basic_stringIcSt11char_traitsIcESaIcEEESaIS5_EE12_M_check_lenEmPKc
FNDA:0,_ZNKSt6vectorINSt7__cxx1112basic_stringIcSt11char_traitsIcESaIcEEESaIS5_EE12_M_check_lenEmPKc
FN:1753,_ZNKSt6vectorIcSaIcEE12_M_check_lenEmPKc
FNDA:0,_ZNKSt6vectorIcSaIcEE12_M_check_lenEmPKc
FN:1753,_ZNKSt6vectorISt4pairIccESaIS1_EE12_M_check_lenEmPKc
FNDA:0,_ZNKSt6vectorISt4pairIccESaIS1_EE12_M_check_lenEmPKc
DA:94,0
DA:95,0
DA:99,0
DA:100,0
DA:101,0
DA:102,0
DA:106,0
DA:108,0
DA:109,0
DA:110,0
DA:114,0
DA:118,0
DA:119,0
DA:120,0
DA:121,0
DA:125,0
DA:128,0
DA:130,0
DA:133,0
DA:134,0
DA:140,0
DA:141,0
DA:273,0
DA:274,0
DA:277,0
DA:278,0
DA:281,0
DA:282,0
DA:285,0
DA:290,0
DA:291,0
DA:300,0
DA:301,0
DA:302,0
DA:305,0
DA:330,0
DA:332,0
DA:333,0
DA:334,0
DA:347,0
DA:350,0
DA:351,0
DA:356,0
DA:358,0
DA:359,0
DA:360,0
DA:450,0
DA:453,0
DA:462,0
DA:466,0
DA:484,0
DA:494,0
DA:495,0
DA:507,0
DA:508,0
DA:509,0
DA:550,0
DA:552,0
DA:554,0
DA:555,0
DA:557,0
DA:558,0
DA:550,0
DA:552,0
DA:554,0
DA:555,0
DA:557,0
DA:558,0
DA:550,0
DA:552,0
DA:554,0
DA:555,0
DA:557,0
DA:558,0
DA:550,0
DA:552,0
DA:554,0
DA:555,0
DA:557,0
DA:558,0
DA:550,0
DA:552,0
DA:554,0
DA:555,0
DA:557,0
DA:558,0
DA:550,0
DA:552,0
DA:554,0
DA:555,0
DA:557,0
DA:558,0
DA:569,0
DA:650,0
DA:652,0
DA:654,0
DA:656,0
DA:675,0
DA:677,0
DA:678,0
DA:680,0
DA:675,0
DA:677,0
DA:678,0
DA:680,0
DA:675,0
DA:677,0
DA:678,0
DA:680,0
DA:675,0
DA:677,0
DA:678,0
DA:680,0
DA:675,0
DA:677,0
DA:678,0
DA:680,0
DA:706,0
DA:708,0
DA:711,0
DA:808,0
DA:809,0
DA:817,0
DA:818,0
DA:826,0
DA:827,0
DA:835,0
DA:836,0
DA:881,0
DA:882,0
DA:915,0
DA:916,0
DA:920,0
DA:921,0
DA:934,0
DA:936,0
DA:937,0
DA:938,0
DA:939,0
DA:940,0
DA:995,0
DA:997,0
DA:1004,0
DA:1005,0
DA:1040,0
DA:1043,0
DA:1058,0
DA:1061,0
DA:1140,0
DA:1143,0
DA:1165,0
DA:1166,0
DA:1184,0
DA:1186,0
DA:1189,0
DA:1191,0
DA:1195,0
DA:1196,0
DA:1184,0
DA:1186,0
DA:1189,0
DA:1191,0
DA:1195,0
DA:1196,0
DA:1184,0
DA:1186,0
DA:1189,0
DA:1191,0
DA:1195,0
DA:1196,0
DA:1200,0
DA:1201,0
DA:1222,0
DA:1225,0
DA:1226,0
DA:1454,0
DA:1456,0
DA:1457,0
DA:1458,0
DA:1495,0
DA:1496,0
DA:1505,0
DA:1508,0
DA:1511,0
DA:1512,0
DA:1600,0
DA:1602,0
DA:1603,0
DA:1604,0
DA:1753,0
DA:1755,0
DA:1756,0
DA:1758,0
DA:1759,0
DA:1753,0
DA:1755,0
DA:1756,0
DA:1758,0
DA:1759,0
DA:1753,0
DA:1755,0
DA:1756,0
DA:1758,0
DA:1759,0
DA:1753,0
DA:1755,0
DA:1756,0
DA:1758,0
DA:1759,0
DA:1753,0
DA:1755,0
DA:1756,0
DA:1758,0
DA:1759,0
DA:1753,0
DA:1755,0
DA:1756,0
DA:1758,0
DA:1759,0
DA:1753,0
DA:1755,0
DA:1756,0
DA:1758,0
DA:1759,0
DA:1753,0
DA:1755,0
DA:1756,0
DA:1758,0
DA:1759,0
DA:1753,0
DA:1755,0
DA:1756,0
DA:1758,0
DA:1759,0
DA:1764,0
DA:1766,0
DA:1767,0
DA:1773,0
DA:1780,0
DA:1781,0
DA:1789,0
DA:1791,0
DA:1793,0
DA:1794,0
DA:1795,0
DA:1812,0
DA:1814,0
DA:1815,0
DA:1816,0
DA:1817,0
DA:1840,0
end_of_record
SF:/usr/include/c++/9/istream
DA:131,0
DA:133,0
DA:134,0
DA:186,0
DA:187,0
end_of_record
SF:/usr/include/c++/9/ext/new_allocator.h
DA:80,0
DA:83,0
DA:89,0
DA:102,0
DA:104,0
DA:105,0
DA:114,0
DA:119,0
DA:128,0
DA:132,0
DA:144,0
DA:147,0
DA:151,0
DA:153,0
end_of_record
SF:/usr/include/c++/9/new
DA:173,0
DA:174,0
end_of_record
SF:/usr/include/c++/9/bits/stl_uninitialized.h
FN:76,_ZNSt20__uninitialized_copyILb0EE13__uninit_copyIN9__gnu_cxx17__normal_iteratorIPKSt4pairINSt7__cxx1112basic_stringIcSt11char_traitsIcESaIcEEESA_ESt6vectorISB_SaISB_EEEEPSB_EET0_T_SK_SJ_
FNDA:0,_ZNSt20__uninitialized_copyILb0EE13__uninit_copyIN9__gnu_cxx17__normal_iteratorIPKSt4pairINSt7__cxx1112basic_stringIcSt11char_traitsIcESaIcEEESA_ESt6vectorISB_SaISB_EEEEPSB_EET0_T_SK_SJ_
FN:76,_ZNSt20__uninitialized_copyILb0EE13__uninit_copyIN9__gnu_cxx17__normal_iteratorIPKNSt7__cxx1112basic_stringIcSt11char_traitsIcESaIcEEESt6vectorIS9_SaIS9_EEEEPS9_EET0_T_SI_SH_
FNDA:0,_ZNSt20__uninitialized_copyILb0EE13__uninit_copyIN9__gnu_cxx17__normal_iteratorIPKNSt7__cxx1112basic_stringIcSt11char_traitsIcESaIcEEESt6vectorIS9_SaIS9_EEEEPS9_EET0_T_SI_SH_
FN:76,_ZNSt20__uninitialized_copyILb0EE13__uninit_copyIPKNSt8__detail6_StateIcEEPS4_EET0_T_S9_S8_
FNDA:0,_ZNSt20__uninitialized_copyILb0EE13__uninit_copyIPKNSt8__detail6_StateIcEEPS4_EET0_T_S9_S8_
DA:76,0
DA:79,0
DA:82,0
DA:83,0
DA:84,0
DA:86,0
DA:88,0
DA:89,0
DA:76,0
DA:79,0
DA:82,0
DA:83,0
DA:84,0
DA:86,0
DA:88,0
DA:89,0
DA:76,0
DA:79,0
DA:82,0
DA:83,0
DA:84,0
DA:86,0
DA:88,0
DA:89,0
DA:76,0
DA:79,0
DA:82,0
DA:83,0
DA:99,0
DA:101,0
DA:115,0
DA:134,0
DA:140,0
DA:305,0
DA:307,0
DA:323,0
DA:329,0
DA:544,0
DA:545,0
DA:597,0
DA:601,0
DA:661,0
DA:663,0
DA:905,0
DA:912,0
DA:913,0
DA:924,0
DA:927,0
DA:928,0
DA:929,0
DA:930,0
DA:949,0
DA:950,0
DA:958,0
DA:964,0
end_of_record
SF:/usr/include/c++/9/bits/stl_iterator_base_funcs.h
FN:138,_ZSt8distanceINSt7__cxx1114regex_iteratorIN9__gnu_cxx17__normal_iteratorIPKcNS0_12basic_stringIcSt11char_traitsIcESaIcEEEEEcNS0_12regex_traitsIcEEEEENSt15iterator_traitsIT_E15difference_typeESG_SG_
FNDA:0,_ZSt8distanceINSt7__cxx1114regex_iteratorIN9__gnu_cxx17__normal_iteratorIPKcNS0_12basic_stringIcSt11char_traitsIcESaIcEEEEEcNS0_12regex_traitsIcEEEEENSt15iterator_traitsIT_E15difference_typeESG_SG_
DA:98,0
DA:104,0
DA:138,0
DA:141,0
DA:142,0
DA:174,0
DA:180,0
DA:181,0
DA:183,0
DA:185,0
DA:202,0
DA:205,0
DA:206,0
DA:224,0
DA:230,0
end_of_record
SF:/usr/include/c++/9/bits/shared_ptr_base.h
FN:131,_ZNSt16_Sp_counted_baseILN9__gnu_cxx12_Lock_policyE2EE10_M_destroyEv
FNDA:0,_ZNSt16_Sp_counted_baseILN9__gnu_cxx12_Lock_policyE2EE10_M_destroyEv
FN:148,_ZNSt16_Sp_counted_baseILN9__gnu_cxx12_Lock_policyE2EE10_M_releaseEv
FNDA:0,_ZNSt16_Sp_counted_baseILN9__gnu_cxx12_Lock_policyE2EE10_M_releaseEv
FN:404,_ZNSt15_Sp_counted_ptrIDnLN9__gnu_cxx12_Lock_policyE2EE10_M_disposeEv
FNDA:0,_ZNSt15_Sp_counted_ptrIDnLN9__gnu_cxx12_Lock_policyE2EE10_M_disposeEv
FN:552,_ZNSt23_Sp_counted_ptr_inplaceINSt8__detail4_NFAINSt7__cxx1112regex_traitsIcEEEESaIS5_ELN9__gnu_cxx12_Lock_policyE2EED0Ev
FNDA:0,_ZNSt23_Sp_counted_ptr_inplaceINSt8__detail4_NFAINSt7__cxx1112regex_traitsIcEEEESaIS5_ELN9__gnu_cxx12_Lock_policyE2EED0Ev
FN:552,_ZNSt23_Sp_counted_ptr_inplaceINSt8__detail4_NFAINSt7__cxx1112regex_traitsIcEEEESaIS5_ELN9__gnu_cxx12_Lock_policyE2EED2Ev
FNDA:0,_ZNSt23_Sp_counted_ptr_inplaceINSt8__detail4_NFAINSt7__cxx1112regex_traitsIcEEEESaIS5_ELN9__gnu_cxx12_Lock_policyE2EED2Ev
FN:555,_ZNSt23_Sp_counted_ptr_inplaceINSt8__detail4_NFAINSt7__cxx1112regex_traitsIcEEEESaIS5_ELN9__gnu_cxx12_Lock_policyE2EE10_M_disposeEv
FNDA:0,_ZNSt23_Sp_counted_ptr_inplaceINSt8__detail4_NFAINSt7__cxx1112regex_traitsIcEEEESaIS5_ELN9__gnu_cxx12_Lock_policyE2EE10_M_disposeEv
FN:562,_ZNSt23_Sp_counted_ptr_inplaceINSt8__detail4_NFAINSt7__cxx1112regex_traitsIcEEEESaIS5_ELN9__gnu_cxx12_Lock_policyE2EE10_M_destroyEv
FNDA:0,_ZNSt23_Sp_counted_ptr_inplaceINSt8__detail4_NFAINSt7__cxx1112regex_traitsIcEEEESaIS5_ELN9__gnu_cxx12_Lock_policyE2EE10_M_destroyEv
FN:575,_ZNSt23_Sp_counted_ptr_inplaceINSt8__detail4_NFAINSt7__cxx1112regex_traitsIcEEEESaIS5_ELN9__gnu_cxx12_Lock_policyE2EE14_M_get_deleterERKSt9type_info
FNDA:0,_ZNSt23_Sp_counted_ptr_inplaceINSt8__detail4_NFAINSt7__cxx1112regex_traitsIcEEEESaIS5_ELN9__gnu_cxx12_Lock_policyE2EE14_M_get_deleterERKSt9type_info
FN:672,_ZNSt14__shared_countILN9__gnu_cxx12_Lock_policyE2EEC2INSt8__detail4_NFAINSt7__cxx1112regex_traitsIcEEEESaIS9_EJRKSt6localeRNSt15regex_constants18syntax_option_typeEEEERPT_St20_Sp_alloc_shared_tagIT0_EDpOT1_
FNDA:0,_ZNSt14__shared_countILN9__gnu_cxx12_Lock_policyE2EEC2INSt8__detail4_NFAINSt7__cxx1112regex_traitsIcEEEESaIS9_EJRKSt6localeRNSt15regex_constants18syntax_option_typeEEEERPT_St20_Sp_alloc_shared_tagIT0_EDpOT1_
DA:117,0
DA:118,0
DA:121,0
DA:131,0
DA:132,0
DA:148,0
DA:152,0
DA:155,0
DA:167,0
DA:171,0
DA:174,0
DA:404,0
DA:412,0
DA:414,0
DA:418,0
DA:508,0
DA:510,0
DA:511,0
DA:526,0
DA:531,0
DA:533,0
DA:543,0
DA:544,0
DA:548,0
DA:552,0
DA:552,0
DA:552,0
DA:555,0
DA:557,0
DA:558,0
DA:562,0
DA:564,0
DA:565,0
DA:566,0
DA:567,0
DA:575,0
DA:577,0
DA:583,0
DA:585,0
DA:590,0
DA:594,0
DA:616,0
DA:672,0
DA:676,0
DA:677,0
DA:678,0
DA:679,0
DA:680,0
DA:681,0
DA:682,0
DA:683,0
DA:684,0
DA:727,0
DA:729,0
DA:730,0
DA:756,0
DA:758,0
DA:759,0
DA:760,0
DA:1005,0
DA:1008,0
DA:1012,0
DA:1015,0
DA:1020,0
DA:1021,0
DA:1169,0
DA:1184,0
DA:1185,0
DA:1187,0
DA:1188,0
DA:1309,0
DA:1312,0
DA:1343,0
DA:1344,0
DA:1345,0
DA:1388,0
end_of_record
SF:/usr/include/c++/9/bits/regex_automaton.h
FN:228,_ZNSt8__detail4_NFAINSt7__cxx1112regex_traitsIcEEEC2ERKSt6localeNSt15regex_constants18syntax_option_typeE
FNDA:0,_ZNSt8__detail4_NFAINSt7__cxx1112regex_traitsIcEEEC2ERKSt6localeNSt15regex_constants18syntax_option_typeE
FN:237,_ZNSt8__detail4_NFAINSt7__cxx1112regex_traitsIcEEE16_M_insert_acceptEv
FNDA:0,_ZNSt8__detail4_NFAINSt7__cxx1112regex_traitsIcEEE16_M_insert_acceptEv
FN:244,_ZNSt8__detail4_NFAINSt7__cxx1112regex_traitsIcEEE13_M_insert_altEllb
FNDA:0,_ZNSt8__detail4_NFAINSt7__cxx1112regex_traitsIcEEE13_M_insert_altEllb
FN:256,_ZNSt8__detail4_NFAINSt7__cxx1112regex_traitsIcEEE16_M_insert_repeatEllb
FNDA:0,_ZNSt8__detail4_NFAINSt7__cxx1112regex_traitsIcEEE16_M_insert_repeatEllb
FN:268,_ZNSt8__detail4_NFAINSt7__cxx1112regex_traitsIcEEE17_M_insert_matcherESt8functionIFbcEE
FNDA:0,_ZNSt8__detail4_NFAINSt7__cxx1112regex_traitsIcEEE17_M_insert_matcherESt8functionIFbcEE
FN:276,_ZNSt8__detail4_NFAINSt7__cxx1112regex_traitsIcEEE23_M_insert_subexpr_beginEv
FNDA:0,_ZNSt8__detail4_NFAINSt7__cxx1112regex_traitsIcEEE23_M_insert_subexpr_beginEv
FN:286,_ZNSt8__detail4_NFAINSt7__cxx1112regex_traitsIcEEE21_M_insert_subexpr_endEv
FNDA:0,_ZNSt8__detail4_NFAINSt7__cxx1112regex_traitsIcEEE21_M_insert_subexpr_endEv
FN:298,_ZNSt8__detail4_NFAINSt7__cxx1112regex_traitsIcEEE20_M_insert_line_beginEv
FNDA:0,_ZNSt8__detail4_NFAINSt7__cxx1112regex_traitsIcEEE20_M_insert_line_beginEv
FN:302,_ZNSt8__detail4_NFAINSt7__cxx1112regex_traitsIcEEE18_M_insert_line_endEv
FNDA:0,_ZNSt8__detail4_NFAINSt7__cxx1112regex_traitsIcEEE18_M_insert_line_endEv
FN:306,_ZNSt8__detail4_NFAINSt7__cxx1112regex_traitsIcEEE20_M_insert_word_boundEb
FNDA:0,_ZNSt8__detail4_NFAINSt7__cxx1112regex_traitsIcEEE20_M_insert_word_boundEb
FN:314,_ZNSt8__detail4_NFAINSt7__cxx1112regex_traitsIcEEE19_M_insert_lookaheadElb
FNDA:0,_ZNSt8__detail4_NFAINSt7__cxx1112regex_traitsIcEEE19_M_insert_lookaheadElb
FN:323,_ZNSt8__detail4_NFAINSt7__cxx1112regex_traitsIcEEE15_M_insert_dummyEv
FNDA:0,_ZNSt8__detail4_NFAINSt7__cxx1112regex_traitsIcEEE15_M_insert_dummyEv
FN:327,_ZNSt8__detail4_NFAINSt7__cxx1112regex_traitsIcEEE15_M_insert_stateENS_6_StateIcEE
FNDA:0,_ZNSt8__detail4_NFAINSt7__cxx1112regex_traitsIcEEE15_M_insert_stateENS_6_StateIcEE
DA:98,0
DA:99,0
DA:104,0
DA:106,0
DA:108,0
DA:133,0
DA:135,0
DA:136,0
DA:139,0
DA:141,0
DA:142,0
DA:146,0
DA:148,0
DA:149,0
DA:150,0
DA:156,0
DA:158,0
DA:159,0
DA:160,0
DA:165,0
DA:169,0
DA:170,0
DA:173,0
DA:174,0
DA:177,0
DA:180,0
DA:190,0
DA:191,0
DA:192,0
DA:206,0
DA:207,0
DA:210,0
DA:211,0
DA:228,0
DA:229,0
DA:230,0
DA:237,0
DA:239,0
DA:240,0
DA:244,0
DA:247,0
DA:250,0
DA:251,0
DA:252,0
DA:256,0
DA:258,0
DA:261,0
DA:262,0
DA:263,0
DA:264,0
DA:268,0
DA:270,0
DA:271,0
DA:272,0
DA:276,0
DA:278,0
DA:279,0
DA:280,0
DA:281,0
DA:282,0
DA:286,0
DA:288,0
DA:289,0
DA:290,0
DA:291,0
DA:298,0
DA:299,0
DA:302,0
DA:303,0
DA:306,0
DA:308,0
DA:309,0
DA:310,0
DA:314,0
DA:316,0
DA:317,0
DA:318,0
DA:319,0
DA:323,0
DA:324,0
DA:327,0
DA:329,0
DA:330,0
DA:331,0
DA:336,0
DA:361,0
DA:362,0
DA:365,0
DA:366,0
DA:371,0
DA:373,0
DA:374,0
DA:375,0
DA:379,0
DA:381,0
DA:382,0
end_of_record
SF:/usr/include/c++/9/bits/regex_scanner.tcc
FN:56,_ZNSt8__detail8_ScannerIcEC2EPKcS3_NSt15regex_constants18syntax_option_typeESt6locale
FNDA:0,_ZNSt8__detail8_ScannerIcEC2EPKcS3_NSt15regex_constants18syntax_option_typeESt6locale
FN:70,_ZNSt8__detail8_ScannerIcE10_M_advanceEv
FNDA:0,_ZNSt8__detail8_ScannerIcE10_M_advanceEv
FN:96,_ZNSt8__detail8_ScannerIcE14_M_scan_normalEv
FNDA:0,_ZNSt8__detail8_ScannerIcE14_M_scan_normalEv
FN:203,_ZNSt8__detail8_ScannerIcE18_M_scan_in_bracketEv
FNDA:0,_ZNSt8__detail8_ScannerIcE18_M_scan_in_bracketEv
FN:265,_ZNSt8__detail8_ScannerIcE16_M_scan_in_braceEv
FNDA:0,_ZNSt8__detail8_ScannerIcE16_M_scan_in_braceEv
FN:310,_ZNSt8__detail8_ScannerIcE18_M_eat_escape_ecmaEv
FNDA:0,_ZNSt8__detail8_ScannerIcE18_M_eat_escape_ecmaEv
FN:389,_ZNSt8__detail8_ScannerIcE19_M_eat_escape_posixEv
FNDA:0,_ZNSt8__detail8_ScannerIcE19_M_eat_escape_posixEv
FN:431,_ZNSt8__detail8_ScannerIcE17_M_eat_escape_awkEv
FNDA:0,_ZNSt8__detail8_ScannerIcE17_M_eat_escape_awkEv
FN:469,_ZNSt8__detail8_ScannerIcE12_M_eat_classEc
FNDA:0,_ZNSt8__detail8_ScannerIcE12_M_eat_classEc
DA:56,0
DA:62,0
DA:63,0
DA:65,0
DA:66,0
DA:70,0
DA:73,0
DA:75,0
DA:76,0
DA:79,0
DA:80,0
DA:81,0
DA:82,0
DA:83,0
DA:84,0
DA:96,0
DA:99,0
DA:101,0
DA:103,0
DA:104,0
DA:105,0
DA:107,0
DA:109,0
DA:110,0
DA:114,0
DA:115,0
DA:117,0
DA:119,0
DA:120,0
DA:122,0
DA:124,0
DA:126,0
DA:128,0
DA:129,0
DA:133,0
DA:135,0
DA:136,0
DA:138,0
DA:140,0
DA:141,0
DA:142,0
DA:144,0
DA:146,0
DA:147,0
DA:148,0
DA:151,0
DA:155,0
DA:156,0
DA:158,0
DA:160,0
DA:161,0
DA:162,0
DA:164,0
DA:165,0
DA:166,0
DA:168,0
DA:169,0
DA:172,0
DA:174,0
DA:176,0
DA:177,0
DA:179,0
DA:181,0
DA:182,0
DA:183,0
DA:184,0
DA:186,0
DA:187,0
DA:193,0
DA:194,0
DA:203,0
DA:206,0
DA:207,0
DA:211,0
DA:213,0
DA:214,0
DA:215,0
DA:217,0
DA:218,0
DA:221,0
DA:223,0
DA:224,0
DA:226,0
DA:228,0
DA:229,0
DA:231,0
DA:233,0
DA:234,0
DA:238,0
DA:239,0
DA:245,0
DA:247,0
DA:248,0
DA:251,0
DA:252,0
DA:255,0
DA:256,0
DA:258,0
DA:259,0
DA:265,0
DA:268,0
DA:269,0
DA:273,0
DA:275,0
DA:277,0
DA:278,0
DA:279,0
DA:280,0
DA:281,0
DA:283,0
DA:284,0
DA:286,0
DA:288,0
DA:290,0
DA:291,0
DA:292,0
DA:295,0
DA:298,0
DA:300,0
DA:301,0
DA:304,0
DA:306,0
DA:310,0
DA:313,0
DA:314,0
DA:317,0
DA:318,0
DA:320,0
DA:322,0
DA:323,0
DA:325,0
DA:327,0
DA:328,0
DA:330,0
DA:332,0
DA:333,0
DA:336,0
DA:337,0
DA:338,0
DA:339,0
DA:340,0
DA:341,0
DA:343,0
DA:344,0
DA:346,0
DA:348,0
DA:349,0
DA:352,0
DA:353,0
DA:355,0
DA:357,0
DA:358,0
DA:360,0
DA:361,0
DA:362,0
DA:365,0
DA:367,0
DA:370,0
DA:372,0
DA:373,0
DA:374,0
DA:375,0
DA:376,0
DA:380,0
DA:381,0
DA:383,0
DA:389,0
DA:392,0
DA:393,0
DA:396,0
DA:397,0
DA:399,0
DA:401,0
DA:402,0
DA:405,0
DA:407,0
DA:408,0
DA:410,0
DA:412,0
DA:413,0
DA:419,0
DA:426,0
DA:431,0
DA:434,0
DA:435,0
DA:437,0
DA:439,0
DA:440,0
DA:443,0
DA:444,0
DA:445,0
DA:447,0
DA:448,0
DA:450,0
DA:451,0
DA:452,0
DA:453,0
DA:455,0
DA:456,0
DA:457,0
DA:460,0
DA:469,0
DA:472,0
DA:473,0
DA:475,0
DA:476,0
DA:477,0
DA:479,0
DA:480,0
DA:483,0
DA:486,0
end_of_record
SF:/usr/include/c++/9/bits/move.h
FN:182,_ZSt4swapISt6localeENSt9enable_ifIXsrSt6__and_IJSt6__not_ISt15__is_tuple_likeIT_EESt21is_move_constructibleIS5_ESt18is_move_assignableIS5_EEE5valueEvE4typeERS5_SF_
FNDA:0,_ZSt4swapISt6localeENSt9enable_ifIXsrSt6__and_IJSt6__not_ISt15__is_tuple_likeIT_EESt21is_move_constructibleIS5_ESt18is_move_assignableIS5_EEE5valueEvE4typeERS5_SF_
DA:47,0
DA:74,0
DA:99,0
DA:138,0
DA:139,0
DA:182,0
DA:193,0
DA:194,0
DA:195,0
DA:196,0
end_of_record
SF:/usr/include/c++/9/bits/basic_string.h
FN:6097,_ZStplIcSt11char_traitsIcESaIcEENSt7__cxx1112basic_stringIT_T0_T1_EEOS8_S9_
FNDA:0,_ZStplIcSt11char_traitsIcESaIcEENSt7__cxx1112basic_stringIT_T0_T1_EEOS8_S9_
FN:6149,_ZSteqIcEN9__gnu_cxx11__enable_ifIXsrSt9__is_charIT_E7__valueEbE6__typeERKNSt7__cxx1112basic_stringIS3_St11char_traitsIS3_ESaIS3_EEESE_
FNDA:0,_ZSteqIcEN9__gnu_cxx11__enable_ifIXsrSt9__is_charIT_E7__valueEbE6__typeERKNSt7__cxx1112basic_stringIS3_St11char_traitsIS3_ESaIS3_EEESE_
DA:150,0
DA:156,0
DA:157,0
DA:159,0
DA:160,0
DA:178,0
DA:179,0
DA:182,0
DA:183,0
DA:186,0
DA:190,0
DA:193,0
DA:200,0
DA:203,0
DA:210,0
DA:211,0
DA:214,0
DA:216,0
DA:217,0
DA:221,0
DA:222,0
DA:229,0
DA:231,0
DA:232,0
DA:236,0
DA:237,0
DA:243,0
DA:247,0
DA:263,0
DA:266,0
DA:286,0
DA:287,0
DA:290,0
DA:291,0
DA:346,0
DA:348,0
DA:349,0
DA:351,0
DA:383,0
DA:384,0
DA:392,0
DA:393,0
DA:396,0
DA:398,0
DA:431,0
DA:433,0
DA:434,0
DA:448,0
DA:450,0
DA:451,0
DA:540,0
DA:541,0
DA:542,0
DA:552,0
DA:553,0
DA:555,0
DA:557,0
DA:562,0
DA:563,0
DA:569,0
DA:570,0
DA:571,0
DA:625,0
DA:627,0
DA:628,0
DA:657,0
DA:658,0
DA:665,0
DA:696,0
DA:704,0
DA:705,0
DA:826,0
DA:827,0
DA:842,0
DA:843,0
DA:930,0
DA:936,0
DA:993,0
DA:995,0
DA:1023,0
DA:1024,0
DA:1031,0
DA:1032,0
DA:1046,0
DA:1049,0
DA:1063,0
DA:1070,0
DA:1186,0
DA:1188,0
DA:1189,0
DA:1221,0
DA:1222,0
DA:1364,0
DA:1366,0
DA:1452,0
DA:1453,0
DA:1639,0
DA:1641,0
DA:2300,0
DA:2301,0
DA:2312,0
DA:2313,0
DA:2361,0
DA:2363,0
DA:6097,0
DA:6100,0
DA:6101,0
DA:6102,0
DA:6103,0
DA:6104,0
DA:6149,0
DA:6151,0
DA:6152,0
DA:6153,0
DA:6175,0
DA:6177,0
DA:6557,0
DA:6558,0
DA:6559,0
end_of_record
SF:/usr/include/c++/9/ext/aligned_buffer.h
DA:64,0
DA:65,0
DA:68,0
DA:69,0
DA:72,0
DA:73,0
DA:76,0
DA:77,0
DA:102,0
DA:104,0
DA:114,0
DA:115,0
end_of_record
SF:/usr/include/c++/9/bits/stl_function.h
DA:385,0
DA:386,0
DA:1155,0
DA:1156,0
end_of_record
SF:/usr/include/c++/9/iostream
end_of_record
SF:/usr/include/c++/9/bits/ios_base.h
FN:1023,_ZSt3decRSt8ios_base
FNDA:0,_ZSt3decRSt8ios_base
FN:1031,_ZSt3hexRSt8ios_base
FNDA:0,_ZSt3hexRSt8ios_base
FN:1039,_ZSt3octRSt8ios_base
FNDA:0,_ZSt3octRSt8ios_base
DA:83,0
DA:84,0
DA:87,0
DA:88,0
DA:95,0
DA:96,0
DA:99,0
DA:100,0
DA:103,0
DA:104,0
DA:165,0
DA:166,0
DA:670,0
DA:672,0
DA:673,0
DA:674,0
DA:675,0
DA:1023,0
DA:1025,0
DA:1026,0
DA:1031,0
DA:1033,0
DA:1034,0
DA:1039,0
DA:1041,0
DA:1042,0
end_of_record
SF:/usr/include/c++/9/ext/alloc_traits.h
DA:97,0
DA:98,0
end_of_record
SF:/usr/include/c++/9/bits/alloc_traits.h
DA:443,0
DA:444,0
DA:469,0
DA:470,0
DA:482,0
DA:484,0
DA:495,0
DA:497,0
DA:505,0
DA:506,0
DA:514,0
DA:515,0
DA:545,0
DA:546,0
DA:553,0
DA:557,0
end_of_record
SF:/usr/include/c++/9/bits/allocated_ptr.h
DA:52,0
DA:53,0
DA:70,0
DA:73,0
DA:78,0
DA:80,0
DA:85,0
DA:95,0
DA:97,0
end_of_record
SF:/usr/include/x86_64-linux-gnu/c++/9/bits/gthr-default.h
DA:248,0
DA:250,0
DA:252,0
end_of_record
SF:/usr/include/c++/9/bits/regex_constants.h
DA:183,0
DA:185,0
DA:186,0
DA:190,0
DA:192,0
DA:193,0
DA:374,0
DA:376,0
DA:377,0
DA:381,0
DA:383,0
DA:384,0
DA:403,0
DA:404,0
end_of_record
SF:/usr/include/c++/9/bits/stl_heap.h
FN:214,_ZSt13__adjust_heapIN9__gnu_cxx17__normal_iteratorIPcSt6vectorIcSaIcEEEElcNS0_5__ops15_Iter_less_iterEEvT_T0_SA_T1_T2_
FNDA:0,_ZSt13__adjust_heapIN9__gnu_cxx17__normal_iteratorIPcSt6vectorIcSaIcEEEElcNS0_5__ops15_Iter_less_iterEEvT_T0_SA_T1_T2_
DA:128,0
DA:132,0
DA:133,0
DA:135,0
DA:136,0
DA:137,0
DA:139,0
DA:214,0
DA:217,0
DA:218,0
DA:219,0
DA:221,0
DA:222,0
DA:224,0
DA:225,0
DA:226,0
DA:228,0
DA:230,0
DA:231,0
DA:233,0
DA:236,0
DA:237,0
DA:238,0
DA:239,0
end_of_record
SF:/usr/include/c++/9/bits/regex_compiler.tcc
FN:65,_ZNSt8__detail9_CompilerINSt7__cxx1112regex_traitsIcEEEC2EPKcS6_RKSt6localeNSt15regex_constants18syntax_option_typeE
FNDA:0,_ZNSt8__detail9_CompilerINSt7__cxx1112regex_traitsIcEEEC2EPKcS6_RKSt6localeNSt15regex_constants18syntax_option_typeE
FN:96,_ZNSt8__detail9_CompilerINSt7__cxx1112regex_traitsIcEEE14_M_disjunctionEv
FNDA:0,_ZNSt8__detail9_CompilerINSt7__cxx1112regex_traitsIcEEE14_M_disjunctionEv
FN:120,_ZNSt8__detail9_CompilerINSt7__cxx1112regex_traitsIcEEE14_M_alternativeEv
FNDA:0,_ZNSt8__detail9_CompilerINSt7__cxx1112regex_traitsIcEEE14_M_alternativeEv
FN:136,_ZNSt8__detail9_CompilerINSt7__cxx1112regex_traitsIcEEE7_M_termEv
FNDA:0,_ZNSt8__detail9_CompilerINSt7__cxx1112regex_traitsIcEEE7_M_termEv
FN:151,_ZNSt8__detail9_CompilerINSt7__cxx1112regex_traitsIcEEE12_M_assertionEv
FNDA:0,_ZNSt8__detail9_CompilerINSt7__cxx1112regex_traitsIcEEE12_M_assertionEv
FN:183,_ZNSt8__detail9_CompilerINSt7__cxx1112regex_traitsIcEEE13_M_quantifierEv
FNDA:0,_ZNSt8__detail9_CompilerINSt7__cxx1112regex_traitsIcEEE13_M_quantifierEv
FN:187,_ZZNSt8__detail9_CompilerINSt7__cxx1112regex_traitsIcEEE13_M_quantifierEvENKUlvE_clEv.isra.0
FNDA:0,_ZZNSt8__detail9_CompilerINSt7__cxx1112regex_traitsIcEEE13_M_quantifierEvENKUlvE_clEv.isra.0
FN:313,_ZNSt8__detail9_CompilerINSt7__cxx1112regex_traitsIcEEE7_M_atomEv
FNDA:0,_ZNSt8__detail9_CompilerINSt7__cxx1112regex_traitsIcEEE7_M_atomEv
FN:358,_ZNSt8__detail9_CompilerINSt7__cxx1112regex_traitsIcEEE21_M_bracket_expressionEv
FNDA:0,_ZNSt8__detail9_CompilerINSt7__cxx1112regex_traitsIcEEE21_M_bracket_expressionEv
FN:373,_ZNSt8__detail9_CompilerINSt7__cxx1112regex_traitsIcEEE26_M_insert_any_matcher_ecmaILb1ELb1EEEvv
FNDA:0,_ZNSt8__detail9_CompilerINSt7__cxx1112regex_traitsIcEEE26_M_insert_any_matcher_ecmaILb1ELb1EEEvv
FN:373,_ZNSt8__detail9_CompilerINSt7__cxx1112regex_traitsIcEEE26_M_insert_any_matcher_ecmaILb1ELb0EEEvv
FNDA:0,_ZNSt8__detail9_CompilerINSt7__cxx1112regex_traitsIcEEE26_M_insert_any_matcher_ecmaILb1ELb0EEEvv
FN:373,_ZNSt8__detail9_CompilerINSt7__cxx1112regex_traitsIcEEE26_M_insert_any_matcher_ecmaILb0ELb1EEEvv
FNDA:0,_ZNSt8__detail9_CompilerINSt7__cxx1112regex_traitsIcEEE26_M_insert_any_matcher_ecmaILb0ELb1EEEvv
FN:373,_ZNSt8__detail9_CompilerINSt7__cxx1112regex_traitsIcEEE26_M_insert_any_matcher_ecmaILb0ELb0EEEvv
FNDA:0,_ZNSt8__detail9_CompilerINSt7__cxx1112regex_traitsIcEEE26_M_insert_any_matcher_ecmaILb0ELb0EEEvv
FN:385,_ZNSt8__detail9_CompilerINSt7__cxx1112regex_traitsIcEEE27_M_insert_any_matcher_posixILb1ELb0EEEvv
FNDA:0,_ZNSt8__detail9_CompilerINSt7__cxx1112regex_traitsIcEEE27_M_insert_any_matcher_posixILb1ELb0EEEvv
FN:385,_ZNSt8__detail9_CompilerINSt7__cxx1112regex_traitsIcEEE27_M_insert_any_matcher_posixILb1ELb1EEEvv
FNDA:0,_ZNSt8__detail9_CompilerINSt7__cxx1112regex_traitsIcEEE27_M_insert_any_matcher_posixILb1ELb1EEEvv
FN:385,_ZNSt8__detail9_CompilerINSt7__cxx1112regex_traitsIcEEE27_M_insert_any_matcher_posixILb0ELb1EEEvv
FNDA:0,_ZNSt8__detail9_CompilerINSt7__cxx1112regex_traitsIcEEE27_M_insert_any_matcher_posixILb0ELb1EEEvv
FN:385,_ZNSt8__detail9_CompilerINSt7__cxx1112regex_traitsIcEEE27_M_insert_any_matcher_posixILb0ELb0EEEvv
FNDA:0,_ZNSt8__detail9_CompilerINSt7__cxx1112regex_traitsIcEEE27_M_insert_any_matcher_posixILb0ELb0EEEvv
FN:397,_ZNSt8__detail9_CompilerINSt7__cxx1112regex_traitsIcEEE22_M_insert_char_matcherILb0ELb0EEEvv
FNDA:0,_ZNSt8__detail9_CompilerINSt7__cxx1112regex_traitsIcEEE22_M_insert_char_matcherILb0ELb0EEEvv
FN:397,_ZNSt8__detail9_CompilerINSt7__cxx1112regex_traitsIcEEE22_M_insert_char_matcherILb0ELb1EEEvv
FNDA:0,_ZNSt8__detail9_CompilerINSt7__cxx1112regex_traitsIcEEE22_M_insert_char_matcherILb0ELb1EEEvv
FN:397,_ZNSt8__detail9_CompilerINSt7__cxx1112regex_traitsIcEEE22_M_insert_char_matcherILb1ELb0EEEvv
FNDA:0,_ZNSt8__detail9_CompilerINSt7__cxx1112regex_traitsIcEEE22_M_insert_char_matcherILb1ELb0EEEvv
FN:397,_ZNSt8__detail9_CompilerINSt7__cxx1112regex_traitsIcEEE22_M_insert_char_matcherILb1ELb1EEEvv
FNDA:0,_ZNSt8__detail9_CompilerINSt7__cxx1112regex_traitsIcEEE22_M_insert_char_matcherILb1ELb1EEEvv
FN:409,_ZNSt8__detail9_CompilerINSt7__cxx1112regex_traitsIcEEE33_M_insert_character_class_matcherILb0ELb1EEEvv
FNDA:0,_ZNSt8__detail9_CompilerINSt7__cxx1112regex_traitsIcEEE33_M_insert_character_class_matcherILb0ELb1EEEvv
FN:409,_ZNSt8__detail9_CompilerINSt7__cxx1112regex_traitsIcEEE33_M_insert_character_class_matcherILb0ELb0EEEvv
FNDA:0,_ZNSt8__detail9_CompilerINSt7__cxx1112regex_traitsIcEEE33_M_insert_character_class_matcherILb0ELb0EEEvv
FN:409,_ZNSt8__detail9_CompilerINSt7__cxx1112regex_traitsIcEEE33_M_insert_character_class_matcherILb1ELb0EEEvv
FNDA:0,_ZNSt8__detail9_CompilerINSt7__cxx1112regex_traitsIcEEE33_M_insert_character_class_matcherILb1ELb0EEEvv
FN:409,_ZNSt8__detail9_CompilerINSt7__cxx1112regex_traitsIcEEE33_M_insert_character_class_matcherILb1ELb1EEEvv
FNDA:0,_ZNSt8__detail9_CompilerINSt7__cxx1112regex_traitsIcEEE33_M_insert_character_class_matcherILb1ELb1EEEvv
FN:424,_ZNSt8__detail9_CompilerINSt7__cxx1112regex_traitsIcEEE25_M_insert_bracket_matcherILb0ELb0EEEvb
FNDA:0,_ZNSt8__detail9_CompilerINSt7__cxx1112regex_traitsIcEEE25_M_insert_bracket_matcherILb0ELb0EEEvb
FN:424,_ZNSt8__detail9_CompilerINSt7__cxx1112regex_traitsIcEEE25_M_insert_bracket_matcherILb0ELb1EEEvb
FNDA:0,_ZNSt8__detail9_CompilerINSt7__cxx1112regex_traitsIcEEE25_M_insert_bracket_matcherILb0ELb1EEEvb
FN:424,_ZNSt8__detail9_CompilerINSt7__cxx1112regex_traitsIcEEE25_M_insert_bracket_matcherILb1ELb0EEEvb
FNDA:0,_ZNSt8__detail9_CompilerINSt7__cxx1112regex_traitsIcEEE25_M_insert_bracket_matcherILb1ELb0EEEvb
FN:424,_ZNSt8__detail9_CompilerINSt7__cxx1112regex_traitsIcEEE25_M_insert_bracket_matcherILb1ELb1EEEvb
FNDA:0,_ZNSt8__detail9_CompilerINSt7__cxx1112regex_traitsIcEEE25_M_insert_bracket_matcherILb1ELb1EEEvb
FN:455,_ZNSt8__detail9_CompilerINSt7__cxx1112regex_traitsIcEEE18_M_expression_termILb1ELb1EEEbRSt4pairIbcERNS_15_BracketMatcherIS3_XT_EXT0_EEE
FNDA:0,_ZNSt8__detail9_CompilerINSt7__cxx1112regex_traitsIcEEE18_M_expression_termILb1ELb1EEEbRSt4pairIbcERNS_15_BracketMatcherIS3_XT_EXT0_EEE
FN:455,_ZNSt8__detail9_CompilerINSt7__cxx1112regex_traitsIcEEE18_M_expression_termILb0ELb0EEEbRSt4pairIbcERNS_15_BracketMatcherIS3_XT_EXT0_EEE
FNDA:0,_ZNSt8__detail9_CompilerINSt7__cxx1112regex_traitsIcEEE18_M_expression_termILb0ELb0EEEbRSt4pairIbcERNS_15_BracketMatcherIS3_XT_EXT0_EEE
FN:455,_ZNSt8__detail9_CompilerINSt7__cxx1112regex_traitsIcEEE18_M_expression_termILb0ELb1EEEbRSt4pairIbcERNS_15_BracketMatcherIS3_XT_EXT0_EEE
FNDA:0,_ZNSt8__detail9_CompilerINSt7__cxx1112regex_traitsIcEEE18_M_expression_termILb0ELb1EEEbRSt4pairIbcERNS_15_BracketMatcherIS3_XT_EXT0_EEE
FN:455,_ZNSt8__detail9_CompilerINSt7__cxx1112regex_traitsIcEEE18_M_expression_termILb1ELb0EEEbRSt4pairIbcERNS_15_BracketMatcherIS3_XT_EXT0_EEE
FNDA:0,_ZNSt8__detail9_CompilerINSt7__cxx1112regex_traitsIcEEE18_M_expression_termILb1ELb0EEEbRSt4pairIbcERNS_15_BracketMatcherIS3_XT_EXT0_EEE
FN:462,_ZZNSt8__detail9_CompilerINSt7__cxx1112regex_traitsIcEEE18_M_expression_termILb0ELb0EEEbRSt4pairIbcERNS_15_BracketMatcherIS3_XT_EXT0_EEEENKUlcE_clEc
FNDA:0,_ZZNSt8__detail9_CompilerINSt7__cxx1112regex_traitsIcEEE18_M_expression_termILb0ELb0EEEbRSt4pairIbcERNS_15_BracketMatcherIS3_XT_EXT0_EEEENKUlcE_clEc
FN:462,_ZZNSt8__detail9_CompilerINSt7__cxx1112regex_traitsIcEEE18_M_expression_termILb0ELb1EEEbRSt4pairIbcERNS_15_BracketMatcherIS3_XT_EXT0_EEEENKUlcE_clEc
FNDA:0,_ZZNSt8__detail9_CompilerINSt7__cxx1112regex_traitsIcEEE18_M_expression_termILb0ELb1EEEbRSt4pairIbcERNS_15_BracketMatcherIS3_XT_EXT0_EEEENKUlcE_clEc
FN:462,_ZZNSt8__detail9_CompilerINSt7__cxx1112regex_traitsIcEEE18_M_expression_termILb1ELb0EEEbRSt4pairIbcERNS_15_BracketMatcherIS3_XT_EXT0_EEEENKUlcE_clEc
FNDA:0,_ZZNSt8__detail9_CompilerINSt7__cxx1112regex_traitsIcEEE18_M_expression_termILb1ELb0EEEbRSt4pairIbcERNS_15_BracketMatcherIS3_XT_EXT0_EEEENKUlcE_clEc
FN:462,_ZZNSt8__detail9_CompilerINSt7__cxx1112regex_traitsIcEEE18_M_expression_termILb1ELb1EEEbRSt4pairIbcERNS_15_BracketMatcherIS3_XT_EXT0_EEEENKUlcE_clEc
FNDA:0,_ZZNSt8__detail9_CompilerINSt7__cxx1112regex_traitsIcEEE18_M_expression_termILb1ELb1EEEbRSt4pairIbcERNS_15_BracketMatcherIS3_XT_EXT0_EEEENKUlcE_clEc
FN:470,_ZZNSt8__detail9_CompilerINSt7__cxx1112regex_traitsIcEEE18_M_expression_termILb0ELb0EEEbRSt4pairIbcERNS_15_BracketMatcherIS3_XT_EXT0_EEEENKUlvE0_clEv.isra.0
FNDA:0,_ZZNSt8__detail9_CompilerINSt7__cxx1112regex_traitsIcEEE18_M_expression_termILb0ELb0EEEbRSt4pairIbcERNS_15_BracketMatcherIS3_XT_EXT0_EEEENKUlvE0_clEv.isra.0
FN:470,_ZZNSt8__detail9_CompilerINSt7__cxx1112regex_traitsIcEEE18_M_expression_termILb0ELb1EEEbRSt4pairIbcERNS_15_BracketMatcherIS3_XT_EXT0_EEEENKUlvE0_clEv.isra.0
FNDA:0,_ZZNSt8__detail9_CompilerINSt7__cxx1112regex_traitsIcEEE18_M_expression_termILb0ELb1EEEbRSt4pairIbcERNS_15_BracketMatcherIS3_XT_EXT0_EEEENKUlvE0_clEv.isra.0
FN:567,_ZNSt8__detail9_CompilerINSt7__cxx1112regex_traitsIcEEE11_M_try_charEv
FNDA:0,_ZNSt8__detail9_CompilerINSt7__cxx1112regex_traitsIcEEE11_M_try_charEv
FN:602,_ZNSt8__detail9_CompilerINSt7__cxx1112regex_traitsIcEEE16_M_cur_int_valueEi
FNDA:0,_ZNSt8__detail9_CompilerINSt7__cxx1112regex_traitsIcEEE16_M_cur_int_valueEi
FN:617,_ZZNKSt8__detail15_BracketMatcherINSt7__cxx1112regex_traitsIcEELb0ELb0EE8_M_applyEcSt17integral_constantIbLb0EEENKUlvE_clEv
FNDA:0,_ZZNKSt8__detail15_BracketMatcherINSt7__cxx1112regex_traitsIcEELb0ELb0EE8_M_applyEcSt17integral_constantIbLb0EEENKUlvE_clEv
FN:617,_ZZNKSt8__detail15_BracketMatcherINSt7__cxx1112regex_traitsIcEELb0ELb1EE8_M_applyEcSt17integral_constantIbLb0EEENKUlvE_clEv
FNDA:0,_ZZNKSt8__detail15_BracketMatcherINSt7__cxx1112regex_traitsIcEELb0ELb1EE8_M_applyEcSt17integral_constantIbLb0EEENKUlvE_clEv
FN:617,_ZZNKSt8__detail15_BracketMatcherINSt7__cxx1112regex_traitsIcEELb1ELb0EE8_M_applyEcSt17integral_constantIbLb0EEENKUlvE_clEv
FNDA:0,_ZZNKSt8__detail15_BracketMatcherINSt7__cxx1112regex_traitsIcEELb1ELb0EE8_M_applyEcSt17integral_constantIbLb0EEENKUlvE_clEv
FN:617,_ZZNKSt8__detail15_BracketMatcherINSt7__cxx1112regex_traitsIcEELb1ELb1EE8_M_applyEcSt17integral_constantIbLb0EEENKUlvE_clEv
FNDA:0,_ZZNKSt8__detail15_BracketMatcherINSt7__cxx1112regex_traitsIcEELb1ELb1EE8_M_applyEcSt17integral_constantIbLb0EEENKUlvE_clEv
DA:65,0
DA:69,0
DA:76,0
DA:78,0
DA:79,0
DA:80,0
DA:82,0
DA:83,0
DA:84,0
DA:85,0
DA:86,0
DA:87,0
DA:89,0
DA:90,0
DA:91,0
DA:92,0
DA:96,0
DA:99,0
DA:100,0
DA:102,0
DA:103,0
DA:104,0
DA:105,0
DA:106,0
DA:107,0
DA:111,0
DA:112,0
DA:116,0
DA:120,0
DA:123,0
DA:125,0
DA:126,0
DA:127,0
DA:128,0
DA:131,0
DA:132,0
DA:136,0
DA:139,0
DA:141,0
DA:143,0
DA:151,0
DA:154,0
DA:155,0
DA:156,0
DA:157,0
DA:158,0
DA:160,0
DA:161,0
DA:162,0
DA:164,0
DA:165,0
DA:166,0
DA:167,0
DA:169,0
DA:170,0
DA:171,0
DA:173,0
DA:174,0
DA:183,0
DA:186,0
DA:187,0
DA:189,0
DA:190,0
DA:192,0
DA:194,0
DA:196,0
DA:197,0
DA:198,0
DA:199,0
DA:201,0
DA:202,0
DA:204,0
DA:206,0
DA:207,0
DA:208,0
DA:210,0
DA:212,0
DA:214,0
DA:215,0
DA:216,0
DA:217,0
DA:218,0
DA:220,0
DA:221,0
DA:222,0
DA:224,0
DA:226,0
DA:227,0
DA:229,0
DA:230,0
DA:232,0
DA:233,0
DA:234,0
DA:235,0
DA:239,0
DA:240,0
DA:241,0
DA:246,0
DA:247,0
DA:250,0
DA:252,0
DA:253,0
DA:255,0
DA:257,0
DA:258,0
DA:259,0
DA:261,0
DA:262,0
DA:266,0
DA:267,0
DA:269,0
DA:273,0
DA:274,0
DA:276,0
DA:277,0
DA:279,0
DA:280,0
DA:282,0
DA:283,0
DA:285,0
DA:286,0
DA:287,0
DA:290,0
DA:313,0
DA:316,0
DA:318,0
DA:319,0
DA:321,0
DA:323,0
DA:324,0
DA:325,0
DA:326,0
DA:328,0
DA:329,0
DA:330,0
DA:332,0
DA:333,0
DA:334,0
DA:335,0
DA:337,0
DA:338,0
DA:340,0
DA:342,0
DA:343,0
DA:344,0
DA:345,0
DA:347,0
DA:348,0
DA:349,0
DA:351,0
DA:352,0
DA:358,0
DA:361,0
DA:363,0
DA:365,0
DA:373,0
DA:376,0
DA:377,0
DA:380,0
DA:373,0
DA:376,0
DA:377,0
DA:380,0
DA:373,0
DA:376,0
DA:377,0
DA:380,0
DA:373,0
DA:376,0
DA:377,0
DA:380,0
DA:385,0
DA:388,0
DA:389,0
DA:392,0
DA:385,0
DA:388,0
DA:389,0
DA:392,0
DA:385,0
DA:388,0
DA:389,0
DA:392,0
DA:385,0
DA:388,0
DA:389,0
DA:392,0
DA:397,0
DA:400,0
DA:401,0
DA:403,0
DA:404,0
DA:397,0
DA:400,0
DA:401,0
DA:403,0
DA:404,0
DA:397,0
DA:400,0
DA:401,0
DA:403,0
DA:404,0
DA:397,0
DA:400,0
DA:401,0
DA:403,0
DA:404,0
DA:409,0
DA:413,0
DA:414,0
DA:415,0
DA:416,0
DA:417,0
DA:418,0
DA:419,0
DA:409,0
DA:413,0
DA:414,0
DA:415,0
DA:416,0
DA:417,0
DA:418,0
DA:419,0
DA:409,0
DA:413,0
DA:414,0
DA:415,0
DA:416,0
DA:417,0
DA:418,0
DA:419,0
DA:409,0
DA:413,0
DA:414,0
DA:415,0
DA:416,0
DA:417,0
DA:418,0
DA:419,0
DA:424,0
DA:427,0
DA:428,0
DA:430,0
DA:432,0
DA:434,0
DA:435,0
DA:437,0
DA:439,0
DA:440,0
DA:443,0
DA:444,0
DA:445,0
DA:446,0
DA:447,0
DA:448,0
DA:449,0
DA:450,0
DA:424,0
DA:427,0
DA:428,0
DA:430,0
DA:432,0
DA:434,0
DA:435,0
DA:437,0
DA:439,0
DA:440,0
DA:443,0
DA:444,0
DA:445,0
DA:446,0
DA:447,0
DA:448,0
DA:449,0
DA:450,0
DA:424,0
DA:427,0
DA:428,0
DA:430,0
DA:432,0
DA:434,0
DA:435,0
DA:437,0
DA:439,0
DA:440,0
DA:443,0
DA:444,0
DA:445,0
DA:446,0
DA:447,0
DA:448,0
DA:449,0
DA:450,0
DA:424,0
DA:427,0
DA:428,0
DA:430,0
DA:432,0
DA:434,0
DA:435,0
DA:437,0
DA:439,0
DA:440,0
DA:443,0
DA:444,0
DA:445,0
DA:446,0
DA:447,0
DA:448,0
DA:449,0
DA:450,0
DA:455,0
DA:459,0
DA:460,0
DA:462,0
DA:470,0
DA:472,0
DA:474,0
DA:475,0
DA:479,0
DA:481,0
DA:482,0
DA:483,0
DA:485,0
DA:487,0
DA:489,0
DA:490,0
DA:492,0
DA:494,0
DA:495,0
DA:497,0
DA:498,0
DA:509,0
DA:511,0
DA:513,0
DA:515,0
DA:517,0
DA:518,0
DA:520,0
DA:526,0
DA:530,0
DA:532,0
DA:533,0
DA:535,0
DA:537,0
DA:538,0
DA:542,0
DA:543,0
DA:544,0
DA:547,0
DA:551,0
DA:553,0
DA:554,0
DA:555,0
DA:556,0
DA:559,0
DA:455,0
DA:459,0
DA:460,0
DA:462,0
DA:470,0
DA:472,0
DA:474,0
DA:475,0
DA:479,0
DA:481,0
DA:482,0
DA:483,0
DA:485,0
DA:487,0
DA:489,0
DA:490,0
DA:492,0
DA:494,0
DA:495,0
DA:497,0
DA:498,0
DA:509,0
DA:511,0
DA:513,0
DA:515,0
DA:517,0
DA:518,0
DA:520,0
DA:526,0
DA:530,0
DA:532,0
DA:533,0
DA:535,0
DA:537,0
DA:538,0
DA:542,0
DA:543,0
DA:544,0
DA:547,0
DA:551,0
DA:553,0
DA:554,0
DA:555,0
DA:556,0
DA:559,0
DA:455,0
DA:459,0
DA:460,0
DA:462,0
DA:470,0
DA:479,0
DA:481,0
DA:482,0
DA:483,0
DA:485,0
DA:487,0
DA:489,0
DA:490,0
DA:492,0
DA:494,0
DA:495,0
DA:497,0
DA:498,0
DA:509,0
DA:511,0
DA:513,0
DA:515,0
DA:517,0
DA:518,0
DA:520,0
DA:526,0
DA:530,0
DA:532,0
DA:533,0
DA:535,0
DA:537,0
DA:538,0
DA:542,0
DA:543,0
DA:544,0
DA:547,0
DA:551,0
DA:553,0
DA:554,0
DA:555,0
DA:556,0
DA:559,0
DA:455,0
DA:459,0
DA:460,0
DA:462,0
DA:470,0
DA:479,0
DA:481,0
DA:482,0
DA:483,0
DA:485,0
DA:487,0
DA:489,0
DA:490,0
DA:492,0
DA:494,0
DA:495,0
DA:497,0
DA:498,0
DA:509,0
DA:511,0
DA:513,0
DA:515,0
DA:517,0
DA:518,0
DA:520,0
DA:526,0
DA:530,0
DA:532,0
DA:533,0
DA:535,0
DA:537,0
DA:538,0
DA:542,0
DA:543,0
DA:544,0
DA:547,0
DA:551,0
DA:553,0
DA:554,0
DA:555,0
DA:556,0
DA:559,0
DA:462,0
DA:462,0
DA:462,0
DA:462,0
DA:464,0
DA:465,0
DA:467,0
DA:468,0
DA:470,0
DA:470,0
DA:472,0
DA:474,0
DA:475,0
DA:567,0
DA:570,0
DA:571,0
DA:573,0
DA:574,0
DA:576,0
DA:578,0
DA:579,0
DA:581,0
DA:583,0
DA:588,0
DA:591,0
DA:593,0
DA:594,0
DA:595,0
DA:602,0
DA:605,0
DA:606,0
DA:607,0
DA:608,0
DA:609,0
DA:614,0
DA:617,0
DA:617,0
DA:617,0
DA:617,0
DA:619,0
DA:622,0
DA:623,0
DA:624,0
DA:625,0
DA:626,0
DA:628,0
DA:629,0
DA:630,0
DA:632,0
DA:633,0
DA:634,0
DA:636,0
end_of_record
SF:/usr/include/c++/9/bits/regex_executor.tcc
FN:39,_ZNSt8__detail9_ExecutorIN9__gnu_cxx17__normal_iteratorIPKcNSt7__cxx1112basic_stringIcSt11char_traitsIcESaIcEEEEESaINS5_9sub_matchISB_EEENS5_12regex_traitsIcEELb0EE9_M_searchEv
FNDA:0,_ZNSt8__detail9_ExecutorIN9__gnu_cxx17__normal_iteratorIPKcNSt7__cxx1112basic_stringIcSt11char_traitsIcESaIcEEEEESaINS5_9sub_matchISB_EEENS5_12regex_traitsIcEELb0EE9_M_searchEv
FN:39,_ZNSt8__detail9_ExecutorIN9__gnu_cxx17__normal_iteratorIPKcNSt7__cxx1112basic_stringIcSt11char_traitsIcESaIcEEEEESaINS5_9sub_matchISB_EEENS5_12regex_traitsIcEELb1EE9_M_searchEv
FNDA:0,_ZNSt8__detail9_ExecutorIN9__gnu_cxx17__normal_iteratorIPKcNSt7__cxx1112basic_stringIcSt11char_traitsIcESaIcEEEEESaINS5_9sub_matchISB_EEENS5_12regex_traitsIcEELb1EE9_M_searchEv
FN:115,_ZNSt8__detail9_ExecutorIN9__gnu_cxx17__normal_iteratorIPKcNSt7__cxx1112basic_stringIcSt11char_traitsIcESaIcEEEEESaINS5_9sub_matchISB_EEENS5_12regex_traitsIcEELb0EE16_M_main_dispatchENSH_11_Match_modeESt17integral_constantIbLb0EE
FNDA:0,_ZNSt8__detail9_ExecutorIN9__gnu_cxx17__normal_iteratorIPKcNSt7__cxx1112basic_stringIcSt11char_traitsIcESaIcEEEEESaINS5_9sub_matchISB_EEENS5_12regex_traitsIcEELb0EE16_M_main_dispatchENSH_11_Match_modeESt17integral_constantIbLb0EE
FN:147,_ZNSt8__detail9_ExecutorIN9__gnu_cxx17__normal_iteratorIPKcNSt7__cxx1112basic_stringIcSt11char_traitsIcESaIcEEEEESaINS5_9sub_matchISB_EEENS5_12regex_traitsIcEELb0EE12_M_lookaheadEl
FNDA:0,_ZNSt8__detail9_ExecutorIN9__gnu_cxx17__normal_iteratorIPKcNSt7__cxx1112basic_stringIcSt11char_traitsIcESaIcEEEEESaINS5_9sub_matchISB_EEENS5_12regex_traitsIcEELb0EE12_M_lookaheadEl
FN:147,_ZNSt8__detail9_ExecutorIN9__gnu_cxx17__normal_iteratorIPKcNSt7__cxx1112basic_stringIcSt11char_traitsIcESaIcEEEEESaINS5_9sub_matchISB_EEENS5_12regex_traitsIcEELb1EE12_M_lookaheadEl
FNDA:0,_ZNSt8__detail9_ExecutorIN9__gnu_cxx17__normal_iteratorIPKcNSt7__cxx1112basic_stringIcSt11char_traitsIcESaIcEEEEESaINS5_9sub_matchISB_EEENS5_12regex_traitsIcEELb1EE12_M_lookaheadEl
FN:174,_ZNSt8__detail9_ExecutorIN9__gnu_cxx17__normal_iteratorIPKcNSt7__cxx1112basic_stringIcSt11char_traitsIcESaIcEEEEESaINS5_9sub_matchISB_EEENS5_12regex_traitsIcEELb1EE16_M_rep_once_moreENSH_11_Match_modeEl
FNDA:0,_ZNSt8__detail9_ExecutorIN9__gnu_cxx17__normal_iteratorIPKcNSt7__cxx1112basic_stringIcSt11char_traitsIcESaIcEEEEESaINS5_9sub_matchISB_EEENS5_12regex_traitsIcEELb1EE16_M_rep_once_moreENSH_11_Match_modeEl
FN:174,_ZNSt8__detail9_ExecutorIN9__gnu_cxx17__normal_iteratorIPKcNSt7__cxx1112basic_stringIcSt11char_traitsIcESaIcEEEEESaINS5_9sub_matchISB_EEENS5_12regex_traitsIcEELb0EE16_M_rep_once_moreENSH_11_Match_modeEl
FNDA:0,_ZNSt8__detail9_ExecutorIN9__gnu_cxx17__normal_iteratorIPKcNSt7__cxx1112basic_stringIcSt11char_traitsIcESaIcEEEEESaINS5_9sub_matchISB_EEENS5_12regex_traitsIcEELb0EE16_M_rep_once_moreENSH_11_Match_modeEl
FN:204,_ZNSt8__detail9_ExecutorIN9__gnu_cxx17__normal_iteratorIPKcNSt7__cxx1112basic_stringIcSt11char_traitsIcESaIcEEEEESaINS5_9sub_matchISB_EEENS5_12regex_traitsIcEELb1EE16_M_handle_repeatENSH_11_Match_modeEl
FNDA:0,_ZNSt8__detail9_ExecutorIN9__gnu_cxx17__normal_iteratorIPKcNSt7__cxx1112basic_stringIcSt11char_traitsIcESaIcEEEEESaINS5_9sub_matchISB_EEENS5_12regex_traitsIcEELb1EE16_M_handle_repeatENSH_11_Match_modeEl
FN:204,_ZNSt8__detail9_ExecutorIN9__gnu_cxx17__normal_iteratorIPKcNSt7__cxx1112basic_stringIcSt11char_traitsIcESaIcEEEEESaINS5_9sub_matchISB_EEENS5_12regex_traitsIcEELb0EE16_M_handle_repeatENSH_11_Match_modeEl
FNDA:0,_ZNSt8__detail9_ExecutorIN9__gnu_cxx17__normal_iteratorIPKcNSt7__cxx1112basic_stringIcSt11char_traitsIcESaIcEEEEESaINS5_9sub_matchISB_EEENS5_12regex_traitsIcEELb0EE16_M_handle_repeatENSH_11_Match_modeEl
FN:246,_ZNSt8__detail9_ExecutorIN9__gnu_cxx17__normal_iteratorIPKcNSt7__cxx1112basic_stringIcSt11char_traitsIcESaIcEEEEESaINS5_9sub_matchISB_EEENS5_12regex_traitsIcEELb0EE23_M_handle_subexpr_beginENSH_11_Match_modeEl
FNDA:0,_ZNSt8__detail9_ExecutorIN9__gnu_cxx17__normal_iteratorIPKcNSt7__cxx1112basic_stringIcSt11char_traitsIcESaIcEEEEESaINS5_9sub_matchISB_EEENS5_12regex_traitsIcEELb0EE23_M_handle_subexpr_beginENSH_11_Match_modeEl
FN:246,_ZNSt8__detail9_ExecutorIN9__gnu_cxx17__normal_iteratorIPKcNSt7__cxx1112basic_stringIcSt11char_traitsIcESaIcEEEEESaINS5_9sub_matchISB_EEENS5_12regex_traitsIcEELb1EE23_M_handle_subexpr_beginENSH_11_Match_modeEl
FNDA:0,_ZNSt8__detail9_ExecutorIN9__gnu_cxx17__normal_iteratorIPKcNSt7__cxx1112basic_stringIcSt11char_traitsIcESaIcEEEEESaINS5_9sub_matchISB_EEENS5_12regex_traitsIcEELb1EE23_M_handle_subexpr_beginENSH_11_Match_modeEl
FN:260,_ZNSt8__detail9_ExecutorIN9__gnu_cxx17__normal_iteratorIPKcNSt7__cxx1112basic_stringIcSt11char_traitsIcESaIcEEEEESaINS5_9sub_matchISB_EEENS5_12regex_traitsIcEELb1EE21_M_handle_subexpr_endENSH_11_Match_modeEl
FNDA:0,_ZNSt8__detail9_ExecutorIN9__gnu_cxx17__normal_iteratorIPKcNSt7__cxx1112basic_stringIcSt11char_traitsIcESaIcEEEEESaINS5_9sub_matchISB_EEENS5_12regex_traitsIcEELb1EE21_M_handle_subexpr_endENSH_11_Match_modeEl
FN:260,_ZNSt8__detail9_ExecutorIN9__gnu_cxx17__normal_iteratorIPKcNSt7__cxx1112basic_stringIcSt11char_traitsIcESaIcEEEEESaINS5_9sub_matchISB_EEENS5_12regex_traitsIcEELb0EE21_M_handle_subexpr_endENSH_11_Match_modeEl
FNDA:0,_ZNSt8__detail9_ExecutorIN9__gnu_cxx17__normal_iteratorIPKcNSt7__cxx1112basic_stringIcSt11char_traitsIcESaIcEEEEESaINS5_9sub_matchISB_EEENS5_12regex_traitsIcEELb0EE21_M_handle_subexpr_endENSH_11_Match_modeEl
FN:275,_ZNSt8__detail9_ExecutorIN9__gnu_cxx17__normal_iteratorIPKcNSt7__cxx1112basic_stringIcSt11char_traitsIcESaIcEEEEESaINS5_9sub_matchISB_EEENS5_12regex_traitsIcEELb1EE30_M_handle_line_begin_assertionENSH_11_Match_modeEl
FNDA:0,_ZNSt8__detail9_ExecutorIN9__gnu_cxx17__normal_iteratorIPKcNSt7__cxx1112basic_stringIcSt11char_traitsIcESaIcEEEEESaINS5_9sub_matchISB_EEENS5_12regex_traitsIcEELb1EE30_M_handle_line_begin_assertionENSH_11_Match_modeEl
FN:275,_ZNSt8__detail9_ExecutorIN9__gnu_cxx17__normal_iteratorIPKcNSt7__cxx1112basic_stringIcSt11char_traitsIcESaIcEEEEESaINS5_9sub_matchISB_EEENS5_12regex_traitsIcEELb0EE30_M_handle_line_begin_assertionENSH_11_Match_modeEl
FNDA:0,_ZNSt8__detail9_ExecutorIN9__gnu_cxx17__normal_iteratorIPKcNSt7__cxx1112basic_stringIcSt11char_traitsIcESaIcEEEEESaINS5_9sub_matchISB_EEENS5_12regex_traitsIcEELb0EE30_M_handle_line_begin_assertionENSH_11_Match_modeEl
FN:285,_ZNSt8__detail9_ExecutorIN9__gnu_cxx17__normal_iteratorIPKcNSt7__cxx1112basic_stringIcSt11char_traitsIcESaIcEEEEESaINS5_9sub_matchISB_EEENS5_12regex_traitsIcEELb1EE28_M_handle_line_end_assertionENSH_11_Match_modeEl
FNDA:0,_ZNSt8__detail9_ExecutorIN9__gnu_cxx17__normal_iteratorIPKcNSt7__cxx1112basic_stringIcSt11char_traitsIcESaIcEEEEESaINS5_9sub_matchISB_EEENS5_12regex_traitsIcEELb1EE28_M_handle_line_end_assertionENSH_11_Match_modeEl
FN:285,_ZNSt8__detail9_ExecutorIN9__gnu_cxx17__normal_iteratorIPKcNSt7__cxx1112basic_stringIcSt11char_traitsIcESaIcEEEEESaINS5_9sub_matchISB_EEENS5_12regex_traitsIcEELb0EE28_M_handle_line_end_assertionENSH_11_Match_modeEl
FNDA:0,_ZNSt8__detail9_ExecutorIN9__gnu_cxx17__normal_iteratorIPKcNSt7__cxx1112basic_stringIcSt11char_traitsIcESaIcEEEEESaINS5_9sub_matchISB_EEENS5_12regex_traitsIcEELb0EE28_M_handle_line_end_assertionENSH_11_Match_modeEl
FN:295,_ZNSt8__detail9_ExecutorIN9__gnu_cxx17__normal_iteratorIPKcNSt7__cxx1112basic_stringIcSt11char_traitsIcESaIcEEEEESaINS5_9sub_matchISB_EEENS5_12regex_traitsIcEELb1EE23_M_handle_word_boundaryENSH_11_Match_modeEl
FNDA:0,_ZNSt8__detail9_ExecutorIN9__gnu_cxx17__normal_iteratorIPKcNSt7__cxx1112basic_stringIcSt11char_traitsIcESaIcEEEEESaINS5_9sub_matchISB_EEENS5_12regex_traitsIcEELb1EE23_M_handle_word_boundaryENSH_11_Match_modeEl
FN:295,_ZNSt8__detail9_ExecutorIN9__gnu_cxx17__normal_iteratorIPKcNSt7__cxx1112basic_stringIcSt11char_traitsIcESaIcEEEEESaINS5_9sub_matchISB_EEENS5_12regex_traitsIcEELb0EE23_M_handle_word_boundaryENSH_11_Match_modeEl
FNDA:0,_ZNSt8__detail9_ExecutorIN9__gnu_cxx17__normal_iteratorIPKcNSt7__cxx1112basic_stringIcSt11char_traitsIcESaIcEEEEESaINS5_9sub_matchISB_EEENS5_12regex_traitsIcEELb0EE23_M_handle_word_boundaryENSH_11_Match_modeEl
FN:307,_ZNSt8__detail9_ExecutorIN9__gnu_cxx17__normal_iteratorIPKcNSt7__cxx1112basic_stringIcSt11char_traitsIcESaIcEEEEESaINS5_9sub_matchISB_EEENS5_12regex_traitsIcEELb1EE27_M_handle_subexpr_lookaheadENSH_11_Match_modeEl
FNDA:0,_ZNSt8__detail9_ExecutorIN9__gnu_cxx17__normal_iteratorIPKcNSt7__cxx1112basic_stringIcSt11char_traitsIcESaIcEEEEESaINS5_9sub_matchISB_EEENS5_12regex_traitsIcEELb1EE27_M_handle_subexpr_lookaheadENSH_11_Match_modeEl
FN:307,_ZNSt8__detail9_ExecutorIN9__gnu_cxx17__normal_iteratorIPKcNSt7__cxx1112basic_stringIcSt11char_traitsIcESaIcEEEEESaINS5_9sub_matchISB_EEENS5_12regex_traitsIcEELb0EE27_M_handle_subexpr_lookaheadENSH_11_Match_modeEl
FNDA:0,_ZNSt8__detail9_ExecutorIN9__gnu_cxx17__normal_iteratorIPKcNSt7__cxx1112basic_stringIcSt11char_traitsIcESaIcEEEEESaINS5_9sub_matchISB_EEENS5_12regex_traitsIcEELb0EE27_M_handle_subexpr_lookaheadENSH_11_Match_modeEl
FN:317,_ZNSt8__detail9_ExecutorIN9__gnu_cxx17__normal_iteratorIPKcNSt7__cxx1112basic_stringIcSt11char_traitsIcESaIcEEEEESaINS5_9sub_matchISB_EEENS5_12regex_traitsIcEELb1EE15_M_handle_matchENSH_11_Match_modeEl
FNDA:0,_ZNSt8__detail9_ExecutorIN9__gnu_cxx17__normal_iteratorIPKcNSt7__cxx1112basic_stringIcSt11char_traitsIcESaIcEEEEESaINS5_9sub_matchISB_EEENS5_12regex_traitsIcEELb1EE15_M_handle_matchENSH_11_Match_modeEl
FN:317,_ZNSt8__detail9_ExecutorIN9__gnu_cxx17__normal_iteratorIPKcNSt7__cxx1112basic_stringIcSt11char_traitsIcESaIcEEEEESaINS5_9sub_matchISB_EEENS5_12regex_traitsIcEELb0EE15_M_handle_matchENSH_11_Match_modeEl
FNDA:0,_ZNSt8__detail9_ExecutorIN9__gnu_cxx17__normal_iteratorIPKcNSt7__cxx1112basic_stringIcSt11char_traitsIcESaIcEEEEESaINS5_9sub_matchISB_EEENS5_12regex_traitsIcEELb0EE15_M_handle_matchENSH_11_Match_modeEl
FN:364,_ZNSt8__detail16_Backref_matcherIN9__gnu_cxx17__normal_iteratorIPKcNSt7__cxx1112basic_stringIcSt11char_traitsIcESaIcEEEEENS5_12regex_traitsIcEEE8_M_applyESB_SB_SB_SB_
FNDA:0,_ZNSt8__detail16_Backref_matcherIN9__gnu_cxx17__normal_iteratorIPKcNSt7__cxx1112basic_stringIcSt11char_traitsIcESaIcEEEEENS5_12regex_traitsIcEEE8_M_applyESB_SB_SB_SB_
FN:392,_ZNSt8__detail9_ExecutorIN9__gnu_cxx17__normal_iteratorIPKcNSt7__cxx1112basic_stringIcSt11char_traitsIcESaIcEEEEESaINS5_9sub_matchISB_EEENS5_12regex_traitsIcEELb0EE17_M_handle_backrefENSH_11_Match_modeEl
FNDA:0,_ZNSt8__detail9_ExecutorIN9__gnu_cxx17__normal_iteratorIPKcNSt7__cxx1112basic_stringIcSt11char_traitsIcESaIcEEEEESaINS5_9sub_matchISB_EEENS5_12regex_traitsIcEELb0EE17_M_handle_backrefENSH_11_Match_modeEl
FN:392,_ZNSt8__detail9_ExecutorIN9__gnu_cxx17__normal_iteratorIPKcNSt7__cxx1112basic_stringIcSt11char_traitsIcESaIcEEEEESaINS5_9sub_matchISB_EEENS5_12regex_traitsIcEELb1EE17_M_handle_backrefENSH_11_Match_modeEl
FNDA:0,_ZNSt8__detail9_ExecutorIN9__gnu_cxx17__normal_iteratorIPKcNSt7__cxx1112basic_stringIcSt11char_traitsIcESaIcEEEEESaINS5_9sub_matchISB_EEENS5_12regex_traitsIcEELb1EE17_M_handle_backrefENSH_11_Match_modeEl
FN:425,_ZNSt8__detail9_ExecutorIN9__gnu_cxx17__normal_iteratorIPKcNSt7__cxx1112basic_stringIcSt11char_traitsIcESaIcEEEEESaINS5_9sub_matchISB_EEENS5_12regex_traitsIcEELb0EE16_M_handle_acceptENSH_11_Match_modeEl
FNDA:0,_ZNSt8__detail9_ExecutorIN9__gnu_cxx17__normal_iteratorIPKcNSt7__cxx1112basic_stringIcSt11char_traitsIcESaIcEEEEESaINS5_9sub_matchISB_EEENS5_12regex_traitsIcEELb0EE16_M_handle_acceptENSH_11_Match_modeEl
FN:425,_ZNSt8__detail9_ExecutorIN9__gnu_cxx17__normal_iteratorIPKcNSt7__cxx1112basic_stringIcSt11char_traitsIcESaIcEEEEESaINS5_9sub_matchISB_EEENS5_12regex_traitsIcEELb1EE16_M_handle_acceptENSH_11_Match_modeEl
FNDA:0,_ZNSt8__detail9_ExecutorIN9__gnu_cxx17__normal_iteratorIPKcNSt7__cxx1112basic_stringIcSt11char_traitsIcESaIcEEEEESaINS5_9sub_matchISB_EEENS5_12regex_traitsIcEELb1EE16_M_handle_acceptENSH_11_Match_modeEl
FN:479,_ZNSt8__detail9_ExecutorIN9__gnu_cxx17__normal_iteratorIPKcNSt7__cxx1112basic_stringIcSt11char_traitsIcESaIcEEEEESaINS5_9sub_matchISB_EEENS5_12regex_traitsIcEELb0EE21_M_handle_alternativeENSH_11_Match_modeEl
FNDA:0,_ZNSt8__detail9_ExecutorIN9__gnu_cxx17__normal_iteratorIPKcNSt7__cxx1112basic_stringIcSt11char_traitsIcESaIcEEEEESaINS5_9sub_matchISB_EEENS5_12regex_traitsIcEELb0EE21_M_handle_alternativeENSH_11_Match_modeEl
FN:479,_ZNSt8__detail9_ExecutorIN9__gnu_cxx17__normal_iteratorIPKcNSt7__cxx1112basic_stringIcSt11char_traitsIcESaIcEEEEESaINS5_9sub_matchISB_EEENS5_12regex_traitsIcEELb1EE21_M_handle_alternativeENSH_11_Match_modeEl
FNDA:0,_ZNSt8__detail9_ExecutorIN9__gnu_cxx17__normal_iteratorIPKcNSt7__cxx1112basic_stringIcSt11char_traitsIcESaIcEEEEESaINS5_9sub_matchISB_EEENS5_12regex_traitsIcEELb1EE21_M_handle_alternativeENSH_11_Match_modeEl
FN:506,_ZNSt8__detail9_ExecutorIN9__gnu_cxx17__normal_iteratorIPKcNSt7__cxx1112basic_stringIcSt11char_traitsIcESaIcEEEEESaINS5_9sub_matchISB_EEENS5_12regex_traitsIcEELb1EE6_M_dfsENSH_11_Match_modeEl
FNDA:0,_ZNSt8__detail9_ExecutorIN9__gnu_cxx17__normal_iteratorIPKcNSt7__cxx1112basic_stringIcSt11char_traitsIcESaIcEEEEESaINS5_9sub_matchISB_EEENS5_12regex_traitsIcEELb1EE6_M_dfsENSH_11_Match_modeEl
FN:506,_ZNSt8__detail9_ExecutorIN9__gnu_cxx17__normal_iteratorIPKcNSt7__cxx1112basic_stringIcSt11char_traitsIcESaIcEEEEESaINS5_9sub_matchISB_EEENS5_12regex_traitsIcEELb0EE6_M_dfsENSH_11_Match_modeEl
FNDA:0,_ZNSt8__detail9_ExecutorIN9__gnu_cxx17__normal_iteratorIPKcNSt7__cxx1112basic_stringIcSt11char_traitsIcESaIcEEEEESaINS5_9sub_matchISB_EEENS5_12regex_traitsIcEELb0EE6_M_dfsENSH_11_Match_modeEl
FN:544,_ZNKSt8__detail9_ExecutorIN9__gnu_cxx17__normal_iteratorIPKcNSt7__cxx1112basic_stringIcSt11char_traitsIcESaIcEEEEESaINS5_9sub_matchISB_EEENS5_12regex_traitsIcEELb0EE16_M_word_boundaryEv
FNDA:0,_ZNKSt8__detail9_ExecutorIN9__gnu_cxx17__normal_iteratorIPKcNSt7__cxx1112basic_stringIcSt11char_traitsIcESaIcEEEEESaINS5_9sub_matchISB_EEENS5_12regex_traitsIcEELb0EE16_M_word_boundaryEv
FN:544,_ZNKSt8__detail9_ExecutorIN9__gnu_cxx17__normal_iteratorIPKcNSt7__cxx1112basic_stringIcSt11char_traitsIcESaIcEEEEESaINS5_9sub_matchISB_EEENS5_12regex_traitsIcEELb1EE16_M_word_boundaryEv
FNDA:0,_ZNKSt8__detail9_ExecutorIN9__gnu_cxx17__normal_iteratorIPKcNSt7__cxx1112basic_stringIcSt11char_traitsIcESaIcEEEEESaINS5_9sub_matchISB_EEENS5_12regex_traitsIcEELb1EE16_M_word_boundaryEv
DA:39,0
DA:42,0
DA:44,0
DA:46,0
DA:47,0
DA:49,0
DA:50,0
DA:39,0
DA:42,0
DA:44,0
DA:46,0
DA:47,0
DA:49,0
DA:50,0
DA:115,0
DA:118,0
DA:119,0
DA:122,0
DA:123,0
DA:125,0
DA:126,0
DA:127,0
DA:129,0
DA:130,0
DA:132,0
DA:133,0
DA:134,0
DA:136,0
DA:138,0
DA:139,0
DA:140,0
DA:141,0
DA:147,0
DA:153,0
DA:154,0
DA:155,0
DA:156,0
DA:158,0
DA:159,0
DA:160,0
DA:147,0
DA:153,0
DA:154,0
DA:155,0
DA:156,0
DA:158,0
DA:159,0
DA:160,0
DA:174,0
DA:177,0
DA:178,0
DA:179,0
DA:181,0
DA:182,0
DA:183,0
DA:184,0
DA:185,0
DA:189,0
DA:191,0
DA:192,0
DA:193,0
DA:196,0
DA:174,0
DA:177,0
DA:178,0
DA:179,0
DA:181,0
DA:182,0
DA:183,0
DA:184,0
DA:185,0
DA:189,0
DA:191,0
DA:192,0
DA:193,0
DA:196,0
DA:204,0
DA:207,0
DA:210,0
DA:212,0
DA:214,0
DA:215,0
DA:222,0
DA:223,0
DA:224,0
DA:242,0
DA:204,0
DA:207,0
DA:210,0
DA:212,0
DA:215,0
DA:231,0
DA:233,0
DA:237,0
DA:238,0
DA:242,0
DA:246,0
DA:249,0
DA:251,0
DA:252,0
DA:253,0
DA:254,0
DA:255,0
DA:256,0
DA:246,0
DA:249,0
DA:251,0
DA:252,0
DA:253,0
DA:254,0
DA:255,0
DA:256,0
DA:260,0
DA:263,0
DA:265,0
DA:266,0
DA:267,0
DA:268,0
DA:269,0
DA:270,0
DA:271,0
DA:260,0
DA:263,0
DA:265,0
DA:266,0
DA:267,0
DA:268,0
DA:269,0
DA:270,0
DA:271,0
DA:275,0
DA:278,0
DA:279,0
DA:280,0
DA:281,0
DA:275,0
DA:278,0
DA:279,0
DA:280,0
DA:281,0
DA:285,0
DA:288,0
DA:289,0
DA:290,0
DA:291,0
DA:285,0
DA:288,0
DA:289,0
DA:290,0
DA:291,0
DA:295,0
DA:298,0
DA:299,0
DA:300,0
DA:301,0
DA:295,0
DA:298,0
DA:299,0
DA:300,0
DA:301,0
DA:307,0
DA:310,0
DA:311,0
DA:312,0
DA:313,0
DA:307,0
DA:310,0
DA:311,0
DA:312,0
DA:313,0
DA:317,0
DA:320,0
DA:322,0
DA:326,0
DA:328,0
DA:329,0
DA:330,0
DA:317,0
DA:320,0
DA:322,0
DA:334,0
DA:335,0
DA:360,0
DA:361,0
DA:364,0
DA:368,0
DA:369,0
DA:372,0
DA:373,0
DA:375,0
DA:378,0
DA:379,0
DA:392,0
DA:397,0
DA:398,0
DA:399,0
DA:400,0
DA:401,0
DA:402,0
DA:403,0
DA:404,0
DA:405,0
DA:406,0
DA:407,0
DA:408,0
DA:411,0
DA:413,0
DA:414,0
DA:415,0
DA:416,0
DA:419,0
DA:392,0
DA:397,0
DA:398,0
DA:399,0
DA:400,0
DA:401,0
DA:402,0
DA:403,0
DA:404,0
DA:405,0
DA:406,0
DA:407,0
DA:408,0
DA:411,0
DA:413,0
DA:414,0
DA:415,0
DA:416,0
DA:419,0
DA:425,0
DA:431,0
DA:432,0
DA:434,0
DA:435,0
DA:436,0
DA:437,0
DA:438,0
DA:440,0
DA:441,0
DA:452,0
DA:453,0
DA:454,0
DA:455,0
DA:457,0
DA:458,0
DA:425,0
DA:465,0
DA:466,0
DA:468,0
DA:469,0
DA:471,0
DA:472,0
DA:479,0
DA:482,0
DA:484,0
DA:487,0
DA:489,0
DA:490,0
DA:496,0
DA:497,0
DA:498,0
DA:499,0
DA:500,0
DA:502,0
DA:479,0
DA:482,0
DA:484,0
DA:487,0
DA:489,0
DA:490,0
DA:496,0
DA:497,0
DA:498,0
DA:499,0
DA:500,0
DA:502,0
DA:506,0
DA:509,0
DA:512,0
DA:514,0
DA:515,0
DA:516,0
DA:517,0
DA:518,0
DA:519,0
DA:520,0
DA:521,0
DA:522,0
DA:523,0
DA:524,0
DA:525,0
DA:526,0
DA:527,0
DA:528,0
DA:529,0
DA:530,0
DA:531,0
DA:532,0
DA:533,0
DA:534,0
DA:535,0
DA:536,0
DA:506,0
DA:509,0
DA:512,0
DA:514,0
DA:515,0
DA:516,0
DA:517,0
DA:518,0
DA:519,0
DA:520,0
DA:521,0
DA:522,0
DA:523,0
DA:524,0
DA:525,0
DA:526,0
DA:527,0
DA:528,0
DA:529,0
DA:530,0
DA:531,0
DA:532,0
DA:533,0
DA:534,0
DA:535,0
DA:536,0
DA:544,0
DA:547,0
DA:549,0
DA:552,0
DA:553,0
DA:554,0
DA:556,0
DA:557,0
DA:558,0
DA:560,0
DA:561,0
DA:563,0
DA:544,0
DA:547,0
DA:549,0
DA:552,0
DA:553,0
DA:554,0
DA:556,0
DA:557,0
DA:558,0
DA:560,0
DA:561,0
DA:563,0
end_of_record
SF:/usr/include/c++/9/bits/stl_algobase.h
FN:1091,_ZSt5equalIN9__gnu_cxx17__normal_iteratorIPKcNSt7__cxx1112basic_stringIcSt11char_traitsIcESaIcEEEEESA_ZNSt8__detail16_Backref_matcherISA_NS4_12regex_traitsIcEEE8_M_applyESA_SA_SA_SA_EUlccE_EbT_SH_T0_T1_
FNDA:0,_ZSt5equalIN9__gnu_cxx17__normal_iteratorIPKcNSt7__cxx1112basic_stringIcSt11char_traitsIcESaIcEEEEESA_ZNSt8__detail16_Backref_matcherISA_NS4_12regex_traitsIcEEE8_M_applyESA_SA_SA_SA_EUlccE_EbT_SH_T0_T1_
DA:123,0
DA:151,0
DA:198,0
DA:203,0
DA:204,0
DA:222,0
DA:227,0
DA:228,0
DA:280,0
DA:289,0
DA:290,0
DA:295,0
DA:337,0
DA:340,0
DA:342,0
DA:343,0
DA:344,0
DA:375,0
DA:384,0
DA:385,0
DA:386,0
DA:387,0
DA:393,0
DA:398,0
DA:404,0
DA:438,0
DA:440,0
DA:465,0
DA:474,0
DA:497,0
DA:505,0
DA:577,0
DA:586,0
DA:587,0
DA:588,0
DA:589,0
DA:595,0
DA:600,0
DA:606,0
DA:613,0
DA:615,0
DA:641,0
DA:652,0
DA:676,0
DA:686,0
DA:767,0
DA:769,0
DA:770,0
DA:771,0
DA:772,0
DA:802,0
DA:808,0
DA:831,0
DA:833,0
DA:834,0
DA:841,0
DA:845,0
DA:851,0
DA:966,0
DA:972,0
DA:974,0
DA:976,0
DA:977,0
DA:978,0
DA:979,0
DA:981,0
DA:982,0
DA:983,0
DA:1059,0
DA:1069,0
DA:1091,0
DA:1099,0
DA:1100,0
DA:1109,0
DA:1117,0
DA:1118,0
DA:1119,0
DA:1121,0
DA:1134,0
DA:1143,0
DA:1144,0
DA:1145,0
DA:1147,0
DA:1148,0
end_of_record
SF:/usr/include/c++/9/bits/basic_ios.h
DA:137,0
DA:201,0
DA:202,0
end_of_record
SF:/usr/include/c++/9/streambuf
end_of_record
SF:/usr/include/c++/9/bits/locale_facets.h
FN:872,_ZNKSt5ctypeIcE5widenEc
FNDA:0,_ZNKSt5ctypeIcE5widenEc
FN:1084,_ZNKSt5ctypeIcE8do_widenEc
FNDA:0,_ZNKSt5ctypeIcE8do_widenEc
FN:1134,_ZNKSt5ctypeIcE9do_narrowEcc
FNDA:0,_ZNKSt5ctypeIcE9do_narrowEcc
DA:802,0
DA:803,0
DA:835,0
DA:836,0
DA:852,0
DA:853,0
DA:872,0
DA:874,0
DA:875,0
DA:876,0
DA:877,0
DA:931,0
DA:933,0
DA:935,0
DA:936,0
DA:937,0
DA:1084,0
DA:1085,0
DA:1134,0
DA:1135,0
end_of_record
SF:/usr/include/c++/9/bits/locale_classes.tcc
FN:132,_ZSt9use_facetIKSt5ctypeIcEERKT_RKSt6locale
FNDA:0,_ZSt9use_facetIKSt5ctypeIcEERKT_RKSt6locale
DA:132,0
DA:134,0
DA:135,0
DA:136,0
DA:137,0
DA:139,0
end_of_record
SF:/usr/include/c++/9/bits/regex_automaton.tcc
FN:149,_ZNSt8__detail4_NFAINSt7__cxx1112regex_traitsIcEEE17_M_insert_backrefEm
FNDA:0,_ZNSt8__detail4_NFAINSt7__cxx1112regex_traitsIcEEE17_M_insert_backrefEm
FN:178,_ZNSt8__detail4_NFAINSt7__cxx1112regex_traitsIcEEE18_M_eliminate_dummyEv
FNDA:0,_ZNSt8__detail4_NFAINSt7__cxx1112regex_traitsIcEEE18_M_eliminate_dummyEv
FN:195,_ZNSt8__detail9_StateSeqINSt7__cxx1112regex_traitsIcEEE8_M_cloneEv
FNDA:0,_ZNSt8__detail9_StateSeqINSt7__cxx1112regex_traitsIcEEE8_M_cloneEv
DA:149,0
DA:151,0
DA:152,0
DA:161,0
DA:162,0
DA:165,0
DA:166,0
DA:167,0
DA:170,0
DA:171,0
DA:172,0
DA:173,0
DA:178,0
DA:180,0
DA:182,0
DA:183,0
DA:184,0
DA:185,0
DA:186,0
DA:187,0
DA:188,0
DA:190,0
DA:195,0
DA:197,0
DA:198,0
DA:199,0
DA:200,0
DA:202,0
DA:203,0
DA:204,0
DA:206,0
DA:207,0
DA:208,0
DA:209,0
DA:210,0
DA:211,0
DA:212,0
DA:213,0
DA:214,0
DA:215,0
DA:216,0
DA:218,0
DA:220,0
DA:221,0
DA:222,0
DA:223,0
DA:224,0
DA:225,0
DA:227,0
end_of_record
SF:/usr/include/c++/9/bits/stl_map.h
FN:490,_ZNSt3mapIllSt4lessIlESaISt4pairIKllEEEixERS3_
FNDA:0,_ZNSt3mapIllSt4lessIlESaISt4pairIKllEEEixERS3_
DA:183,0
DA:300,0
DA:354,0
DA:355,0
DA:372,0
DA:373,0
DA:490,0
DA:495,0
DA:497,0
DA:499,0
DA:505,0
DA:1141,0
DA:1142,0
DA:1168,0
DA:1169,0
DA:1214,0
DA:1215,0
DA:1257,0
DA:1258,0
end_of_record
SF:/usr/include/c++/9/bits/predefined_ops.h
DA:42,0
DA:43,0
DA:60,0
DA:64,0
DA:65,0
DA:69,0
DA:70,0
DA:89,0
DA:90,0
DA:98,0
DA:99,0
DA:105,0
DA:106,0
DA:110,0
DA:111,0
DA:234,0
DA:240,0
DA:241,0
DA:246,0
DA:247,0
end_of_record
SF:/usr/include/c++/9/ext/atomicity.h
DA:48,0
DA:49,0
DA:65,0
DA:67,0
DA:68,0
DA:69,0
DA:78,0
DA:81,0
DA:82,0
DA:84,0
end_of_record
SF:/usr/include/c++/9/bits/stl_tree.h
FN:1907,_ZNSt8_Rb_treeIlSt4pairIKllESt10_Select1stIS2_ESt4lessIlESaIS2_EE8_M_eraseEPSt13_Rb_tree_nodeIS2_E
FNDA:0,_ZNSt8_Rb_treeIlSt4pairIKllESt10_Select1stIS2_ESt4lessIlESaIS2_EE8_M_eraseEPSt13_Rb_tree_nodeIS2_E
FN:2085,_ZNSt8_Rb_treeIlSt4pairIKllESt10_Select1stIS2_ESt4lessIlESaIS2_EE24_M_get_insert_unique_posERS1_
FNDA:0,_ZNSt8_Rb_treeIlSt4pairIKllESt10_Select1stIS2_ESt4lessIlESaIS2_EE24_M_get_insert_unique_posERS1_
FN:2187,_ZNSt8_Rb_treeIlSt4pairIKllESt10_Select1stIS2_ESt4lessIlESaIS2_EE29_M_get_insert_hint_unique_posESt23_Rb_tree_const_iteratorIS2_ERS1_
FNDA:0,_ZNSt8_Rb_treeIlSt4pairIKllESt10_Select1stIS2_ESt4lessIlESaIS2_EE29_M_get_insert_hint_unique_posESt23_Rb_tree_const_iteratorIS2_ERS1_
FN:2354,_ZNSt8_Rb_treeIlSt4pairIKllESt10_Select1stIS2_ESt4lessIlESaIS2_EE14_M_insert_nodeEPSt18_Rb_tree_node_baseSA_PSt13_Rb_tree_nodeIS2_E
FNDA:0,_ZNSt8_Rb_treeIlSt4pairIKllESt10_Select1stIS2_ESt4lessIlESaIS2_EE14_M_insert_nodeEPSt18_Rb_tree_node_baseSA_PSt13_Rb_tree_nodeIS2_E
FN:2452,_ZNSt8_Rb_treeIlSt4pairIKllESt10_Select1stIS2_ESt4lessIlESaIS2_EE22_M_emplace_hint_uniqueIJRKSt21piecewise_construct_tSt5tupleIJRS1_EESD_IJEEEEESt17_Rb_tree_iteratorIS2_ESt23_Rb_tree_const_iteratorIS2_EDpOT_
FNDA:0,_ZNSt8_Rb_treeIlSt4pairIKllESt10_Select1stIS2_ESt4lessIlESaIS2_EE22_M_emplace_hint_uniqueIJRKSt21piecewise_construct_tSt5tupleIJRS1_EESD_IJEEEEESt17_Rb_tree_iteratorIS2_ESt23_Rb_tree_const_iteratorIS2_EDpOT_
DA:146,0
DA:173,0
DA:174,0
DA:175,0
DA:176,0
DA:206,0
DA:208,0
DA:209,0
DA:210,0
DA:211,0
DA:234,0
DA:235,0
DA:238,0
DA:239,0
DA:273,0
DA:274,0
DA:277,0
DA:278,0
DA:281,0
DA:282,0
DA:285,0
DA:287,0
DA:288,0
DA:300,0
DA:302,0
DA:303,0
DA:315,0
DA:319,0
DA:345,0
DA:348,0
DA:349,0
DA:352,0
DA:353,0
DA:394,0
DA:566,0
DA:567,0
DA:579,0
DA:580,0
DA:583,0
DA:584,0
DA:609,0
DA:613,0
DA:614,0
DA:628,0
DA:630,0
DA:631,0
DA:637,0
DA:642,0
DA:648,0
DA:650,0
DA:651,0
DA:673,0
DA:680,0
DA:684,0
DA:728,0
DA:729,0
DA:736,0
DA:737,0
DA:744,0
DA:748,0
DA:755,0
DA:756,0
DA:759,0
DA:767,0
DA:785,0
DA:789,0
DA:793,0
DA:797,0
DA:801,0
DA:809,0
DA:810,0
DA:939,0
DA:994,0
DA:995,0
DA:1002,0
DA:1006,0
DA:1007,0
DA:1014,0
DA:1015,0
DA:1018,0
DA:1019,0
DA:1042,0
DA:1281,0
DA:1282,0
DA:1907,0
DA:1911,0
DA:1913,0
DA:1914,0
DA:1915,0
DA:1916,0
DA:1918,0
DA:1924,0
DA:1928,0
DA:1929,0
DA:1930,0
DA:1932,0
DA:1933,0
DA:1940,0
DA:1944,0
DA:1945,0
DA:1946,0
DA:1948,0
DA:1949,0
DA:2085,0
DA:2089,0
DA:2090,0
DA:2091,0
DA:2092,0
DA:2094,0
DA:2095,0
DA:2096,0
DA:2098,0
DA:2099,0
DA:2101,0
DA:2102,0
DA:2104,0
DA:2106,0
DA:2107,0
DA:2108,0
DA:2187,0
DA:2191,0
DA:2195,0
DA:2197,0
DA:2198,0
DA:2199,0
DA:2201,0
DA:2203,0
DA:2206,0
DA:2207,0
DA:2208,0
DA:2209,0
DA:2211,0
DA:2212,0
DA:2214,0
DA:2217,0
DA:2219,0
DA:2222,0
DA:2223,0
DA:2224,0
DA:2225,0
DA:2227,0
DA:2228,0
DA:2230,0
DA:2233,0
DA:2237,0
DA:2354,0
DA:2357,0
DA:2358,0
DA:2361,0
DA:2362,0
DA:2363,0
DA:2364,0
DA:2452,0
DA:2455,0
DA:2459,0
DA:2461,0
DA:2462,0
DA:2464,0
DA:2465,0
DA:2554,0
DA:2557,0
DA:2558,0
DA:2559,0
DA:2560,0
DA:2567,0
DA:2570,0
DA:2571,0
DA:2572,0
DA:2573,0
end_of_record
SF:/usr/include/c++/9/bits/shared_ptr.h
DA:103,0
DA:263,0
DA:264,0
DA:358,0
DA:359,0
DA:388,0
DA:389,0
DA:699,0
DA:702,0
DA:714,0
DA:718,0
end_of_record
SF:/usr/include/c++/9/bits/cpp_type_traits.h
DA:428,0
end_of_record
SF:/usr/include/c++/9/tuple
DA:76,0
DA:122,0
DA:125,0
DA:126,0
DA:160,0
DA:163,0
DA:195,0
DA:198,0
DA:206,0
DA:207,0
DA:334,0
DA:339,0
DA:340,0
DA:343,0
DA:344,0
DA:358,0
DA:360,0
DA:588,0
DA:589,0
DA:642,0
DA:918,0
DA:919,0
DA:1309,0
DA:1310,0
DA:1314,0
DA:1315,0
DA:1320,0
DA:1321,0
DA:1326,0
DA:1327,0
DA:1658,0
DA:1663,0
DA:1670,0
DA:1673,0
DA:1674,0
end_of_record
SF:/usr/include/c++/9/bits/unique_ptr.h
DA:147,0
DA:153,0
DA:154,0
DA:493,0
DA:494,0
DA:611,0
DA:614,0
DA:619,0
DA:620,0
end_of_record
SF:/usr/include/c++/9/bitset
DA:82,0
DA:83,0
DA:99,0
DA:100,0
DA:107,0
DA:108,0
DA:111,0
DA:112,0
DA:115,0
DA:116,0
DA:119,0
DA:120,0
DA:813,0
DA:815,0
DA:816,0
DA:823,0
DA:828,0
DA:830,0
DA:831,0
DA:833,0
DA:869,0
DA:870,0
DA:1065,0
DA:1066,0
DA:1067,0
DA:1163,0
DA:1164,0
DA:1167,0
DA:1168,0
DA:1300,0
end_of_record
SF:/usr/include/x86_64-linux-gnu/c++/9/bits/ctype_inline.h
DA:42,0
DA:44,0
end_of_record
SF:/usr/include/c++/9/ext/type_traits.h
DA:152,0
DA:157,0
end_of_record
SF:/usr/include/c++/9/ext/string_conversions.h
FN:99,_ZN9__gnu_cxx12__to_xstringINSt7__cxx1112basic_stringIcSt11char_traitsIcESaIcEEEcEET_PFiPT0_mPKS8_P13__va_list_tagEmSB_z
FNDA:0,_ZN9__gnu_cxx12__to_xstringINSt7__cxx1112basic_stringIcSt11char_traitsIcESaIcEEEcEET_PFiPT0_mPKS8_P13__va_list_tagEmSB_z
DA:99,0
DA:105,0
DA:109,0
DA:111,0
DA:113,0
DA:115,0
end_of_record
SF:/usr/include/string.h
DA:213,0
DA:215,0
DA:219,0
DA:221,0
end_of_record
SF:/usr/include/c++/9/bits/deque.tcc
FN:162,_ZNSt5dequeINSt8__detail9_StateSeqINSt7__cxx1112regex_traitsIcEEEESaIS5_EE12emplace_backIJS5_EEEvDpOT_
FNDA:0,_ZNSt5dequeINSt8__detail9_StateSeqINSt7__cxx1112regex_traitsIcEEEESaIS5_EE12emplace_backIJS5_EEEvDpOT_
FN:479,_ZNSt5dequeIlSaIlEE16_M_push_back_auxIJRKlEEEvDpOT_
FNDA:0,_ZNSt5dequeIlSaIlEE16_M_push_back_auxIJRKlEEEvDpOT_
FN:479,_ZNSt5dequeINSt8__detail9_StateSeqINSt7__cxx1112regex_traitsIcEEEESaIS5_EE16_M_push_back_auxIJS5_EEEvDpOT_
FNDA:0,_ZNSt5dequeINSt8__detail9_StateSeqINSt7__cxx1112regex_traitsIcEEEESaIS5_EE16_M_push_back_auxIJS5_EEEvDpOT_
FN:479,_ZNSt5dequeINSt8__detail9_StateSeqINSt7__cxx1112regex_traitsIcEEEESaIS5_EE16_M_push_back_auxIJRKS5_EEEvDpOT_
FNDA:0,_ZNSt5dequeINSt8__detail9_StateSeqINSt7__cxx1112regex_traitsIcEEEESaIS5_EE16_M_push_back_auxIJRKS5_EEEvDpOT_
FN:926,_ZNSt5dequeIlSaIlEE17_M_reallocate_mapEmb
FNDA:0,_ZNSt5dequeIlSaIlEE17_M_reallocate_mapEmb
FN:926,_ZNSt5dequeINSt8__detail9_StateSeqINSt7__cxx1112regex_traitsIcEEEESaIS5_EE17_M_reallocate_mapEmb
FNDA:0,_ZNSt5dequeINSt8__detail9_StateSeqINSt7__cxx1112regex_traitsIcEEEESaIS5_EE17_M_reallocate_mapEmb
DA:162,0
DA:165,0
DA:166,0
DA:168,0
DA:171,0
DA:174,0
DA:178,0
DA:479,0
DA:487,0
DA:488,0
DA:491,0
DA:492,0
DA:496,0
DA:502,0
DA:504,0
DA:511,0
DA:479,0
DA:487,0
DA:488,0
DA:491,0
DA:492,0
DA:496,0
DA:502,0
DA:504,0
DA:511,0
DA:479,0
DA:487,0
DA:488,0
DA:491,0
DA:492,0
DA:496,0
DA:502,0
DA:504,0
DA:511,0
DA:555,0
DA:558,0
DA:559,0
DA:560,0
DA:561,0
DA:563,0
DA:926,0
DA:929,0
DA:930,0
DA:931,0
DA:934,0
DA:936,0
DA:937,0
DA:938,0
DA:939,0
DA:940,0
DA:944,0
DA:950,0
DA:951,0
DA:954,0
DA:955,0
DA:956,0
DA:957,0
DA:958,0
DA:960,0
DA:962,0
DA:963,0
DA:966,0
DA:967,0
DA:968,0
DA:926,0
DA:929,0
DA:930,0
DA:931,0
DA:934,0
DA:936,0
DA:937,0
DA:938,0
DA:939,0
DA:940,0
DA:944,0
DA:950,0
DA:951,0
DA:954,0
DA:955,0
DA:956,0
DA:957,0
DA:958,0
DA:960,0
DA:962,0
DA:963,0
DA:966,0
DA:967,0
DA:968,0
end_of_record
SF:/usr/include/c++/9/bits/stl_construct.h
DA:74,0
DA:75,0
DA:97,0
DA:98,0
DA:105,0
DA:107,0
DA:108,0
DA:117,0
DA:127,0
DA:137,0
DA:203,0
DA:206,0
end_of_record
SF:/usr/include/c++/9/bits/stl_iterator.h
DA:802,0
DA:803,0
DA:806,0
DA:807,0
DA:811,0
DA:815,0
DA:819,0
DA:827,0
DA:829,0
DA:830,0
DA:839,0
DA:841,0
DA:842,0
DA:855,0
DA:856,0
DA:859,0
DA:860,0
DA:867,0
DA:868,0
DA:871,0
DA:893,0
DA:896,0
DA:907,0
DA:910,0
DA:922,0
DA:925,0
DA:989,0
DA:992,0
DA:1010,0
DA:1012,0
DA:1242,0
end_of_record
SF:/usr/include/c++/9/sstream
DA:831,0
DA:832,0
end_of_record
SF:/usr/include/c++/9/bits/stl_deque.h
FN:678,_ZNSt11_Deque_baseIlSaIlEED2Ev
FNDA:0,_ZNSt11_Deque_baseIlSaIlEED2Ev
FN:678,_ZNSt11_Deque_baseINSt8__detail9_StateSeqINSt7__cxx1112regex_traitsIcEEEESaIS5_EED2Ev
FNDA:0,_ZNSt11_Deque_baseINSt8__detail9_StateSeqINSt7__cxx1112regex_traitsIcEEEESaIS5_EED2Ev
FN:699,_ZNSt11_Deque_baseIlSaIlEE17_M_initialize_mapEm
FNDA:0,_ZNSt11_Deque_baseIlSaIlEE17_M_initialize_mapEm
FN:699,_ZNSt11_Deque_baseINSt8__detail9_StateSeqINSt7__cxx1112regex_traitsIcEEEESaIS5_EE17_M_initialize_mapEm
FNDA:0,_ZNSt11_Deque_baseINSt8__detail9_StateSeqINSt7__cxx1112regex_traitsIcEEEESaIS5_EE17_M_initialize_mapEm
FN:738,_ZNSt11_Deque_baseIlSaIlEE15_M_create_nodesEPPlS3_
FNDA:0,_ZNSt11_Deque_baseIlSaIlEE15_M_create_nodesEPPlS3_
FN:738,_ZNSt11_Deque_baseINSt8__detail9_StateSeqINSt7__cxx1112regex_traitsIcEEEESaIS5_EE15_M_create_nodesEPPS5_S9_
FNDA:0,_ZNSt11_Deque_baseINSt8__detail9_StateSeqINSt7__cxx1112regex_traitsIcEEEESaIS5_EE15_M_create_nodesEPPS5_S9_
FN:1569,_ZNSt5dequeINSt8__detail9_StateSeqINSt7__cxx1112regex_traitsIcEEEESaIS5_EE9push_backERKS5_
FNDA:0,_ZNSt5dequeINSt8__detail9_StateSeqINSt7__cxx1112regex_traitsIcEEEESaIS5_EE9push_backERKS5_
FN:1628,_ZNSt5dequeIlSaIlEE8pop_backEv
FNDA:0,_ZNSt5dequeIlSaIlEE8pop_backEv
FN:1628,_ZNSt5dequeINSt8__detail9_StateSeqINSt7__cxx1112regex_traitsIcEEEESaIS5_EE8pop_backEv
FNDA:0,_ZNSt5dequeINSt8__detail9_StateSeqINSt7__cxx1112regex_traitsIcEEEESaIS5_EE8pop_backEv
FN:2194,_ZNSt5dequeIlSaIlEE22_M_reserve_map_at_backEm
FNDA:0,_ZNSt5dequeIlSaIlEE22_M_reserve_map_at_backEm
FN:2194,_ZNSt5dequeINSt8__detail9_StateSeqINSt7__cxx1112regex_traitsIcEEEESaIS5_EE22_M_reserve_map_at_backEm
FNDA:0,_ZNSt5dequeINSt8__detail9_StateSeqINSt7__cxx1112regex_traitsIcEEEESaIS5_EE22_M_reserve_map_at_backEm
DA:130,0
DA:150,0
DA:151,0
DA:167,0
DA:168,0
DA:169,0
DA:179,0
DA:207,0
DA:209,0
DA:211,0
DA:212,0
DA:214,0
DA:273,0
DA:275,0
DA:276,0
DA:277,0
DA:286,0
DA:370,0
DA:375,0
DA:376,0
DA:508,0
DA:509,0
DA:510,0
DA:567,0
DA:575,0
DA:577,0
DA:605,0
DA:606,0
DA:609,0
DA:610,0
DA:613,0
DA:614,0
DA:617,0
DA:620,0
DA:624,0
DA:627,0
DA:631,0
DA:633,0
DA:634,0
DA:638,0
DA:640,0
DA:641,0
DA:642,0
DA:678,0
DA:681,0
DA:683,0
DA:684,0
DA:685,0
DA:687,0
DA:678,0
DA:681,0
DA:683,0
DA:684,0
DA:685,0
DA:687,0
DA:699,0
DA:702,0
DA:705,0
DA:706,0
DA:707,0
DA:714,0
DA:715,0
DA:716,0
DA:719,0
DA:720,0
DA:722,0
DA:723,0
DA:724,0
DA:725,0
DA:728,0
DA:729,0
DA:730,0
DA:731,0
DA:732,0
DA:733,0
DA:734,0
DA:699,0
DA:702,0
DA:705,0
DA:706,0
DA:707,0
DA:714,0
DA:715,0
DA:716,0
DA:719,0
DA:720,0
DA:722,0
DA:723,0
DA:724,0
DA:725,0
DA:728,0
DA:729,0
DA:730,0
DA:731,0
DA:732,0
DA:733,0
DA:734,0
DA:738,0
DA:744,0
DA:745,0
DA:747,0
DA:749,0
DA:750,0
DA:752,0
DA:738,0
DA:744,0
DA:745,0
DA:747,0
DA:749,0
DA:750,0
DA:752,0
DA:756,0
DA:760,0
DA:761,0
DA:915,0
DA:1071,0
DA:1072,0
DA:1193,0
DA:1194,0
DA:1210,0
DA:1211,0
DA:1298,0
DA:1299,0
DA:1303,0
DA:1304,0
DA:1384,0
DA:1385,0
DA:1500,0
DA:1503,0
DA:1504,0
DA:1505,0
DA:1569,0
DA:1571,0
DA:1572,0
DA:1574,0
DA:1576,0
DA:1579,0
DA:1580,0
DA:1584,0
DA:1585,0
DA:1628,0
DA:1631,0
DA:1632,0
DA:1634,0
DA:1635,0
DA:1639,0
DA:1640,0
DA:1628,0
DA:1631,0
DA:1632,0
DA:1634,0
DA:1635,0
DA:1639,0
DA:1640,0
DA:1896,0
DA:1899,0
DA:1900,0
DA:2113,0
DA:2194,0
DA:2196,0
DA:2197,0
DA:2198,0
DA:2199,0
DA:2194,0
DA:2196,0
DA:2197,0
DA:2198,0
DA:2199,0
end_of_record
SF:/usr/include/c++/9/bits/std_function.h
FN:196,_ZNSt14_Function_base13_Base_managerINSt8__detail15_BracketMatcherINSt7__cxx1112regex_traitsIcEELb1ELb1EEEE10_M_managerERSt9_Any_dataRKS8_St18_Manager_operation
FNDA:0,_ZNSt14_Function_base13_Base_managerINSt8__detail15_BracketMatcherINSt7__cxx1112regex_traitsIcEELb1ELb1EEEE10_M_managerERSt9_Any_dataRKS8_St18_Manager_operation
FN:196,_ZNSt14_Function_base13_Base_managerINSt8__detail11_AnyMatcherINSt7__cxx1112regex_traitsIcEELb0ELb0ELb0EEEE10_M_managerERSt9_Any_dataRKS8_St18_Manager_operation
FNDA:0,_ZNSt14_Function_base13_Base_managerINSt8__detail11_AnyMatcherINSt7__cxx1112regex_traitsIcEELb0ELb0ELb0EEEE10_M_managerERSt9_Any_dataRKS8_St18_Manager_operation
FN:196,_ZNSt14_Function_base13_Base_managerINSt8__detail11_AnyMatcherINSt7__cxx1112regex_traitsIcEELb0ELb0ELb1EEEE10_M_managerERSt9_Any_dataRKS8_St18_Manager_operation
FNDA:0,_ZNSt14_Function_base13_Base_managerINSt8__detail11_AnyMatcherINSt7__cxx1112regex_traitsIcEELb0ELb0ELb1EEEE10_M_managerERSt9_Any_dataRKS8_St18_Manager_operation
FN:196,_ZNSt14_Function_base13_Base_managerINSt8__detail11_AnyMatcherINSt7__cxx1112regex_traitsIcEELb0ELb1ELb0EEEE10_M_managerERSt9_Any_dataRKS8_St18_Manager_operation
FNDA:0,_ZNSt14_Function_base13_Base_managerINSt8__detail11_AnyMatcherINSt7__cxx1112regex_traitsIcEELb0ELb1ELb0EEEE10_M_managerERSt9_Any_dataRKS8_St18_Manager_operation
FN:196,_ZNSt14_Function_base13_Base_managerINSt8__detail11_AnyMatcherINSt7__cxx1112regex_traitsIcEELb0ELb1ELb1EEEE10_M_managerERSt9_Any_dataRKS8_St18_Manager_operation
FNDA:0,_ZNSt14_Function_base13_Base_managerINSt8__detail11_AnyMatcherINSt7__cxx1112regex_traitsIcEELb0ELb1ELb1EEEE10_M_managerERSt9_Any_dataRKS8_St18_Manager_operation
FN:196,_ZNSt14_Function_base13_Base_managerINSt8__detail11_AnyMatcherINSt7__cxx1112regex_traitsIcEELb1ELb0ELb0EEEE10_M_managerERSt9_Any_dataRKS8_St18_Manager_operation
FNDA:0,_ZNSt14_Function_base13_Base_managerINSt8__detail11_AnyMatcherINSt7__cxx1112regex_traitsIcEELb1ELb0ELb0EEEE10_M_managerERSt9_Any_dataRKS8_St18_Manager_operation
FN:196,_ZNSt14_Function_base13_Base_managerINSt8__detail11_AnyMatcherINSt7__cxx1112regex_traitsIcEELb1ELb0ELb1EEEE10_M_managerERSt9_Any_dataRKS8_St18_Manager_operation
FNDA:0,_ZNSt14_Function_base13_Base_managerINSt8__detail11_AnyMatcherINSt7__cxx1112regex_traitsIcEELb1ELb0ELb1EEEE10_M_managerERSt9_Any_dataRKS8_St18_Manager_operation
FN:196,_ZNSt14_Function_base13_Base_managerINSt8__detail11_AnyMatcherINSt7__cxx1112regex_traitsIcEELb1ELb1ELb0EEEE10_M_managerERSt9_Any_dataRKS8_St18_Manager_operation
FNDA:0,_ZNSt14_Function_base13_Base_managerINSt8__detail11_AnyMatcherINSt7__cxx1112regex_traitsIcEELb1ELb1ELb0EEEE10_M_managerERSt9_Any_dataRKS8_St18_Manager_operation
FN:196,_ZNSt14_Function_base13_Base_managerINSt8__detail11_AnyMatcherINSt7__cxx1112regex_traitsIcEELb1ELb1ELb1EEEE10_M_managerERSt9_Any_dataRKS8_St18_Manager_operation
FNDA:0,_ZNSt14_Function_base13_Base_managerINSt8__detail11_AnyMatcherINSt7__cxx1112regex_traitsIcEELb1ELb1ELb1EEEE10_M_managerERSt9_Any_dataRKS8_St18_Manager_operation
FN:196,_ZNSt14_Function_base13_Base_managerINSt8__detail12_CharMatcherINSt7__cxx1112regex_traitsIcEELb0ELb0EEEE10_M_managerERSt9_Any_dataRKS8_St18_Manager_operation
FNDA:0,_ZNSt14_Function_base13_Base_managerINSt8__detail12_CharMatcherINSt7__cxx1112regex_traitsIcEELb0ELb0EEEE10_M_managerERSt9_Any_dataRKS8_St18_Manager_operation
FN:196,_ZNSt14_Function_base13_Base_managerINSt8__detail12_CharMatcherINSt7__cxx1112regex_traitsIcEELb0ELb1EEEE10_M_managerERSt9_Any_dataRKS8_St18_Manager_operation
FNDA:0,_ZNSt14_Function_base13_Base_managerINSt8__detail12_CharMatcherINSt7__cxx1112regex_traitsIcEELb0ELb1EEEE10_M_managerERSt9_Any_dataRKS8_St18_Manager_operation
FN:196,_ZNSt14_Function_base13_Base_managerINSt8__detail12_CharMatcherINSt7__cxx1112regex_traitsIcEELb1ELb0EEEE10_M_managerERSt9_Any_dataRKS8_St18_Manager_operation
FNDA:0,_ZNSt14_Function_base13_Base_managerINSt8__detail12_CharMatcherINSt7__cxx1112regex_traitsIcEELb1ELb0EEEE10_M_managerERSt9_Any_dataRKS8_St18_Manager_operation
FN:196,_ZNSt14_Function_base13_Base_managerINSt8__detail12_CharMatcherINSt7__cxx1112regex_traitsIcEELb1ELb1EEEE10_M_managerERSt9_Any_dataRKS8_St18_Manager_operation
FNDA:0,_ZNSt14_Function_base13_Base_managerINSt8__detail12_CharMatcherINSt7__cxx1112regex_traitsIcEELb1ELb1EEEE10_M_managerERSt9_Any_dataRKS8_St18_Manager_operation
FN:196,_ZNSt14_Function_base13_Base_managerINSt8__detail15_BracketMatcherINSt7__cxx1112regex_traitsIcEELb1ELb0EEEE10_M_managerERSt9_Any_dataRKS8_St18_Manager_operation
FNDA:0,_ZNSt14_Function_base13_Base_managerINSt8__detail15_BracketMatcherINSt7__cxx1112regex_traitsIcEELb1ELb0EEEE10_M_managerERSt9_Any_dataRKS8_St18_Manager_operation
FN:196,_ZNSt14_Function_base13_Base_managerINSt8__detail15_BracketMatcherINSt7__cxx1112regex_traitsIcEELb0ELb0EEEE10_M_managerERSt9_Any_dataRKS8_St18_Manager_operation
FNDA:0,_ZNSt14_Function_base13_Base_managerINSt8__detail15_BracketMatcherINSt7__cxx1112regex_traitsIcEELb0ELb0EEEE10_M_managerERSt9_Any_dataRKS8_St18_Manager_operation
FN:196,_ZNSt14_Function_base13_Base_managerINSt8__detail15_BracketMatcherINSt7__cxx1112regex_traitsIcEELb0ELb1EEEE10_M_managerERSt9_Any_dataRKS8_St18_Manager_operation
FNDA:0,_ZNSt14_Function_base13_Base_managerINSt8__detail15_BracketMatcherINSt7__cxx1112regex_traitsIcEELb0ELb1EEEE10_M_managerERSt9_Any_dataRKS8_St18_Manager_operation
FN:283,_ZNSt17_Function_handlerIFbcENSt8__detail12_CharMatcherINSt7__cxx1112regex_traitsIcEELb1ELb0EEEE9_M_invokeERKSt9_Any_dataOc
FNDA:0,_ZNSt17_Function_handlerIFbcENSt8__detail12_CharMatcherINSt7__cxx1112regex_traitsIcEELb1ELb0EEEE9_M_invokeERKSt9_Any_dataOc
FN:283,_ZNSt17_Function_handlerIFbcENSt8__detail11_AnyMatcherINSt7__cxx1112regex_traitsIcEELb0ELb0ELb0EEEE9_M_invokeERKSt9_Any_dataOc
FNDA:0,_ZNSt17_Function_handlerIFbcENSt8__detail11_AnyMatcherINSt7__cxx1112regex_traitsIcEELb0ELb0ELb0EEEE9_M_invokeERKSt9_Any_dataOc
FN:283,_ZNSt17_Function_handlerIFbcENSt8__detail11_AnyMatcherINSt7__cxx1112regex_traitsIcEELb0ELb0ELb1EEEE9_M_invokeERKSt9_Any_dataOc
FNDA:0,_ZNSt17_Function_handlerIFbcENSt8__detail11_AnyMatcherINSt7__cxx1112regex_traitsIcEELb0ELb0ELb1EEEE9_M_invokeERKSt9_Any_dataOc
FN:283,_ZNSt17_Function_handlerIFbcENSt8__detail15_BracketMatcherINSt7__cxx1112regex_traitsIcEELb1ELb1EEEE9_M_invokeERKSt9_Any_dataOc
FNDA:0,_ZNSt17_Function_handlerIFbcENSt8__detail15_BracketMatcherINSt7__cxx1112regex_traitsIcEELb1ELb1EEEE9_M_invokeERKSt9_Any_dataOc
FN:283,_ZNSt17_Function_handlerIFbcENSt8__detail11_AnyMatcherINSt7__cxx1112regex_traitsIcEELb0ELb1ELb0EEEE9_M_invokeERKSt9_Any_dataOc
FNDA:0,_ZNSt17_Function_handlerIFbcENSt8__detail11_AnyMatcherINSt7__cxx1112regex_traitsIcEELb0ELb1ELb0EEEE9_M_invokeERKSt9_Any_dataOc
FN:283,_ZNSt17_Function_handlerIFbcENSt8__detail11_AnyMatcherINSt7__cxx1112regex_traitsIcEELb0ELb1ELb1EEEE9_M_invokeERKSt9_Any_dataOc
FNDA:0,_ZNSt17_Function_handlerIFbcENSt8__detail11_AnyMatcherINSt7__cxx1112regex_traitsIcEELb0ELb1ELb1EEEE9_M_invokeERKSt9_Any_dataOc
FN:283,_ZNSt17_Function_handlerIFbcENSt8__detail15_BracketMatcherINSt7__cxx1112regex_traitsIcEELb1ELb0EEEE9_M_invokeERKSt9_Any_dataOc
FNDA:0,_ZNSt17_Function_handlerIFbcENSt8__detail15_BracketMatcherINSt7__cxx1112regex_traitsIcEELb1ELb0EEEE9_M_invokeERKSt9_Any_dataOc
FN:283,_ZNSt17_Function_handlerIFbcENSt8__detail11_AnyMatcherINSt7__cxx1112regex_traitsIcEELb1ELb0ELb0EEEE9_M_invokeERKSt9_Any_dataOc
FNDA:0,_ZNSt17_Function_handlerIFbcENSt8__detail11_AnyMatcherINSt7__cxx1112regex_traitsIcEELb1ELb0ELb0EEEE9_M_invokeERKSt9_Any_dataOc
FN:283,_ZNSt17_Function_handlerIFbcENSt8__detail11_AnyMatcherINSt7__cxx1112regex_traitsIcEELb1ELb0ELb1EEEE9_M_invokeERKSt9_Any_dataOc
FNDA:0,_ZNSt17_Function_handlerIFbcENSt8__detail11_AnyMatcherINSt7__cxx1112regex_traitsIcEELb1ELb0ELb1EEEE9_M_invokeERKSt9_Any_dataOc
FN:283,_ZNSt17_Function_handlerIFbcENSt8__detail15_BracketMatcherINSt7__cxx1112regex_traitsIcEELb0ELb1EEEE9_M_invokeERKSt9_Any_dataOc
FNDA:0,_ZNSt17_Function_handlerIFbcENSt8__detail15_BracketMatcherINSt7__cxx1112regex_traitsIcEELb0ELb1EEEE9_M_invokeERKSt9_Any_dataOc
FN:283,_ZNSt17_Function_handlerIFbcENSt8__detail11_AnyMatcherINSt7__cxx1112regex_traitsIcEELb1ELb1ELb0EEEE9_M_invokeERKSt9_Any_dataOc
FNDA:0,_ZNSt17_Function_handlerIFbcENSt8__detail11_AnyMatcherINSt7__cxx1112regex_traitsIcEELb1ELb1ELb0EEEE9_M_invokeERKSt9_Any_dataOc
FN:283,_ZNSt17_Function_handlerIFbcENSt8__detail11_AnyMatcherINSt7__cxx1112regex_traitsIcEELb1ELb1ELb1EEEE9_M_invokeERKSt9_Any_dataOc
FNDA:0,_ZNSt17_Function_handlerIFbcENSt8__detail11_AnyMatcherINSt7__cxx1112regex_traitsIcEELb1ELb1ELb1EEEE9_M_invokeERKSt9_Any_dataOc
FN:283,_ZNSt17_Function_handlerIFbcENSt8__detail15_BracketMatcherINSt7__cxx1112regex_traitsIcEELb0ELb0EEEE9_M_invokeERKSt9_Any_dataOc
FNDA:0,_ZNSt17_Function_handlerIFbcENSt8__detail15_BracketMatcherINSt7__cxx1112regex_traitsIcEELb0ELb0EEEE9_M_invokeERKSt9_Any_dataOc
FN:283,_ZNSt17_Function_handlerIFbcENSt8__detail12_CharMatcherINSt7__cxx1112regex_traitsIcEELb0ELb0EEEE9_M_invokeERKSt9_Any_dataOc
FNDA:0,_ZNSt17_Function_handlerIFbcENSt8__detail12_CharMatcherINSt7__cxx1112regex_traitsIcEELb0ELb0EEEE9_M_invokeERKSt9_Any_dataOc
FN:283,_ZNSt17_Function_handlerIFbcENSt8__detail12_CharMatcherINSt7__cxx1112regex_traitsIcEELb0ELb1EEEE9_M_invokeERKSt9_Any_dataOc
FNDA:0,_ZNSt17_Function_handlerIFbcENSt8__detail12_CharMatcherINSt7__cxx1112regex_traitsIcEELb0ELb1EEEE9_M_invokeERKSt9_Any_dataOc
FN:283,_ZNSt17_Function_handlerIFbcENSt8__detail12_CharMatcherINSt7__cxx1112regex_traitsIcEELb1ELb1EEEE9_M_invokeERKSt9_Any_dataOc
FNDA:0,_ZNSt17_Function_handlerIFbcENSt8__detail12_CharMatcherINSt7__cxx1112regex_traitsIcEELb1ELb1EEEE9_M_invokeERKSt9_Any_dataOc
FN:480,_ZNSt8functionIFbcEEaSEOS1_
FNDA:0,_ZNSt8functionIFbcEEaSEOS1_
FN:653,_ZNSt8functionIFbcEEC2ERKS1_
FNDA:0,_ZNSt8functionIFbcEEC2ERKS1_
FN:667,_ZNSt8functionIFbcEEC2INSt8__detail15_BracketMatcherINSt7__cxx1112regex_traitsIcEELb1ELb1EEEvvEET_
FNDA:0,_ZNSt8functionIFbcEEC2INSt8__detail15_BracketMatcherINSt7__cxx1112regex_traitsIcEELb1ELb1EEEvvEET_
FN:667,_ZNSt8functionIFbcEEC2INSt8__detail15_BracketMatcherINSt7__cxx1112regex_traitsIcEELb1ELb0EEEvvEET_
FNDA:0,_ZNSt8functionIFbcEEC2INSt8__detail15_BracketMatcherINSt7__cxx1112regex_traitsIcEELb1ELb0EEEvvEET_
FN:667,_ZNSt8functionIFbcEEC2INSt8__detail15_BracketMatcherINSt7__cxx1112regex_traitsIcEELb0ELb1EEEvvEET_
FNDA:0,_ZNSt8functionIFbcEEC2INSt8__detail15_BracketMatcherINSt7__cxx1112regex_traitsIcEELb0ELb1EEEvvEET_
FN:667,_ZNSt8functionIFbcEEC2INSt8__detail15_BracketMatcherINSt7__cxx1112regex_traitsIcEELb0ELb0EEEvvEET_
FNDA:0,_ZNSt8functionIFbcEEC2INSt8__detail15_BracketMatcherINSt7__cxx1112regex_traitsIcEELb0ELb0EEEvvEET_
DA:87,0
DA:88,0
DA:92,0
DA:93,0
DA:97,0
DA:98,0
DA:151,0
DA:155,0
DA:156,0
DA:159,0
DA:165,0
DA:167,0
DA:168,0
DA:182,0
DA:184,0
DA:185,0
DA:196,0
DA:199,0
DA:202,0
DA:203,0
DA:204,0
DA:206,0
DA:207,0
DA:208,0
DA:210,0
DA:211,0
DA:214,0
DA:215,0
DA:216,0
DA:218,0
DA:196,0
DA:199,0
DA:202,0
DA:203,0
DA:204,0
DA:206,0
DA:207,0
DA:208,0
DA:210,0
DA:211,0
DA:214,0
DA:215,0
DA:216,0
DA:218,0
DA:196,0
DA:199,0
DA:202,0
DA:203,0
DA:204,0
DA:206,0
DA:207,0
DA:208,0
DA:210,0
DA:211,0
DA:214,0
DA:215,0
DA:216,0
DA:218,0
DA:196,0
DA:199,0
DA:202,0
DA:203,0
DA:204,0
DA:206,0
DA:207,0
DA:208,0
DA:210,0
DA:211,0
DA:214,0
DA:215,0
DA:216,0
DA:218,0
DA:196,0
DA:199,0
DA:202,0
DA:203,0
DA:204,0
DA:206,0
DA:207,0
DA:208,0
DA:211,0
DA:215,0
DA:218,0
DA:196,0
DA:199,0
DA:202,0
DA:203,0
DA:204,0
DA:206,0
DA:207,0
DA:208,0
DA:211,0
DA:215,0
DA:218,0
DA:196,0
DA:199,0
DA:202,0
DA:203,0
DA:204,0
DA:206,0
DA:207,0
DA:208,0
DA:211,0
DA:215,0
DA:218,0
DA:196,0
DA:199,0
DA:202,0
DA:203,0
DA:204,0
DA:206,0
DA:207,0
DA:208,0
DA:211,0
DA:215,0
DA:218,0
DA:196,0
DA:199,0
DA:202,0
DA:203,0
DA:204,0
DA:206,0
DA:207,0
DA:208,0
DA:211,0
DA:215,0
DA:218,0
DA:196,0
DA:199,0
DA:202,0
DA:203,0
DA:204,0
DA:206,0
DA:207,0
DA:208,0
DA:211,0
DA:215,0
DA:218,0
DA:196,0
DA:199,0
DA:202,0
DA:203,0
DA:204,0
DA:206,0
DA:207,0
DA:208,0
DA:211,0
DA:215,0
DA:218,0
DA:196,0
DA:199,0
DA:202,0
DA:203,0
DA:204,0
DA:206,0
DA:207,0
DA:208,0
DA:215,0
DA:218,0
DA:196,0
DA:199,0
DA:202,0
DA:203,0
DA:204,0
DA:206,0
DA:207,0
DA:208,0
DA:211,0
DA:215,0
DA:218,0
DA:196,0
DA:199,0
DA:202,0
DA:203,0
DA:204,0
DA:206,0
DA:207,0
DA:208,0
DA:211,0
DA:215,0
DA:218,0
DA:196,0
DA:199,0
DA:202,0
DA:203,0
DA:204,0
DA:206,0
DA:207,0
DA:208,0
DA:211,0
DA:215,0
DA:218,0
DA:196,0
DA:199,0
DA:202,0
DA:203,0
DA:204,0
DA:206,0
DA:207,0
DA:208,0
DA:215,0
DA:218,0
DA:222,0
DA:223,0
DA:242,0
DA:247,0
DA:248,0
DA:251,0
DA:252,0
DA:255,0
DA:257,0
DA:258,0
DA:259,0
DA:260,0
DA:263,0
DA:283,0
DA:285,0
DA:286,0
DA:283,0
DA:285,0
DA:286,0
DA:283,0
DA:285,0
DA:286,0
DA:283,0
DA:285,0
DA:286,0
DA:283,0
DA:285,0
DA:286,0
DA:283,0
DA:285,0
DA:286,0
DA:283,0
DA:285,0
DA:286,0
DA:283,0
DA:285,0
DA:286,0
DA:283,0
DA:285,0
DA:286,0
DA:283,0
DA:285,0
DA:286,0
DA:283,0
DA:285,0
DA:286,0
DA:283,0
DA:285,0
DA:286,0
DA:283,0
DA:285,0
DA:286,0
DA:283,0
DA:285,0
DA:286,0
DA:283,0
DA:285,0
DA:286,0
DA:283,0
DA:285,0
DA:286,0
DA:369,0
DA:396,0
DA:397,0
DA:423,0
DA:425,0
DA:426,0
DA:480,0
DA:482,0
DA:483,0
DA:547,0
DA:549,0
DA:550,0
DA:551,0
DA:564,0
DA:565,0
DA:653,0
DA:655,0
DA:657,0
DA:659,0
DA:660,0
DA:661,0
DA:663,0
DA:667,0
DA:669,0
DA:673,0
DA:675,0
DA:676,0
DA:677,0
DA:679,0
DA:667,0
DA:669,0
DA:673,0
DA:675,0
DA:676,0
DA:677,0
DA:679,0
DA:667,0
DA:669,0
DA:673,0
DA:675,0
DA:676,0
DA:677,0
DA:679,0
DA:667,0
DA:669,0
DA:673,0
DA:675,0
DA:676,0
DA:677,0
DA:679,0
DA:667,0
DA:669,0
DA:673,0
DA:675,0
DA:676,0
DA:677,0
DA:683,0
DA:686,0
DA:687,0
DA:688,0
end_of_record
SF:/usr/include/x86_64-linux-gnu/bits/string_fortified.h
DA:126,0
DA:128,0
end_of_record
SF:/usr/include/c++/9/bits/regex.h
FN:223,_ZNKSt7__cxx1112regex_traitsIcE9transformIN9__gnu_cxx17__normal_iteratorIPcNS_12basic_stringIcSt11char_traitsIcESaIcEEEEEEESA_T_SC_
FNDA:0,_ZNKSt7__cxx1112regex_traitsIcE9transformIN9__gnu_cxx17__normal_iteratorIPcNS_12basic_stringIcSt11char_traitsIcESaIcEEEEEEESA_T_SC_
FN:223,_ZNKSt7__cxx1112regex_traitsIcE9transformIPcEENS_12basic_stringIcSt11char_traitsIcESaIcEEET_S9_
FNDA:0,_ZNKSt7__cxx1112regex_traitsIcE9transformIPcEENS_12basic_stringIcSt11char_traitsIcESaIcEEET_S9_
FN:247,_ZNKSt7__cxx1112regex_traitsIcE17transform_primaryIPKcEENS_12basic_stringIcSt11char_traitsIcESaIcEEET_SA_
FNDA:0,_ZNKSt7__cxx1112regex_traitsIcE17transform_primaryIPKcEENS_12basic_stringIcSt11char_traitsIcESaIcEEET_SA_
FN:437,_ZNSt7__cxx1111basic_regexIcNS_12regex_traitsIcEEEC2EPKcNSt15regex_constants18syntax_option_typeE
FNDA:0,_ZNSt7__cxx1111basic_regexIcNS_12regex_traitsIcEEEC2EPKcNSt15regex_constants18syntax_option_typeE
FN:503,_ZNSt7__cxx1111basic_regexIcNS_12regex_traitsIcEEEC2IPKcEET_S7_NSt15regex_constants18syntax_option_typeE
FNDA:0,_ZNSt7__cxx1111basic_regexIcNS_12regex_traitsIcEEEC2IPKcEET_S7_NSt15regex_constants18syntax_option_typeE
FN:523,_ZNSt7__cxx1111basic_regexIcNS_12regex_traitsIcEEED2Ev
FNDA:0,_ZNSt7__cxx1111basic_regexIcNS_12regex_traitsIcEEED2Ev
FN:756,_ZNSt7__cxx1111basic_regexIcNS_12regex_traitsIcEEEC2IPKcEET_S7_St6localeNSt15regex_constants18syntax_option_typeE
FNDA:0,_ZNSt7__cxx1111basic_regexIcNS_12regex_traitsIcEEEC2IPKcEET_S7_St6localeNSt15regex_constants18syntax_option_typeE
FN:918,_ZNKSt7__cxx119sub_matchIN9__gnu_cxx17__normal_iteratorIPKcNS_12basic_stringIcSt11char_traitsIcESaIcEEEEEE7compareERKSB_
FNDA:0,_ZNKSt7__cxx119sub_matchIN9__gnu_cxx17__normal_iteratorIPKcNS_12basic_stringIcSt11char_traitsIcESaIcEEEEEE7compareERKSB_
FN:963,_ZNKSt7__cxx119sub_matchIN9__gnu_cxx17__normal_iteratorIPKcNS_12basic_stringIcSt11char_traitsIcESaIcEEEEEE13__string_view7compareESC_
FNDA:0,_ZNKSt7__cxx119sub_matchIN9__gnu_cxx17__normal_iteratorIPKcNS_12basic_stringIcSt11char_traitsIcESaIcEEEEEE13__string_view7compareESC_
FN:2536,_ZNSt7__cxx1114regex_iteratorIN9__gnu_cxx17__normal_iteratorIPKcNS_12basic_stringIcSt11char_traitsIcESaIcEEEEEcNS_12regex_traitsIcEEEC2ESA_SA_RKNS_11basic_regexIcSC_EENSt15regex_constants15match_flag_typeE
FNDA:0,_ZNSt7__cxx1114regex_iteratorIN9__gnu_cxx17__normal_iteratorIPKcNS_12basic_stringIcSt11char_traitsIcESaIcEEEEEcNS_12regex_traitsIcEEEC2ESA_SA_RKNS_11basic_regexIcSC_EENSt15regex_constants15match_flag_typeE
DA:95,0
DA:97,0
DA:101,0
DA:103,0
DA:104,0
DA:108,0
DA:110,0
DA:111,0
DA:130,0
DA:131,0
DA:138,0
DA:142,0
DA:146,0
DA:147,0
DA:157,0
DA:181,0
DA:194,0
DA:197,0
DA:198,0
DA:223,0
DA:226,0
DA:227,0
DA:228,0
DA:223,0
DA:226,0
DA:227,0
DA:228,0
DA:247,0
DA:256,0
DA:257,0
DA:258,0
DA:259,0
DA:359,0
DA:361,0
DA:362,0
DA:370,0
DA:371,0
DA:437,0
DA:438,0
DA:439,0
DA:503,0
DA:505,0
DA:506,0
DA:523,0
DA:524,0
DA:707,0
DA:756,0
DA:758,0
DA:760,0
DA:761,0
DA:863,0
DA:875,0
DA:918,0
DA:919,0
DA:953,0
DA:963,0
DA:965,0
DA:966,0
DA:968,0
DA:969,0
DA:971,0
DA:973,0
DA:985,0
DA:987,0
DA:988,0
DA:989,0
DA:990,0
DA:1026,0
DA:1027,0
DA:1583,0
DA:1635,0
DA:1638,0
DA:1639,0
DA:1647,0
DA:1669,0
DA:1696,0
DA:1697,0
DA:1771,0
DA:1774,0
DA:1775,0
DA:1946,0
DA:1947,0
DA:1950,0
DA:1951,0
DA:1962,0
DA:1963,0
DA:1970,0
DA:1971,0
DA:2217,0
DA:2225,0
DA:2513,0
DA:2527,0
DA:2536,0
DA:2539,0
DA:2541,0
DA:2542,0
DA:2543,0
DA:2552,0
DA:2558,0
end_of_record
SF:/usr/include/c++/9/bits/regex.tcc
FN:48,_ZNSt8__detail17__regex_algo_implIN9__gnu_cxx17__normal_iteratorIPKcNSt7__cxx1112basic_stringIcSt11char_traitsIcESaIcEEEEESaINS5_9sub_matchISB_EEEcNS5_12regex_traitsIcEELNS_20_RegexExecutorPolicyE0ELb0EEEbT_SI_RNS5_13match_resultsISI_T0_EERKNS5_11basic_regexIT1_T2_EENSt15regex_constants15match_flag_typeE
FNDA:0,_ZNSt8__detail17__regex_algo_implIN9__gnu_cxx17__normal_iteratorIPKcNSt7__cxx1112basic_stringIcSt11char_traitsIcESaIcEEEEESaINS5_9sub_matchISB_EEEcNS5_12regex_traitsIcEELNS_20_RegexExecutorPolicyE0ELb0EEEbT_SI_RNS5_13match_resultsISI_T0_EERKNS5_11basic_regexIT1_T2_EENSt15regex_constants15match_flag_typeE
FN:126,_ZNKSt7__cxx1112regex_traitsIcE18lookup_collatenameIPKcEENS_12basic_stringIcSt11char_traitsIcESaIcEEET_SA_
FNDA:0,_ZNKSt7__cxx1112regex_traitsIcE18lookup_collatenameIPKcEENS_12basic_stringIcSt11char_traitsIcESaIcEEET_SA_
FN:282,_ZNKSt7__cxx1112regex_traitsIcE16lookup_classnameIPKcEENS1_10_RegexMaskET_S6_b
FNDA:0,_ZNKSt7__cxx1112regex_traitsIcE16lookup_classnameIPKcEENS1_10_RegexMaskET_S6_b
FN:326,_ZNKSt7__cxx1112regex_traitsIcE7isctypeEcNS1_10_RegexMaskE
FNDA:0,_ZNKSt7__cxx1112regex_traitsIcE7isctypeEcNS1_10_RegexMaskE
FN:340,_ZNKSt7__cxx1112regex_traitsIcE5valueEci
FNDA:0,_ZNKSt7__cxx1112regex_traitsIcE5valueEci
FN:502,_ZNKSt7__cxx1114regex_iteratorIN9__gnu_cxx17__normal_iteratorIPKcNS_12basic_stringIcSt11char_traitsIcESaIcEEEEEcNS_12regex_traitsIcEEEeqERKSD_
FNDA:0,_ZNKSt7__cxx1114regex_iteratorIN9__gnu_cxx17__normal_iteratorIPKcNS_12basic_stringIcSt11char_traitsIcESaIcEEEEEcNS_12regex_traitsIcEEEeqERKSD_
FN:518,_ZNSt7__cxx1114regex_iteratorIN9__gnu_cxx17__normal_iteratorIPKcNS_12basic_stringIcSt11char_traitsIcESaIcEEEEEcNS_12regex_traitsIcEEEppEv
FNDA:0,_ZNSt7__cxx1114regex_iteratorIN9__gnu_cxx17__normal_iteratorIPKcNS_12basic_stringIcSt11char_traitsIcESaIcEEEEEcNS_12regex_traitsIcEEEppEv
DA:48,0
DA:54,0
DA:57,0
DA:58,0
DA:59,0
DA:60,0
DA:61,0
DA:64,0
DA:69,0
DA:73,0
DA:78,0
DA:82,0
DA:84,0
DA:86,0
DA:87,0
DA:88,0
DA:89,0
DA:90,0
DA:102,0
DA:103,0
DA:104,0
DA:105,0
DA:106,0
DA:107,0
DA:112,0
DA:113,0
DA:115,0
DA:116,0
DA:126,0
DA:130,0
DA:264,0
DA:265,0
DA:266,0
DA:268,0
DA:269,0
DA:270,0
DA:271,0
DA:276,0
DA:282,0
DA:286,0
DA:308,0
DA:309,0
DA:310,0
DA:312,0
DA:313,0
DA:316,0
DA:317,0
DA:318,0
DA:319,0
DA:321,0
DA:326,0
DA:330,0
DA:332,0
DA:334,0
DA:335,0
DA:340,0
DA:343,0
DA:345,0
DA:346,0
DA:347,0
DA:348,0
DA:349,0
DA:350,0
DA:502,0
DA:505,0
DA:507,0
DA:508,0
DA:509,0
DA:510,0
DA:511,0
DA:518,0
DA:527,0
DA:529,0
DA:530,0
DA:531,0
DA:533,0
DA:535,0
DA:536,0
DA:540,0
DA:546,0
DA:547,0
DA:548,0
DA:550,0
DA:551,0
DA:554,0
DA:557,0
DA:558,0
DA:561,0
DA:562,0
DA:563,0
DA:565,0
DA:568,0
end_of_record
SF:/workspace/vtr-verilog-to-routing/ODIN_II/SRC/odin_util.cpp
FN:46,_Z16make_signal_namePci
FNDA:0,_Z16make_signal_namePci
FN:61,_Z18make_full_ref_namePKcPcS1_S0_l
FNDA:0,_Z18make_full_ref_namePKcPcS1_S0_l
FN:80,_Z15twos_complementPc
FNDA:0,_Z15twos_complementPc
FN:108,_Z37convert_string_of_radix_to_bit_stringPcii
FNDA:0,_Z37convert_string_of_radix_to_bit_stringPcii
FN:137,_Z31convert_long_long_to_bit_stringxi
FNDA:0,_Z31convert_long_long_to_bit_stringxi
FN:158,_Z39convert_dec_string_of_size_to_long_longPci
FNDA:0,_Z39convert_dec_string_of_size_to_long_longPci
FN:171,_Z36convert_string_of_radix_to_long_longPci
FNDA:0,_Z36convert_string_of_radix_to_long_longPci
FN:189,_Z18is_string_of_radixPci
FNDA:0,_Z18is_string_of_radixPci
FN:207,_Z40convert_hex_string_of_size_to_bit_stringsPci
FNDA:0,_Z40convert_hex_string_of_size_to_bit_stringsPci
FN:313,_Z40convert_oct_string_of_size_to_bit_stringPci
FNDA:0,_Z40convert_oct_string_of_size_to_bit_stringPci
FN:366,_Z43convert_binary_string_of_size_to_bit_stringsPci
FNDA:0,_Z43convert_binary_string_of_size_to_bit_stringsPci
FN:401,_Z13is_hex_stringPc
FNDA:0,_Z13is_hex_stringPc
FN:414,_Z19is_dont_care_stringPc
FNDA:0,_Z19is_dont_care_stringPc
FN:427,_Z17is_decimal_stringPc
FNDA:0,_Z17is_decimal_stringPc
FN:440,_Z15is_octal_stringPc
FNDA:0,_Z15is_octal_stringPc
FN:453,_Z16is_binary_stringPc
FNDA:0,_Z16is_binary_stringPc
FN:469,_Z12get_pin_namePc
FNDA:0,_Z12get_pin_namePc
FN:482,_Z13get_port_namePc
FNDA:0,_Z13get_port_namePc
FN:499,_Z14get_pin_numberPc
FNDA:0,_Z14get_pin_numberPc
FN:517,_Z8my_powerxx
FNDA:0,_Z8my_powerxx
FN:533,_Z23make_string_based_on_idP9nnode_t_t
FNDA:0,_Z23make_string_based_on_idP9nnode_t_t
FN:544,_Z16make_simple_nameB5cxx11PcPKcc
FNDA:0,_Z16make_simple_nameB5cxx11PcPKcc
FN:561,_Z16my_malloc_structm
FNDA:0,_Z16my_malloc_structm
FN:584,_Z4pow2i
FNDA:0,_Z4pow2i
FN:600,_Z15string_to_upperPc
FNDA:0,_Z15string_to_upperPc
FN:615,_Z15string_to_lowerPc
FNDA:0,_Z15string_to_lowerPc
FN:634,_Z13append_stringPKcS0_z
FNDA:0,_Z13append_stringPKcS0_z
FN:652,_Z14reverse_stringPci
FNDA:0,_Z14reverse_stringPci
FN:667,_Z7get_bitc
FNDA:0,_Z7get_bitc
FN:678,_Z13error_messagesiiPKcz
FNDA:0,_Z13error_messagesiiPKcz
FN:705,_Z15warning_messagesiiPKcz
FNDA:0,_Z15warning_messagesiiPKcz
FN:735,_Z14search_replacePcPKcS1_i
FNDA:0,_Z14search_replacePcPKcS1_i
FN:756,_Z14find_substringPcPKci
FNDA:0,_Z14find_substringPcPKci
FN:784,_Z21validate_string_regexPKcS0_
FNDA:0,_Z21validate_string_regexPKcS0_
DA:46,0
DA:48,0
DA:49,0
DA:50,0
DA:51,0
DA:52,0
DA:61,0
DA:64,0
DA:65,0
DA:66,0
DA:67,0
DA:68,0
DA:69,0
DA:70,0
DA:71,0
DA:73,0
DA:80,0
DA:82,0
DA:83,0
DA:84,0
DA:86,0
DA:88,0
DA:89,0
DA:91,0
DA:92,0
DA:94,0
DA:108,0
DA:110,0
DA:112,0
DA:114,0
DA:116,0
DA:117,0
DA:119,0
DA:121,0
DA:123,0
DA:125,0
DA:137,0
DA:139,0
DA:140,0
DA:141,0
DA:143,0
DA:145,0
DA:146,0
DA:147,0
DA:149,0
DA:151,0
DA:158,0
DA:160,0
DA:161,0
DA:163,0
DA:164,0
DA:165,0
DA:166,0
DA:168,0
DA:171,0
DA:173,0
DA:174,0
DA:177,0
DA:178,0
DA:179,0
DA:186,0
DA:189,0
DA:191,0
DA:192,0
DA:193,0
DA:194,0
DA:195,0
DA:196,0
DA:197,0
DA:198,0
DA:207,0
DA:209,0
DA:210,0
DA:211,0
DA:212,0
DA:214,0
DA:215,0
DA:216,0
DA:219,0
DA:223,0
DA:225,0
DA:227,0
DA:228,0
DA:229,0
DA:231,0
DA:232,0
DA:233,0
DA:234,0
DA:235,0
DA:238,0
DA:241,0
DA:243,0
DA:244,0
DA:245,0
DA:249,0
DA:251,0
DA:253,0
DA:254,0
DA:257,0
DA:258,0
DA:259,0
DA:260,0
DA:261,0
DA:262,0
DA:263,0
DA:269,0
DA:273,0
DA:274,0
DA:275,0
DA:279,0
DA:281,0
DA:283,0
DA:284,0
DA:285,0
DA:288,0
DA:290,0
DA:292,0
DA:293,0
DA:306,0
DA:313,0
DA:315,0
DA:316,0
DA:318,0
DA:319,0
DA:320,0
DA:323,0
DA:327,0
DA:329,0
DA:331,0
DA:332,0
DA:333,0
DA:335,0
DA:336,0
DA:337,0
DA:338,0
DA:339,0
DA:342,0
DA:345,0
DA:347,0
DA:348,0
DA:349,0
DA:353,0
DA:355,0
DA:357,0
DA:358,0
DA:359,0
DA:366,0
DA:368,0
DA:369,0
DA:371,0
DA:372,0
DA:375,0
DA:378,0
DA:381,0
DA:383,0
DA:384,0
DA:385,0
DA:389,0
DA:391,0
DA:393,0
DA:394,0
DA:395,0
DA:401,0
DA:403,0
DA:404,0
DA:405,0
DA:414,0
DA:416,0
DA:417,0
DA:418,0
DA:427,0
DA:429,0
DA:430,0
DA:431,0
DA:440,0
DA:442,0
DA:443,0
DA:444,0
DA:453,0
DA:455,0
DA:456,0
DA:457,0
DA:469,0
DA:471,0
DA:472,0
DA:474,0
DA:482,0
DA:485,0
DA:487,0
DA:488,0
DA:489,0
DA:490,0
DA:499,0
DA:502,0
DA:503,0
DA:505,0
DA:506,0
DA:509,0
DA:510,0
DA:517,0
DA:519,0
DA:524,0
DA:525,0
DA:533,0
DA:536,0
DA:538,0
DA:544,0
DA:546,0
DA:547,0
DA:549,0
DA:550,0
DA:552,0
DA:553,0
DA:555,0
DA:561,0
DA:563,0
DA:564,0
DA:569,0
DA:571,0
DA:572,0
DA:576,0
DA:578,0
DA:584,0
DA:586,0
DA:587,0
DA:589,0
DA:591,0
DA:594,0
DA:600,0
DA:602,0
DA:605,0
DA:607,0
DA:610,0
DA:615,0
DA:617,0
DA:620,0
DA:622,0
DA:625,0
DA:634,0
DA:636,0
DA:638,0
DA:640,0
DA:641,0
DA:642,0
DA:644,0
DA:645,0
DA:652,0
DA:654,0
DA:655,0
DA:656,0
DA:658,0
DA:659,0
DA:660,0
DA:662,0
DA:667,0
DA:668,0
DA:669,0
DA:670,0
DA:671,0
DA:678,0
DA:680,0
DA:682,0
DA:684,0
DA:685,0
DA:686,0
DA:687,0
DA:688,0
DA:689,0
DA:691,0
DA:692,0
DA:693,0
DA:694,0
DA:697,0
DA:699,0
DA:705,0
DA:707,0
DA:708,0
DA:709,0
DA:710,0
DA:712,0
DA:713,0
DA:714,0
DA:717,0
DA:718,0
DA:719,0
DA:720,0
DA:721,0
DA:722,0
DA:723,0
DA:725,0
DA:726,0
DA:727,0
DA:730,0
DA:731,0
DA:735,0
DA:737,0
DA:738,0
DA:739,0
DA:740,0
DA:741,0
DA:743,0
DA:744,0
DA:745,0
DA:747,0
DA:748,0
DA:749,0
DA:756,0
DA:760,0
DA:761,0
DA:762,0
DA:763,0
DA:764,0
DA:765,0
DA:766,0
DA:767,0
DA:769,0
DA:770,0
DA:771,0
DA:772,0
DA:773,0
DA:774,0
DA:779,0
DA:781,0
DA:784,0
DA:786,0
DA:787,0
DA:789,0
DA:790,0
DA:791,0
DA:792,0
end_of_record
SF:/usr/include/c++/9/bits/regex_scanner.h
FN:91,_ZNSt8__detail12_ScannerBaseC2ENSt15regex_constants18syntax_option_typeE
FNDA:0,_ZNSt8__detail12_ScannerBaseC2ENSt15regex_constants18syntax_option_typeE
DA:91,0
DA:92,0
DA:94,0
DA:95,0
DA:97,0
DA:98,0
DA:99,0
DA:100,0
DA:101,0
DA:102,0
DA:103,0
DA:104,0
DA:105,0
DA:106,0
DA:107,0
DA:108,0
DA:110,0
DA:111,0
DA:115,0
DA:117,0
DA:118,0
DA:119,0
DA:120,0
DA:125,0
DA:126,0
DA:129,0
DA:130,0
DA:145,0
DA:146,0
DA:210,0
DA:226,0
DA:230,0
DA:231,0
end_of_record
SF:/usr/include/c++/9/ostream
DA:108,0
DA:113,0
DA:127,0
DA:132,0
DA:166,0
DA:167,0
DA:565,0
DA:568,0
DA:570,0
DA:571,0
end_of_record
