TN:
SF:/usr/include/c++/9/iostream
end_of_record
SF:/workspace/vtr-verilog-to-routing/ODIN_II/SRC/Modulo.cpp
FN:47,_Z19resolve_modulo_nodeP7nnode_tmP9netlist_t
FNDA:0,_Z19resolve_modulo_nodeP7nnode_tmP9netlist_t
DA:47,0
DA:48,0
DA:57,0
DA:58,0
end_of_record
TN:
SF:/usr/include/c++/9/bits/stl_algobase.h
DA:222,0
DA:227,0
DA:228,0
end_of_record
SF:/workspace/vtr-verilog-to-routing/ODIN_II/SRC/LogicalOps.cpp
FN:45,_Z26prune_logical_node_outputsP7nnode_tmP9netlist_t
FNDA:0,_Z26prune_logical_node_outputsP7nnode_tmP9netlist_t
FN:129,_Z25split_in_single_bit_logicP7nnode_tmP9netlist_t
FNDA:0,_Z25split_in_single_bit_logicP7nnode_tmP9netlist_t
DA:45,0
DA:46,0
DA:47,0
DA:48,0
DA:51,0
DA:52,0
DA:53,0
DA:56,0
DA:58,0
DA:59,0
DA:60,0
DA:63,0
DA:64,0
DA:65,0
DA:68,0
DA:70,0
DA:72,0
DA:73,0
DA:75,0
DA:76,0
DA:80,0
DA:81,0
DA:82,0
DA:84,0
DA:85,0
DA:92,0
DA:94,0
DA:96,0
DA:98,0
DA:101,0
DA:104,0
DA:105,0
DA:106,0
DA:109,0
DA:110,0
DA:112,0
DA:117,0
DA:129,0
DA:130,0
DA:131,0
DA:132,0
DA:135,0
DA:136,0
DA:137,0
DA:140,0
DA:142,0
DA:143,0
DA:144,0
DA:146,0
DA:148,0
DA:149,0
DA:150,0
DA:153,0
DA:156,0
DA:157,0
DA:159,0
DA:160,0
DA:164,0
DA:165,0
DA:166,0
DA:168,0
DA:169,0
DA:175,0
DA:176,0
DA:178,0
DA:180,0
DA:181,0
DA:182,0
DA:183,0
DA:185,0
DA:187,0
DA:189,0
DA:194,0
DA:195,0
DA:196,0
DA:198,0
DA:200,0
DA:205,0
end_of_record
SF:/usr/include/c++/9/iostream
end_of_record
TN:
SF:/usr/include/c++/9/iostream
end_of_record
SF:/workspace/vtr-verilog-to-routing/ODIN_II/SRC/Latch.cpp
FN:50,_Z19resolve_dlatch_nodeP7nnode_tmP9netlist_t
FNDA:0,_Z19resolve_dlatch_nodeP7nnode_tmP9netlist_t
FN:96,_Z20resolve_adlatch_nodeP7nnode_tmP9netlist_t
FNDA:0,_Z20resolve_adlatch_nodeP7nnode_tmP9netlist_t
FN:210,_Z15resolve_sr_nodeP7nnode_tmP9netlist_t
FNDA:0,_Z15resolve_sr_nodeP7nnode_tmP9netlist_t
DA:50,0
DA:51,0
DA:52,0
DA:55,0
DA:62,0
DA:63,0
DA:67,0
DA:69,0
DA:74,0
DA:76,0
DA:83,0
DA:84,0
DA:96,0
DA:97,0
DA:98,0
DA:99,0
DA:102,0
DA:105,0
DA:113,0
DA:114,0
DA:115,0
DA:121,0
DA:123,0
DA:125,0
DA:131,0
DA:133,0
DA:134,0
DA:139,0
DA:140,0
DA:142,0
DA:144,0
DA:145,0
DA:147,0
DA:148,0
DA:149,0
DA:150,0
DA:152,0
DA:154,0
DA:156,0
DA:159,0
DA:162,0
DA:166,0
DA:167,0
DA:168,0
DA:169,0
DA:174,0
DA:178,0
DA:179,0
DA:184,0
DA:189,0
DA:191,0
DA:198,0
DA:199,0
DA:210,0
DA:211,0
DA:212,0
DA:213,0
DA:220,0
DA:221,0
DA:223,0
DA:224,0
DA:229,0
DA:231,0
DA:233,0
DA:238,0
DA:245,0
DA:251,0
DA:253,0
DA:255,0
DA:260,0
DA:267,0
DA:273,0
DA:279,0
DA:282,0
DA:286,0
DA:287,0
end_of_record
TN:
SF:/usr/include/c++/9/iostream
end_of_record
SF:/workspace/vtr-verilog-to-routing/ODIN_II/SRC/FlipFlop.cpp
FN:53,_Z16resolve_dff_nodeP7nnode_tmP9netlist_t
FNDA:0,_Z16resolve_dff_nodeP7nnode_tmP9netlist_t
FN:92,_Z17resolve_sdff_nodeP7nnode_tmP9netlist_t
FNDA:0,_Z17resolve_sdff_nodeP7nnode_tmP9netlist_t
FN:166,_Z17resolve_dffe_nodeP7nnode_tmP9netlist_t
FNDA:0,_Z17resolve_dffe_nodeP7nnode_tmP9netlist_t
FN:240,_Z18resolve_sdffe_nodeP7nnode_tmP9netlist_t
FNDA:0,_Z18resolve_sdffe_nodeP7nnode_tmP9netlist_t
FN:342,_Z19resolve_sdffce_nodeP7nnode_tmP9netlist_t
FNDA:0,_Z19resolve_sdffce_nodeP7nnode_tmP9netlist_t
FN:446,_Z18resolve_dffsr_nodeP7nnode_tmP9netlist_t
FNDA:0,_Z18resolve_dffsr_nodeP7nnode_tmP9netlist_t
FN:539,_Z19resolve_dffsre_nodeP7nnode_tmP9netlist_t
FNDA:0,_Z19resolve_dffsre_nodeP7nnode_tmP9netlist_t
DA:53,0
DA:54,0
DA:55,0
DA:61,0
DA:62,0
DA:63,0
DA:65,0
DA:66,0
DA:69,0
DA:70,0
DA:71,0
DA:72,0
DA:79,0
DA:80,0
DA:92,0
DA:93,0
DA:94,0
DA:95,0
DA:98,0
DA:106,0
DA:107,0
DA:108,0
DA:114,0
DA:116,0
DA:118,0
DA:119,0
DA:122,0
DA:126,0
DA:127,0
DA:132,0
DA:139,0
DA:140,0
DA:143,0
DA:144,0
DA:145,0
DA:152,0
DA:153,0
DA:154,0
DA:166,0
DA:167,0
DA:168,0
DA:169,0
DA:172,0
DA:180,0
DA:181,0
DA:182,0
DA:188,0
DA:190,0
DA:192,0
DA:195,0
DA:199,0
DA:200,0
DA:201,0
DA:202,0
DA:207,0
DA:214,0
DA:215,0
DA:218,0
DA:219,0
DA:220,0
DA:227,0
DA:228,0
DA:240,0
DA:241,0
DA:242,0
DA:243,0
DA:246,0
DA:249,0
DA:258,0
DA:259,0
DA:260,0
DA:261,0
DA:267,0
DA:269,0
DA:271,0
DA:277,0
DA:279,0
DA:281,0
DA:282,0
DA:285,0
DA:289,0
DA:290,0
DA:291,0
DA:292,0
DA:298,0
DA:303,0
DA:304,0
DA:310,0
DA:316,0
DA:317,0
DA:320,0
DA:321,0
DA:322,0
DA:328,0
DA:329,0
DA:330,0
DA:342,0
DA:343,0
DA:344,0
DA:345,0
DA:348,0
DA:351,0
DA:360,0
DA:361,0
DA:362,0
DA:363,0
DA:369,0
DA:371,0
DA:373,0
DA:374,0
DA:380,0
DA:382,0
DA:384,0
DA:387,0
DA:391,0
DA:392,0
DA:398,0
DA:403,0
DA:404,0
DA:405,0
DA:412,0
DA:419,0
DA:420,0
DA:423,0
DA:424,0
DA:425,0
DA:432,0
DA:433,0
DA:434,0
DA:446,0
DA:447,0
DA:448,0
DA:449,0
DA:457,0
DA:458,0
DA:459,0
DA:460,0
DA:461,0
DA:463,0
DA:468,0
DA:470,0
DA:472,0
DA:477,0
DA:484,0
DA:490,0
DA:492,0
DA:494,0
DA:499,0
DA:506,0
DA:512,0
DA:513,0
DA:516,0
DA:517,0
DA:518,0
DA:525,0
DA:526,0
DA:539,0
DA:540,0
DA:541,0
DA:542,0
DA:552,0
DA:553,0
DA:554,0
DA:555,0
DA:556,0
DA:557,0
DA:559,0
DA:564,0
DA:566,0
DA:568,0
DA:573,0
DA:574,0
DA:575,0
DA:576,0
DA:582,0
DA:588,0
DA:590,0
DA:592,0
DA:597,0
DA:604,0
DA:610,0
DA:612,0
DA:614,0
DA:619,0
DA:626,0
DA:632,0
DA:633,0
DA:636,0
DA:637,0
DA:638,0
DA:645,0
DA:646,0
end_of_record
TN:
SF:/usr/include/c++/9/iostream
end_of_record
SF:/workspace/vtr-verilog-to-routing/ODIN_II/SRC/Division.cpp
FN:62,_Z19resolve_divide_nodeP7nnode_tmP9netlist_t
FNDA:0,_Z19resolve_divide_nodeP7nnode_tmP9netlist_t
FN:173,_ZL18implement_divisionP7nnode_tPP13signal_list_tP9netlist_t
FNDA:0,_ZL18implement_divisionP7nnode_tPP13signal_list_tP9netlist_t
FN:386,_ZL23connect_div_output_pinsP7nnode_tPP13signal_list_tmP9netlist_t
FNDA:0,_ZL23connect_div_output_pinsP7nnode_tPP13signal_list_tmP9netlist_t
FN:681,_ZL21CR_output_signal_initv
FNDA:0,_ZL21CR_output_signal_initv
DA:62,0
DA:63,0
DA:83,0
DA:86,0
DA:89,0
DA:92,0
DA:93,0
DA:173,0
DA:175,0
DA:176,0
DA:187,0
DA:188,0
DA:189,0
DA:191,0
DA:192,0
DA:195,0
DA:198,0
DA:201,0
DA:204,0
DA:244,0
DA:245,0
DA:247,0
DA:249,0
DA:252,0
DA:260,0
DA:261,0
DA:264,0
DA:265,0
DA:266,0
DA:269,0
DA:271,0
DA:272,0
DA:273,0
DA:274,0
DA:278,0
DA:279,0
DA:282,0
DA:284,0
DA:286,0
DA:288,0
DA:290,0
DA:291,0
DA:293,0
DA:295,0
DA:297,0
DA:298,0
DA:300,0
DA:301,0
DA:304,0
DA:306,0
DA:309,0
DA:311,0
DA:313,0
DA:315,0
DA:317,0
DA:322,0
DA:328,0
DA:330,0
DA:333,0
DA:335,0
DA:339,0
DA:347,0
DA:352,0
DA:353,0
DA:355,0
DA:357,0
DA:359,0
DA:361,0
DA:362,0
DA:364,0
DA:366,0
DA:369,0
DA:370,0
DA:371,0
DA:373,0
DA:386,0
DA:387,0
DA:389,0
DA:390,0
DA:393,0
DA:394,0
DA:396,0
DA:397,0
DA:399,0
DA:400,0
DA:401,0
DA:403,0
DA:404,0
DA:406,0
DA:408,0
DA:409,0
DA:411,0
DA:413,0
DA:416,0
DA:418,0
DA:424,0
DA:426,0
DA:427,0
DA:429,0
DA:431,0
DA:432,0
DA:434,0
DA:437,0
DA:441,0
DA:447,0
DA:448,0
DA:449,0
DA:454,0
DA:459,0
DA:460,0
DA:462,0
DA:463,0
DA:465,0
DA:467,0
DA:468,0
DA:470,0
DA:472,0
DA:475,0
DA:477,0
DA:483,0
DA:484,0
DA:486,0
DA:488,0
DA:489,0
DA:491,0
DA:494,0
DA:498,0
DA:504,0
DA:505,0
DA:506,0
DA:511,0
DA:521,0
DA:522,0
DA:524,0
DA:525,0
DA:681,0
DA:683,0
DA:685,0
DA:686,0
DA:687,0
DA:689,0
DA:691,0
DA:693,0
DA:695,0
DA:696,0
DA:697,0
DA:699,0
DA:701,0
DA:703,0
DA:705,0
DA:706,0
DA:707,0
DA:709,0
DA:711,0
DA:713,0
DA:715,0
end_of_record
TN:
SF:/usr/include/c++/9/iostream
end_of_record
SF:/workspace/vtr-verilog-to-routing/ODIN_II/SRC/CaseEqual.cpp
FN:47,_Z23resolve_case_equal_nodeP7nnode_tmP9netlist_t
FNDA:0,_Z23resolve_case_equal_nodeP7nnode_tmP9netlist_t
FN:197,_Z27resolve_case_not_equal_nodeP7nnode_tmP9netlist_t
FNDA:0,_Z27resolve_case_not_equal_nodeP7nnode_tmP9netlist_t
DA:47,0
DA:48,0
DA:50,0
DA:93,0
DA:94,0
DA:95,0
DA:96,0
DA:97,0
DA:98,0
DA:100,0
DA:105,0
DA:108,0
DA:111,0
DA:116,0
DA:117,0
DA:118,0
DA:119,0
DA:121,0
DA:123,0
DA:125,0
DA:128,0
DA:134,0
DA:137,0
DA:138,0
DA:141,0
DA:142,0
DA:146,0
DA:147,0
DA:152,0
DA:153,0
DA:154,0
DA:155,0
DA:156,0
DA:158,0
DA:160,0
DA:162,0
DA:165,0
DA:167,0
DA:171,0
DA:176,0
DA:177,0
DA:179,0
DA:180,0
DA:182,0
DA:184,0
DA:197,0
DA:198,0
DA:247,0
DA:249,0
DA:250,0
DA:253,0
DA:254,0
DA:255,0
DA:256,0
DA:258,0
DA:260,0
DA:262,0
DA:264,0
end_of_record
TN:
SF:/usr/include/c++/9/bits/move.h
DA:47,12230700
DA:74,43493900
DA:99,9626930
DA:138,12230700
DA:139,12230700
end_of_record
SF:/usr/include/c++/9/ext/type_traits.h
DA:152,9626930
end_of_record
SF:/usr/include/c++/9/utility
DA:174,22323700
DA:175,22323700
DA:219,22323700
DA:220,22323700
end_of_record
SF:/usr/include/c++/9/bits/alloc_traits.h
DA:443,7056720
DA:444,7056720
DA:469,33593
DA:470,33593
DA:482,7056720
DA:484,7056720
DA:514,9626930
DA:515,9626930
end_of_record
SF:/usr/include/c++/9/ext/new_allocator.h
DA:80,33593
DA:83,9626930
DA:89,12230700
DA:102,7056720
DA:104,7056720
DA:114,7056720
DA:119,33593
DA:128,33593
DA:132,7056720
DA:144,7056720
DA:147,7056720
end_of_record
SF:/usr/include/c++/9/ext/aligned_buffer.h
DA:102,46759000
DA:104,31950600
DA:114,46759000
DA:115,46759000
end_of_record
SF:/usr/include/c++/9/bits/unordered_map.h
DA:304,0
DA:305,0
DA:324,421506
DA:325,421506
DA:346,18106600
DA:347,18106600
DA:387,7056720
DA:388,7056720
DA:797,0
DA:798,0
DA:920,17685100
DA:921,17685100
end_of_record
SF:/usr/include/c++/9/bits/ptr_traits.h
DA:146,12230700
DA:147,12230700
DA:156,7056720
end_of_record
SF:/usr/include/c++/9/bits/char_traits.h
DA:299,10424900
DA:300,797964
DA:315,14808400
DA:317,14808400
DA:325,14808400
DA:361,8828970
DA:363,8828970
DA:365,8828970
end_of_record
SF:/usr/include/c++/9/ext/alloc_traits.h
DA:97,9626930
DA:98,9626930
end_of_record
SF:/usr/include/c++/9/bits/stl_function.h
DA:355,14808400
DA:356,14808400
end_of_record
SF:/usr/include/c++/9/new
DA:173,7056720
DA:174,7056720
end_of_record
SF:/usr/include/c++/9/bits/allocator.h
DA:141,9626930
DA:142,9626930
DA:151,33593
DA:153,12230700
end_of_record
SF:/usr/include/c++/9/bits/hashtable_policy.h
FN:2079,_ZNSt8__detail16_Hashtable_allocISaINS_10_Hash_nodeISt4pairIKNSt7__cxx1112basic_stringIcSt11char_traitsIcESaIcEEEPvELb1EEEEE16_M_allocate_nodeIJRS8_RSA_EEEPSC_DpOT_
FNDA:7056720,_ZNSt8__detail16_Hashtable_allocISaINS_10_Hash_nodeISt4pairIKNSt7__cxx1112basic_stringIcSt11char_traitsIcESaIcEEEPvELb1EEEEE16_M_allocate_nodeIJRS8_RSA_EEEPSC_DpOT_
DA:92,22323700
DA:94,22323700
DA:218,7056720
DA:229,7056720
DA:236,46759000
DA:237,46759000
DA:244,7515330
DA:245,24893900
DA:264,7056720
DA:269,21591600
DA:294,42848400
DA:295,14808400
DA:298,2570210
DA:299,2570210
DA:311,20676800
DA:340,42848400
DA:341,42848400
DA:344,2570210
DA:345,2570210
DA:348,14808400
DA:349,14808400
DA:352,2570210
DA:354,2570210
DA:355,2570210
DA:391,0
DA:393,0
DA:431,46792000
DA:433,46792000
DA:476,7056720
DA:477,7056720
DA:484,0
DA:485,0
DA:1104,97778200
DA:1108,21662400
DA:1380,24741800
DA:1384,24741800
DA:1388,25200400
DA:1390,25200400
DA:1393,21591600
DA:1396,21591600
DA:1399,7056720
DA:1400,7056720
DA:1415,26244400
DA:1418,7515330
DA:1421,24741800
DA:1427,46792000
DA:1448,26244400
DA:1450,14808400
DA:1829,26244400
DA:1834,26244400
DA:1846,26244400
DA:2046,14147000
DA:2047,7056720
DA:2079,7056720
DA:2081,7056720
DA:2082,7056720
DA:2085,7056720
DA:2086,7056720
DA:2089,7056720
DA:2091,0
DA:2093,0
DA:2094,0
DA:2142,33593
DA:2146,33593
DA:2147,33593
DA:2148,33593
DA:2149,33593
end_of_record
SF:/usr/include/c++/9/iostream
end_of_record
SF:/workspace/vtr-verilog-to-routing/ODIN_II/SRC/Hashtable.cpp
FN:31,_ZN9Hashtable18destroy_free_itemsEv
FNDA:421506,_ZN9Hashtable18destroy_free_itemsEv
FN:36,_ZN9Hashtable3addENSt7__cxx1112basic_stringIcSt11char_traitsIcESaIcEEEPv
FNDA:7056720,_ZN9Hashtable3addENSt7__cxx1112basic_stringIcSt11char_traitsIcESaIcEEEPv
FN:40,_ZN9Hashtable6removeENSt7__cxx1112basic_stringIcSt11char_traitsIcESaIcEEE
FNDA:0,_ZN9Hashtable6removeENSt7__cxx1112basic_stringIcSt11char_traitsIcESaIcEEE
FN:50,_ZN9Hashtable3getENSt7__cxx1112basic_stringIcSt11char_traitsIcESaIcEEE
FNDA:17685100,_ZN9Hashtable3getENSt7__cxx1112basic_stringIcSt11char_traitsIcESaIcEEE
FN:59,_ZN9Hashtable8is_emptyEv
FNDA:0,_ZN9Hashtable8is_emptyEv
DA:31,421506
DA:32,2991720
DA:33,2570210
DA:34,421506
DA:36,7056720
DA:37,7056720
DA:38,7056720
DA:40,0
DA:41,0
DA:42,0
DA:43,0
DA:44,0
DA:45,0
DA:47,0
DA:50,17685100
DA:51,17685100
DA:52,17685100
DA:53,17685100
DA:54,14808400
DA:56,17685100
DA:59,0
DA:60,0
end_of_record
SF:/usr/include/c++/9/bits/basic_string.h
FN:6149,_ZSteqIcEN9__gnu_cxx11__enable_ifIXsrSt9__is_charIT_E7__valueEbE6__typeERKNSt7__cxx1112basic_stringIS3_St11char_traitsIS3_ESaIS3_EEESE_
FNDA:14808400,_ZSteqIcEN9__gnu_cxx11__enable_ifIXsrSt9__is_charIT_E7__valueEbE6__typeERKNSt7__cxx1112basic_stringIS3_St11char_traitsIS3_ESaIS3_EEESE_
DA:150,2570210
DA:159,9626930
DA:160,9626930
DA:178,4341310
DA:179,4341310
DA:182,9626930
DA:183,9626930
DA:186,71001200
DA:190,9626930
DA:193,9626930
DA:200,2570210
DA:203,2570210
DA:210,4341310
DA:211,4341310
DA:214,9626930
DA:216,9626930
DA:217,9626930
DA:221,2570210
DA:222,2570210
DA:229,2570210
DA:231,2570210
DA:232,2570210
DA:236,0
DA:237,0
DA:243,9626930
DA:247,9626930
DA:263,9626930
DA:266,19253900
DA:286,0
DA:287,0
DA:290,9626930
DA:291,9626930
DA:346,9626930
DA:348,9626930
DA:349,797964
DA:351,9626930
DA:392,9626930
DA:393,9626930
DA:448,9626930
DA:450,9626930
DA:451,9626930
DA:657,2570210
DA:658,2570210
DA:930,29616800
DA:936,9626930
DA:2312,39550200
DA:2313,39550200
DA:6149,14808400
DA:6151,14808400
DA:6152,14808400
DA:6153,14808400
DA:6734,24741800
DA:6735,24741800
end_of_record
SF:/usr/include/c++/9/bits/functional_hash.h
DA:195,24741800
DA:197,24741800
end_of_record
SF:/usr/include/c++/9/bits/hashtable.h
FN:1412,_ZNSt10_HashtableINSt7__cxx1112basic_stringIcSt11char_traitsIcESaIcEEESt4pairIKS5_PvESaIS9_ENSt8__detail10_Select1stESt8equal_toIS5_ESt4hashIS5_ENSB_18_Mod_range_hashingENSB_20_Default_ranged_hashENSB_20_Prime_rehash_policyENSB_17_Hashtable_traitsILb1ELb0ELb1EEEE4findERS7_
FNDA:17685100,_ZNSt10_HashtableINSt7__cxx1112basic_stringIcSt11char_traitsIcESaIcEEESt4pairIKS5_PvESaIS9_ENSt8__detail10_Select1stESt8equal_toIS5_ESt4hashIS5_ENSB_18_Mod_range_hashingENSB_20_Default_ranged_hashENSB_20_Prime_rehash_policyENSB_17_Hashtable_traitsILb1ELb0ELb1EEEE4findERS7_
FN:1532,_ZNKSt10_HashtableINSt7__cxx1112basic_stringIcSt11char_traitsIcESaIcEEESt4pairIKS5_PvESaIS9_ENSt8__detail10_Select1stESt8equal_toIS5_ESt4hashIS5_ENSB_18_Mod_range_hashingENSB_20_Default_ranged_hashENSB_20_Prime_rehash_policyENSB_17_Hashtable_traitsILb1ELb0ELb1EEEE19_M_find_before_nodeEmRS7_m
FNDA:24741800,_ZNKSt10_HashtableINSt7__cxx1112basic_stringIcSt11char_traitsIcESaIcEEESt4pairIKS5_PvESaIS9_ENSt8__detail10_Select1stESt8equal_toIS5_ESt4hashIS5_ENSB_18_Mod_range_hashingENSB_20_Default_ranged_hashENSB_20_Prime_rehash_policyENSB_17_Hashtable_traitsILb1ELb0ELb1EEEE19_M_find_before_nodeEmRS7_m
FN:1560,_ZNSt10_HashtableINSt7__cxx1112basic_stringIcSt11char_traitsIcESaIcEEESt4pairIKS5_PvESaIS9_ENSt8__detail10_Select1stESt8equal_toIS5_ESt4hashIS5_ENSB_18_Mod_range_hashingENSB_20_Default_ranged_hashENSB_20_Prime_rehash_policyENSB_17_Hashtable_traitsILb1ELb0ELb1EEEE22_M_insert_bucket_beginEmPNSB_10_Hash_nodeIS9_Lb1EEE
FNDA:7056720,_ZNSt10_HashtableINSt7__cxx1112basic_stringIcSt11char_traitsIcESaIcEEESt4pairIKS5_PvESaIS9_ENSt8__detail10_Select1stESt8equal_toIS5_ESt4hashIS5_ENSB_18_Mod_range_hashingENSB_20_Default_ranged_hashENSB_20_Prime_rehash_policyENSB_17_Hashtable_traitsILb1ELb0ELb1EEEE22_M_insert_bucket_beginEmPNSB_10_Hash_nodeIS9_Lb1EEE
FN:1591,_ZNSt10_HashtableINSt7__cxx1112basic_stringIcSt11char_traitsIcESaIcEEESt4pairIKS5_PvESaIS9_ENSt8__detail10_Select1stESt8equal_toIS5_ESt4hashIS5_ENSB_18_Mod_range_hashingENSB_20_Default_ranged_hashENSB_20_Prime_rehash_policyENSB_17_Hashtable_traitsILb1ELb0ELb1EEEE22_M_remove_bucket_beginEmPNSB_10_Hash_nodeIS9_Lb1EEEm
FNDA:0,_ZNSt10_HashtableINSt7__cxx1112basic_stringIcSt11char_traitsIcESaIcEEESt4pairIKS5_PvESaIS9_ENSt8__detail10_Select1stESt8equal_toIS5_ESt4hashIS5_ENSB_18_Mod_range_hashingENSB_20_Default_ranged_hashENSB_20_Prime_rehash_policyENSB_17_Hashtable_traitsILb1ELb0ELb1EEEE22_M_remove_bucket_beginEmPNSB_10_Hash_nodeIS9_Lb1EEEm
FN:1632,_ZNSt10_HashtableINSt7__cxx1112basic_stringIcSt11char_traitsIcESaIcEEESt4pairIKS5_PvESaIS9_ENSt8__detail10_Select1stESt8equal_toIS5_ESt4hashIS5_ENSB_18_Mod_range_hashingENSB_20_Default_ranged_hashENSB_20_Prime_rehash_policyENSB_17_Hashtable_traitsILb1ELb0ELb1EEEE10_M_emplaceIJRS5_RS8_EEES6_INSB_14_Node_iteratorIS9_Lb0ELb1EEEbESt17integral_constantIbLb1EEDpOT_
FNDA:7056720,_ZNSt10_HashtableINSt7__cxx1112basic_stringIcSt11char_traitsIcESaIcEEESt4pairIKS5_PvESaIS9_ENSt8__detail10_Select1stESt8equal_toIS5_ESt4hashIS5_ENSB_18_Mod_range_hashingENSB_20_Default_ranged_hashENSB_20_Prime_rehash_policyENSB_17_Hashtable_traitsILb1ELb0ELb1EEEE10_M_emplaceIJRS5_RS8_EEES6_INSB_14_Node_iteratorIS9_Lb0ELb1EEEbESt17integral_constantIbLb1EEDpOT_
FN:1698,_ZNSt10_HashtableINSt7__cxx1112basic_stringIcSt11char_traitsIcESaIcEEESt4pairIKS5_PvESaIS9_ENSt8__detail10_Select1stESt8equal_toIS5_ESt4hashIS5_ENSB_18_Mod_range_hashingENSB_20_Default_ranged_hashENSB_20_Prime_rehash_policyENSB_17_Hashtable_traitsILb1ELb0ELb1EEEE21_M_insert_unique_nodeEmmPNSB_10_Hash_nodeIS9_Lb1EEEm
FNDA:7056720,_ZNSt10_HashtableINSt7__cxx1112basic_stringIcSt11char_traitsIcESaIcEEESt4pairIKS5_PvESaIS9_ENSt8__detail10_Select1stESt8equal_toIS5_ESt4hashIS5_ENSB_18_Mod_range_hashingENSB_20_Default_ranged_hashENSB_20_Prime_rehash_policyENSB_17_Hashtable_traitsILb1ELb0ELb1EEEE21_M_insert_unique_nodeEmmPNSB_10_Hash_nodeIS9_Lb1EEEm
FN:1849,_ZNSt10_HashtableINSt7__cxx1112basic_stringIcSt11char_traitsIcESaIcEEESt4pairIKS5_PvESaIS9_ENSt8__detail10_Select1stESt8equal_toIS5_ESt4hashIS5_ENSB_18_Mod_range_hashingENSB_20_Default_ranged_hashENSB_20_Prime_rehash_policyENSB_17_Hashtable_traitsILb1ELb0ELb1EEEE5eraseENSB_20_Node_const_iteratorIS9_Lb0ELb1EEE
FNDA:0,_ZNSt10_HashtableINSt7__cxx1112basic_stringIcSt11char_traitsIcESaIcEEESt4pairIKS5_PvESaIS9_ENSt8__detail10_Select1stESt8equal_toIS5_ESt4hashIS5_ENSB_18_Mod_range_hashingENSB_20_Default_ranged_hashENSB_20_Prime_rehash_policyENSB_17_Hashtable_traitsILb1ELb0ELb1EEEE5eraseENSB_20_Node_const_iteratorIS9_Lb0ELb1EEE
FN:1869,_ZNSt10_HashtableINSt7__cxx1112basic_stringIcSt11char_traitsIcESaIcEEESt4pairIKS5_PvESaIS9_ENSt8__detail10_Select1stESt8equal_toIS5_ESt4hashIS5_ENSB_18_Mod_range_hashingENSB_20_Default_ranged_hashENSB_20_Prime_rehash_policyENSB_17_Hashtable_traitsILb1ELb0ELb1EEEE8_M_eraseEmPNSB_15_Hash_node_baseEPNSB_10_Hash_nodeIS9_Lb1EEE
FNDA:0,_ZNSt10_HashtableINSt7__cxx1112basic_stringIcSt11char_traitsIcESaIcEEESt4pairIKS5_PvESaIS9_ENSt8__detail10_Select1stESt8equal_toIS5_ESt4hashIS5_ENSB_18_Mod_range_hashingENSB_20_Default_ranged_hashENSB_20_Prime_rehash_policyENSB_17_Hashtable_traitsILb1ELb0ELb1EEEE8_M_eraseEmPNSB_15_Hash_node_baseEPNSB_10_Hash_nodeIS9_Lb1EEE
FN:2061,_ZNSt10_HashtableINSt7__cxx1112basic_stringIcSt11char_traitsIcESaIcEEESt4pairIKS5_PvESaIS9_ENSt8__detail10_Select1stESt8equal_toIS5_ESt4hashIS5_ENSB_18_Mod_range_hashingENSB_20_Default_ranged_hashENSB_20_Prime_rehash_policyENSB_17_Hashtable_traitsILb1ELb0ELb1EEEE9_M_rehashEmRKm
FNDA:458605,_ZNSt10_HashtableINSt7__cxx1112basic_stringIcSt11char_traitsIcESaIcEEESt4pairIKS5_PvESaIS9_ENSt8__detail10_Select1stESt8equal_toIS5_ESt4hashIS5_ENSB_18_Mod_range_hashingENSB_20_Default_ranged_hashENSB_20_Prime_rehash_policyENSB_17_Hashtable_traitsILb1ELb0ELb1EEEE9_M_rehashEmRKm
FN:2084,_ZNSt10_HashtableINSt7__cxx1112basic_stringIcSt11char_traitsIcESaIcEEESt4pairIKS5_PvESaIS9_ENSt8__detail10_Select1stESt8equal_toIS5_ESt4hashIS5_ENSB_18_Mod_range_hashingENSB_20_Default_ranged_hashENSB_20_Prime_rehash_policyENSB_17_Hashtable_traitsILb1ELb0ELb1EEEE13_M_rehash_auxEmSt17integral_constantIbLb1EE
FNDA:458605,_ZNSt10_HashtableINSt7__cxx1112basic_stringIcSt11char_traitsIcESaIcEEESt4pairIKS5_PvESaIS9_ENSt8__detail10_Select1stESt8equal_toIS5_ESt4hashIS5_ENSB_18_Mod_range_hashingENSB_20_Default_ranged_hashENSB_20_Prime_rehash_policyENSB_17_Hashtable_traitsILb1ELb0ELb1EEEE13_M_rehash_auxEmSt17integral_constantIbLb1EE
DA:342,458605
DA:343,458605
DA:353,458605
DA:355,458605
DA:357,0
DA:358,0
DA:361,458605
DA:365,458605
DA:367,458605
DA:370,33593
DA:374,458605
DA:375,458605
DA:383,880111
DA:504,421506
DA:505,421506
DA:512,17685100
DA:513,20983300
DA:528,0
DA:532,0
DA:533,0
DA:639,15356600
DA:640,15356600
DA:643,25200400
DA:644,458605
DA:652,24741800
DA:655,24741800
DA:656,24741800
DA:657,14808400
DA:748,7056720
DA:749,7056720
DA:767,0
DA:768,0
DA:1412,17685100
DA:1417,17685100
DA:1418,17685100
DA:1419,17685100
DA:1420,17685100
DA:1532,24741800
DA:1538,24741800
DA:1539,24741800
DA:1542,18953000
DA:1545,26244400
DA:1546,14808400
DA:1548,11436000
DA:1560,7056720
DA:1564,7056720
DA:1568,2683640
DA:1569,2683640
DA:1576,4373080
DA:1577,4373080
DA:1578,4373080
DA:1581,3948070
DA:1582,4373080
DA:1584,7056720
DA:1591,0
DA:1596,0
DA:1600,0
DA:1601,0
DA:1604,0
DA:1605,0
DA:1606,0
DA:1608,0
DA:1615,0
DA:1620,0
DA:1621,0
DA:1632,7056720
DA:1638,7056720
DA:1639,7056720
DA:1643,7056720
DA:1651,7056720
DA:1652,0
DA:1655,0
DA:1656,0
DA:1660,7056720
DA:1698,7056720
DA:1704,7056720
DA:1705,7056720
DA:1711,7056720
DA:1713,458605
DA:1714,458605
DA:1717,7056720
DA:1720,7056720
DA:1721,7056720
DA:1722,7056720
DA:1724,0
DA:1726,0
DA:1727,0
DA:1849,0
DA:1854,0
DA:1855,0
DA:1860,0
DA:1861,0
DA:1869,0
DA:1874,0
DA:1875,0
DA:1876,0
DA:1877,0
DA:1879,0
DA:1880,0
DA:1881,0
DA:1884,0
DA:1885,0
DA:1886,0
DA:1887,0
DA:1889,0
DA:2061,458605
DA:2067,458605
DA:2069,0
DA:2073,0
DA:2074,0
DA:2076,458605
DA:2084,458605
DA:2088,458605
DA:2089,458605
DA:2090,458605
DA:2091,458605
DA:2092,6693620
DA:2094,6235010
DA:2095,6235010
DA:2096,6235010
DA:2098,4958540
DA:2099,4958540
DA:2100,4958540
DA:2101,4958540
DA:2102,4924950
DA:2107,1276470
DA:2108,1276470
DA:2113,458605
DA:2114,458605
DA:2115,458605
DA:2116,458605
end_of_record
SF:/usr/include/c++/9/bits/basic_string.tcc
FN:206,_ZNSt7__cxx1112basic_stringIcSt11char_traitsIcESaIcEE12_M_constructIPcEEvT_S7_St20forward_iterator_tag
FNDA:9626930,_ZNSt7__cxx1112basic_stringIcSt11char_traitsIcESaIcEE12_M_constructIPcEEvT_S7_St20forward_iterator_tag
DA:206,9626930
DA:211,9626930
DA:212,0
DA:215,9626930
DA:217,9626930
DA:219,4341310
DA:220,4341310
DA:225,9626930
DA:232,9626930
DA:233,9626930
end_of_record
SF:/usr/include/c++/9/bits/stl_pair.h
DA:208,2570210
DA:303,2570210
DA:341,14113400
DA:342,7056720
DA:524,7056720
DA:529,7056720
end_of_record
SF:/usr/include/c++/9/bits/stl_iterator_base_funcs.h
DA:98,9626930
DA:104,9626930
DA:138,9626930
DA:141,9626930
end_of_record
TN:
SF:/workspace/vtr-verilog-to-routing/ODIN_II/SRC/include/GenericIO.hpp
FN:36,_ZN9GenericIOD0Ev
FNDA:0,_ZN9GenericIOD0Ev
FN:36,_ZN9GenericIOD2Ev
FNDA:34712,_ZN9GenericIOD2Ev
FN:36,_ZN9GenericIOC2Ev
FNDA:34712,_ZN9GenericIOC2Ev
DA:36,0
DA:36,34712
DA:36,34712
end_of_record
SF:/usr/include/c++/9/iostream
end_of_record
SF:/workspace/vtr-verilog-to-routing/ODIN_II/SRC/GenericIO.cpp
FN:36,_ZN9GenericIO5_readEv
FNDA:0,_ZN9GenericIO5_readEv
FN:42,_ZN9GenericIO6_writeEPK9netlist_t
FNDA:0,_ZN9GenericIO6_writeEPK9netlist_t
FN:47,_ZN9GenericIO12_create_fileEPKc11file_type_e
FNDA:0,_ZN9GenericIO12_create_fileEPKc11file_type_e
DA:36,0
DA:37,0
DA:39,0
DA:42,0
DA:43,0
DA:45,0
DA:47,0
DA:48,0
DA:50,0
end_of_record
TN:
SF:/usr/include/c++/9/bits/allocator.h
DA:138,1535970
DA:141,1535970
DA:142,0
DA:153,3071940
end_of_record
SF:/workspace/vtr-verilog-to-routing/ODIN_II/SRC/BLIFWriter.cpp
FN:66,_ZN4BLIF6WriterC2Ev
FNDA:3247,_ZN4BLIF6WriterC2Ev
FN:73,_ZN4BLIF6Writer6_writeEPK9netlist_t
FNDA:3241,_ZN4BLIF6Writer6_writeEPK9netlist_t
FN:77,_ZN4BLIF6Writer12_create_fileEPKc11file_type_e
FNDA:3247,_ZN4BLIF6Writer12_create_fileEPKc11file_type_e
FN:97,_ZN4BLIF6Writer13warn_undrivenEP7nnode_tP6nnet_t
FNDA:33894000,_ZN4BLIF6Writer13warn_undrivenEP7nnode_tP6nnet_t
FN:142,_ZN4BLIF6Writer16print_net_driverEP8_IO_FILEP7nnode_tP6nnet_tl
FNDA:33894000,_ZN4BLIF6Writer16print_net_driverEP8_IO_FILEP7nnode_tP6nnet_tl
FN:177,_ZN4BLIF6Writer25print_input_single_driverEP8_IO_FILEP7nnode_tl
FNDA:33789100,_ZN4BLIF6Writer25print_input_single_driverEP8_IO_FILEP7nnode_tl
FN:197,_ZN4BLIF6Writer16print_output_pinEP8_IO_FILEP7nnode_t
FNDA:12626600,_ZN4BLIF6Writer16print_output_pinEP8_IO_FILEP7nnode_t
FN:218,_ZN4BLIF6Writer22print_dot_names_headerEP8_IO_FILEP7nnode_t
FNDA:10791800,_ZN4BLIF6Writer22print_dot_names_headerEP8_IO_FILEP7nnode_t
FN:262,_ZN4BLIF6Writer11create_blifEPKc
FNDA:3247,_ZN4BLIF6Writer11create_blifEPKc
FN:290,_ZN4BLIF6Writer11output_blifEP8_IO_FILEPK9netlist_t
FNDA:3241,_ZN4BLIF6Writer11output_blifEP8_IO_FILEPK9netlist_t
FN:378,_ZN4BLIF6Writer31depth_first_traversal_to_outputEsP8_IO_FILEPK9netlist_t
FNDA:3241,_ZN4BLIF6Writer31depth_first_traversal_to_outputEsP8_IO_FILEPK9netlist_t
FN:412,_ZN4BLIF6Writer26depth_traverse_output_blifEP7nnode_tmP8_IO_FILE
FNDA:56168400,_ZN4BLIF6Writer26depth_traverse_output_blifEP7nnode_tmP8_IO_FILE
FN:458,_ZN4BLIF6Writer11output_nodeEP7nnode_tsP8_IO_FILE
FNDA:14098700,_ZN4BLIF6Writer11output_nodeEP7nnode_tsP8_IO_FILE
FN:570,_ZN4BLIF6Writer23define_logical_functionEP7nnode_tP8_IO_FILE
FNDA:6427910,_ZN4BLIF6Writer23define_logical_functionEP7nnode_tP8_IO_FILE
FN:667,_ZN4BLIF6Writer33define_set_input_logical_functionEP7nnode_tPKcP8_IO_FILE
FNDA:1289730,_ZN4BLIF6Writer33define_set_input_logical_functionEP7nnode_tPKcP8_IO_FILE
FN:689,_ZN4BLIF6Writer12define_clockEP7nnode_tP8_IO_FILE
FNDA:1530,_ZN4BLIF6Writer12define_clockEP7nnode_tP8_IO_FILE
FN:712,_ZN4BLIF6Writer9define_ffEP7nnode_tP8_IO_FILE
FNDA:1535970,_ZN4BLIF6Writer9define_ffEP7nnode_tP8_IO_FILE
FN:751,_ZN4BLIF6Writer18define_decoded_muxEP7nnode_tP8_IO_FILE
FNDA:3074160,_ZN4BLIF6Writer18define_decoded_muxEP7nnode_tP8_IO_FILE
DA:66,3247
DA:67,3247
DA:68,3247
DA:69,3247
DA:73,3241
DA:74,3241
DA:75,3241
DA:77,3247
DA:79,3247
DA:81,3247
DA:82,0
DA:85,3247
DA:86,3247
DA:97,33894000
DA:98,33894000
DA:100,172
DA:104,172
DA:142,33894000
DA:143,33894000
DA:144,33894000
DA:145,33894000
DA:147,0
DA:151,0
DA:152,33894000
DA:153,33894000
DA:154,0
DA:159,33894000
DA:160,1715330
DA:162,32178600
DA:165,33894000
DA:177,33789100
DA:178,33789100
DA:179,33789100
DA:180,33789100
DA:181,18
DA:183,33789100
DA:184,33789100
DA:186,33789100
DA:197,12626600
DA:199,12626600
DA:200,12626600
DA:201,0
DA:206,12626600
DA:207,12626600
DA:218,10791800
DA:219,10791800
DA:222,41509000
DA:223,30717200
DA:224,30717200
DA:225,24
DA:227,120
DA:228,96
DA:229,96
DA:230,96
DA:236,10791800
DA:237,41509000
DA:238,30717200
DA:240,24
DA:241,24
DA:244,30717200
DA:247,10791800
DA:249,10791800
DA:250,10791800
DA:251,10791800
DA:252,10791800
DA:262,3247
DA:263,3247
DA:266,3247
DA:267,0
DA:268,0
DA:269,0
DA:271,3247
DA:274,3247
DA:275,0
DA:277,3247
DA:290,3241
DA:291,3241
DA:295,3241
DA:296,92559
DA:297,89318
DA:298,89318
DA:300,3241
DA:302,3241
DA:303,108092
DA:304,104851
DA:305,104851
DA:306,154
DA:311,104697
DA:314,3241
DA:317,3241
DA:318,3241
DA:330,3241
DA:331,3241
DA:333,0
DA:337,108092
DA:338,104851
DA:341,104851
DA:342,104851
DA:343,104851
DA:344,209640
DA:345,104789
DA:346,104789
DA:347,104789
DA:348,104789
DA:350,104789
DA:356,3241
DA:357,3241
DA:360,3241
DA:361,3241
DA:363,3241
DA:364,3241
DA:365,3241
DA:378,3241
DA:379,3241
DA:382,3241
DA:383,3241
DA:384,3241
DA:385,3241
DA:389,3241
DA:390,3241
DA:391,3241
DA:394,92559
DA:395,89318
DA:396,89318
DA:399,3241
DA:412,56168400
DA:413,56168400
DA:414,56168400
DA:415,56168400
DA:417,56168400
DA:423,14098700
DA:426,14098700
DA:428,28787100
DA:429,14688300
DA:430,36905
DA:432,90685400
DA:433,90685400
DA:434,76034000
DA:435,5219850
DA:437,70814200
DA:438,70814200
DA:439,14744800
DA:442,56069400
DA:458,14098700
DA:459,14098700
DA:460,117142
DA:461,117142
DA:462,117142
DA:463,117142
DA:465,0
DA:466,0
DA:467,0
DA:468,0
DA:470,343968
DA:471,343968
DA:472,343968
DA:473,323247
DA:474,323247
DA:475,323247
DA:476,0
DA:477,0
DA:478,0
DA:479,220
DA:480,220
DA:481,220
DA:482,6427910
DA:483,6427910
DA:484,6427910
DA:485,6427910
DA:486,6427910
DA:487,6427910
DA:488,6427910
DA:489,6427910
DA:490,6427910
DA:491,6427910
DA:492,6427910
DA:494,3074160
DA:495,3074160
DA:496,3074160
DA:498,505152
DA:499,505152
DA:500,505152
DA:502,1535970
DA:503,1535970
DA:504,1535970
DA:506,6365
DA:507,6365
DA:508,6365
DA:509,6365
DA:511,244097
DA:512,244097
DA:513,244097
DA:514,244097
DA:516,215000
DA:517,215000
DA:518,215000
DA:519,215000
DA:521,1101770
DA:522,1101770
DA:523,1101770
DA:524,1101770
DA:525,1530
DA:526,1530
DA:527,1530
DA:536,0
DA:537,0
DA:538,0
DA:539,0
DA:540,0
DA:541,0
DA:542,0
DA:543,0
DA:544,0
DA:545,0
DA:546,0
DA:547,0
DA:548,0
DA:549,0
DA:550,0
DA:551,0
DA:552,0
DA:553,0
DA:555,0
DA:556,0
DA:558,14098700
DA:570,6427910
DA:571,6427910
DA:572,6427910
DA:574,6427910
DA:577,6427910
DA:580,4711340
DA:581,3290840
DA:583,1420500
DA:588,4954050
DA:589,11509500
DA:590,8857560
DA:591,2651940
DA:593,15063200
DA:595,2651940
DA:601,768
DA:602,1536
DA:603,1024
DA:604,512
DA:606,1536
DA:608,512
DA:615,3814410
DA:616,1934110
DA:618,1880300
DA:621,165111
DA:622,165111
DA:623,165111
DA:625,825555
DA:626,660444
DA:627,330222
DA:628,330222
DA:629,330222
DA:630,990666
DA:635,659640
DA:636,659640
DA:637,659640
DA:638,3298200
DA:639,2638560
DA:640,1319280
DA:641,1319280
DA:642,1319280
DA:643,3957840
DA:648,0
DA:649,0
DA:653,6427910
DA:654,6427910
DA:667,1289730
DA:668,1289730
DA:670,1289730
DA:673,1289730
DA:674,1289730
DA:676,1289730
DA:677,1289730
DA:689,1530
DA:690,1530
DA:692,1530
DA:693,0
DA:696,0
DA:698,0
DA:700,1530
DA:712,1535970
DA:713,1535970
DA:714,1535970
DA:717,1535970
DA:719,1535970
DA:720,1535970
DA:721,1535970
DA:723,1535970
DA:726,1535970
DA:729,1535970
DA:732,1535970
DA:735,1535970
DA:738,1535970
DA:739,1535970
DA:751,3074160
DA:752,3074160
DA:753,3074160
DA:756,11734900
DA:757,381925000
DA:758,373264000
DA:759,8660770
DA:760,364603000
DA:761,8660770
DA:762,355943000
DA:763,0
DA:765,729207000
DA:767,8660770
DA:770,3074160
DA:771,3074160
end_of_record
SF:/usr/include/x86_64-linux-gnu/bits/stdio2.h
DA:98,490398000
DA:100,490277000
DA:101,434883000
end_of_record
SF:/usr/include/c++/9/bits/ptr_traits.h
DA:146,3071940
DA:147,3071940
end_of_record
SF:/usr/include/c++/9/bits/char_traits.h
DA:299,1535970
DA:300,1535970
DA:361,0
DA:363,0
DA:365,0
end_of_record
SF:/usr/include/c++/9/ext/alloc_traits.h
DA:97,0
DA:98,0
end_of_record
SF:/usr/include/c++/9/ext/new_allocator.h
DA:80,1535970
DA:83,1535970
DA:89,3071940
DA:119,0
DA:128,0
end_of_record
SF:/usr/include/c++/9/ext/type_traits.h
DA:152,0
end_of_record
SF:/usr/include/c++/9/bits/alloc_traits.h
DA:469,0
DA:470,0
DA:514,0
DA:515,0
end_of_record
SF:/usr/include/c++/9/bits/move.h
DA:47,6143880
DA:99,1535970
DA:138,6143880
DA:139,3071940
end_of_record
SF:/usr/include/c++/9/bits/basic_string.tcc
FN:206,_ZNSt7__cxx1112basic_stringIcSt11char_traitsIcESaIcEE12_M_constructIPcEEvT_S7_St20forward_iterator_tag
FNDA:0,_ZNSt7__cxx1112basic_stringIcSt11char_traitsIcESaIcEE12_M_constructIPcEEvT_S7_St20forward_iterator_tag
FN:206,_ZNSt7__cxx1112basic_stringIcSt11char_traitsIcESaIcEE12_M_constructIPKcEEvT_S8_St20forward_iterator_tag
FNDA:0,_ZNSt7__cxx1112basic_stringIcSt11char_traitsIcESaIcEE12_M_constructIPKcEEvT_S8_St20forward_iterator_tag
DA:206,0
DA:211,0
DA:212,0
DA:215,0
DA:217,0
DA:219,0
DA:220,0
DA:225,0
DA:232,0
DA:233,0
DA:206,0
DA:211,0
DA:212,0
DA:215,0
DA:217,0
DA:219,0
DA:220,0
DA:225,0
DA:232,0
DA:233,0
end_of_record
SF:/workspace/vtr-verilog-to-routing/ODIN_II/SRC/include/BLIF.hpp
FN:591,_ZN4BLIF6WriterD0Ev
FNDA:3247,_ZN4BLIF6WriterD0Ev
FN:591,_ZN4BLIF6WriterD2Ev
FNDA:0,_ZN4BLIF6WriterD2Ev
FN:605,_ZN4BLIF6Writer5_readEv
FNDA:0,_ZN4BLIF6Writer5_readEv
DA:591,3247
DA:591,0
DA:605,0
DA:606,0
DA:607,0
end_of_record
SF:/usr/include/c++/9/bits/stl_iterator_base_funcs.h
DA:98,0
DA:104,0
DA:138,0
DA:141,0
end_of_record
SF:/workspace/vtr-verilog-to-routing/libs/EXTERNAL/libargparse/src/argparse_value.hpp
DA:53,0
DA:56,46377000
end_of_record
SF:/usr/include/c++/9/iostream
end_of_record
SF:/usr/include/c++/9/bits/basic_string.h
FN:6057,_ZStplIcSt11char_traitsIcESaIcEENSt7__cxx1112basic_stringIT_T0_T1_EERKS8_PKS5_
FNDA:0,_ZStplIcSt11char_traitsIcESaIcEENSt7__cxx1112basic_stringIT_T0_T1_EERKS8_PKS5_
FN:6085,_ZStplIcSt11char_traitsIcESaIcEENSt7__cxx1112basic_stringIT_T0_T1_EEOS8_RKS8_
FNDA:0,_ZStplIcSt11char_traitsIcESaIcEENSt7__cxx1112basic_stringIT_T0_T1_EEOS8_RKS8_
FN:6121,_ZStplIcSt11char_traitsIcESaIcEENSt7__cxx1112basic_stringIT_T0_T1_EEOS8_PKS5_
FNDA:0,_ZStplIcSt11char_traitsIcESaIcEENSt7__cxx1112basic_stringIT_T0_T1_EEOS8_PKS5_
DA:150,4607910
DA:159,1535970
DA:160,1535970
DA:178,0
DA:179,0
DA:182,1535970
DA:183,1535970
DA:186,6143880
DA:190,1535970
DA:193,1535970
DA:200,4607910
DA:203,4607910
DA:210,0
DA:211,0
DA:214,1535970
DA:216,1535970
DA:217,1535970
DA:221,4607910
DA:222,4607910
DA:229,4607910
DA:231,1535970
DA:232,4607910
DA:236,0
DA:237,0
DA:243,0
DA:247,0
DA:263,0
DA:266,0
DA:286,0
DA:287,0
DA:290,0
DA:291,0
DA:346,0
DA:348,0
DA:349,0
DA:351,0
DA:392,0
DA:393,0
DA:396,0
DA:398,0
DA:431,1535970
DA:433,1535970
DA:434,1535970
DA:448,0
DA:450,0
DA:451,0
DA:552,0
DA:553,0
DA:555,0
DA:557,0
DA:562,0
DA:563,0
DA:569,0
DA:570,0
DA:571,0
DA:657,1535970
DA:658,1535970
DA:930,0
DA:936,0
DA:1221,0
DA:1222,0
DA:2300,0
DA:2301,0
DA:6057,0
DA:6060,0
DA:6061,0
DA:6062,0
DA:6085,0
DA:6087,0
DA:6121,0
DA:6123,0
end_of_record
TN:
SF:/usr/include/string.h
DA:213,8792200
DA:215,8792200
DA:219,23533100
DA:221,22563300
DA:317,16863500
DA:319,16863500
end_of_record
SF:/usr/include/c++/9/bits/basic_string.tcc
FN:206,_ZNSt7__cxx1112basic_stringIcSt11char_traitsIcESaIcEE12_M_constructIPKcEEvT_S8_St20forward_iterator_tag
FNDA:11785400,_ZNSt7__cxx1112basic_stringIcSt11char_traitsIcESaIcEE12_M_constructIPKcEEvT_S8_St20forward_iterator_tag
DA:206,11785400
DA:211,11785400
DA:212,0
DA:215,11785400
DA:217,11785400
DA:219,7328320
DA:220,7328320
DA:225,11785400
DA:232,11785400
DA:233,11785400
end_of_record
SF:/usr/include/c++/9/bits/hashtable_policy.h
FN:714,_ZNSt8__detail9_Map_baseINSt7__cxx1112basic_stringIcSt11char_traitsIcESaIcEEESt4pairIKS6_14operation_listESaISA_ENS_10_Select1stESt8equal_toIS6_ESt4hashIS6_ENS_18_Mod_range_hashingENS_20_Default_ranged_hashENS_20_Prime_rehash_policyENS_17_Hashtable_traitsILb1ELb0ELb1EEELb1EEixEOS6_
FNDA:222977,_ZNSt8__detail9_Map_baseINSt7__cxx1112basic_stringIcSt11char_traitsIcESaIcEEESt4pairIKS6_14operation_listESaISA_ENS_10_Select1stESt8equal_toIS6_ESt4hashIS6_ENS_18_Mod_range_hashingENS_20_Default_ranged_hashENS_20_Prime_rehash_policyENS_17_Hashtable_traitsILb1ELb0ELb1EEELb1EEixEOS6_
DA:92,222480
DA:94,222480
DA:218,427598
DA:236,445457
DA:237,445457
DA:244,0
DA:245,444960
DA:269,20074
DA:294,0
DA:295,0
DA:311,0
DA:340,0
DA:341,0
DA:348,497
DA:349,497
DA:431,243051
DA:433,243051
DA:449,427598
DA:450,424552
DA:476,0
DA:477,0
DA:484,0
DA:485,0
DA:714,222977
DA:719,222977
DA:720,445954
DA:721,222977
DA:722,497
DA:724,222480
DA:726,497
DA:727,497
DA:729,497
DA:732,222480
DA:1093,427598
DA:1096,427598
DA:1104,708710
DA:1108,425012
DA:1380,222977
DA:1384,222977
DA:1388,222977
DA:1390,222977
DA:1393,20074
DA:1396,20074
DA:1399,0
DA:1400,0
DA:1415,242682
DA:1418,0
DA:1421,222977
DA:1427,243051
DA:1448,242682
DA:1450,222480
DA:1829,242682
DA:1834,242682
DA:1846,242682
DA:2017,427598
DA:2036,424552
DA:2046,425012
DA:2047,425012
DA:2118,427598
DA:2120,7484320
DA:2122,7056720
DA:2123,7056720
DA:2124,7056720
DA:2142,425012
DA:2146,425012
DA:2147,425012
DA:2148,425012
DA:2149,425012
end_of_record
SF:/usr/include/c++/9/bits/basic_string.h
FN:6097,_ZStplIcSt11char_traitsIcESaIcEENSt7__cxx1112basic_stringIT_T0_T1_EEOS8_S9_
FNDA:0,_ZStplIcSt11char_traitsIcESaIcEENSt7__cxx1112basic_stringIT_T0_T1_EEOS8_S9_
FN:6149,_ZSteqIcEN9__gnu_cxx11__enable_ifIXsrSt9__is_charIT_E7__valueEbE6__typeERKNSt7__cxx1112basic_stringIS3_St11char_traitsIS3_ESaIS3_EEESE_
FNDA:222480,_ZSteqIcEN9__gnu_cxx11__enable_ifIXsrSt9__is_charIT_E7__valueEbE6__typeERKNSt7__cxx1112basic_stringIS3_St11char_traitsIS3_ESaIS3_EEESE_
DA:150,25991900
DA:159,0
DA:160,0
DA:178,7328320
DA:179,7328320
DA:182,11785400
DA:183,11785400
DA:186,67322200
DA:190,0
DA:193,0
DA:200,25991900
DA:203,25991900
DA:210,7328320
DA:211,7328320
DA:214,11785400
DA:216,11785400
DA:217,11785400
DA:221,25991900
DA:222,25991900
DA:229,25991900
DA:231,25991900
DA:232,43303000
DA:236,17311100
DA:237,17311100
DA:286,17311100
DA:287,17311100
DA:346,11785400
DA:348,11785400
DA:349,2580
DA:351,11785400
DA:396,11785400
DA:398,11785400
DA:552,0
DA:553,0
DA:555,0
DA:557,0
DA:562,0
DA:563,0
DA:569,0
DA:570,0
DA:571,0
DA:657,25991900
DA:658,25991900
DA:930,444960
DA:936,222977
DA:993,0
DA:995,0
DA:1177,0
DA:1178,0
DA:1221,0
DA:1222,0
DA:1639,0
DA:1641,0
DA:2300,3046
DA:2301,3046
DA:2312,445457
DA:2313,445457
DA:2635,0
DA:2639,0
DA:2800,0
DA:2804,0
DA:6097,0
DA:6100,0
DA:6101,0
DA:6102,0
DA:6103,0
DA:6104,0
DA:6149,222480
DA:6151,222480
DA:6152,222480
DA:6153,222480
DA:6734,222977
DA:6735,222977
end_of_record
SF:/usr/include/c++/9/tuple
DA:132,497
DA:133,497
DA:348,497
DA:349,497
DA:626,497
DA:627,497
DA:1482,497
DA:1483,497
end_of_record
SF:/usr/include/x86_64-linux-gnu/bits/stdio2.h
DA:34,210045
DA:36,210045
DA:37,210045
DA:105,15230
DA:107,15230
end_of_record
SF:/usr/include/c++/9/bitset
FN:946,_ZNSt6bitsetILm64EEC2IcEEPKT_NSt7__cxx1112basic_stringIS2_St11char_traitsIS2_ESaIS2_EE9size_typeES2_S2_
FNDA:0,_ZNSt6bitsetILm64EEC2IcEEPKT_NSt7__cxx1112basic_stringIS2_St11char_traitsIS2_ESaIS2_EE9size_typeES2_S2_
FN:1390,_ZNSt6bitsetILm64EE16_M_copy_from_ptrIcSt11char_traitsIcEEEvPKT_mmmS4_S4_
FNDA:0,_ZNSt6bitsetILm64EE16_M_copy_from_ptrIcSt11char_traitsIcEEEvPKT_mmmS4_S4_
DA:381,0
DA:382,0
DA:402,0
DA:403,0
DA:406,0
DA:407,0
DA:410,0
DA:411,0
DA:460,0
DA:461,0
DA:482,0
DA:483,0
DA:946,0
DA:950,0
DA:952,0
DA:953,0
DA:955,0
DA:956,0
DA:957,0
DA:960,0
DA:1034,0
DA:1036,0
DA:1037,0
DA:1099,0
DA:1101,0
DA:1178,0
DA:1179,0
DA:1390,0
DA:1394,0
DA:1395,0
DA:1396,0
DA:1398,0
DA:1399,0
DA:1401,0
DA:1402,0
DA:1404,0
DA:1406,0
end_of_record
SF:/workspace/vtr-verilog-to-routing/ODIN_II/SRC/BLIFReader.cpp
FN:71,_ZN4BLIF6ReaderC2Ev
FNDA:3046,_ZN4BLIF6ReaderC2Ev
FN:92,_ZN4BLIF6ReaderD2Ev
FNDA:3046,_ZN4BLIF6ReaderD2Ev
FN:92,_ZN4BLIF6ReaderD0Ev
FNDA:3046,_ZN4BLIF6ReaderD0Ev
FN:96,_ZN4BLIF6Reader5_readEv
FNDA:3046,_ZN4BLIF6Reader5_readEv
FN:157,_ZN4BLIF6Reader11read_tokensEPcP17hard_block_models
FNDA:15786400,_ZN4BLIF6Reader11read_tokensEPcP17hard_block_models
FN:195,_ZN4BLIF6Reader15find_top_moduleEv
FNDA:3046,_ZN4BLIF6Reader15find_top_moduleEv
FN:244,_ZN4BLIF6Reader12hook_up_netsEv
FNDA:3040,_ZN4BLIF6Reader12hook_up_netsEv
FN:269,_ZN4BLIF6Reader12hook_up_nodeEP7nnode_t
FNDA:4200760,_ZN4BLIF6Reader12hook_up_nodeEP7nnode_t
FN:291,_ZN4BLIF6Reader23create_hard_block_nodesEP17hard_block_models
FNDA:209337,_ZN4BLIF6Reader23create_hard_block_nodesEP17hard_block_models
FN:521,_ZN4BLIF6Reader31create_internal_node_and_driverEv
FNDA:2882190,_ZN4BLIF6Reader31create_internal_node_and_driverEv
FN:649,_ZN4BLIF6Reader20build_top_input_nodeEPKc
FNDA:75979,_ZN4BLIF6Reader20build_top_input_nodeEPKc
FN:699,_ZN4BLIF6Reader19add_top_input_nodesEv
FNDA:3040,_ZN4BLIF6Reader19add_top_input_nodesEv
FN:725,_ZN4BLIF6Reader26rb_create_top_output_nodesEv
FNDA:3040,_ZN4BLIF6Reader26rb_create_top_output_nodesEv
FN:773,_ZN4BLIF6Reader37verify_hard_block_ports_against_modelEP16hard_block_portsP16hard_block_model
FNDA:708,_ZN4BLIF6Reader37verify_hard_block_ports_against_modelEP16hard_block_portsP16hard_block_model
FN:831,_ZN4BLIF6Reader21read_hard_block_modelEPc14operation_listP16hard_block_ports
FNDA:708,_ZN4BLIF6Reader21read_hard_block_modelEPc14operation_listP16hard_block_ports
FN:932,_ZN4BLIF6Reader25rb_create_top_driver_netsEPKc
FNDA:3046,_ZN4BLIF6Reader25rb_create_top_driver_netsEPKc
FN:992,_ZN4BLIF6Reader18rb_look_for_clocksEv
FNDA:3046,_ZN4BLIF6Reader18rb_look_for_clocksEv
FN:1009,_ZN4BLIF6Reader9dum_parseEPc
FNDA:0,_ZN4BLIF6Reader9dum_parseEPc
FN:1025,_ZN4BLIF6Reader31assign_node_type_from_node_nameEPc
FNDA:2873070,_ZN4BLIF6Reader31assign_node_type_from_node_nameEPc
FN:1069,_ZN4BLIF6Reader30read_bit_map_find_unknown_gateEiP7nnode_tPPc
FNDA:91195,_ZN4BLIF6Reader30read_bit_map_find_unknown_gateEiP7nnode_tPPc
FN:1345,_ZN4BLIF6Reader28create_latch_node_and_driverEv
FNDA:1027180,_ZN4BLIF6Reader28create_latch_node_and_driverEv
FN:1448,_ZN4BLIF6Reader17search_clock_nameEv
FNDA:0,_ZN4BLIF6Reader17search_clock_nameEv
FN:1529,_ZN4BLIF6Reader24get_hard_block_port_nameEPc
FNDA:6820490,_ZN4BLIF6Reader24get_hard_block_port_nameEPc
FN:1550,_ZN4BLIF6Reader25get_hard_block_pin_numberEPc
FNDA:1971710,_ZN4BLIF6Reader25get_hard_block_pin_numberEPc
FN:1581,_ZN4BLIF6Reader28compare_hard_block_pin_namesEPKvS2_
FNDA:2501080,_ZN4BLIF6Reader28compare_hard_block_pin_namesEPKvS2_
FN:1614,_ZN4BLIF6Reader20get_hard_block_portsEPPci
FNDA:210753,_ZN4BLIF6Reader20get_hard_block_portsEPPci
FN:1661,_ZN4BLIF6Reader11index_namesEPPci
FNDA:212169,_ZN4BLIF6Reader11index_namesEPPci
FN:1683,_ZN4BLIF6Reader15associate_namesEPPcS2_i
FNDA:209337,_ZN4BLIF6Reader15associate_namesEPPcS2_i
FN:1703,_ZN4BLIF6Reader20get_hard_block_modelEPcP16hard_block_portsP17hard_block_models
FNDA:209337,_ZN4BLIF6Reader20get_hard_block_modelEPcP16hard_block_portsP17hard_block_models
FN:1731,_ZN4BLIF6Reader20add_hard_block_modelEP16hard_block_modelP16hard_block_portsP17hard_block_models
FNDA:708,_ZN4BLIF6Reader20add_hard_block_modelEP16hard_block_modelP16hard_block_portsP17hard_block_models
FN:1761,_ZN4BLIF6Reader35generate_hard_block_ports_signatureEP16hard_block_ports
FNDA:210753,_ZN4BLIF6Reader35generate_hard_block_ports_signatureEP16hard_block_ports
FN:1783,_ZN4BLIF6Reader24create_hard_block_modelsEv
FNDA:3046,_ZN4BLIF6Reader24create_hard_block_modelsEv
FN:1800,_ZN4BLIF6Reader16count_blif_linesEv
FNDA:3046,_ZN4BLIF6Reader16count_blif_linesEv
FN:1827,_ZN4BLIF6Reader22free_hard_block_modelsEP17hard_block_models
FNDA:3046,_ZN4BLIF6Reader22free_hard_block_modelsEP17hard_block_models
FN:1847,_ZN4BLIF6Reader21free_hard_block_modelEP16hard_block_model
FNDA:708,_ZN4BLIF6Reader21free_hard_block_modelEP16hard_block_model
FN:1867,_ZN4BLIF6Reader20free_hard_block_pinsEP15hard_block_pins
FNDA:1416,_ZN4BLIF6Reader20free_hard_block_pinsEP15hard_block_pins
FN:1887,_ZN4BLIF6Reader21free_hard_block_portsEP16hard_block_ports
FNDA:210753,_ZN4BLIF6Reader21free_hard_block_portsEP16hard_block_ports
FN:1916,_ZN4BLIF6Reader38resolve_signal_name_based_on_blif_typeEPKcS2_
FNDA:19653800,_ZN4BLIF6Reader38resolve_signal_name_based_on_blif_typeEPKcS2_
FN:2010,_ZN4BLIF6Reader23create_hard_block_modelEPKc14operation_listP16hard_block_ports
FNDA:0,_ZN4BLIF6Reader23create_hard_block_modelEPKc14operation_listP16hard_block_ports
FN:2096,_ZN4BLIF6Reader12create_modelEPKcP16hard_block_portsii
FNDA:0,_ZN4BLIF6Reader12create_modelEPKcP16hard_block_portsii
FN:2154,_ZN4BLIF6Reader24hard_block_sensitivitiesEPKcP7nnode_t
FNDA:0,_ZN4BLIF6Reader24hard_block_sensitivitiesEPKcP7nnode_t
FN:2312,_ZN4BLIF6Reader11need_paramsE14operation_list
FNDA:0,_ZN4BLIF6Reader11need_paramsE14operation_list
DA:71,3046
DA:72,3046
DA:74,3046
DA:75,3046
DA:76,3046
DA:78,3046
DA:80,3046
DA:82,3046
DA:83,3046
DA:84,0
DA:86,3046
DA:87,3046
DA:89,3046
DA:90,3046
DA:92,3046
DA:94,3046
DA:92,3046
DA:93,6092
DA:94,3046
DA:96,3046
DA:97,3046
DA:98,3046
DA:101,3046
DA:102,3046
DA:105,3046
DA:108,3046
DA:110,3046
DA:111,3046
DA:113,3046
DA:114,3046
DA:115,3046
DA:116,15786400
DA:117,15783400
DA:119,3046
DA:121,3046
DA:123,3046
DA:124,3046
DA:125,3046
DA:128,3046
DA:130,3046
DA:132,3046
DA:133,3046
DA:136,3046
DA:138,3046
DA:157,15786400
DA:160,15786400
DA:162,15786400
DA:163,11461400
DA:164,30444400
DA:166,4130870
DA:167,4130870
DA:168,3040
DA:169,4127830
DA:170,3040
DA:171,4124790
DA:172,2882190
DA:173,1242600
DA:174,1027180
DA:175,215417
DA:176,209337
DA:177,6080
DA:180,3040
DA:181,3040
DA:195,3046
DA:196,3046
DA:197,3046
DA:198,3046
DA:199,3046
DA:204,6086
DA:205,3046
DA:206,3046
DA:207,3046
DA:209,3046
DA:211,6
DA:212,6
DA:215,3040
DA:216,3040
DA:217,3040
DA:222,3040
DA:225,3046
DA:226,6
DA:229,6
DA:231,3040
DA:234,3046
DA:235,3046
DA:236,3046
DA:244,3040
DA:245,3040
DA:246,3040
DA:247,3040
DA:250,3040
DA:251,12160
DA:253,4209880
DA:254,4200760
DA:255,4200760
DA:258,3040
DA:269,4200760
DA:270,4200760
DA:271,17314400
DA:272,13113700
DA:274,13113700
DA:276,13113700
DA:277,0
DA:279,13113700
DA:281,4200760
DA:291,209337
DA:292,209337
DA:293,209337
DA:300,1689550
DA:301,1480210
DA:302,1480210
DA:306,209337
DA:307,209337
DA:309,1689550
DA:310,1480210
DA:311,1480210
DA:315,209337
DA:318,209337
DA:320,1689550
DA:321,1480210
DA:323,209337
DA:326,209337
DA:328,1689550
DA:329,1480210
DA:330,1480210
DA:333,209337
DA:334,209337
DA:336,209337
DA:337,209337
DA:340,209337
DA:341,209337
DA:342,209337
DA:345,209337
DA:346,0
DA:348,209337
DA:350,209337
DA:352,209337
DA:353,0
DA:354,0
DA:356,0
DA:357,0
DA:359,0
DA:360,0
DA:361,0
DA:363,0
DA:364,0
DA:365,0
DA:367,0
DA:369,0
DA:370,0
DA:372,0
DA:374,0
DA:376,0
DA:377,0
DA:378,0
DA:381,0
DA:384,0
DA:387,0
DA:390,0
DA:391,0
DA:392,0
DA:393,0
DA:395,0
DA:396,0
DA:400,418674
DA:403,209337
DA:404,27280
DA:406,209337
DA:407,10491
DA:410,209337
DA:414,209337
DA:415,209337
DA:417,708
DA:419,708
DA:422,209337
DA:423,0
DA:428,209337
DA:429,209337
DA:430,864427
DA:431,655090
DA:433,209337
DA:434,620950
DA:435,411613
DA:438,209337
DA:439,209337
DA:440,209337
DA:441,209337
DA:444,1189100
DA:445,979761
DA:446,979761
DA:448,979761
DA:449,0
DA:451,979761
DA:452,979761
DA:453,979761
DA:454,1959520
DA:456,979761
DA:457,979761
DA:458,979761
DA:459,679080
DA:460,1280440
DA:463,979761
DA:467,709790
DA:468,500453
DA:469,500453
DA:471,500453
DA:473,500453
DA:474,500453
DA:475,500453
DA:476,1000910
DA:478,500453
DA:479,500453
DA:480,500453
DA:481,483383
DA:482,517523
DA:485,500453
DA:487,500453
DA:488,500453
DA:490,500453
DA:493,1000910
DA:497,209337
DA:498,209337
DA:499,209337
DA:500,209337
DA:504,209337
DA:505,209337
DA:507,209337
DA:508,209337
DA:509,418674
DA:510,209337
DA:512,209337
DA:521,2882190
DA:523,2882190
DA:524,2882190
DA:525,2882190
DA:526,15752700
DA:527,15752700
DA:528,12870500
DA:529,12870500
DA:533,2882190
DA:534,2882190
DA:537,2882190
DA:538,2882190
DA:539,2879150
DA:540,2876110
DA:541,9120
DA:542,9120
DA:545,2873070
DA:547,2873070
DA:548,2781880
DA:549,2781880
DA:552,91195
DA:553,91195
DA:554,91195
DA:558,2873070
DA:560,2873070
DA:563,2873070
DA:564,798961
DA:565,798961
DA:566,2074110
DA:567,505152
DA:568,505152
DA:571,5345080
DA:572,3776120
DA:578,12861400
DA:579,9988350
DA:580,9988350
DA:581,9988350
DA:582,9988350
DA:586,2873070
DA:587,0
DA:588,0
DA:590,0
DA:591,0
DA:592,0
DA:593,0
DA:596,2873070
DA:597,0
DA:598,0
DA:600,0
DA:601,0
DA:602,0
DA:603,0
DA:607,2873070
DA:608,2873070
DA:611,2873070
DA:614,2873070
DA:615,2873070
DA:619,2873070
DA:620,2873070
DA:621,2873070
DA:623,2873070
DA:625,2873070
DA:626,2873070
DA:627,2873050
DA:628,2873050
DA:629,5746100
DA:631,2873070
DA:634,15752700
DA:635,12870500
DA:637,2882190
DA:638,2882190
DA:649,75979
DA:650,75979
DA:654,75979
DA:656,75979
DA:657,75979
DA:660,75979
DA:663,75979
DA:664,75979
DA:667,75979
DA:668,75979
DA:669,75979
DA:672,75979
DA:674,75979
DA:675,75979
DA:677,75979
DA:679,75979
DA:680,75979
DA:688,75979
DA:689,75979
DA:690,75979
DA:699,3040
DA:706,3040
DA:707,3040
DA:708,3040
DA:711,75979
DA:712,75979
DA:713,75979
DA:714,72939
DA:716,3040
DA:725,3040
DA:726,94215
DA:727,94215
DA:729,94215
DA:730,91175
DA:735,91175
DA:736,91175
DA:737,91175
DA:740,91175
DA:743,91175
DA:744,91175
DA:747,91175
DA:748,91175
DA:750,91175
DA:754,91175
DA:755,91175
DA:756,91175
DA:758,3040
DA:773,708
DA:774,708
DA:775,708
DA:776,2124
DA:777,1416
DA:778,1416
DA:779,4346
DA:781,2930
DA:782,2930
DA:783,2930
DA:785,2930
DA:791,2930
DA:793,2930
DA:800,708
DA:801,708
DA:802,708
DA:803,3638
DA:805,2930
DA:806,2930
DA:807,2930
DA:809,2930
DA:831,708
DA:833,708
DA:834,708
DA:835,708
DA:837,708
DA:839,708
DA:840,708
DA:843,708
DA:844,26610300
DA:845,26610300
DA:846,26610300
DA:848,26610300
DA:849,708
DA:850,708
DA:851,708
DA:852,708
DA:853,708
DA:855,708
DA:856,708
DA:857,708
DA:860,2832
DA:861,2832
DA:862,2832
DA:863,2832
DA:864,11826
DA:865,11826
DA:866,11118
DA:867,11118
DA:869,2124
DA:870,9953
DA:871,9953
DA:872,9245
DA:873,9245
DA:875,1416
DA:885,708
DA:887,708
DA:888,0
DA:889,0
DA:891,0
DA:895,708
DA:896,708
DA:899,708
DA:900,708
DA:903,708
DA:904,708
DA:907,708
DA:910,0
DA:912,0
DA:915,708
DA:916,708
DA:918,708
DA:932,3046
DA:933,3046
DA:938,3046
DA:939,3046
DA:940,3046
DA:941,3046
DA:942,3046
DA:943,3046
DA:944,3046
DA:945,3046
DA:948,3046
DA:949,3046
DA:950,3046
DA:951,3046
DA:952,3046
DA:953,3046
DA:954,3046
DA:955,3046
DA:958,3046
DA:959,3046
DA:960,3046
DA:961,3046
DA:962,3046
DA:963,3046
DA:964,3046
DA:965,3046
DA:968,3046
DA:969,3046
DA:972,3046
DA:973,3046
DA:976,3046
DA:977,3046
DA:979,3046
DA:980,3046
DA:981,3046
DA:982,3046
DA:992,3046
DA:993,3046
DA:994,1030230
DA:995,1027180
DA:996,1027180
DA:997,1398
DA:1000,3046
DA:1009,0
DA:1011,14658000
DA:1013,0
DA:1025,2873070
DA:1027,2873070
DA:1029,2873070
DA:1030,2873070
DA:1031,32623900
DA:1033,15729300
DA:1036,2873070
DA:1038,2871260
DA:1039,2871260
DA:1040,16920100
DA:1041,14048900
DA:1044,2871260
DA:1045,110695000
DA:1046,110606000
DA:1047,109251000
DA:1048,2781880
DA:1049,2781880
DA:1053,2871260
DA:1055,2873070
DA:1069,91195
DA:1070,91195
DA:1072,91195
DA:1073,91195
DA:1074,91195
DA:1075,91195
DA:1076,91195
DA:1078,91195
DA:1079,91195
DA:1080,91195
DA:1081,91195
DA:1083,91195
DA:1084,0
DA:1085,0
DA:1087,0
DA:1088,0
DA:1090,0
DA:1092,0
DA:1095,0
DA:1098,182390
DA:1099,182390
DA:1100,182390
DA:1102,182390
DA:1105,91195
DA:1106,91195
DA:1107,91195
DA:1108,91195
DA:1111,91195
DA:1114,91195
DA:1118,91195
DA:1119,91195
DA:1120,91195
DA:1123,91195
DA:1125,91195
DA:1130,91195
DA:1137,182390
DA:1140,91195
DA:1141,91195
DA:1142,91195
DA:1145,0
DA:1146,0
DA:1147,0
DA:1152,91195
DA:1153,0
DA:1156,91195
DA:1159,91195
DA:1160,0
DA:1162,0
DA:1163,0
DA:1169,0
DA:1171,0
DA:1175,0
DA:1179,0
DA:1180,0
DA:1187,0
DA:1188,0
DA:1189,0
DA:1190,0
DA:1191,0
DA:1194,0
DA:1196,0
DA:1197,0
DA:1198,0
DA:1199,0
DA:1200,0
DA:1204,0
DA:1205,0
DA:1206,0
DA:1207,0
DA:1208,0
DA:1212,0
DA:1214,0
DA:1215,0
DA:1216,0
DA:1220,0
DA:1221,0
DA:1222,0
DA:1223,0
DA:1224,0
DA:1225,0
DA:1229,91195
DA:1232,0
DA:1233,0
DA:1235,0
DA:1236,0
DA:1241,0
DA:1249,0
DA:1253,0
DA:1254,0
DA:1256,0
DA:1257,0
DA:1262,0
DA:1270,0
DA:1271,0
DA:1277,91195
DA:1279,0
DA:1280,0
DA:1282,0
DA:1283,0
DA:1284,0
DA:1285,0
DA:1290,0
DA:1298,0
DA:1306,0
DA:1307,0
DA:1308,0
DA:1312,91195
DA:1313,0
DA:1314,0
DA:1315,0
DA:1319,91195
DA:1321,91195
DA:1322,91195
DA:1324,91195
DA:1325,182390
DA:1326,91195
DA:1328,91195
DA:1331,91195
DA:1332,91195
DA:1334,91195
DA:1345,1027180
DA:1347,1027180
DA:1348,1027180
DA:1350,1027180
DA:1352,6163100
DA:1353,6163100
DA:1354,5135920
DA:1355,5135920
DA:1357,5135920
DA:1361,1027180
DA:1363,0
DA:1364,0
DA:1365,0
DA:1367,0
DA:1368,0
DA:1369,0
DA:1371,0
DA:1372,0
DA:1373,0
DA:1374,0
DA:1377,0
DA:1382,1027180
DA:1383,1027180
DA:1384,1027180
DA:1385,1027180
DA:1387,1027180
DA:1390,1027180
DA:1391,1027180
DA:1394,1027180
DA:1398,3081550
DA:1399,2054370
DA:1403,1027180
DA:1404,1027180
DA:1405,1027180
DA:1406,1027180
DA:1408,1027180
DA:1409,1027180
DA:1410,1027180
DA:1411,1027180
DA:1414,1027180
DA:1417,1027180
DA:1418,1027180
DA:1421,1027180
DA:1422,1027180
DA:1424,1027180
DA:1425,1027180
DA:1426,1027180
DA:1427,1027180
DA:1428,1027180
DA:1430,1027180
DA:1433,6163100
DA:1434,5135920
DA:1436,1027180
DA:1437,1027180
DA:1438,1027180
DA:1448,0
DA:1449,0
DA:1450,0
DA:1451,0
DA:1452,0
DA:1454,0
DA:1458,0
DA:1459,0
DA:1460,0
DA:1461,0
DA:1464,0
DA:1467,0
DA:1468,0
DA:1469,0
DA:1472,0
DA:1474,0
DA:1475,0
DA:1476,0
DA:1478,0
DA:1479,0
DA:1481,0
DA:1482,0
DA:1483,0
DA:1484,0
DA:1488,0
DA:1489,0
DA:1494,0
DA:1496,0
DA:1497,0
DA:1499,0
DA:1500,0
DA:1502,0
DA:1503,0
DA:1504,0
DA:1505,0
DA:1510,0
DA:1512,0
DA:1529,6820490
DA:1530,6820490
DA:1531,6820490
DA:1532,6252020
DA:1550,1971710
DA:1551,1971710
DA:1554,1971710
DA:1555,1971710
DA:1556,1971710
DA:1557,1971710
DA:1558,1971710
DA:1560,1971710
DA:1561,0
DA:1563,1971710
DA:1581,2501080
DA:1582,2501080
DA:1583,2501080
DA:1585,2501080
DA:1586,2501080
DA:1587,2501080
DA:1588,2501080
DA:1589,2501080
DA:1592,2501080
DA:1593,985853
DA:1594,985853
DA:1595,985853
DA:1614,210753
DA:1616,210753
DA:1617,210753
DA:1618,210753
DA:1619,210753
DA:1620,210753
DA:1621,210753
DA:1622,1711330
DA:1623,1500580
DA:1625,1500580
DA:1626,1069630
DA:1627,1069630
DA:1629,1069630
DA:1630,1069630
DA:1631,1069630
DA:1634,1500580
DA:1635,1289820
DA:1637,1500580
DA:1638,1500580
DA:1641,210753
DA:1642,210753
DA:1644,210753
DA:1645,210753
DA:1647,210753
DA:1661,212169
DA:1662,212169
DA:1663,1302160
DA:1664,1090000
DA:1665,1090000
DA:1666,2179990
DA:1668,212169
DA:1683,209337
DA:1684,209337
DA:1685,1689550
DA:1686,2960430
DA:1688,209337
DA:1703,209337
DA:1704,209337
DA:1705,209337
DA:1707,209337
DA:1708,209337
DA:1709,0
DA:1710,0
DA:1711,0
DA:1712,0
DA:1714,209337
DA:1715,418674
DA:1717,209337
DA:1731,708
DA:1732,708
DA:1733,708
DA:1735,708
DA:1736,708
DA:1737,0
DA:1738,0
DA:1739,0
DA:1740,0
DA:1742,708
DA:1743,708
DA:1745,708
DA:1746,708
DA:1747,1416
DA:1750,708
DA:1761,210753
DA:1762,210753
DA:1763,210753
DA:1765,210753
DA:1767,210753
DA:1768,1280390
DA:1769,1069630
DA:1770,1069630
DA:1771,1069630
DA:1773,210753
DA:1783,3046
DA:1784,3046
DA:1785,3046
DA:1786,3046
DA:1787,3046
DA:1789,3046
DA:1800,3046
DA:1801,3046
DA:1802,3046
DA:1803,16863500
DA:1804,16863500
DA:1806,16860500
DA:1809,3046
DA:1812,3046
DA:1814,3046
DA:1827,3046
DA:1829,6092
DA:1831,3754
DA:1832,708
DA:1834,3046
DA:1835,3046
DA:1836,3046
DA:1847,708
DA:1848,708
DA:1849,708
DA:1851,708
DA:1852,708
DA:1854,708
DA:1855,708
DA:1856,708
DA:1867,1416
DA:1868,21779
DA:1869,20363
DA:1871,1416
DA:1873,1416
DA:1874,2832
DA:1875,1416
DA:1876,1416
DA:1887,210753
DA:1888,1280390
DA:1889,1069630
DA:1891,210753
DA:1892,210753
DA:1893,210753
DA:1895,210753
DA:1896,421506
DA:1897,210753
DA:1898,210753
DA:1916,19653800
DA:1917,19653800
DA:1919,19653800
DA:1920,19653800
DA:1921,19653800
DA:1922,19653800
DA:1923,19653800
DA:1924,19653800
DA:1925,969827
DA:1926,969827
DA:1927,969827
DA:1928,969827
DA:1930,969827
DA:1931,969827
DA:1938,19653800
DA:1939,969827
DA:1940,969827
DA:1941,969827
DA:1943,969827
DA:1944,969827
DA:1945,969827
DA:1946,969827
DA:1947,969827
DA:1949,969827
DA:1950,969827
DA:1951,969827
DA:1952,969827
DA:1953,969827
DA:1960,19653800
DA:1961,0
DA:1962,0
DA:1963,0
DA:1964,0
DA:1966,0
DA:1968,0
DA:1970,19653800
DA:1971,0
DA:1973,19653800
DA:1974,0
DA:1976,19653800
DA:1977,0
DA:1980,19653800
DA:1981,0
DA:1983,19653800
DA:1987,19653800
DA:1988,969827
DA:1989,19653800
DA:1990,969827
DA:1991,19653800
DA:1992,0
DA:1993,19653800
DA:1994,969827
DA:1996,19653800
DA:2010,0
DA:2011,0
DA:2013,0
DA:2015,0
DA:2016,0
DA:2017,0
DA:2018,0
DA:2019,0
DA:2020,0
DA:2021,0
DA:2022,0
DA:2023,0
DA:2024,0
DA:2025,0
DA:2026,0
DA:2027,0
DA:2028,0
DA:2029,0
DA:2030,0
DA:2031,0
DA:2032,0
DA:2033,0
DA:2034,0
DA:2035,0
DA:2036,0
DA:2037,0
DA:2038,0
DA:2039,0
DA:2040,0
DA:2041,0
DA:2042,0
DA:2043,0
DA:2044,0
DA:2045,0
DA:2046,0
DA:2047,0
DA:2049,0
DA:2050,0
DA:2052,0
DA:2053,0
DA:2054,0
DA:2055,0
DA:2056,0
DA:2057,0
DA:2058,0
DA:2059,0
DA:2061,0
DA:2062,0
DA:2064,0
DA:2066,0
DA:2067,0
DA:2069,0
DA:2070,0
DA:2072,0
DA:2073,0
DA:2075,0
DA:2076,0
DA:2080,0
DA:2096,0
DA:2097,0
DA:2098,0
DA:2099,0
DA:2101,0
DA:2102,0
DA:2104,0
DA:2105,0
DA:2107,0
DA:2108,0
DA:2109,0
DA:2110,0
DA:2111,0
DA:2113,0
DA:2114,0
DA:2116,0
DA:2119,0
DA:2120,0
DA:2122,0
DA:2123,0
DA:2127,0
DA:2129,0
DA:2130,0
DA:2133,0
DA:2137,0
DA:2138,0
DA:2140,0
DA:2154,0
DA:2156,0
DA:2157,0
DA:2158,0
DA:2160,0
DA:2161,0
DA:2162,0
DA:2163,0
DA:2164,0
DA:2165,0
DA:2167,0
DA:2168,0
DA:2169,0
DA:2170,0
DA:2172,0
DA:2173,0
DA:2174,0
DA:2175,0
DA:2176,0
DA:2178,0
DA:2179,0
DA:2180,0
DA:2182,0
DA:2183,0
DA:2184,0
DA:2186,0
DA:2187,0
DA:2188,0
DA:2190,0
DA:2191,0
DA:2192,0
DA:2194,0
DA:2195,0
DA:2196,0
DA:2198,0
DA:2199,0
DA:2200,0
DA:2202,0
DA:2203,0
DA:2204,0
DA:2206,0
DA:2207,0
DA:2208,0
DA:2209,0
DA:2210,0
DA:2211,0
DA:2212,0
DA:2215,0
DA:2216,0
DA:2217,0
DA:2218,0
DA:2219,0
DA:2220,0
DA:2222,0
DA:2223,0
DA:2224,0
DA:2225,0
DA:2226,0
DA:2228,0
DA:2229,0
DA:2230,0
DA:2231,0
DA:2232,0
DA:2234,0
DA:2235,0
DA:2236,0
DA:2237,0
DA:2238,0
DA:2240,0
DA:2241,0
DA:2242,0
DA:2243,0
DA:2244,0
DA:2246,0
DA:2247,0
DA:2248,0
DA:2249,0
DA:2250,0
DA:2252,0
DA:2253,0
DA:2254,0
DA:2255,0
DA:2256,0
DA:2258,0
DA:2259,0
DA:2260,0
DA:2261,0
DA:2262,0
DA:2264,0
DA:2265,0
DA:2266,0
DA:2267,0
DA:2268,0
DA:2270,0
DA:2271,0
DA:2272,0
DA:2273,0
DA:2274,0
DA:2276,0
DA:2277,0
DA:2278,0
DA:2279,0
DA:2280,0
DA:2282,0
DA:2283,0
DA:2284,0
DA:2285,0
DA:2286,0
DA:2289,0
DA:2296,0
DA:2299,0
DA:2300,0
DA:2301,0
DA:2312,0
DA:2313,0
DA:2314,0
DA:2315,0
DA:2316,0
DA:2317,0
DA:2318,0
DA:2319,0
DA:2320,0
DA:2321,0
DA:2322,0
DA:2323,0
DA:2324,0
DA:2325,0
DA:2326,0
DA:2327,0
DA:2328,0
DA:2329,0
DA:2330,0
DA:2331,0
DA:2332,0
DA:2333,0
DA:2334,0
DA:2335,0
DA:2341,0
end_of_record
SF:/usr/include/c++/9/bits/stl_vector.h
DA:1040,3046
DA:1043,3046
end_of_record
SF:/usr/include/c++/9/bits/allocator.h
DA:138,26416500
DA:141,0
DA:142,0
DA:151,425012
DA:153,26417000
end_of_record
SF:/usr/include/c++/9/bits/stl_algobase.h
DA:198,0
DA:203,0
DA:204,0
end_of_record
SF:/usr/include/c++/9/ext/new_allocator.h
DA:80,26841500
DA:83,0
DA:89,26417000
DA:119,17736100
DA:128,17736100
end_of_record
SF:/usr/include/c++/9/bits/move.h
DA:47,26417000
DA:74,222977
DA:99,223474
DA:138,26417000
DA:139,26417000
end_of_record
SF:/usr/include/c++/9/utility
DA:174,222480
DA:175,222480
DA:219,222480
DA:220,222480
end_of_record
SF:/usr/include/c++/9/bits/stl_function.h
DA:355,222480
DA:356,222480
end_of_record
SF:/usr/include/c++/9/bits/hashtable.h
FN:1348,_ZNSt10_HashtableINSt7__cxx1112basic_stringIcSt11char_traitsIcESaIcEEESt4pairIKS5_PvESaIS9_ENSt8__detail10_Select1stESt8equal_toIS5_ESt4hashIS5_ENSB_18_Mod_range_hashingENSB_20_Default_ranged_hashENSB_20_Prime_rehash_policyENSB_17_Hashtable_traitsILb1ELb0ELb1EEEED2Ev
FNDA:427598,_ZNSt10_HashtableINSt7__cxx1112basic_stringIcSt11char_traitsIcESaIcEEESt4pairIKS5_PvESaIS9_ENSt8__detail10_Select1stESt8equal_toIS5_ESt4hashIS5_ENSB_18_Mod_range_hashingENSB_20_Default_ranged_hashENSB_20_Prime_rehash_policyENSB_17_Hashtable_traitsILb1ELb0ELb1EEEED2Ev
FN:1412,_ZNSt10_HashtableINSt7__cxx1112basic_stringIcSt11char_traitsIcESaIcEEESt4pairIKS5_14operation_listESaIS9_ENSt8__detail10_Select1stESt8equal_toIS5_ESt4hashIS5_ENSB_18_Mod_range_hashingENSB_20_Default_ranged_hashENSB_20_Prime_rehash_policyENSB_17_Hashtable_traitsILb1ELb0ELb1EEEE4findERS7_
FNDA:0,_ZNSt10_HashtableINSt7__cxx1112basic_stringIcSt11char_traitsIcESaIcEEESt4pairIKS5_14operation_listESaIS9_ENSt8__detail10_Select1stESt8equal_toIS5_ESt4hashIS5_ENSB_18_Mod_range_hashingENSB_20_Default_ranged_hashENSB_20_Prime_rehash_policyENSB_17_Hashtable_traitsILb1ELb0ELb1EEEE4findERS7_
FN:1532,_ZNKSt10_HashtableINSt7__cxx1112basic_stringIcSt11char_traitsIcESaIcEEESt4pairIKS5_14operation_listESaIS9_ENSt8__detail10_Select1stESt8equal_toIS5_ESt4hashIS5_ENSB_18_Mod_range_hashingENSB_20_Default_ranged_hashENSB_20_Prime_rehash_policyENSB_17_Hashtable_traitsILb1ELb0ELb1EEEE19_M_find_before_nodeEmRS7_m
FNDA:222977,_ZNKSt10_HashtableINSt7__cxx1112basic_stringIcSt11char_traitsIcESaIcEEESt4pairIKS5_14operation_listESaIS9_ENSt8__detail10_Select1stESt8equal_toIS5_ESt4hashIS5_ENSB_18_Mod_range_hashingENSB_20_Default_ranged_hashENSB_20_Prime_rehash_policyENSB_17_Hashtable_traitsILb1ELb0ELb1EEEE19_M_find_before_nodeEmRS7_m
FN:1560,_ZNSt10_HashtableINSt7__cxx1112basic_stringIcSt11char_traitsIcESaIcEEESt4pairIKS5_14operation_listESaIS9_ENSt8__detail10_Select1stESt8equal_toIS5_ESt4hashIS5_ENSB_18_Mod_range_hashingENSB_20_Default_ranged_hashENSB_20_Prime_rehash_policyENSB_17_Hashtable_traitsILb1ELb0ELb1EEEE22_M_insert_bucket_beginEmPNSB_10_Hash_nodeIS9_Lb1EEE
FNDA:0,_ZNSt10_HashtableINSt7__cxx1112basic_stringIcSt11char_traitsIcESaIcEEESt4pairIKS5_14operation_listESaIS9_ENSt8__detail10_Select1stESt8equal_toIS5_ESt4hashIS5_ENSB_18_Mod_range_hashingENSB_20_Default_ranged_hashENSB_20_Prime_rehash_policyENSB_17_Hashtable_traitsILb1ELb0ELb1EEEE22_M_insert_bucket_beginEmPNSB_10_Hash_nodeIS9_Lb1EEE
FN:1698,_ZNSt10_HashtableINSt7__cxx1112basic_stringIcSt11char_traitsIcESaIcEEESt4pairIKS5_14operation_listESaIS9_ENSt8__detail10_Select1stESt8equal_toIS5_ESt4hashIS5_ENSB_18_Mod_range_hashingENSB_20_Default_ranged_hashENSB_20_Prime_rehash_policyENSB_17_Hashtable_traitsILb1ELb0ELb1EEEE21_M_insert_unique_nodeEmmPNSB_10_Hash_nodeIS9_Lb1EEEm
FNDA:0,_ZNSt10_HashtableINSt7__cxx1112basic_stringIcSt11char_traitsIcESaIcEEESt4pairIKS5_14operation_listESaIS9_ENSt8__detail10_Select1stESt8equal_toIS5_ESt4hashIS5_ENSB_18_Mod_range_hashingENSB_20_Default_ranged_hashENSB_20_Prime_rehash_policyENSB_17_Hashtable_traitsILb1ELb0ELb1EEEE21_M_insert_unique_nodeEmmPNSB_10_Hash_nodeIS9_Lb1EEEm
FN:2024,_ZNSt10_HashtableINSt7__cxx1112basic_stringIcSt11char_traitsIcESaIcEEESt4pairIKS5_PvESaIS9_ENSt8__detail10_Select1stESt8equal_toIS5_ESt4hashIS5_ENSB_18_Mod_range_hashingENSB_20_Default_ranged_hashENSB_20_Prime_rehash_policyENSB_17_Hashtable_traitsILb1ELb0ELb1EEEE5clearEv
FNDA:427598,_ZNSt10_HashtableINSt7__cxx1112basic_stringIcSt11char_traitsIcESaIcEEESt4pairIKS5_PvESaIS9_ENSt8__detail10_Select1stESt8equal_toIS5_ESt4hashIS5_ENSB_18_Mod_range_hashingENSB_20_Default_ranged_hashENSB_20_Prime_rehash_policyENSB_17_Hashtable_traitsILb1ELb0ELb1EEEE5clearEv
FN:2061,_ZNSt10_HashtableINSt7__cxx1112basic_stringIcSt11char_traitsIcESaIcEEESt4pairIKS5_14operation_listESaIS9_ENSt8__detail10_Select1stESt8equal_toIS5_ESt4hashIS5_ENSB_18_Mod_range_hashingENSB_20_Default_ranged_hashENSB_20_Prime_rehash_policyENSB_17_Hashtable_traitsILb1ELb0ELb1EEEE9_M_rehashEmRKm
FNDA:0,_ZNSt10_HashtableINSt7__cxx1112basic_stringIcSt11char_traitsIcESaIcEEESt4pairIKS5_14operation_listESaIS9_ENSt8__detail10_Select1stESt8equal_toIS5_ESt4hashIS5_ENSB_18_Mod_range_hashingENSB_20_Default_ranged_hashENSB_20_Prime_rehash_policyENSB_17_Hashtable_traitsILb1ELb0ELb1EEEE9_M_rehashEmRKm
FN:2084,_ZNSt10_HashtableINSt7__cxx1112basic_stringIcSt11char_traitsIcESaIcEEESt4pairIKS5_14operation_listESaIS9_ENSt8__detail10_Select1stESt8equal_toIS5_ESt4hashIS5_ENSB_18_Mod_range_hashingENSB_20_Default_ranged_hashENSB_20_Prime_rehash_policyENSB_17_Hashtable_traitsILb1ELb0ELb1EEEE13_M_rehash_auxEmSt17integral_constantIbLb1EE
FNDA:0,_ZNSt10_HashtableINSt7__cxx1112basic_stringIcSt11char_traitsIcESaIcEEESt4pairIKS5_14operation_listESaIS9_ENSt8__detail10_Select1stESt8equal_toIS5_ESt4hashIS5_ENSB_18_Mod_range_hashingENSB_20_Default_ranged_hashENSB_20_Prime_rehash_policyENSB_17_Hashtable_traitsILb1ELb0ELb1EEEE13_M_rehash_auxEmSt17integral_constantIbLb1EE
DA:342,427598
DA:343,427598
DA:353,0
DA:355,0
DA:357,0
DA:358,0
DA:361,0
DA:365,427598
DA:367,427598
DA:370,425012
DA:374,427598
DA:375,0
DA:383,427598
DA:414,424552
DA:512,0
DA:513,0
DA:639,20074
DA:640,20074
DA:643,222977
DA:644,222977
DA:652,222977
DA:655,222977
DA:656,222977
DA:657,222480
DA:1348,427598
DA:1352,427598
DA:1353,427598
DA:1354,427598
DA:1412,0
DA:1417,0
DA:1418,0
DA:1419,0
DA:1420,0
DA:1532,222977
DA:1538,222977
DA:1539,222977
DA:1542,222720
DA:1545,242682
DA:1546,222480
DA:1548,20202
DA:1560,0
DA:1564,0
DA:1568,0
DA:1569,0
DA:1576,0
DA:1577,0
DA:1578,0
DA:1581,0
DA:1582,0
DA:1584,0
DA:1698,0
DA:1704,0
DA:1705,0
DA:1711,0
DA:1713,0
DA:1714,0
DA:1717,0
DA:1720,0
DA:1721,0
DA:1722,0
DA:1724,0
DA:1726,0
DA:1727,0
DA:2024,427598
DA:2028,427598
DA:2029,427598
DA:2030,427598
DA:2031,427598
DA:2032,427598
DA:2061,0
DA:2067,0
DA:2069,0
DA:2073,0
DA:2074,0
DA:2076,0
DA:2084,0
DA:2088,0
DA:2089,0
DA:2090,0
DA:2091,0
DA:2092,0
DA:2094,0
DA:2095,0
DA:2096,0
DA:2098,0
DA:2099,0
DA:2100,0
DA:2101,0
DA:2102,0
DA:2107,0
DA:2108,0
DA:2113,0
DA:2114,0
DA:2115,0
DA:2116,0
end_of_record
SF:/usr/include/c++/9/bits/functional_hash.h
DA:195,222977
DA:197,222977
end_of_record
SF:/usr/include/c++/9/bits/stl_iterator_base_funcs.h
DA:98,11785400
DA:104,11785400
DA:138,11785400
DA:141,11785400
end_of_record
SF:/workspace/vtr-verilog-to-routing/ODIN_II/SRC/include/Hashtable.hpp
DA:32,852150
end_of_record
SF:/usr/include/c++/9/bits/stl_pair.h
end_of_record
SF:/workspace/vtr-verilog-to-routing/ODIN_II/SRC/include/BLIF.hpp
FN:116,_Z8getblineRPcmP8_IO_FILE
FNDA:59448500,_Z8getblineRPcmP8_IO_FILE
FN:165,_ZN4BLIF6Reader6_writeEPK9netlist_t
FNDA:0,_ZN4BLIF6Reader6_writeEPK9netlist_t
DA:116,59448500
DA:117,59448500
DA:118,59448500
DA:119,59347400
DA:120,59347400
DA:123,59448500
DA:124,0
DA:126,59448500
DA:127,59448500
DA:130,59448500
DA:165,0
DA:166,0
DA:167,0
end_of_record
SF:/usr/include/c++/9/iostream
end_of_record
SF:/usr/include/stdlib.h
DA:361,1027180
DA:363,1027180
end_of_record
SF:/usr/include/c++/9/ext/aligned_buffer.h
DA:102,445457
DA:104,222480
DA:114,445457
DA:115,445457
end_of_record
SF:/usr/include/x86_64-linux-gnu/bits/string_fortified.h
DA:31,2909480
DA:34,1939650
DA:126,1280390
DA:128,1280390
end_of_record
SF:/usr/include/c++/9/ext/type_traits.h
DA:152,11785400
end_of_record
SF:/usr/include/c++/9/bits/alloc_traits.h
DA:469,17736100
DA:470,17736100
end_of_record
SF:/usr/include/c++/9/new
end_of_record
SF:/usr/include/c++/9/bits/char_traits.h
DA:299,11787900
DA:300,2580
DA:303,0
DA:304,0
DA:315,222480
DA:317,222480
DA:325,222480
DA:329,0
DA:335,0
DA:361,11782800
DA:363,11782800
DA:365,11782800
end_of_record
SF:/usr/include/c++/9/bits/ptr_traits.h
DA:146,26417000
DA:147,26417000
end_of_record
SF:/usr/include/c++/9/bits/unordered_map.h
DA:102,427598
DA:141,424552
DA:346,0
DA:347,0
DA:920,0
DA:921,0
DA:988,222977
DA:989,222977
end_of_record
TN:
SF:/usr/include/c++/9/bits/stl_iterator_base_funcs.h
DA:98,11314
DA:104,11314
DA:138,11314
DA:141,11314
end_of_record
SF:/usr/include/c++/9/bits/stl_pair.h
DA:208,6682
end_of_record
SF:/usr/include/c++/9/iostream
end_of_record
SF:/usr/include/c++/9/bits/ptr_traits.h
DA:146,17163
DA:147,17163
end_of_record
SF:/usr/include/c++/9/bits/char_traits.h
DA:299,11314
DA:300,0
DA:361,11314
DA:363,11314
DA:365,0
end_of_record
SF:/usr/include/c++/9/ext/alloc_traits.h
DA:97,2007
DA:98,2007
end_of_record
SF:/usr/include/c++/9/ext/type_traits.h
DA:152,11314
end_of_record
SF:/usr/include/c++/9/bits/alloc_traits.h
DA:469,14330
DA:470,14330
DA:514,2007
DA:515,2007
end_of_record
SF:/usr/include/c++/9/bits/basic_string.tcc
FN:206,_ZNSt7__cxx1112basic_stringIcSt11char_traitsIcESaIcEE12_M_constructIPcEEvT_S7_St20forward_iterator_tag
FNDA:0,_ZNSt7__cxx1112basic_stringIcSt11char_traitsIcESaIcEE12_M_constructIPcEEvT_S7_St20forward_iterator_tag
FN:206,_ZNSt7__cxx1112basic_stringIcSt11char_traitsIcESaIcEE12_M_constructIPKcEEvT_S8_St20forward_iterator_tag
FNDA:11314,_ZNSt7__cxx1112basic_stringIcSt11char_traitsIcESaIcEE12_M_constructIPKcEEvT_S8_St20forward_iterator_tag
DA:206,0
DA:211,0
DA:212,0
DA:215,0
DA:217,0
DA:219,0
DA:220,0
DA:225,0
DA:232,0
DA:233,0
DA:206,11314
DA:211,11314
DA:212,0
DA:215,11314
DA:217,11314
DA:219,0
DA:220,0
DA:225,11314
DA:232,11314
DA:233,11314
end_of_record
SF:/usr/include/c++/9/bits/basic_string.h
DA:150,16662
DA:159,2007
DA:160,2007
DA:178,0
DA:179,0
DA:182,11314
DA:183,11314
DA:186,110675
DA:190,2007
DA:193,2007
DA:200,16662
DA:203,16662
DA:210,0
DA:211,0
DA:214,11314
DA:216,11314
DA:217,11314
DA:221,16662
DA:222,16662
DA:229,16662
DA:231,15156
DA:232,27745
DA:236,11083
DA:237,11083
DA:243,2007
DA:247,2007
DA:263,2007
DA:266,4014
DA:286,11083
DA:287,11083
DA:290,2007
DA:291,2007
DA:346,11314
DA:348,11314
DA:349,0
DA:351,11314
DA:392,0
DA:393,0
DA:396,11314
DA:398,11314
DA:448,2007
DA:450,2007
DA:451,2007
DA:657,15156
DA:658,16242
DA:930,22844
DA:936,2007
DA:1063,42967
DA:1070,20837
DA:1177,2007
DA:1178,2007
DA:1186,20837
DA:1188,20837
DA:2300,15328
DA:2301,15328
end_of_record
SF:/usr/include/c++/9/bits/allocator.h
DA:138,11314
DA:141,2007
DA:142,2007
DA:153,50400
end_of_record
SF:/usr/include/c++/9/bits/stl_vector.h
FN:675,_ZNSt6vectorISt4pairINSt7__cxx1112basic_stringIcSt11char_traitsIcESaIcEEEiESaIS7_EED2Ev
FNDA:6293,_ZNSt6vectorISt4pairINSt7__cxx1112basic_stringIcSt11char_traitsIcESaIcEEEiESaIS7_EED2Ev
DA:125,6293
DA:273,6293
DA:274,6293
DA:330,6293
DA:332,12586
DA:333,6293
DA:334,6293
DA:347,6293
DA:350,6293
DA:351,3247
DA:675,6293
DA:677,12586
DA:678,6293
DA:680,6293
DA:915,4014
DA:916,4014
DA:1040,4014
DA:1043,4014
end_of_record
SF:/usr/include/x86_64-linux-gnu/bits/stdlib.h
DA:37,2007
DA:39,2007
DA:45,0
DA:48,2007
end_of_record
SF:/usr/include/x86_64-linux-gnu/bits/stdio2.h
DA:98,18676
DA:100,18506
DA:101,0
DA:127,2177
DA:130,2177
end_of_record
SF:/workspace/vtr-verilog-to-routing/ODIN_II/SRC/odin_error.cpp
FN:28,_Z20verify_delayed_error10odin_error
FNDA:3247,_Z20verify_delayed_error10odin_error
FN:34,_ZL20make_marker_from_strNSt7__cxx1112basic_stringIcSt11char_traitsIcESaIcEEEi
FNDA:2007,_ZL20make_marker_from_strNSt7__cxx1112basic_stringIcSt11char_traitsIcESaIcEEEi
FN:53,_ZL16get_culprit_lineiPKc
FNDA:9307,_ZL16get_culprit_lineiPKc
FN:80,_ZL31print_culprit_line_with_contextiiPKci
FNDA:2007,_ZL31print_culprit_line_with_contextiiPKci
FN:91,_Z12_log_message10odin_error5loc_tbPKciS2_S2_z
FNDA:2177,_Z12_log_message10odin_error5loc_tbPKciS2_S2_z
FN:131,_Z14_verbose_abortPKcS0_iS0_
FNDA:0,_Z14_verbose_abortPKcS0_iS0_
DA:28,3247
DA:29,3247
DA:30,0
DA:32,3247
DA:34,2007
DA:35,2007
DA:37,22844
DA:38,22484
DA:40,20837
DA:41,6021
DA:42,14816
DA:45,20837
DA:49,2007
DA:50,2007
DA:53,9307
DA:54,9307
DA:55,9307
DA:56,9307
DA:60,320327000
DA:61,320327000
DA:62,320327000
DA:64,320326000
DA:65,8740660
DA:66,8740660
DA:68,8731940
DA:71,311586000
DA:72,245580
DA:75,9307
DA:77,9307
DA:80,2007
DA:81,11802
DA:82,18614
DA:83,9307
DA:84,9307
DA:85,9307
DA:86,6102
DA:89,2007
DA:91,2177
DA:92,2177
DA:94,2177
DA:96,2177
DA:97,2007
DA:98,2007
DA:99,2007
DA:102,2177
DA:103,2177
DA:105,0
DA:108,2177
DA:110,2177
DA:111,2177
DA:112,2177
DA:113,2177
DA:114,2177
DA:116,2177
DA:117,831
DA:120,2007
DA:121,4184
DA:122,2007
DA:125,2177
DA:126,2177
DA:127,0
DA:129,2177
DA:131,0
DA:132,0
DA:133,0
DA:134,0
DA:136,0
DA:138,0
DA:141,0
DA:143,0
DA:144,0
end_of_record
SF:/usr/include/c++/9/bits/stl_construct.h
DA:97,3341
DA:98,3341
DA:107,9634
DA:108,6682
DA:137,6293
DA:203,6293
DA:206,6293
end_of_record
SF:/usr/include/c++/9/ext/new_allocator.h
DA:80,11314
DA:83,2007
DA:89,27556
DA:119,14330
DA:128,14330
end_of_record
SF:/usr/include/c++/9/bits/stl_algobase.h
DA:222,2007
DA:227,2007
DA:228,488
end_of_record
SF:/usr/include/c++/9/bits/move.h
DA:47,3341
DA:99,2007
DA:138,18669
DA:139,17163
end_of_record
TN:
SF:/usr/include/c++/9/iostream
end_of_record
SF:/workspace/vtr-verilog-to-routing/ODIN_II/SRC/Power.cpp
FN:53,_Z18resolve_power_nodeP7nnode_tmP9netlist_t
FNDA:0,_Z18resolve_power_nodeP7nnode_tmP9netlist_t
FN:115,_ZL33implement_constant_exponentiationP7nnode_tmP9netlist_t
FNDA:0,_ZL33implement_constant_exponentiationP7nnode_tmP9netlist_t
FN:262,_ZL37implement_non_constant_exponentiationP7nnode_tmP9netlist_t
FNDA:0,_ZL37implement_non_constant_exponentiationP7nnode_tmP9netlist_t
DA:53,0
DA:54,0
DA:55,0
DA:66,0
DA:67,0
DA:68,0
DA:69,0
DA:70,0
DA:73,0
DA:74,0
DA:78,0
DA:79,0
DA:83,0
DA:85,0
DA:86,0
DA:89,0
DA:90,0
DA:92,0
DA:94,0
DA:96,0
DA:100,0
DA:101,0
DA:102,0
DA:115,0
DA:116,0
DA:117,0
DA:146,0
DA:147,0
DA:148,0
DA:149,0
DA:150,0
DA:151,0
DA:154,0
DA:155,0
DA:157,0
DA:158,0
DA:160,0
DA:162,0
DA:165,0
DA:166,0
DA:167,0
DA:171,0
DA:172,0
DA:173,0
DA:176,0
DA:181,0
DA:183,0
DA:184,0
DA:186,0
DA:188,0
DA:191,0
DA:193,0
DA:195,0
DA:196,0
DA:198,0
DA:199,0
DA:204,0
DA:205,0
DA:206,0
DA:207,0
DA:208,0
DA:210,0
DA:212,0
DA:214,0
DA:217,0
DA:219,0
DA:226,0
DA:228,0
DA:231,0
DA:233,0
DA:235,0
DA:236,0
DA:238,0
DA:240,0
DA:242,0
DA:243,0
DA:245,0
DA:246,0
DA:247,0
DA:248,0
DA:262,0
DA:263,0
DA:264,0
DA:309,0
DA:310,0
DA:311,0
DA:312,0
DA:314,0
DA:315,0
DA:316,0
DA:319,0
DA:320,0
DA:321,0
DA:322,0
DA:324,0
DA:327,0
DA:329,0
DA:332,0
DA:333,0
DA:334,0
DA:339,0
DA:344,0
DA:346,0
DA:347,0
DA:348,0
DA:351,0
DA:353,0
DA:356,0
DA:358,0
DA:359,0
DA:363,0
DA:364,0
DA:365,0
DA:366,0
DA:368,0
DA:370,0
DA:372,0
DA:375,0
DA:380,0
DA:381,0
DA:382,0
DA:383,0
DA:386,0
DA:387,0
DA:389,0
DA:390,0
DA:396,0
DA:398,0
DA:399,0
DA:401,0
DA:402,0
DA:403,0
DA:405,0
DA:408,0
DA:412,0
DA:413,0
DA:415,0
DA:416,0
DA:420,0
DA:421,0
DA:423,0
DA:426,0
DA:428,0
DA:430,0
DA:431,0
DA:434,0
DA:435,0
DA:437,0
DA:438,0
DA:439,0
DA:440,0
end_of_record
TN:
SF:/usr/include/c++/9/iostream
end_of_record
SF:/workspace/vtr-verilog-to-routing/ODIN_II/SRC/BLIFElaborate.cpp
FN:98,_Z18blif_elaborate_topP9netlist_t
FNDA:3046,_Z18blif_elaborate_topP9netlist_t
FN:133,_Z39depth_first_traversal_to_blif_elaboratesP9netlist_t
FNDA:0,_Z39depth_first_traversal_to_blif_elaboratesP9netlist_t
FN:161,_Z35depth_first_traverse_blif_elaborateP7nnode_tmP9netlist_t
FNDA:0,_Z35depth_first_traverse_blif_elaborateP7nnode_tmP9netlist_t
FN:201,_Z19blif_elaborate_nodeP7nnode_tsP9netlist_t
FNDA:0,_Z19blif_elaborate_nodeP7nnode_tsP9netlist_t
FN:336,_ZL21resolve_logical_nodesP7nnode_tmP9netlist_t
FNDA:0,_ZL21resolve_logical_nodesP7nnode_tmP9netlist_t
FN:383,_ZL19resolve_shift_nodesP7nnode_tmP9netlist_t
FNDA:0,_ZL19resolve_shift_nodesP7nnode_tmP9netlist_t
FN:416,_ZL24resolve_case_equal_nodesP7nnode_tmP9netlist_t
FNDA:0,_ZL24resolve_case_equal_nodesP7nnode_tmP9netlist_t
FN:454,_ZL24resolve_arithmetic_nodesP7nnode_tmP9netlist_t
FNDA:0,_ZL24resolve_arithmetic_nodesP7nnode_tmP9netlist_t
FN:534,_ZL17resolve_mux_nodesP7nnode_tmP9netlist_t
FNDA:0,_ZL17resolve_mux_nodesP7nnode_tmP9netlist_t
FN:587,_ZL19resolve_latch_nodesP7nnode_tmP9netlist_t
FNDA:0,_ZL19resolve_latch_nodesP7nnode_tmP9netlist_t
FN:631,_ZL16resolve_ff_nodesP7nnode_tmP9netlist_t
FNDA:0,_ZL16resolve_ff_nodesP7nnode_tmP9netlist_t
FN:704,_ZL20resolve_memory_nodesP7nnode_tmP9netlist_t
FNDA:0,_ZL20resolve_memory_nodesP7nnode_tmP9netlist_t
FN:768,_ZL15look_for_clocksP9netlist_t
FNDA:0,_ZL15look_for_clocksP9netlist_t
DA:98,3046
DA:105,3046
DA:110,0
DA:112,0
DA:115,0
DA:120,0
DA:122,3046
DA:133,0
DA:134,0
DA:137,0
DA:138,0
DA:139,0
DA:143,0
DA:144,0
DA:145,0
DA:148,0
DA:149,0
DA:161,0
DA:162,0
DA:164,0
DA:168,0
DA:170,0
DA:171,0
DA:172,0
DA:173,0
DA:174,0
DA:175,0
DA:176,0
DA:178,0
DA:187,0
DA:189,0
DA:201,0
DA:202,0
DA:203,0
DA:204,0
DA:205,0
DA:206,0
DA:207,0
DA:208,0
DA:209,0
DA:210,0
DA:211,0
DA:212,0
DA:213,0
DA:214,0
DA:215,0
DA:219,0
DA:220,0
DA:222,0
DA:223,0
DA:224,0
DA:225,0
DA:230,0
DA:231,0
DA:233,0
DA:234,0
DA:238,0
DA:239,0
DA:241,0
DA:242,0
DA:243,0
DA:244,0
DA:245,0
DA:246,0
DA:250,0
DA:251,0
DA:253,0
DA:254,0
DA:255,0
DA:259,0
DA:260,0
DA:262,0
DA:263,0
DA:264,0
DA:265,0
DA:266,0
DA:267,0
DA:268,0
DA:272,0
DA:273,0
DA:275,0
DA:276,0
DA:277,0
DA:278,0
DA:279,0
DA:280,0
DA:284,0
DA:285,0
DA:287,0
DA:288,0
DA:289,0
DA:290,0
DA:291,0
DA:292,0
DA:296,0
DA:297,0
DA:316,0
DA:317,0
DA:318,0
DA:319,0
DA:320,0
DA:321,0
DA:322,0
DA:324,0
DA:336,0
DA:337,0
DA:339,0
DA:340,0
DA:341,0
DA:342,0
DA:343,0
DA:344,0
DA:345,0
DA:349,0
DA:350,0
DA:352,0
DA:353,0
DA:354,0
DA:355,0
DA:356,0
DA:357,0
DA:358,0
DA:362,0
DA:363,0
DA:365,0
DA:366,0
DA:368,0
DA:371,0
DA:383,0
DA:384,0
DA:386,0
DA:387,0
DA:388,0
DA:389,0
DA:390,0
DA:395,0
DA:396,0
DA:398,0
DA:399,0
DA:401,0
DA:404,0
DA:416,0
DA:417,0
DA:419,0
DA:420,0
DA:424,0
DA:425,0
DA:427,0
DA:432,0
DA:433,0
DA:435,0
DA:436,0
DA:438,0
DA:441,0
DA:454,0
DA:455,0
DA:457,0
DA:458,0
DA:463,0
DA:464,0
DA:468,0
DA:469,0
DA:471,0
DA:475,0
DA:478,0
DA:479,0
DA:481,0
DA:485,0
DA:486,0
DA:488,0
DA:491,0
DA:492,0
DA:494,0
DA:498,0
DA:499,0
DA:501,0
DA:505,0
DA:506,0
DA:508,0
DA:512,0
DA:513,0
DA:515,0
DA:516,0
DA:518,0
DA:521,0
DA:534,0
DA:535,0
DA:537,0
DA:538,0
DA:543,0
DA:544,0
DA:546,0
DA:551,0
DA:555,0
DA:556,0
DA:563,0
DA:564,0
DA:565,0
DA:566,0
DA:568,0
DA:569,0
DA:571,0
DA:574,0
DA:587,0
DA:588,0
DA:590,0
DA:591,0
DA:595,0
DA:596,0
DA:598,0
DA:602,0
DA:603,0
DA:605,0
DA:609,0
DA:610,0
DA:612,0
DA:613,0
DA:615,0
DA:618,0
DA:631,0
DA:632,0
DA:634,0
DA:635,0
DA:639,0
DA:640,0
DA:642,0
DA:646,0
DA:647,0
DA:649,0
DA:653,0
DA:654,0
DA:656,0
DA:660,0
DA:661,0
DA:663,0
DA:667,0
DA:668,0
DA:670,0
DA:674,0
DA:675,0
DA:677,0
DA:681,0
DA:682,0
DA:684,0
DA:685,0
DA:687,0
DA:690,0
DA:704,0
DA:705,0
DA:707,0
DA:708,0
DA:712,0
DA:713,0
DA:715,0
DA:719,0
DA:720,0
DA:722,0
DA:726,0
DA:727,0
DA:729,0
DA:733,0
DA:734,0
DA:736,0
DA:740,0
DA:741,0
DA:747,0
DA:748,0
DA:750,0
DA:753,0
DA:768,0
DA:769,0
DA:771,0
DA:772,0
DA:773,0
DA:774,0
DA:777,0
DA:779,0
DA:781,0
DA:784,0
DA:785,0
DA:787,0
DA:788,0
DA:791,0
end_of_record
TN:
SF:/usr/include/c++/9/bits/hashtable_policy.h
FN:2079,_ZNSt8__detail16_Hashtable_allocISaINS_10_Hash_nodeISt4pairIKNSt7__cxx1112basic_stringIcSt11char_traitsIcESaIcEEEP15implicit_memoryELb1EEEEE16_M_allocate_nodeIJSC_EEEPSD_DpOT_
FNDA:5032,_ZNSt8__detail16_Hashtable_allocISaINS_10_Hash_nodeISt4pairIKNSt7__cxx1112basic_stringIcSt11char_traitsIcESaIcEEEP15implicit_memoryELb1EEEEE16_M_allocate_nodeIJSC_EEEPSD_DpOT_
DA:92,19779
DA:94,19779
DA:218,11514
DA:229,5032
DA:236,39492
DA:237,39492
DA:244,5211
DA:245,19892
DA:264,5032
DA:269,43517
DA:294,15430200
DA:295,5156290
DA:298,113
DA:299,113
DA:304,5141720
DA:311,160
DA:340,10288500
DA:341,10288500
DA:344,113
DA:345,113
DA:352,113
DA:354,113
DA:355,113
DA:391,5141720
DA:393,5141720
DA:400,14568
DA:401,14568
DA:431,5190450
DA:433,5190450
DA:449,6482
DA:450,6482
DA:476,5032
DA:477,5032
DA:480,6482
DA:481,6482
DA:484,0
DA:485,0
DA:805,5032
DA:1002,5032
DA:1004,5032
DA:1005,5032
DA:1093,19068
DA:1096,6482
DA:1104,10386700
DA:1108,21936
DA:1380,5146750
DA:1384,5146750
DA:1388,5146930
DA:1390,5146930
DA:1393,43517
DA:1396,43517
DA:1399,5032
DA:1400,5032
DA:1415,49534
DA:1418,5211
DA:1421,5146750
DA:1427,5190450
DA:1448,49534
DA:1450,14568
DA:1829,49534
DA:1834,49534
DA:1846,49534
DA:2017,19068
DA:2036,6482
DA:2046,16725
DA:2047,11514
DA:2079,5032
DA:2081,5032
DA:2082,5032
DA:2085,5032
DA:2086,5032
DA:2089,5032
DA:2091,0
DA:2093,0
DA:2094,0
DA:2118,32032
DA:2120,37064
DA:2122,5032
DA:2123,5032
DA:2124,5032
DA:2142,179
DA:2146,179
DA:2147,179
DA:2148,179
DA:2149,179
end_of_record
SF:/usr/include/c++/9/bits/basic_string.h
FN:6149,_ZSteqIcEN9__gnu_cxx11__enable_ifIXsrSt9__is_charIT_E7__valueEbE6__typeERKNSt7__cxx1112basic_stringIS3_St11char_traitsIS3_ESaIS3_EEESE_
FNDA:14568,_ZSteqIcEN9__gnu_cxx11__enable_ifIXsrSt9__is_charIT_E7__valueEbE6__typeERKNSt7__cxx1112basic_stringIS3_St11char_traitsIS3_ESaIS3_EEESE_
DA:150,5151900
DA:159,5145
DA:160,10177
DA:178,4958260
DA:179,4948200
DA:182,5156820
DA:183,5156820
DA:186,25580300
DA:190,15209
DA:193,10177
DA:200,5156930
DA:203,5156930
DA:210,4953230
DA:211,4948200
DA:214,5156820
DA:216,5156820
DA:217,5156820
DA:221,5156930
DA:222,5156930
DA:229,5151900
DA:231,5151900
DA:232,10095200
DA:236,4943280
DA:237,4943280
DA:243,5145
DA:247,5145
DA:263,5145
DA:266,10290
DA:286,4948310
DA:287,4943280
DA:290,5145
DA:291,5145
DA:346,5151780
DA:348,5151780
DA:349,0
DA:351,5151780
DA:392,5032
DA:393,5032
DA:396,5146750
DA:398,5146750
DA:448,5145
DA:450,5145
DA:451,5145
DA:552,5032
DA:553,5032
DA:555,5032
DA:557,0
DA:562,5032
DA:563,5032
DA:569,5032
DA:570,5032
DA:571,5032
DA:657,5151900
DA:658,5146870
DA:930,29136
DA:936,10177
DA:2312,5161320
DA:2313,5161320
DA:6149,14568
DA:6151,14568
DA:6152,14568
DA:6153,14568
DA:6734,5146750
DA:6735,5146750
end_of_record
SF:/usr/include/c++/9/bits/basic_string.tcc
FN:206,_ZNSt7__cxx1112basic_stringIcSt11char_traitsIcESaIcEE12_M_constructIPcEEvT_S7_St20forward_iterator_tag
FNDA:5032,_ZNSt7__cxx1112basic_stringIcSt11char_traitsIcESaIcEE12_M_constructIPcEEvT_S7_St20forward_iterator_tag
FN:206,_ZNSt7__cxx1112basic_stringIcSt11char_traitsIcESaIcEE12_M_constructIPKcEEvT_S8_St20forward_iterator_tag
FNDA:5146750,_ZNSt7__cxx1112basic_stringIcSt11char_traitsIcESaIcEE12_M_constructIPKcEEvT_S8_St20forward_iterator_tag
DA:206,5032
DA:211,5032
DA:212,0
DA:215,5032
DA:217,5032
DA:219,5032
DA:220,5032
DA:225,5032
DA:232,5032
DA:233,5032
DA:206,5146750
DA:211,5146750
DA:212,0
DA:215,5146750
DA:217,5146750
DA:219,4943170
DA:220,4943170
DA:225,5146750
DA:232,5146750
DA:233,5146750
end_of_record
SF:/usr/include/c++/9/ext/new_allocator.h
DA:80,5153410
DA:83,10177
DA:89,5152190
DA:102,5032
DA:104,5032
DA:114,5032
DA:119,4943460
DA:128,4943460
DA:132,5032
DA:144,5032
DA:147,5032
end_of_record
SF:/usr/include/c++/9/bits/move.h
DA:47,5167290
DA:74,39907
DA:99,34655
DA:138,5167290
DA:139,5162250
end_of_record
SF:/usr/include/c++/9/utility
DA:174,19779
DA:175,19779
DA:219,19779
DA:220,19779
end_of_record
SF:/usr/include/c++/9/bits/stl_function.h
DA:355,14568
DA:356,14568
end_of_record
SF:/usr/include/c++/9/bits/allocator.h
DA:138,5153240
DA:141,10177
DA:142,10177
DA:151,179
DA:153,5152190
end_of_record
SF:/usr/include/c++/9/iostream
end_of_record
SF:/usr/include/c++/9/bits/functional_hash.h
DA:195,5146750
DA:197,5146750
end_of_record
SF:/usr/include/c++/9/bits/hashtable.h
FN:1176,_ZNSt10_HashtableINSt7__cxx1112basic_stringIcSt11char_traitsIcESaIcEEESt4pairIKS5_P15implicit_memoryESaISA_ENSt8__detail10_Select1stESt8equal_toIS5_ESt4hashIS5_ENSC_18_Mod_range_hashingENSC_20_Default_ranged_hashENSC_20_Prime_rehash_policyENSC_17_Hashtable_traitsILb1ELb0ELb1EEEE14_M_move_assignEOSN_St17integral_constantIbLb1EE
FNDA:6482,_ZNSt10_HashtableINSt7__cxx1112basic_stringIcSt11char_traitsIcESaIcEEESt4pairIKS5_P15implicit_memoryESaISA_ENSt8__detail10_Select1stESt8equal_toIS5_ESt4hashIS5_ENSC_18_Mod_range_hashingENSC_20_Default_ranged_hashENSC_20_Prime_rehash_policyENSC_17_Hashtable_traitsILb1ELb0ELb1EEEE14_M_move_assignEOSN_St17integral_constantIbLb1EE
FN:1348,_ZNSt10_HashtableINSt7__cxx1112basic_stringIcSt11char_traitsIcESaIcEEESt4pairIKS5_P15implicit_memoryESaISA_ENSt8__detail10_Select1stESt8equal_toIS5_ESt4hashIS5_ENSC_18_Mod_range_hashingENSC_20_Default_ranged_hashENSC_20_Prime_rehash_policyENSC_17_Hashtable_traitsILb1ELb0ELb1EEEED2Ev
FNDA:19068,_ZNSt10_HashtableINSt7__cxx1112basic_stringIcSt11char_traitsIcESaIcEEESt4pairIKS5_P15implicit_memoryESaISA_ENSt8__detail10_Select1stESt8equal_toIS5_ESt4hashIS5_ENSC_18_Mod_range_hashingENSC_20_Default_ranged_hashENSC_20_Prime_rehash_policyENSC_17_Hashtable_traitsILb1ELb0ELb1EEEED2Ev
FN:1412,_ZNSt10_HashtableINSt7__cxx1112basic_stringIcSt11char_traitsIcESaIcEEESt4pairIKS5_P15implicit_memoryESaISA_ENSt8__detail10_Select1stESt8equal_toIS5_ESt4hashIS5_ENSC_18_Mod_range_hashingENSC_20_Default_ranged_hashENSC_20_Prime_rehash_policyENSC_17_Hashtable_traitsILb1ELb0ELb1EEEE4findERS7_
FNDA:5141720,_ZNSt10_HashtableINSt7__cxx1112basic_stringIcSt11char_traitsIcESaIcEEESt4pairIKS5_P15implicit_memoryESaISA_ENSt8__detail10_Select1stESt8equal_toIS5_ESt4hashIS5_ENSC_18_Mod_range_hashingENSC_20_Default_ranged_hashENSC_20_Prime_rehash_policyENSC_17_Hashtable_traitsILb1ELb0ELb1EEEE4findERS7_
FN:1532,_ZNKSt10_HashtableINSt7__cxx1112basic_stringIcSt11char_traitsIcESaIcEEESt4pairIKS5_P15implicit_memoryESaISA_ENSt8__detail10_Select1stESt8equal_toIS5_ESt4hashIS5_ENSC_18_Mod_range_hashingENSC_20_Default_ranged_hashENSC_20_Prime_rehash_policyENSC_17_Hashtable_traitsILb1ELb0ELb1EEEE19_M_find_before_nodeEmRS7_m
FNDA:5146750,_ZNKSt10_HashtableINSt7__cxx1112basic_stringIcSt11char_traitsIcESaIcEEESt4pairIKS5_P15implicit_memoryESaISA_ENSt8__detail10_Select1stESt8equal_toIS5_ESt4hashIS5_ENSC_18_Mod_range_hashingENSC_20_Default_ranged_hashENSC_20_Prime_rehash_policyENSC_17_Hashtable_traitsILb1ELb0ELb1EEEE19_M_find_before_nodeEmRS7_m
FN:1560,_ZNSt10_HashtableINSt7__cxx1112basic_stringIcSt11char_traitsIcESaIcEEESt4pairIKS5_P15implicit_memoryESaISA_ENSt8__detail10_Select1stESt8equal_toIS5_ESt4hashIS5_ENSC_18_Mod_range_hashingENSC_20_Default_ranged_hashENSC_20_Prime_rehash_policyENSC_17_Hashtable_traitsILb1ELb0ELb1EEEE22_M_insert_bucket_beginEmPNSC_10_Hash_nodeISA_Lb1EEE
FNDA:5032,_ZNSt10_HashtableINSt7__cxx1112basic_stringIcSt11char_traitsIcESaIcEEESt4pairIKS5_P15implicit_memoryESaISA_ENSt8__detail10_Select1stESt8equal_toIS5_ESt4hashIS5_ENSC_18_Mod_range_hashingENSC_20_Default_ranged_hashENSC_20_Prime_rehash_policyENSC_17_Hashtable_traitsILb1ELb0ELb1EEEE22_M_insert_bucket_beginEmPNSC_10_Hash_nodeISA_Lb1EEE
FN:1632,_ZNSt10_HashtableINSt7__cxx1112basic_stringIcSt11char_traitsIcESaIcEEESt4pairIKS5_P15implicit_memoryESaISA_ENSt8__detail10_Select1stESt8equal_toIS5_ESt4hashIS5_ENSC_18_Mod_range_hashingENSC_20_Default_ranged_hashENSC_20_Prime_rehash_policyENSC_17_Hashtable_traitsILb1ELb0ELb1EEEE10_M_emplaceIJSA_EEES6_INSC_14_Node_iteratorISA_Lb0ELb1EEEbESt17integral_constantIbLb1EEDpOT_
FNDA:5032,_ZNSt10_HashtableINSt7__cxx1112basic_stringIcSt11char_traitsIcESaIcEEESt4pairIKS5_P15implicit_memoryESaISA_ENSt8__detail10_Select1stESt8equal_toIS5_ESt4hashIS5_ENSC_18_Mod_range_hashingENSC_20_Default_ranged_hashENSC_20_Prime_rehash_policyENSC_17_Hashtable_traitsILb1ELb0ELb1EEEE10_M_emplaceIJSA_EEES6_INSC_14_Node_iteratorISA_Lb0ELb1EEEbESt17integral_constantIbLb1EEDpOT_
FN:1698,_ZNSt10_HashtableINSt7__cxx1112basic_stringIcSt11char_traitsIcESaIcEEESt4pairIKS5_P15implicit_memoryESaISA_ENSt8__detail10_Select1stESt8equal_toIS5_ESt4hashIS5_ENSC_18_Mod_range_hashingENSC_20_Default_ranged_hashENSC_20_Prime_rehash_policyENSC_17_Hashtable_traitsILb1ELb0ELb1EEEE21_M_insert_unique_nodeEmmPNSC_10_Hash_nodeISA_Lb1EEEm
FNDA:5032,_ZNSt10_HashtableINSt7__cxx1112basic_stringIcSt11char_traitsIcESaIcEEESt4pairIKS5_P15implicit_memoryESaISA_ENSt8__detail10_Select1stESt8equal_toIS5_ESt4hashIS5_ENSC_18_Mod_range_hashingENSC_20_Default_ranged_hashENSC_20_Prime_rehash_policyENSC_17_Hashtable_traitsILb1ELb0ELb1EEEE21_M_insert_unique_nodeEmmPNSC_10_Hash_nodeISA_Lb1EEEm
FN:2024,_ZNSt10_HashtableINSt7__cxx1112basic_stringIcSt11char_traitsIcESaIcEEESt4pairIKS5_P15implicit_memoryESaISA_ENSt8__detail10_Select1stESt8equal_toIS5_ESt4hashIS5_ENSC_18_Mod_range_hashingENSC_20_Default_ranged_hashENSC_20_Prime_rehash_policyENSC_17_Hashtable_traitsILb1ELb0ELb1EEEE5clearEv
FNDA:25550,_ZNSt10_HashtableINSt7__cxx1112basic_stringIcSt11char_traitsIcESaIcEEESt4pairIKS5_P15implicit_memoryESaISA_ENSt8__detail10_Select1stESt8equal_toIS5_ESt4hashIS5_ENSC_18_Mod_range_hashingENSC_20_Default_ranged_hashENSC_20_Prime_rehash_policyENSC_17_Hashtable_traitsILb1ELb0ELb1EEEE5clearEv
FN:2061,_ZNSt10_HashtableINSt7__cxx1112basic_stringIcSt11char_traitsIcESaIcEEESt4pairIKS5_P15implicit_memoryESaISA_ENSt8__detail10_Select1stESt8equal_toIS5_ESt4hashIS5_ENSC_18_Mod_range_hashingENSC_20_Default_ranged_hashENSC_20_Prime_rehash_policyENSC_17_Hashtable_traitsILb1ELb0ELb1EEEE9_M_rehashEmRKm
FNDA:179,_ZNSt10_HashtableINSt7__cxx1112basic_stringIcSt11char_traitsIcESaIcEEESt4pairIKS5_P15implicit_memoryESaISA_ENSt8__detail10_Select1stESt8equal_toIS5_ESt4hashIS5_ENSC_18_Mod_range_hashingENSC_20_Default_ranged_hashENSC_20_Prime_rehash_policyENSC_17_Hashtable_traitsILb1ELb0ELb1EEEE9_M_rehashEmRKm
FN:2084,_ZNSt10_HashtableINSt7__cxx1112basic_stringIcSt11char_traitsIcESaIcEEESt4pairIKS5_P15implicit_memoryESaISA_ENSt8__detail10_Select1stESt8equal_toIS5_ESt4hashIS5_ENSC_18_Mod_range_hashingENSC_20_Default_ranged_hashENSC_20_Prime_rehash_policyENSC_17_Hashtable_traitsILb1ELb0ELb1EEEE13_M_rehash_auxEmSt17integral_constantIbLb1EE
FNDA:179,_ZNSt10_HashtableINSt7__cxx1112basic_stringIcSt11char_traitsIcESaIcEEESt4pairIKS5_P15implicit_memoryESaISA_ENSt8__detail10_Select1stESt8equal_toIS5_ESt4hashIS5_ENSC_18_Mod_range_hashingENSC_20_Default_ranged_hashENSC_20_Prime_rehash_policyENSC_17_Hashtable_traitsILb1ELb0ELb1EEEE13_M_rehash_auxEmSt17integral_constantIbLb1EE
DA:342,32211
DA:343,32211
DA:346,6482
DA:347,6482
DA:353,179
DA:355,179
DA:357,0
DA:358,0
DA:361,179
DA:365,25729
DA:367,25729
DA:370,179
DA:374,25729
DA:375,179
DA:383,38740
DA:414,6482
DA:473,6482
DA:478,6482
DA:481,6482
DA:504,47
DA:505,47
DA:512,5141720
DA:513,10268900
DA:528,3241
DA:532,3241
DA:533,3241
DA:639,37112
DA:640,37112
DA:643,5146930
DA:644,179
DA:652,5146750
DA:655,5146750
DA:656,5146750
DA:657,14568
DA:1159,6482
DA:1163,6482
DA:1164,6482
DA:1165,6482
DA:1166,6482
DA:1167,6482
DA:1168,6482
DA:1176,6482
DA:1180,12964
DA:1181,6482
DA:1182,6482
DA:1183,6482
DA:1184,6482
DA:1185,0
DA:1188,6482
DA:1189,6482
DA:1191,6482
DA:1192,6482
DA:1193,6482
DA:1194,6482
DA:1198,6482
DA:1199,0
DA:1200,6482
DA:1201,6482
DA:1348,19068
DA:1352,19068
DA:1353,19068
DA:1354,19068
DA:1412,5141720
DA:1417,5141720
DA:1418,5141720
DA:1419,5141720
DA:1420,5141720
DA:1532,5146750
DA:1538,5146750
DA:1539,5146750
DA:1542,38776
DA:1545,49534
DA:1546,14568
DA:1548,34966
DA:1560,5032
DA:1564,5032
DA:1568,2328
DA:1569,2328
DA:1576,2704
DA:1577,2704
DA:1578,2704
DA:1581,2610
DA:1582,2704
DA:1584,5032
DA:1632,5032
DA:1638,5032
DA:1639,5032
DA:1643,5032
DA:1651,5032
DA:1652,0
DA:1655,0
DA:1656,0
DA:1660,5032
DA:1698,5032
DA:1704,5032
DA:1705,5032
DA:1711,5032
DA:1713,179
DA:1714,179
DA:1717,5032
DA:1720,5032
DA:1721,5032
DA:1722,5032
DA:1724,0
DA:1726,0
DA:1727,0
DA:2024,25550
DA:2028,25550
DA:2029,25550
DA:2030,25550
DA:2031,25550
DA:2032,25550
DA:2061,179
DA:2067,179
DA:2069,0
DA:2073,0
DA:2074,0
DA:2076,179
DA:2084,179
DA:2088,179
DA:2089,179
DA:2090,179
DA:2091,179
DA:2092,6584
DA:2094,6405
DA:2095,6405
DA:2096,6405
DA:2098,5113
DA:2099,5113
DA:2100,5113
DA:2101,5113
DA:2102,5028
DA:2107,1292
DA:2108,1292
DA:2113,179
DA:2114,179
DA:2115,179
DA:2116,179
end_of_record
SF:/usr/include/c++/9/bits/stl_iterator_base_funcs.h
DA:98,5151780
DA:104,5151780
DA:138,5151780
DA:141,5151780
end_of_record
SF:/usr/include/c++/9/bits/stl_pair.h
DA:208,10290
DA:303,113
DA:304,5032
DA:341,10064
DA:342,10064
DA:524,5032
DA:529,5032
end_of_record
SF:/usr/include/c++/9/ext/type_traits.h
DA:152,5151780
end_of_record
SF:/usr/include/c++/9/bits/alloc_traits.h
DA:443,5032
DA:444,5032
DA:469,4943460
DA:470,4943460
DA:482,5032
DA:484,5032
DA:514,5145
DA:515,5145
DA:545,6482
DA:546,6482
DA:553,6482
DA:557,6482
end_of_record
SF:/usr/include/c++/9/ext/aligned_buffer.h
DA:102,39492
DA:104,24924
DA:114,39492
DA:115,39492
end_of_record
SF:/usr/include/x86_64-linux-gnu/bits/string_fortified.h
DA:59,500
DA:71,500
end_of_record
SF:/workspace/vtr-verilog-to-routing/ODIN_II/SRC/implicit_memory.cpp
FN:51,_Z26init_implicit_memory_indexv
FNDA:3241,_Z26init_implicit_memory_indexv
FN:59,_Z22lookup_implicit_memoryPcS_
FNDA:439429,_Z22lookup_implicit_memoryPcS_
FN:75,_Z36lookup_implicit_memory_reference_astPcP10ast_node_t
FNDA:701448,_Z36lookup_implicit_memory_reference_astPcP10ast_node_t
FN:89,_Z38is_valid_implicit_memory_reference_astPcP10ast_node_t
FNDA:220,_Z38is_valid_implicit_memory_reference_astPcP10ast_node_t
FN:100,_Z34is_signal_list_connected_to_memoryP15implicit_memoryP13signal_list_tPKc
FNDA:440,_Z34is_signal_list_connected_to_memoryP15implicit_memoryP13signal_list_tPKc
FN:144,_Z28create_implicit_memory_blockilPcS_5loc_t
FNDA:113,_Z28create_implicit_memory_blockilPcS_5loc_t
FN:192,_Z33add_input_port_to_implicit_memoryP15implicit_memoryP13signal_list_tPKc
FNDA:491,_Z33add_input_port_to_implicit_memoryP15implicit_memoryP13signal_list_tPKc
FN:201,_Z34add_output_port_to_implicit_memoryP15implicit_memoryP13signal_list_tPKc
FNDA:101,_Z34add_output_port_to_implicit_memoryP15implicit_memoryP13signal_list_tPKc
FN:210,_Z28lookup_implicit_memory_inputPc
FNDA:4702290,_Z28lookup_implicit_memory_inputPc
FN:223,_Z30register_implicit_memory_inputPcP15implicit_memory
FNDA:5385,_Z30register_implicit_memory_inputPcP15implicit_memory
FN:235,_Z48free_implicit_memory_index_and_finalize_memoriesv
FNDA:3241,_Z48free_implicit_memory_index_and_finalize_memoriesv
FN:252,_Z39add_dummy_input_port_to_implicit_memoryP15implicit_memoryiPKc
FNDA:42,_Z39add_dummy_input_port_to_implicit_memoryP15implicit_memoryiPKc
FN:267,_Z40add_dummy_output_port_to_implicit_memoryP15implicit_memoryiPKc
FNDA:39,_Z40add_dummy_output_port_to_implicit_memoryP15implicit_memoryiPKc
FN:288,_Z24finalize_implicit_memoryP15implicit_memory
FNDA:113,_Z24finalize_implicit_memoryP15implicit_memory
FN:385,_Z43collapse_implicit_memory_to_single_port_ramP15implicit_memory
FNDA:86,_Z43collapse_implicit_memory_to_single_port_ramP15implicit_memory
DA:51,3241
DA:52,3241
DA:53,3241
DA:54,3241
DA:59,439429
DA:60,439429
DA:62,878858
DA:64,439429
DA:66,439429
DA:69,440
DA:75,701448
DA:76,701448
DA:77,23326
DA:78,678122
DA:79,0
DA:80,678122
DA:81,416103
DA:89,220
DA:90,220
DA:91,440
DA:93,0
DA:94,0
DA:97,0
DA:100,440
DA:101,440
DA:104,440
DA:107,634
DA:108,500
DA:109,500
DA:110,500
DA:112,1074
DA:113,705
DA:115,705
DA:116,574
DA:117,574
DA:118,466
DA:126,6260
DA:127,5760
DA:130,500
DA:131,500
DA:133,500
DA:144,113
DA:145,113
DA:147,113
DA:153,681
DA:154,568
DA:155,568
DA:159,113
DA:160,3
DA:164,113
DA:165,113
DA:166,113
DA:169,113
DA:170,113
DA:171,113
DA:173,113
DA:175,113
DA:176,113
DA:177,113
DA:178,113
DA:179,113
DA:180,113
DA:181,113
DA:182,113
DA:184,339
DA:186,113
DA:192,533
DA:193,533
DA:195,491
DA:196,491
DA:201,140
DA:202,140
DA:204,101
DA:205,101
DA:210,4702290
DA:211,9404580
DA:213,4702290
DA:216,14128
DA:223,5385
DA:224,5385
DA:225,14757
DA:228,5385
DA:235,3241
DA:236,3241
DA:238,3241
DA:239,160
DA:240,113
DA:241,113
DA:242,113
DA:245,3241
DA:246,3241
DA:252,42
DA:253,42
DA:254,42
DA:255,171
DA:256,129
DA:258,42
DA:260,42
DA:261,42
DA:267,39
DA:268,39
DA:269,39
DA:270,39
DA:271,555
DA:272,516
DA:274,516
DA:275,516
DA:278,39
DA:280,39
DA:281,39
DA:288,113
DA:289,113
DA:291,113
DA:292,113
DA:293,113
DA:294,113
DA:295,113
DA:296,113
DA:297,113
DA:298,113
DA:299,113
DA:302,113
DA:303,5145
DA:304,5032
DA:305,5032
DA:307,4464
DA:309,4380
DA:311,502
DA:313,232
DA:315,131
DA:317,113
DA:318,113
DA:322,3853
DA:323,3740
DA:324,3740
DA:326,222
DA:327,222
DA:330,113
DA:331,0
DA:332,0
DA:335,113
DA:336,113
DA:338,113
DA:339,113
DA:340,113
DA:341,113
DA:342,113
DA:345,113
DA:346,27
DA:347,27
DA:348,27
DA:349,27
DA:352,113
DA:353,86
DA:355,113
DA:356,0
DA:365,113
DA:366,113
DA:367,113
DA:368,113
DA:369,77
DA:370,77
DA:371,59
DA:373,18
DA:376,113
DA:385,86
DA:386,86
DA:390,86
DA:391,4398
DA:392,4312
DA:393,4312
DA:394,4226
DA:399,3742
DA:400,3656
DA:401,3656
DA:404,86
DA:405,86
DA:406,86
DA:407,86
end_of_record
SF:/usr/include/c++/9/bits/ptr_traits.h
DA:146,5162250
DA:147,5162250
DA:156,5032
end_of_record
SF:/usr/include/c++/9/bits/unordered_map.h
DA:102,3241
DA:141,6482
DA:304,3241
DA:305,3241
DA:324,47
DA:325,47
DA:346,5141770
DA:347,5141770
DA:585,5032
DA:586,5032
DA:842,6482
DA:843,6482
DA:920,5141720
DA:921,5141720
end_of_record
SF:/usr/include/c++/9/new
DA:173,5032
DA:174,5032
end_of_record
SF:/usr/include/c++/9/ext/alloc_traits.h
DA:97,5145
DA:98,5145
end_of_record
SF:/usr/include/c++/9/bits/char_traits.h
DA:299,5156820
DA:300,5032
DA:315,14568
DA:317,14568
DA:325,14568
DA:361,5151780
DA:363,5151780
DA:365,5151780
end_of_record
TN:
SF:/usr/include/c++/9/bits/stl_algo.h
FN:112,_ZSt9__find_ifIN9__gnu_cxx17__normal_iteratorIPcNSt7__cxx1112basic_stringIcSt11char_traitsIcESaIcEEEEENS0_5__ops16_Iter_equals_valIKcEEET_SE_SE_T0_St26random_access_iterator_tag
FNDA:0,_ZSt9__find_ifIN9__gnu_cxx17__normal_iteratorIPcNSt7__cxx1112basic_stringIcSt11char_traitsIcESaIcEEEEENS0_5__ops16_Iter_equals_valIKcEEET_SE_SE_T0_St26random_access_iterator_tag
FN:860,_ZSt11__remove_ifIN9__gnu_cxx17__normal_iteratorIPcNSt7__cxx1112basic_stringIcSt11char_traitsIcESaIcEEEEENS0_5__ops16_Iter_equals_valIKcEEET_SE_SE_T0_
FNDA:0,_ZSt11__remove_ifIN9__gnu_cxx17__normal_iteratorIPcNSt7__cxx1112basic_stringIcSt11char_traitsIcESaIcEEEEENS0_5__ops16_Iter_equals_valIKcEEET_SE_SE_T0_
DA:112,0
DA:116,0
DA:118,0
DA:120,0
DA:121,0
DA:122,0
DA:124,0
DA:125,0
DA:126,0
DA:128,0
DA:129,0
DA:130,0
DA:132,0
DA:133,0
DA:134,0
DA:137,0
DA:139,0
DA:140,0
DA:141,0
DA:142,0
DA:143,0
DA:144,0
DA:145,0
DA:146,0
DA:147,0
DA:148,0
DA:149,0
DA:150,0
DA:151,0
DA:153,0
DA:159,0
DA:161,0
DA:860,0
DA:863,0
DA:864,0
DA:865,0
DA:866,0
DA:867,0
DA:868,0
DA:869,0
DA:871,0
DA:872,0
DA:874,0
DA:896,0
DA:906,0
end_of_record
SF:/usr/include/c++/9/bits/cpp_type_traits.h
DA:428,0
end_of_record
SF:/usr/include/c++/9/bits/vector.tcc
FN:109,_ZNSt6vectorIN8BitSpace9BitFieldsItEESaIS2_EE12emplace_backIJS2_EEEvDpOT_
FNDA:1406,_ZNSt6vectorIN8BitSpace9BitFieldsItEESaIS2_EE12emplace_backIJS2_EEEvDpOT_
FN:198,_ZNSt6vectorIN8BitSpace9BitFieldsItEESaIS2_EEaSERKS4_
FNDA:0,_ZNSt6vectorIN8BitSpace9BitFieldsItEESaIS2_EEaSERKS4_
FN:426,_ZNSt6vectorIN8BitSpace9BitFieldsItEESaIS2_EE17_M_realloc_insertIJS2_EEEvN9__gnu_cxx17__normal_iteratorIPS2_S4_EEDpOT_
FNDA:0,_ZNSt6vectorIN8BitSpace9BitFieldsItEESaIS2_EE17_M_realloc_insertIJS2_EEEvN9__gnu_cxx17__normal_iteratorIPS2_S4_EEDpOT_
DA:109,1406
DA:112,1406
DA:115,0
DA:117,0
DA:121,1406
DA:125,1406
DA:198,0
DA:201,0
DA:223,0
DA:224,0
DA:226,0
DA:228,0
DA:229,0
DA:230,0
DA:231,0
DA:232,0
DA:233,0
DA:234,0
DA:236,0
DA:238,0
DA:239,0
DA:243,0
DA:245,0
DA:246,0
DA:248,0
DA:250,0
DA:252,0
DA:426,0
DA:435,0
DA:437,0
DA:438,0
DA:439,0
DA:440,0
DA:441,0
DA:449,0
DA:450,0
DA:456,0
DA:461,0
DA:462,0
DA:464,0
DA:466,0
DA:467,0
DA:500,0
DA:501,0
DA:502,0
DA:503,0
DA:504,0
DA:505,0
end_of_record
SF:/workspace/vtr-verilog-to-routing/libs/librtlnumber/src/include/rtl_utils.hpp
FN:47,_Z12_assert_WerrbPKciNSt7__cxx1112basic_stringIcSt11char_traitsIcESaIcEEE
FNDA:0,_Z12_assert_WerrbPKciNSt7__cxx1112basic_stringIcSt11char_traitsIcESaIcEEE
DA:47,0
DA:48,0
DA:49,0
DA:50,0
DA:51,0
DA:52,0
DA:54,0
end_of_record
SF:/usr/include/c++/9/bits/stl_uninitialized.h
DA:76,0
DA:79,0
DA:82,0
DA:83,0
DA:115,0
DA:134,0
DA:140,0
DA:305,0
DA:307,0
DA:905,0
DA:912,0
DA:913,0
DA:949,0
DA:950,0
DA:964,0
end_of_record
SF:/usr/include/c++/9/bits/std_function.h
FN:196,_ZNSt14_Function_base13_Base_managerIZ24resolve_binary_operationP10ast_node_tEUllE1_E10_M_managerERSt9_Any_dataRKS5_St18_Manager_operation
FNDA:568,_ZNSt14_Function_base13_Base_managerIZ24resolve_binary_operationP10ast_node_tEUllE1_E10_M_managerERSt9_Any_dataRKS5_St18_Manager_operation
FN:196,_ZNSt14_Function_base13_Base_managerIZ24resolve_binary_operationP10ast_node_tEUllE0_E10_M_managerERSt9_Any_dataRKS5_St18_Manager_operation
FNDA:1694,_ZNSt14_Function_base13_Base_managerIZ24resolve_binary_operationP10ast_node_tEUllE0_E10_M_managerERSt9_Any_dataRKS5_St18_Manager_operation
FN:196,_ZNSt14_Function_base13_Base_managerIZ24resolve_binary_operationP10ast_node_tEUllE_E10_M_managerERSt9_Any_dataRKS5_St18_Manager_operation
FNDA:1502,_ZNSt14_Function_base13_Base_managerIZ24resolve_binary_operationP10ast_node_tEUllE_E10_M_managerERSt9_Any_dataRKS5_St18_Manager_operation
FN:196,_ZNSt14_Function_base13_Base_managerIZ17resolve_conditionP10ast_node_tS2_PiEUllE_E10_M_managerERSt9_Any_dataRKS6_St18_Manager_operation
FNDA:6,_ZNSt14_Function_base13_Base_managerIZ17resolve_conditionP10ast_node_tS2_PiEUllE_E10_M_managerERSt9_Any_dataRKS6_St18_Manager_operation
FN:196,_ZNSt14_Function_base13_Base_managerIZ17resolve_conditionP10ast_node_tS2_PiEUllE2_E10_M_managerERSt9_Any_dataRKS6_St18_Manager_operation
FNDA:256,_ZNSt14_Function_base13_Base_managerIZ17resolve_conditionP10ast_node_tS2_PiEUllE2_E10_M_managerERSt9_Any_dataRKS6_St18_Manager_operation
FN:196,_ZNSt14_Function_base13_Base_managerIZ17resolve_conditionP10ast_node_tS2_PiEUllE1_E10_M_managerERSt9_Any_dataRKS6_St18_Manager_operation
FNDA:6,_ZNSt14_Function_base13_Base_managerIZ17resolve_conditionP10ast_node_tS2_PiEUllE1_E10_M_managerERSt9_Any_dataRKS6_St18_Manager_operation
FN:196,_ZNSt14_Function_base13_Base_managerIZ17resolve_conditionP10ast_node_tS2_PiEUllE0_E10_M_managerERSt9_Any_dataRKS6_St18_Manager_operation
FNDA:6,_ZNSt14_Function_base13_Base_managerIZ17resolve_conditionP10ast_node_tS2_PiEUllE0_E10_M_managerERSt9_Any_dataRKS6_St18_Manager_operation
FN:283,_ZNSt17_Function_handlerIFllEZ24resolve_binary_operationP10ast_node_tEUllE1_E9_M_invokeERKSt9_Any_dataOl
FNDA:1790,_ZNSt17_Function_handlerIFllEZ24resolve_binary_operationP10ast_node_tEUllE1_E9_M_invokeERKSt9_Any_dataOl
FN:283,_ZNSt17_Function_handlerIFblEZ17resolve_conditionP10ast_node_tS2_PiEUllE_E9_M_invokeERKSt9_Any_dataOl
FNDA:18,_ZNSt17_Function_handlerIFblEZ17resolve_conditionP10ast_node_tS2_PiEUllE_E9_M_invokeERKSt9_Any_dataOl
FN:283,_ZNSt17_Function_handlerIFblEZ17resolve_conditionP10ast_node_tS2_PiEUllE0_E9_M_invokeERKSt9_Any_dataOl
FNDA:48,_ZNSt17_Function_handlerIFblEZ17resolve_conditionP10ast_node_tS2_PiEUllE0_E9_M_invokeERKSt9_Any_dataOl
FN:283,_ZNSt17_Function_handlerIFblEZ17resolve_conditionP10ast_node_tS2_PiEUllE1_E9_M_invokeERKSt9_Any_dataOl
FNDA:18,_ZNSt17_Function_handlerIFblEZ17resolve_conditionP10ast_node_tS2_PiEUllE1_E9_M_invokeERKSt9_Any_dataOl
FN:283,_ZNSt17_Function_handlerIFblEZ17resolve_conditionP10ast_node_tS2_PiEUllE2_E9_M_invokeERKSt9_Any_dataOl
FNDA:1644,_ZNSt17_Function_handlerIFblEZ17resolve_conditionP10ast_node_tS2_PiEUllE2_E9_M_invokeERKSt9_Any_dataOl
FN:283,_ZNSt17_Function_handlerIFllEZ24resolve_binary_operationP10ast_node_tEUllE_E9_M_invokeERKSt9_Any_dataOl
FNDA:1502,_ZNSt17_Function_handlerIFllEZ24resolve_binary_operationP10ast_node_tEUllE_E9_M_invokeERKSt9_Any_dataOl
FN:283,_ZNSt17_Function_handlerIFllEZ24resolve_binary_operationP10ast_node_tEUllE0_E9_M_invokeERKSt9_Any_dataOl
FNDA:1694,_ZNSt17_Function_handlerIFllEZ24resolve_binary_operationP10ast_node_tEUllE0_E9_M_invokeERKSt9_Any_dataOl
FN:480,_ZNSt8functionIFblEEaSEOS1_
FNDA:30,_ZNSt8functionIFblEEaSEOS1_
FN:653,_ZNSt8functionIFblEEC2ERKS1_
FNDA:30,_ZNSt8functionIFblEEC2ERKS1_
FN:667,_ZNSt8functionIFblEEC2IZ17resolve_conditionP10ast_node_tS4_PiEUllE1_vvEET_
FNDA:6,_ZNSt8functionIFblEEC2IZ17resolve_conditionP10ast_node_tS4_PiEUllE1_vvEET_
FN:667,_ZNSt8functionIFblEEC2IZ17resolve_conditionP10ast_node_tS4_PiEUllE0_vvEET_
FNDA:6,_ZNSt8functionIFblEEC2IZ17resolve_conditionP10ast_node_tS4_PiEUllE0_vvEET_
FN:667,_ZNSt8functionIFblEEC2IZ17resolve_conditionP10ast_node_tS4_PiEUllE_vvEET_
FNDA:6,_ZNSt8functionIFblEEC2IZ17resolve_conditionP10ast_node_tS4_PiEUllE_vvEET_
DA:87,7992
DA:88,6744
DA:92,4002
DA:93,4002
DA:97,6744
DA:98,8438
DA:151,6714
DA:155,6630
DA:156,6630
DA:159,84
DA:165,30
DA:167,1724
DA:168,30
DA:182,3990
DA:184,3990
DA:185,3990
DA:196,568
DA:199,568
DA:202,0
DA:203,0
DA:204,0
DA:206,0
DA:207,0
DA:208,0
DA:211,0
DA:215,568
DA:218,568
DA:196,1694
DA:199,1694
DA:202,0
DA:203,0
DA:204,0
DA:206,0
DA:207,0
DA:208,0
DA:215,1694
DA:218,1694
DA:196,1502
DA:199,1502
DA:202,0
DA:203,0
DA:204,0
DA:206,0
DA:207,0
DA:208,0
DA:211,0
DA:215,1502
DA:218,1502
DA:196,256
DA:199,256
DA:202,0
DA:203,0
DA:204,0
DA:206,0
DA:207,0
DA:208,0
DA:211,30
DA:215,226
DA:218,256
DA:196,6
DA:199,6
DA:202,0
DA:203,0
DA:204,0
DA:206,0
DA:207,0
DA:208,0
DA:210,0
DA:211,0
DA:214,6
DA:215,6
DA:216,6
DA:218,6
DA:196,6
DA:199,6
DA:202,0
DA:203,0
DA:204,0
DA:206,0
DA:207,0
DA:208,0
DA:210,0
DA:211,0
DA:214,6
DA:215,6
DA:216,6
DA:218,6
DA:196,6
DA:199,6
DA:202,0
DA:203,0
DA:204,0
DA:206,0
DA:207,0
DA:208,0
DA:210,0
DA:211,0
DA:214,6
DA:215,6
DA:216,6
DA:218,6
DA:222,3978
DA:223,3990
DA:242,3978
DA:247,3960
DA:248,3960
DA:251,12
DA:252,12
DA:255,4252
DA:257,4656
DA:258,0
DA:259,2200
DA:260,3978
DA:263,6744
DA:283,1790
DA:285,1790
DA:286,1790
DA:283,1694
DA:285,1694
DA:286,1694
DA:283,1502
DA:285,1502
DA:286,1502
DA:283,1644
DA:285,1644
DA:286,1644
DA:283,18
DA:285,18
DA:286,18
DA:283,48
DA:285,48
DA:286,48
DA:283,18
DA:285,18
DA:286,18
DA:369,6196
DA:403,214
DA:404,214
DA:423,30
DA:425,30
DA:480,30
DA:482,60
DA:483,30
DA:547,30
DA:549,30
DA:550,30
DA:551,30
DA:564,30
DA:565,30
DA:653,30
DA:655,0
DA:657,30
DA:659,30
DA:660,30
DA:661,30
DA:663,30
DA:667,6
DA:669,0
DA:673,6
DA:675,6
DA:676,6
DA:677,6
DA:679,6
DA:667,6
DA:669,0
DA:673,6
DA:675,6
DA:676,6
DA:677,6
DA:679,6
DA:667,6
DA:669,0
DA:673,6
DA:675,6
DA:676,6
DA:677,6
DA:679,6
DA:667,3960
DA:669,1694
DA:673,2266
DA:675,3960
DA:676,3960
DA:677,2266
DA:679,1694
DA:683,6714
DA:686,6714
DA:687,0
DA:688,6714
end_of_record
SF:/usr/include/c++/9/bits/basic_string.tcc
FN:206,_ZNSt7__cxx1112basic_stringIcSt11char_traitsIcESaIcEE12_M_constructIPcEEvT_S7_St20forward_iterator_tag
FNDA:2890,_ZNSt7__cxx1112basic_stringIcSt11char_traitsIcESaIcEE12_M_constructIPcEEvT_S7_St20forward_iterator_tag
FN:206,_ZNSt7__cxx1112basic_stringIcSt11char_traitsIcESaIcEE12_M_constructIPKcEEvT_S8_St20forward_iterator_tag
FNDA:0,_ZNSt7__cxx1112basic_stringIcSt11char_traitsIcESaIcEE12_M_constructIPKcEEvT_S8_St20forward_iterator_tag
FN:1158,_ZStplIcSt11char_traitsIcESaIcEENSt7__cxx1112basic_stringIT_T0_T1_EEPKS5_RKS8_
FNDA:0,_ZStplIcSt11char_traitsIcESaIcEENSt7__cxx1112basic_stringIT_T0_T1_EEPKS5_RKS8_
DA:206,2890
DA:211,2890
DA:212,0
DA:215,2890
DA:217,2890
DA:219,0
DA:220,0
DA:225,2890
DA:232,2890
DA:233,2890
DA:206,0
DA:211,0
DA:212,0
DA:215,0
DA:217,0
DA:219,0
DA:220,0
DA:225,0
DA:232,0
DA:233,0
DA:1158,0
DA:1164,0
DA:1165,0
DA:1166,0
DA:1167,0
DA:1168,0
DA:1169,0
end_of_record
SF:/usr/include/c++/9/bits/predefined_ops.h
DA:234,0
DA:240,0
DA:241,0
DA:246,0
DA:247,0
end_of_record
SF:/usr/include/c++/9/bits/basic_string.h
FN:6057,_ZStplIcSt11char_traitsIcESaIcEENSt7__cxx1112basic_stringIT_T0_T1_EERKS8_PKS5_
FNDA:748,_ZStplIcSt11char_traitsIcESaIcEENSt7__cxx1112basic_stringIT_T0_T1_EERKS8_PKS5_
FN:6085,_ZStplIcSt11char_traitsIcESaIcEENSt7__cxx1112basic_stringIT_T0_T1_EEOS8_RKS8_
FNDA:0,_ZStplIcSt11char_traitsIcESaIcEENSt7__cxx1112basic_stringIT_T0_T1_EEOS8_RKS8_
FN:6091,_ZStplIcSt11char_traitsIcESaIcEENSt7__cxx1112basic_stringIT_T0_T1_EERKS8_OS8_
FNDA:368,_ZStplIcSt11char_traitsIcESaIcEENSt7__cxx1112basic_stringIT_T0_T1_EERKS8_OS8_
FN:6097,_ZStplIcSt11char_traitsIcESaIcEENSt7__cxx1112basic_stringIT_T0_T1_EEOS8_S9_
FNDA:1116,_ZStplIcSt11char_traitsIcESaIcEENSt7__cxx1112basic_stringIT_T0_T1_EEOS8_S9_
FN:6109,_ZStplIcSt11char_traitsIcESaIcEENSt7__cxx1112basic_stringIT_T0_T1_EEPKS5_OS8_
FNDA:0,_ZStplIcSt11char_traitsIcESaIcEENSt7__cxx1112basic_stringIT_T0_T1_EEPKS5_OS8_
FN:6121,_ZStplIcSt11char_traitsIcESaIcEENSt7__cxx1112basic_stringIT_T0_T1_EEOS8_PKS5_
FNDA:1484,_ZStplIcSt11char_traitsIcESaIcEENSt7__cxx1112basic_stringIT_T0_T1_EEOS8_PKS5_
DA:150,7722
DA:156,2890
DA:157,2890
DA:159,748
DA:160,3716
DA:178,2968
DA:179,0
DA:182,5858
DA:183,5858
DA:186,23902
DA:190,9574
DA:193,1864
DA:200,11806
DA:203,11806
DA:210,0
DA:211,0
DA:214,5858
DA:216,5858
DA:217,0
DA:221,11806
DA:222,11806
DA:229,7722
DA:231,3638
DA:232,7722
DA:236,0
DA:237,0
DA:243,3638
DA:247,3638
DA:263,3638
DA:266,2890
DA:286,2968
DA:287,0
DA:290,748
DA:291,748
DA:346,2890
DA:348,2890
DA:349,1814
DA:351,2890
DA:392,2890
DA:393,2890
DA:396,0
DA:398,0
DA:431,0
DA:433,0
DA:434,0
DA:448,748
DA:450,0
DA:451,0
DA:540,0
DA:541,0
DA:542,0
DA:552,2968
DA:553,2968
DA:555,2968
DA:557,2968
DA:562,0
DA:563,0
DA:569,2968
DA:570,2968
DA:571,2968
DA:625,2890
DA:627,2890
DA:628,2890
DA:657,3638
DA:658,3638
DA:826,0
DA:827,0
DA:842,0
DA:843,0
DA:930,0
DA:936,748
DA:993,0
DA:995,1116
DA:1063,0
DA:1070,0
DA:1143,0
DA:1146,0
DA:1221,1116
DA:1222,0
DA:1639,368
DA:1641,368
DA:1864,0
DA:1867,0
DA:2300,1116
DA:2301,1116
DA:2312,0
DA:2313,0
DA:2393,0
DA:2396,0
DA:6057,748
DA:6060,748
DA:6061,748
DA:6062,748
DA:6085,0
DA:6087,0
DA:6091,368
DA:6093,368
DA:6097,1116
DA:6100,1116
DA:6101,2232
DA:6102,1116
DA:6103,0
DA:6104,1116
DA:6109,0
DA:6111,0
DA:6121,1484
DA:6123,1484
DA:6416,0
DA:6421,0
DA:6546,1484
DA:6547,1484
DA:6548,1116
DA:6557,1406
DA:6558,1406
DA:6559,1406
DA:6562,0
DA:6563,0
DA:6565,0
end_of_record
SF:/usr/include/x86_64-linux-gnu/bits/stdio2.h
DA:105,0
DA:107,0
end_of_record
SF:/usr/include/c++/9/bits/allocator.h
DA:138,5412
DA:141,8012
DA:142,8012
DA:153,8314
end_of_record
SF:/usr/include/c++/9/bits/stl_vector.h
FN:1753,_ZNKSt6vectorIN8BitSpace9BitFieldsItEESaIS2_EE12_M_check_lenEmPKc
FNDA:0,_ZNKSt6vectorIN8BitSpace9BitFieldsItEESaIS2_EE12_M_check_lenEmPKc
DA:94,1406
DA:95,1406
DA:106,1406
DA:108,1406
DA:109,1406
DA:110,1406
DA:114,1406
DA:118,1406
DA:119,1406
DA:120,1406
DA:121,1406
DA:125,2812
DA:128,1406
DA:130,1406
DA:133,1406
DA:134,1406
DA:273,0
DA:274,0
DA:277,1406
DA:278,1406
DA:281,1406
DA:282,1406
DA:285,1406
DA:290,1406
DA:291,1406
DA:330,2812
DA:332,4218
DA:333,2812
DA:334,2812
DA:347,2812
DA:350,0
DA:351,2812
DA:453,0
DA:462,0
DA:466,0
DA:484,1406
DA:494,1406
DA:495,1406
DA:675,2812
DA:677,2812
DA:678,2812
DA:680,4218
DA:706,1406
DA:708,1406
DA:711,1406
DA:808,0
DA:809,0
DA:817,0
DA:818,0
DA:826,1406
DA:827,1406
DA:835,0
DA:836,0
DA:915,0
DA:916,0
DA:920,0
DA:921,0
DA:995,0
DA:997,0
DA:1040,0
DA:1043,0
DA:1200,1406
DA:1201,1406
DA:1505,0
DA:1508,0
DA:1511,0
DA:1512,0
DA:1753,0
DA:1755,0
DA:1756,0
DA:1758,0
DA:1759,0
DA:1773,0
DA:1780,0
DA:1781,0
DA:1812,1406
DA:1814,1406
DA:1815,1406
DA:1816,1406
DA:1817,1406
end_of_record
SF:/usr/include/c++/9/bits/move.h
DA:47,4936
DA:74,13140
DA:99,10536
DA:138,18412
DA:139,11360
DA:182,30
DA:193,30
DA:194,30
DA:195,30
end_of_record
SF:/usr/include/c++/9/bits/stl_algobase.h
DA:198,0
DA:222,0
DA:227,0
DA:228,0
DA:280,0
DA:289,0
DA:290,0
DA:295,0
DA:375,0
DA:384,0
DA:385,0
DA:386,0
DA:387,0
DA:393,0
DA:398,0
DA:404,0
DA:438,0
DA:440,0
DA:465,0
DA:474,0
end_of_record
SF:/usr/include/c++/9/ext/new_allocator.h
DA:80,5412
DA:83,8012
DA:89,8314
DA:119,1406
DA:128,1406
DA:132,0
DA:144,0
DA:147,0
DA:151,0
end_of_record
SF:/usr/include/c++/9/bits/stl_construct.h
DA:74,0
DA:75,0
DA:117,2812
DA:127,2812
DA:137,2812
DA:203,0
DA:206,2812
end_of_record
SF:/workspace/vtr-verilog-to-routing/libs/librtlnumber/src/include/internal_bits.hpp
FN:308,_ZN8BitSpaceL13bits_to_hex_cEsb
FNDA:0,_ZN8BitSpaceL13bits_to_hex_cEsb
FN:352,_ZN8BitSpaceL8c_to_bitEc
FNDA:0,_ZN8BitSpaceL8c_to_bitEc
FN:454,_ZN8BitSpace11VerilogBitsC2Emh
FNDA:1406,_ZN8BitSpace11VerilogBitsC2Emh
FN:510,_ZN8BitSpace11VerilogBits12to_printableB5cxx11Ev
FNDA:0,_ZN8BitSpace11VerilogBits12to_printableB5cxx11Ev
FN:520,_ZN8BitSpace11VerilogBits4getcEv
FNDA:0,_ZN8BitSpace11VerilogBits4getcEv
FN:615,_ZN8BitSpace11VerilogBits6resizeEhm
FNDA:0,_ZN8BitSpace11VerilogBits6resizeEhm
FN:722,_ZN7VNumberC2EPS_
FNDA:0,_ZN7VNumberC2EPS_
FN:738,_ZN7VNumberC2El
FNDA:1406,_ZN7VNumberC2El
FN:751,_ZN7VNumber9get_valueEv
FNDA:0,_ZN7VNumber9get_valueEv
FN:777,_ZN7VNumber9to_stringB5cxx11Ebb
FNDA:0,_ZN7VNumber9to_stringB5cxx11Ebb
FN:792,_ZN7VNumber10to_UstringB5cxx11Eb
FNDA:0,_ZN7VNumber10to_UstringB5cxx11Eb
FN:807,_ZN7VNumber12to_log2radixB5cxx11Esbb
FNDA:0,_ZN7VNumber12to_log2radixB5cxx11Esbb
FN:832,_ZN7VNumber9to_base10B5cxx11Ebb
FNDA:0,_ZN7VNumber9to_base10B5cxx11Ebb
FN:857,_ZN7VNumber20to_verilog_bitstringB5cxx11Ev
FNDA:0,_ZN7VNumber20to_verilog_bitstringB5cxx11Ev
FN:864,_ZN7VNumber10to_vstringB5cxx11Ec
FNDA:0,_ZN7VNumber10to_vstringB5cxx11Ec
FN:902,_ZN7VNumber9set_valueERKNSt7__cxx1112basic_stringIcSt11char_traitsIcESaIcEEE
FNDA:0,_ZN7VNumber9set_valueERKNSt7__cxx1112basic_stringIcSt11char_traitsIcESaIcEEE
FN:996,_ZN7VNumber9set_valueEl
FNDA:1406,_ZN7VNumber9set_valueEl
FN:1007,_ZN7VNumber16get_bit_from_msbEm
FNDA:0,_ZN7VNumber16get_bit_from_msbEm
FN:1012,_ZN7VNumber16get_bit_from_lsbEm
FNDA:0,_ZN7VNumber16get_bit_from_lsbEm
DA:286,0
DA:287,0
DA:290,0
DA:291,0
DA:292,0
DA:293,0
DA:294,0
DA:295,0
DA:299,0
DA:300,0
DA:303,0
DA:304,0
DA:308,0
DA:309,0
DA:312,0
DA:313,0
DA:314,0
DA:315,0
DA:316,0
DA:317,0
DA:318,0
DA:319,0
DA:320,0
DA:321,0
DA:322,0
DA:323,0
DA:324,0
DA:325,0
DA:326,0
DA:327,0
DA:328,0
DA:329,0
DA:330,0
DA:331,0
DA:332,0
DA:333,0
DA:334,0
DA:335,0
DA:336,0
DA:337,0
DA:338,0
DA:339,0
DA:340,0
DA:341,0
DA:342,0
DA:343,0
DA:346,0
DA:349,0
DA:352,0
DA:353,0
DA:356,0
DA:357,0
DA:358,0
DA:359,0
DA:360,0
DA:361,0
DA:362,0
DA:363,0
DA:365,0
DA:367,0
DA:376,0
DA:377,0
DA:378,0
DA:379,0
DA:384,1406
DA:385,1406
DA:390,0
DA:391,0
DA:392,0
DA:394,0
DA:398,0
DA:399,0
DA:401,0
DA:402,0
DA:404,0
DA:405,0
DA:406,0
DA:408,0
DA:409,0
DA:416,0
DA:418,0
DA:419,0
DA:425,0
DA:435,0
DA:440,0
DA:441,0
DA:454,1406
DA:455,1406
DA:456,1406
DA:458,1406
DA:460,2812
DA:461,2812
DA:463,1406
DA:470,0
DA:471,0
DA:478,0
DA:486,0
DA:489,0
DA:497,0
DA:500,0
DA:507,0
DA:510,0
DA:511,0
DA:513,0
DA:514,0
DA:517,0
DA:520,0
DA:521,0
DA:522,0
DA:526,0
DA:527,0
DA:561,0
DA:562,0
DA:563,0
DA:615,0
DA:619,0
DA:620,0
DA:621,0
DA:623,0
DA:624,0
DA:625,0
DA:627,0
DA:628,0
DA:629,0
DA:635,0
DA:638,0
DA:640,0
DA:642,0
DA:643,0
DA:644,0
DA:647,0
DA:648,0
DA:649,0
DA:652,0
DA:674,2812
DA:722,0
DA:723,0
DA:724,0
DA:725,0
DA:726,0
DA:738,1406
DA:739,1406
DA:740,1406
DA:751,0
DA:752,0
DA:754,0
DA:757,0
DA:758,0
DA:759,0
DA:760,0
DA:763,0
DA:764,0
DA:766,0
DA:767,0
DA:768,0
DA:769,0
DA:771,0
DA:774,0
DA:777,0
DA:779,0
DA:780,0
DA:781,0
DA:782,0
DA:783,0
DA:785,0
DA:789,0
DA:792,0
DA:794,0
DA:795,0
DA:796,0
DA:797,0
DA:798,0
DA:800,0
DA:804,0
DA:807,0
DA:808,0
DA:811,0
DA:812,0
DA:813,0
DA:816,0
DA:818,0
DA:819,0
DA:820,0
DA:822,0
DA:829,0
DA:832,0
DA:833,0
DA:834,0
DA:835,0
DA:837,0
DA:839,0
DA:840,0
DA:841,0
DA:842,0
DA:843,0
DA:845,0
DA:847,0
DA:848,0
DA:850,0
DA:853,0
DA:857,0
DA:858,0
DA:859,0
DA:861,0
DA:864,0
DA:865,0
DA:866,0
DA:867,0
DA:868,0
DA:873,0
DA:874,0
DA:875,0
DA:876,0
DA:877,0
DA:878,0
DA:879,0
DA:880,0
DA:881,0
DA:882,0
DA:883,0
DA:884,0
DA:885,0
DA:886,0
DA:887,0
DA:888,0
DA:890,0
DA:891,0
DA:892,0
DA:894,0
DA:896,0
DA:902,0
DA:903,0
DA:904,0
DA:907,0
DA:912,0
DA:913,0
DA:914,0
DA:915,0
DA:918,0
DA:919,0
DA:922,0
DA:925,0
DA:926,0
DA:928,0
DA:929,0
DA:932,0
DA:933,0
DA:934,0
DA:936,0
DA:937,0
DA:938,0
DA:942,0
DA:943,0
DA:944,0
DA:945,0
DA:948,0
DA:949,0
DA:952,0
DA:953,0
DA:957,0
DA:958,0
DA:959,0
DA:960,0
DA:961,0
DA:962,0
DA:963,0
DA:964,0
DA:965,0
DA:966,0
DA:967,0
DA:969,0
DA:973,0
DA:974,0
DA:979,0
DA:981,0
DA:982,0
DA:983,0
DA:987,0
DA:988,0
DA:989,0
DA:990,0
DA:993,0
DA:996,1406
DA:997,1406
DA:998,1406
DA:1000,0
DA:1001,0
DA:1007,0
DA:1008,0
DA:1009,0
DA:1012,0
DA:1013,0
DA:1014,0
DA:1016,0
DA:1019,0
DA:1020,0
DA:1030,0
DA:1031,0
DA:1034,0
DA:1035,0
DA:1038,0
DA:1039,0
DA:1050,0
DA:1051,0
DA:1066,0
DA:1067,0
end_of_record
SF:/usr/include/c++/9/bits/stl_iterator_base_funcs.h
DA:98,2890
DA:104,2890
DA:138,2890
DA:141,2890
end_of_record
SF:/workspace/vtr-verilog-to-routing/ODIN_II/SRC/include/ast_loop_unroll.h
DA:20,184
DA:21,184
DA:25,184
DA:26,184
end_of_record
SF:/usr/include/c++/9/bits/stl_iterator.h
DA:806,1406
DA:811,0
DA:815,0
DA:819,0
DA:827,0
DA:829,0
DA:830,0
DA:859,0
DA:860,0
DA:871,0
DA:893,0
DA:896,0
DA:907,0
DA:910,0
DA:989,0
DA:992,0
DA:1010,0
DA:1012,0
end_of_record
SF:/usr/include/c++/9/iostream
end_of_record
SF:/workspace/vtr-verilog-to-routing/ODIN_II/SRC/ast_loop_unroll.cpp
FN:19,_Z15unroll_for_loopP10ast_node_tS0_PiP12sc_hierarchyb
FNDA:184,_Z15unroll_for_loopP10ast_node_tS0_PiP12sc_hierarchyb
FN:120,_Z11resolve_forP10ast_node_t
FNDA:184,_Z11resolve_forP10ast_node_t
FN:175,_Z21resolve_pre_conditionP10ast_node_tPS0_
FNDA:184,_Z21resolve_pre_conditionP10ast_node_tPS0_
FN:196,_Z24is_unsupported_conditionP10ast_node_tS0_
FNDA:244,_Z24is_unsupported_conditionP10ast_node_tS0_
FN:212,_Z17resolve_conditionP10ast_node_tS0_Pi
FNDA:214,_Z17resolve_conditionP10ast_node_tS0_Pi
FN:239,_ZZ17resolve_conditionP10ast_node_tS0_PiENKUllE_clEl
FNDA:18,_ZZ17resolve_conditionP10ast_node_tS0_PiENKUllE_clEl
FN:249,_ZZ17resolve_conditionP10ast_node_tS0_PiENKUllE0_clEl
FNDA:48,_ZZ17resolve_conditionP10ast_node_tS0_PiENKUllE0_clEl
FN:256,_ZZ17resolve_conditionP10ast_node_tS0_PiENKUllE1_clEl
FNDA:18,_ZZ17resolve_conditionP10ast_node_tS0_PiENKUllE1_clEl
FN:264,_ZZ17resolve_conditionP10ast_node_tS0_PiENKUllE2_clEl.isra.0
FNDA:1644,_ZZ17resolve_conditionP10ast_node_tS0_PiENKUllE2_clEl.isra.0
FN:289,_Z19is_unsupported_postP10ast_node_tS0_
FNDA:364,_Z19is_unsupported_postP10ast_node_tS0_
FN:293,_Z24resolve_binary_operationP10ast_node_t
FNDA:0,_Z24resolve_binary_operationP10ast_node_t
FN:307,_ZZ24resolve_binary_operationP10ast_node_tENKUllE1_clEl.isra.0
FNDA:1790,_ZZ24resolve_binary_operationP10ast_node_tENKUllE1_clEl.isra.0
FN:332,_Z22resolve_post_conditionP10ast_node_tS0_Pi
FNDA:184,_Z22resolve_post_conditionP10ast_node_tS0_Pi
FN:358,_Z17dup_and_fill_bodyP10ast_node_tS0_PS0_Pi
FNDA:8816,_Z17dup_and_fill_bodyP10ast_node_tS0_PS0_Pi
DA:19,184
DA:20,184
DA:22,184
DA:23,184
DA:25,184
DA:28,184
DA:29,184
DA:30,184
DA:31,184
DA:33,1590
DA:34,1406
DA:35,1406
DA:36,1406
DA:39,1406
DA:40,1116
DA:44,1116
DA:45,1116
DA:47,1116
DA:48,1116
DA:50,1116
DA:51,748
DA:52,748
DA:53,748
DA:56,1496
DA:57,748
DA:58,748
DA:59,748
DA:61,748
DA:62,748
DA:65,368
DA:66,736
DA:67,368
DA:68,368
DA:69,368
DA:73,1116
DA:74,1116
DA:75,290
DA:77,0
DA:78,0
DA:80,0
DA:81,0
DA:83,0
DA:84,0
DA:85,0
DA:88,0
DA:89,0
DA:90,0
DA:91,0
DA:93,0
DA:94,0
DA:97,0
DA:98,0
DA:102,184
DA:103,184
DA:105,184
DA:109,184
DA:110,86
DA:113,184
DA:114,184
DA:120,184
DA:121,184
DA:122,184
DA:123,184
DA:125,184
DA:126,184
DA:127,184
DA:128,184
DA:130,184
DA:131,184
DA:132,0
DA:135,184
DA:136,184
DA:137,184
DA:138,0
DA:141,368
DA:142,184
DA:143,0
DA:146,368
DA:147,1590
DA:148,1406
DA:149,1406
DA:150,0
DA:153,1406
DA:154,2812
DA:155,2812
DA:157,1406
DA:159,2812
DA:162,184
DA:163,368
DA:175,184
DA:183,184
DA:186,184
DA:187,184
DA:188,184
DA:196,244
DA:197,244
DA:199,244
DA:201,244
DA:203,244
DA:205,244
DA:212,214
DA:222,214
DA:223,0
DA:224,0
DA:226,214
DA:228,428
DA:229,214
DA:230,214
DA:231,214
DA:232,6
DA:233,6
DA:234,6
DA:235,0
DA:236,6
DA:237,6
DA:238,0
DA:239,24
DA:240,48
DA:241,6
DA:242,6
DA:243,6
DA:244,6
DA:245,0
DA:246,6
DA:247,6
DA:248,0
DA:249,54
DA:250,138
DA:251,6
DA:252,6
DA:253,6
DA:254,6
DA:255,214
DA:256,6
DA:257,18
DA:258,18
DA:259,12
DA:260,196
DA:261,196
DA:264,1644
DA:265,1644
DA:266,1574
DA:267,1574
DA:268,60
DA:269,60
DA:270,0
DA:271,0
DA:272,0
DA:273,0
DA:274,10
DA:275,10
DA:276,0
DA:277,0
DA:281,196
DA:289,364
DA:290,364
DA:293,3764
DA:294,0
DA:295,3004
DA:300,1502
DA:301,1502
DA:302,2262
DA:303,3388
DA:304,1694
DA:305,1694
DA:307,2358
DA:308,3580
DA:309,3580
DA:310,1790
DA:311,1598
DA:312,4794
DA:313,96
DA:314,288
DA:315,96
DA:316,288
DA:317,0
DA:318,0
DA:322,568
DA:332,184
DA:344,184
DA:346,184
DA:347,184
DA:350,184
DA:351,0
DA:352,0
DA:354,184
DA:355,184
DA:358,8816
DA:359,8816
DA:360,22190
DA:361,13374
DA:362,13374
DA:363,12046
DA:365,12046
DA:366,2632
DA:367,1992
DA:368,1992
DA:369,1992
DA:371,9414
DA:373,368
DA:374,368
DA:375,368
DA:377,368
DA:380,12046
DA:381,7410
DA:382,18274
DA:383,11232
DA:386,7042
DA:387,7042
DA:392,8816
end_of_record
SF:/usr/include/c++/9/ext/string_conversions.h
FN:99,_ZN9__gnu_cxx12__to_xstringINSt7__cxx1112basic_stringIcSt11char_traitsIcESaIcEEEcEET_PFiPT0_mPKS8_P13__va_list_tagEmSB_z
FNDA:2890,_ZN9__gnu_cxx12__to_xstringINSt7__cxx1112basic_stringIcSt11char_traitsIcESaIcEEEcEET_PFiPT0_mPKS8_P13__va_list_tagEmSB_z
DA:99,2890
DA:105,2890
DA:109,2890
DA:111,2890
DA:113,2890
DA:115,2890
end_of_record
SF:/usr/include/c++/9/bits/locale_facets.h
FN:872,_ZNKSt5ctypeIcE5widenEc
FNDA:0,_ZNKSt5ctypeIcE5widenEc
FN:1084,_ZNKSt5ctypeIcE8do_widenEc
FNDA:0,_ZNKSt5ctypeIcE8do_widenEc
DA:872,0
DA:874,0
DA:875,0
DA:876,0
DA:877,0
DA:1084,0
DA:1085,0
end_of_record
SF:/usr/include/c++/9/ostream
DA:108,0
DA:113,0
DA:565,0
DA:568,0
DA:570,0
DA:571,0
end_of_record
SF:/usr/include/c++/9/bits/alloc_traits.h
DA:469,1406
DA:470,1406
DA:482,0
DA:484,0
DA:495,0
DA:497,0
DA:505,0
DA:506,0
DA:514,748
DA:515,748
DA:545,1406
DA:546,1406
DA:553,1406
DA:557,1406
end_of_record
SF:/usr/include/c++/9/ext/type_traits.h
DA:152,2890
end_of_record
SF:/usr/include/c++/9/bits/ptr_traits.h
DA:146,11360
DA:147,11360
end_of_record
SF:/usr/include/c++/9/bits/char_traits.h
DA:299,7672
DA:300,1814
DA:329,0
DA:335,0
DA:361,4044
DA:363,1076
DA:365,4044
end_of_record
SF:/usr/include/c++/9/ext/alloc_traits.h
DA:97,748
DA:98,748
end_of_record
SF:/usr/include/c++/9/new
DA:173,3990
DA:174,3990
end_of_record
TN:
SF:/usr/include/c++/9/bits/basic_string.h
FN:6057,_ZStplIcSt11char_traitsIcESaIcEENSt7__cxx1112basic_stringIT_T0_T1_EERKS8_PKS5_
FNDA:1856,_ZStplIcSt11char_traitsIcESaIcEENSt7__cxx1112basic_stringIT_T0_T1_EERKS8_PKS5_
FN:6085,_ZStplIcSt11char_traitsIcESaIcEENSt7__cxx1112basic_stringIT_T0_T1_EEOS8_RKS8_
FNDA:5097,_ZStplIcSt11char_traitsIcESaIcEENSt7__cxx1112basic_stringIT_T0_T1_EEOS8_RKS8_
FN:6109,_ZStplIcSt11char_traitsIcESaIcEENSt7__cxx1112basic_stringIT_T0_T1_EEPKS5_OS8_
FNDA:0,_ZStplIcSt11char_traitsIcESaIcEENSt7__cxx1112basic_stringIT_T0_T1_EEPKS5_OS8_
FN:6121,_ZStplIcSt11char_traitsIcESaIcEENSt7__cxx1112basic_stringIT_T0_T1_EEOS8_PKS5_
FNDA:0,_ZStplIcSt11char_traitsIcESaIcEENSt7__cxx1112basic_stringIT_T0_T1_EEOS8_PKS5_
FN:6149,_ZSteqIcEN9__gnu_cxx11__enable_ifIXsrSt9__is_charIT_E7__valueEbE6__typeERKNSt7__cxx1112basic_stringIS3_St11char_traitsIS3_ESaIS3_EEESE_
FNDA:0,_ZSteqIcEN9__gnu_cxx11__enable_ifIXsrSt9__is_charIT_E7__valueEbE6__typeERKNSt7__cxx1112basic_stringIS3_St11char_traitsIS3_ESaIS3_EEESE_
DA:150,152246
DA:156,16
DA:157,16
DA:159,1856
DA:160,6953
DA:178,12213
DA:179,4741
DA:182,137336
DA:183,137336
DA:186,538945
DA:190,12066
DA:193,1856
DA:200,157343
DA:203,157343
DA:210,7116
DA:211,4741
DA:214,137336
DA:216,137336
DA:217,137336
DA:221,157343
DA:222,157343
DA:229,152246
DA:231,145699
DA:232,161250
DA:236,9004
DA:237,9004
DA:243,1872
DA:247,1872
DA:263,1872
DA:266,16
DA:286,14101
DA:287,9004
DA:290,1856
DA:291,1856
DA:346,132239
DA:348,132239
DA:349,3305
DA:351,132239
DA:392,1872
DA:393,1872
DA:396,130367
DA:398,130367
DA:448,1856
DA:450,0
DA:451,0
DA:540,0
DA:541,0
DA:542,0
DA:552,5097
DA:553,5097
DA:555,5097
DA:557,2722
DA:562,2375
DA:563,2375
DA:569,5097
DA:570,5097
DA:571,5097
DA:625,16
DA:627,16
DA:628,16
DA:657,145699
DA:658,144555
DA:704,8196
DA:705,8196
DA:930,8338
DA:936,1856
DA:1168,3241
DA:1169,3241
DA:1177,0
DA:1178,0
DA:1221,8338
DA:1222,3241
DA:2300,90454
DA:2301,90454
DA:2312,0
DA:2313,0
DA:2571,210
DA:2572,210
DA:2655,210
DA:2656,210
DA:6057,1856
DA:6060,1856
DA:6061,1856
DA:6062,1856
DA:6085,5097
DA:6087,5097
DA:6109,0
DA:6111,0
DA:6121,0
DA:6123,0
DA:6149,0
DA:6151,0
DA:6152,0
DA:6153,0
DA:6175,16380
DA:6177,16380
DA:6213,16380
DA:6215,16380
DA:6416,0
DA:6421,0
DA:6546,16
DA:6547,16
DA:6548,16
DA:6562,0
DA:6563,0
DA:6565,0
end_of_record
SF:/workspace/vtr-verilog-to-routing/libs/librtlnumber/src/include/rtl_utils.hpp
FN:47,_Z12_assert_WerrbPKciNSt7__cxx1112basic_stringIcSt11char_traitsIcESaIcEEE
FNDA:0,_Z12_assert_WerrbPKciNSt7__cxx1112basic_stringIcSt11char_traitsIcESaIcEEE
DA:47,0
DA:48,0
DA:49,0
DA:50,0
DA:51,0
DA:52,0
DA:54,0
end_of_record
SF:/usr/include/c++/9/bits/vector.tcc
FN:109,_ZNSt6vectorIN8BitSpace9BitFieldsItEESaIS2_EE12emplace_backIJS2_EEEvDpOT_
FNDA:4162890,_ZNSt6vectorIN8BitSpace9BitFieldsItEESaIS2_EE12emplace_backIJS2_EEEvDpOT_
FN:198,_ZNSt6vectorIN8BitSpace9BitFieldsItEESaIS2_EEaSERKS4_
FNDA:0,_ZNSt6vectorIN8BitSpace9BitFieldsItEESaIS2_EEaSERKS4_
FN:426,_ZNSt6vectorIN8BitSpace9BitFieldsItEESaIS2_EE17_M_realloc_insertIJS2_EEEvN9__gnu_cxx17__normal_iteratorIPS2_S4_EEDpOT_
FNDA:0,_ZNSt6vectorIN8BitSpace9BitFieldsItEESaIS2_EE17_M_realloc_insertIJS2_EEEvN9__gnu_cxx17__normal_iteratorIPS2_S4_EEDpOT_
DA:109,4162890
DA:112,4162890
DA:115,585751
DA:117,585751
DA:121,3577140
DA:125,4162890
DA:198,0
DA:201,0
DA:223,0
DA:224,0
DA:226,0
DA:228,0
DA:229,0
DA:230,0
DA:231,0
DA:232,0
DA:233,0
DA:234,0
DA:236,0
DA:238,0
DA:239,0
DA:243,0
DA:245,0
DA:246,0
DA:248,0
DA:250,0
DA:252,0
DA:426,0
DA:435,0
DA:437,0
DA:438,0
DA:439,0
DA:440,0
DA:441,0
DA:449,0
DA:450,0
DA:456,0
DA:461,0
DA:462,0
DA:464,0
DA:466,0
DA:467,0
DA:500,0
DA:501,0
DA:502,0
DA:503,0
DA:504,0
DA:505,0
end_of_record
SF:/usr/include/c++/9/bits/cpp_type_traits.h
DA:428,0
end_of_record
SF:/usr/include/c++/9/initializer_list
DA:71,88689
DA:75,88689
DA:79,88689
end_of_record
SF:/workspace/vtr-verilog-to-routing/libs/EXTERNAL/libargparse/src/argparse_value.hpp
DA:50,0
DA:56,3247
end_of_record
SF:/usr/include/c++/9/bits/stl_uninitialized.h
FN:76,_ZNSt20__uninitialized_copyILb0EE13__uninit_copyIPK7VNumberPS2_EET0_T_S7_S6_
FNDA:88689,_ZNSt20__uninitialized_copyILb0EE13__uninit_copyIPK7VNumberPS2_EET0_T_S7_S6_
DA:76,88689
DA:79,88689
DA:82,266067
DA:83,177378
DA:84,88689
DA:86,0
DA:88,0
DA:89,0
DA:115,0
DA:134,0
DA:140,0
DA:305,0
DA:307,0
DA:905,0
DA:912,0
DA:913,0
DA:949,0
DA:950,0
DA:964,0
end_of_record
SF:/usr/include/c++/9/bits/basic_string.tcc
FN:206,_ZNSt7__cxx1112basic_stringIcSt11char_traitsIcESaIcEE12_M_constructIPcEEvT_S7_St20forward_iterator_tag
FNDA:1872,_ZNSt7__cxx1112basic_stringIcSt11char_traitsIcESaIcEE12_M_constructIPcEEvT_S7_St20forward_iterator_tag
FN:206,_ZNSt7__cxx1112basic_stringIcSt11char_traitsIcESaIcEE12_M_constructIPKcEEvT_S8_St20forward_iterator_tag
FNDA:130367,_ZNSt7__cxx1112basic_stringIcSt11char_traitsIcESaIcEE12_M_constructIPKcEEvT_S8_St20forward_iterator_tag
DA:206,1872
DA:211,1872
DA:212,0
DA:215,1872
DA:217,1872
DA:219,0
DA:220,0
DA:225,1872
DA:232,1872
DA:233,1872
DA:206,130367
DA:211,130367
DA:212,0
DA:215,130367
DA:217,130367
DA:219,4741
DA:220,4741
DA:225,130367
DA:232,130367
DA:233,130367
end_of_record
SF:/usr/include/c++/9/bits/move.h
DA:47,354756
DA:74,4162890
DA:99,6712930
DA:138,164312
DA:139,152668
end_of_record
SF:/usr/include/c++/9/ext/new_allocator.h
DA:80,2166120
DA:83,2638740
DA:89,4627440
DA:119,1892070
DA:128,1892070
DA:132,0
DA:144,585751
DA:147,585751
DA:151,0
end_of_record
SF:/usr/include/c++/9/bits/stl_algobase.h
DA:198,0
DA:222,0
DA:227,0
DA:228,0
DA:280,0
DA:289,0
DA:290,0
DA:295,0
DA:375,0
DA:384,0
DA:385,0
DA:386,0
DA:387,0
DA:393,0
DA:398,0
DA:404,0
DA:438,0
DA:440,0
DA:465,0
DA:474,0
end_of_record
SF:/usr/include/c++/9/bits/stl_construct.h
DA:74,354756
DA:75,177378
DA:97,177378
DA:98,177378
DA:105,0
DA:107,266067
DA:108,354756
DA:117,4337460
DA:127,0
DA:137,0
DA:203,88689
DA:206,4426150
end_of_record
SF:/workspace/vtr-verilog-to-routing/libs/librtlnumber/src/include/internal_bits.hpp
FN:308,_ZN8BitSpaceL13bits_to_hex_cEsb
FNDA:0,_ZN8BitSpaceL13bits_to_hex_cEsb
FN:454,_ZN8BitSpace11VerilogBitsC2Emh
FNDA:1935610,_ZN8BitSpace11VerilogBitsC2Emh
FN:510,_ZN8BitSpace11VerilogBits12to_printableB5cxx11Ev
FNDA:0,_ZN8BitSpace11VerilogBits12to_printableB5cxx11Ev
FN:520,_ZN8BitSpace11VerilogBits4getcEv
FNDA:0,_ZN8BitSpace11VerilogBits4getcEv
FN:615,_ZN8BitSpace11VerilogBits6resizeEhm
FNDA:607470,_ZN8BitSpace11VerilogBits6resizeEhm
FN:716,_ZN7VNumberC2ERKS_
FNDA:720674,_ZN7VNumberC2ERKS_
FN:722,_ZN7VNumberC2EPS_
FNDA:0,_ZN7VNumberC2EPS_
FN:728,_ZN7VNumberC2ES_m
FNDA:607470,_ZN7VNumberC2ES_m
FN:751,_ZN7VNumber9get_valueEv
FNDA:0,_ZN7VNumber9get_valueEv
FN:777,_ZN7VNumber9to_stringB5cxx11Ebb
FNDA:0,_ZN7VNumber9to_stringB5cxx11Ebb
FN:792,_ZN7VNumber10to_UstringB5cxx11Eb
FNDA:0,_ZN7VNumber10to_UstringB5cxx11Eb
FN:807,_ZN7VNumber12to_log2radixB5cxx11Esbb
FNDA:0,_ZN7VNumber12to_log2radixB5cxx11Esbb
FN:832,_ZN7VNumber9to_base10B5cxx11Ebb
FNDA:0,_ZN7VNumber9to_base10B5cxx11Ebb
FN:857,_ZN7VNumber20to_verilog_bitstringB5cxx11Ev
FNDA:0,_ZN7VNumber20to_verilog_bitstringB5cxx11Ev
FN:864,_ZN7VNumber10to_vstringB5cxx11Ec
FNDA:0,_ZN7VNumber10to_vstringB5cxx11Ec
FN:1007,_ZN7VNumber16get_bit_from_msbEm
FNDA:0,_ZN7VNumber16get_bit_from_msbEm
FN:1012,_ZN7VNumber16get_bit_from_lsbEm
FNDA:0,_ZN7VNumber16get_bit_from_lsbEm
DA:286,0
DA:287,0
DA:290,0
DA:291,0
DA:292,0
DA:293,0
DA:294,0
DA:295,0
DA:299,0
DA:300,0
DA:303,0
DA:304,0
DA:308,0
DA:309,0
DA:312,0
DA:313,0
DA:314,0
DA:315,0
DA:316,0
DA:317,0
DA:318,0
DA:319,0
DA:320,0
DA:321,0
DA:322,0
DA:323,0
DA:324,0
DA:325,0
DA:326,0
DA:327,0
DA:328,0
DA:329,0
DA:330,0
DA:331,0
DA:332,0
DA:333,0
DA:334,0
DA:335,0
DA:336,0
DA:337,0
DA:338,0
DA:339,0
DA:340,0
DA:341,0
DA:342,0
DA:343,0
DA:346,0
DA:349,0
DA:376,30681100
DA:377,30681100
DA:378,30681100
DA:379,30681100
DA:384,4162890
DA:385,1328140
DA:390,28891800
DA:391,28891800
DA:392,12691800
DA:394,0
DA:398,17989300
DA:399,17989300
DA:401,17989300
DA:402,17989300
DA:404,17989300
DA:405,17989300
DA:406,17989300
DA:408,17989300
DA:409,17989300
DA:416,0
DA:418,0
DA:419,0
DA:425,0
DA:435,5459000
DA:440,30681100
DA:441,30681100
DA:454,1935610
DA:455,1935610
DA:456,1935610
DA:458,1935610
DA:460,6098510
DA:461,5491040
DA:463,1935610
DA:470,30402500
DA:471,30402500
DA:478,30681100
DA:486,30681100
DA:489,28891800
DA:497,28891800
DA:500,17989300
DA:507,17989300
DA:510,0
DA:511,0
DA:513,0
DA:514,0
DA:517,0
DA:520,0
DA:521,0
DA:522,0
DA:525,399005
DA:526,13090800
DA:527,12691800
DA:561,0
DA:562,0
DA:563,0
DA:615,607470
DA:619,607470
DA:620,0
DA:621,0
DA:623,0
DA:624,0
DA:625,0
DA:627,0
DA:628,0
DA:629,0
DA:635,0
DA:638,607470
DA:640,607470
DA:642,16807500
DA:643,16200000
DA:644,16200000
DA:647,2396820
DA:648,1789350
DA:649,1789350
DA:652,607470
DA:674,2098360
DA:716,720674
DA:717,720674
DA:718,720674
DA:719,720674
DA:720,720674
DA:722,0
DA:723,0
DA:724,0
DA:725,0
DA:726,0
DA:728,607470
DA:729,607470
DA:730,1214940
DA:731,607470
DA:732,607470
DA:751,0
DA:752,0
DA:754,0
DA:757,0
DA:758,0
DA:759,0
DA:760,0
DA:763,0
DA:764,0
DA:766,0
DA:767,0
DA:768,0
DA:769,0
DA:771,0
DA:774,0
DA:777,0
DA:779,0
DA:780,0
DA:781,0
DA:782,0
DA:783,0
DA:785,0
DA:789,0
DA:792,0
DA:794,0
DA:795,0
DA:796,0
DA:797,0
DA:798,0
DA:800,0
DA:804,0
DA:807,0
DA:808,0
DA:811,0
DA:812,0
DA:813,0
DA:816,0
DA:818,0
DA:819,0
DA:820,0
DA:822,0
DA:829,0
DA:832,0
DA:833,0
DA:834,0
DA:835,0
DA:837,0
DA:839,0
DA:840,0
DA:841,0
DA:842,0
DA:843,0
DA:845,0
DA:847,0
DA:848,0
DA:850,0
DA:853,0
DA:857,0
DA:858,0
DA:859,0
DA:861,0
DA:864,0
DA:865,0
DA:866,0
DA:867,0
DA:868,0
DA:873,0
DA:874,0
DA:875,0
DA:876,0
DA:877,0
DA:878,0
DA:879,0
DA:880,0
DA:881,0
DA:882,0
DA:883,0
DA:884,0
DA:885,0
DA:886,0
DA:887,0
DA:888,0
DA:890,0
DA:891,0
DA:892,0
DA:894,0
DA:896,0
DA:1000,0
DA:1001,0
DA:1007,0
DA:1008,0
DA:1009,0
DA:1012,0
DA:1013,0
DA:1014,0
DA:1016,0
DA:1019,0
DA:1020,0
DA:1030,504268
DA:1031,504268
DA:1034,607470
DA:1035,426853
DA:1038,607470
DA:1039,607470
DA:1050,0
DA:1051,798010
DA:1066,0
DA:1067,0
end_of_record
SF:/usr/include/x86_64-linux-gnu/bits/stdio2.h
DA:105,3247
DA:107,3247
end_of_record
SF:/usr/include/c++/9/bits/stl_vector.h
FN:622,_ZNSt6vectorI7VNumberSaIS0_EEC2ESt16initializer_listIS0_ERKS1_
FNDA:88689,_ZNSt6vectorI7VNumberSaIS0_EEC2ESt16initializer_listIS0_ERKS1_
FN:675,_ZNSt6vectorI7VNumberSaIS0_EED2Ev
FNDA:88689,_ZNSt6vectorI7VNumberSaIS0_EED2Ev
FN:1753,_ZNKSt6vectorIN8BitSpace9BitFieldsItEESaIS2_EE12_M_check_lenEmPKc
FNDA:0,_ZNKSt6vectorIN8BitSpace9BitFieldsItEESaIS2_EE12_M_check_lenEmPKc
DA:94,2631770
DA:95,2631770
DA:106,2543080
DA:108,2543080
DA:109,2543080
DA:110,2543080
DA:114,2543080
DA:118,2543080
DA:119,2543080
DA:120,2543080
DA:121,2543080
DA:125,4426150
DA:128,1935610
DA:130,1935610
DA:133,2631770
DA:134,2631770
DA:273,0
DA:274,0
DA:277,2543080
DA:278,2543080
DA:281,2543080
DA:282,2543080
DA:285,1935610
DA:290,2631770
DA:291,2631770
DA:330,4426150
DA:332,6130640
DA:333,4426150
DA:334,4426150
DA:347,4426150
DA:350,786047
DA:351,3498870
DA:453,0
DA:462,0
DA:466,0
DA:484,1935610
DA:494,2543080
DA:495,2543080
DA:622,88689
DA:624,88689
DA:626,88689
DA:628,88689
DA:675,4426150
DA:677,4514840
DA:678,4426150
DA:680,5337610
DA:706,2543080
DA:708,2543080
DA:711,3150550
DA:808,0
DA:809,0
DA:817,0
DA:818,0
DA:826,3577140
DA:827,3577140
DA:835,0
DA:836,0
DA:915,0
DA:916,0
DA:920,0
DA:921,0
DA:995,0
DA:997,0
DA:1040,30681100
DA:1043,30681100
DA:1200,4162890
DA:1201,4162890
DA:1505,0
DA:1508,0
DA:1511,0
DA:1512,0
DA:1753,0
DA:1755,0
DA:1756,0
DA:1758,0
DA:1759,0
DA:1773,0
DA:1780,0
DA:1781,0
DA:1812,2543080
DA:1814,3150550
DA:1815,2543080
DA:1816,2543080
DA:1817,2543080
end_of_record
SF:/usr/include/c++/9/bits/allocator.h
DA:138,2166120
DA:141,2638740
DA:142,2638740
DA:153,4711120
end_of_record
SF:/usr/include/c++/9/bits/stl_iterator.h
DA:806,3577140
DA:819,0
DA:827,0
DA:829,0
DA:859,0
DA:860,0
DA:871,0
DA:907,0
DA:910,0
DA:989,0
DA:992,0
DA:1010,0
DA:1012,0
end_of_record
SF:/usr/include/c++/9/iostream
end_of_record
SF:/workspace/vtr-verilog-to-routing/ODIN_II/SRC/ast_elaborate.cpp
FN:156,_Z15find_top_moduleP5ast_t
FNDA:3247,_Z15find_top_moduleP5ast_t
FN:226,_Z19simplify_ast_modulePP10ast_node_tP12sc_hierarchy
FNDA:3241,_Z19simplify_ast_modulePP10ast_node_tP12sc_hierarchy
FN:286,_Z15build_hierarchyP10ast_node_tS0_iP12sc_hierarchybbP6e_data
FNDA:5139200,_Z15build_hierarchyP10ast_node_tS0_iP12sc_hierarchybbP6e_data
FN:1128,_Z12finalize_astP10ast_node_tS0_P12sc_hierarchybb
FNDA:6054010,_Z12finalize_astP10ast_node_tS0_P12sc_hierarchybb
FN:1763,_Z18reduce_expressionsP10ast_node_tP12sc_hierarchyPll
FNDA:2769290,_Z18reduce_expressionsP10ast_node_tP12sc_hierarchyPll
FN:2107,_Z20update_string_cachesP12sc_hierarchy
FNDA:45033,_Z20update_string_cachesP12sc_hierarchy
FN:2156,_Z48update_instance_parameter_table_direct_instancesP10ast_node_tP12STRING_CACHE
FNDA:83468,_Z48update_instance_parameter_table_direct_instancesP10ast_node_tP12STRING_CACHE
FN:2208,_Z41update_instance_parameter_table_defparamsP10ast_node_tP12STRING_CACHE
FNDA:83468,_Z41update_instance_parameter_table_defparamsP10ast_node_tP12STRING_CACHE
FN:2251,_Z37override_parameters_for_all_instancesP10ast_node_tP12sc_hierarchy
FNDA:44549,_Z37override_parameters_for_all_instancesP10ast_node_tP12sc_hierarchy
FN:2286,_Z22convert_2D_to_1D_arrayPP10ast_node_t
FNDA:57,_Z22convert_2D_to_1D_arrayPP10ast_node_t
FN:2335,_Z26convert_2D_to_1D_array_refPP10ast_node_tP12sc_hierarchy
FNDA:150,_Z26convert_2D_to_1D_array_refPP10ast_node_tP12sc_hierarchy
FN:2362,_Z15verify_terminalP10ast_node_tS0_
FNDA:402,_Z15verify_terminalP10ast_node_tS0_
FN:2378,_Z14verify_genvarsP10ast_node_tP12sc_hierarchyPPPci
FNDA:2088,_Z14verify_genvarsP10ast_node_tP12sc_hierarchyPPPci
FN:2427,_Z28look_for_matching_hard_blockP10ast_node_tPcP12sc_hierarchy
FNDA:632,_Z28look_for_matching_hard_blockP10ast_node_tPcP12sc_hierarchy
FN:2619,_Z28look_for_matching_soft_logicP10ast_node_tPc
FNDA:9,_Z28look_for_matching_soft_logicP10ast_node_tPc
FN:2641,_Z28create_param_table_for_scopeP10ast_node_tP12sc_hierarchy
FNDA:1388,_Z28create_param_table_for_scopeP10ast_node_tP12sc_hierarchy
DA:156,3247
DA:157,3247
DA:159,3247
DA:162,3247
DA:163,6494
DA:164,3247
DA:166,3247
DA:167,0
DA:168,0
DA:169,0
DA:172,3247
DA:173,6
DA:175,11431
DA:176,16380
DA:178,8190
DA:179,8190
DA:182,8190
DA:183,8190
DA:185,0
DA:186,0
DA:187,0
DA:188,0
DA:189,0
DA:190,8190
DA:195,3241
DA:197,3241
DA:199,7257
DA:201,3241
DA:202,0
DA:204,3241
DA:205,3241
DA:213,3247
DA:214,0
DA:217,3247
DA:218,0
DA:220,3247
DA:223,6494
DA:226,3241
DA:228,3241
DA:231,3241
DA:233,3241
DA:234,3241
DA:235,3241
DA:237,3241
DA:238,3241
DA:239,3241
DA:241,3241
DA:246,3241
DA:247,3241
DA:250,3241
DA:253,3241
DA:254,3295
DA:255,54
DA:256,54
DA:257,54
DA:258,54
DA:260,54
DA:261,54
DA:265,3241
DA:266,3241
DA:267,3241
DA:269,3241
DA:270,54
DA:271,54
DA:272,54
DA:273,54
DA:275,3241
DA:276,3241
DA:286,5139200
DA:287,5139200
DA:288,5139200
DA:290,5139200
DA:291,5139200
DA:293,5139200
DA:294,4229000
DA:295,2256800
DA:299,4229000
DA:303,84656
DA:306,84656
DA:308,84656
DA:309,84656
DA:310,84656
DA:313,73394
DA:316,332772
DA:317,248116
DA:318,248116
DA:319,0
DA:324,84656
DA:325,84656
DA:328,84656
DA:330,84033
DA:331,84024
DA:332,632
DA:333,632
DA:334,632
DA:335,632
DA:337,632
DA:343,222
DA:344,222
DA:346,38
DA:347,38
DA:349,38
DA:350,38
DA:352,38
DA:353,38
DA:355,38
DA:356,38
DA:358,38
DA:359,38
DA:361,38
DA:362,184
DA:366,134
DA:369,134
DA:370,134
DA:371,134
DA:374,134
DA:375,134
DA:376,134
DA:379,134
DA:380,134
DA:381,134
DA:382,134
DA:383,134
DA:385,134
DA:386,134
DA:387,134
DA:389,134
DA:390,134
DA:392,134
DA:393,134
DA:394,268
DA:395,0
DA:400,134
DA:401,134
DA:402,1250
DA:403,1116
DA:407,41314
DA:408,41314
DA:410,8
DA:411,8
DA:413,8
DA:414,8
DA:416,8
DA:417,8
DA:419,8
DA:420,8
DA:422,8
DA:423,8
DA:425,8
DA:426,41306
DA:430,234
DA:432,234
DA:433,234
DA:434,234
DA:435,234
DA:437,234
DA:438,70
DA:439,70
DA:440,164
DA:441,164
DA:442,164
DA:443,0
DA:444,0
DA:447,234
DA:448,234
DA:450,0
DA:451,0
DA:455,234
DA:456,234
DA:459,136
DA:460,136
DA:462,136
DA:463,136
DA:465,136
DA:467,128
DA:468,128
DA:469,128
DA:472,128
DA:473,128
DA:474,8
DA:476,8
DA:477,16
DA:478,8
DA:479,8
DA:483,136
DA:484,136
DA:490,4181
DA:491,4181
DA:493,8
DA:494,8
DA:496,8
DA:497,8
DA:499,8
DA:500,8
DA:502,8
DA:503,8
DA:505,8
DA:506,8
DA:508,8
DA:509,4173
DA:513,184
DA:515,184
DA:516,184
DA:517,184
DA:518,136
DA:519,372
DA:520,308
DA:521,308
DA:522,64
DA:523,64
DA:525,244
DA:526,0
DA:530,244
DA:531,244
DA:532,416
DA:533,244
DA:534,72
DA:535,72
DA:536,144
DA:538,0
DA:539,0
DA:548,136
DA:549,136
DA:552,136
DA:553,136
DA:555,136
DA:556,136
DA:558,136
DA:560,128
DA:561,128
DA:562,128
DA:565,128
DA:566,128
DA:567,8
DA:569,8
DA:570,16
DA:571,8
DA:572,8
DA:576,136
DA:577,136
DA:580,136
DA:581,136
DA:582,0
DA:584,0
DA:587,48
DA:588,0
DA:594,3135
DA:595,3135
DA:596,0
DA:597,0
DA:598,0
DA:600,0
DA:601,0
DA:605,0
DA:606,0
DA:607,0
DA:608,0
DA:609,0
DA:610,0
DA:614,0
DA:615,0
DA:616,0
DA:618,0
DA:619,0
DA:623,940233
DA:624,940233
DA:625,984
DA:626,984
DA:627,352
DA:629,352
DA:630,0
DA:631,0
DA:635,0
DA:636,0
DA:637,0
DA:638,0
DA:640,0
DA:641,0
DA:645,352
DA:646,352
DA:651,351376
DA:652,351376
DA:654,351376
DA:655,351376
DA:657,285154
DA:658,285154
DA:660,285154
DA:661,285154
DA:663,46360
DA:664,46360
DA:665,46360
DA:666,46360
DA:667,46360
DA:668,46360
DA:675,5139200
DA:676,4229000
DA:680,2256750
DA:681,2256750
DA:683,2256750
DA:684,2256750
DA:685,110719
DA:691,2254470
DA:695,7348860
DA:696,5092110
DA:697,5092110
DA:699,5091930
DA:700,5091930
DA:701,5091930
DA:703,5091930
DA:706,1349
DA:710,5092110
DA:711,96
DA:712,384
DA:713,288
DA:717,5092110
DA:718,5092110
DA:719,2256750
DA:724,5139200
DA:726,4229000
DA:731,86289
DA:732,41372
DA:733,82744
DA:736,41372
DA:737,26344
DA:740,368
DA:741,210
DA:742,368
DA:743,210
DA:745,210
DA:746,0
DA:753,210
DA:754,52
DA:755,52
DA:757,52
DA:758,52
DA:760,52
DA:761,36
DA:762,36
DA:765,52
DA:767,52
DA:768,52
DA:774,44971
DA:779,54
DA:780,54
DA:782,108
DA:783,54
DA:784,54
DA:787,54
DA:789,54
DA:790,0
DA:795,54
DA:797,54
DA:798,54
DA:799,54
DA:800,54
DA:803,54
DA:804,54
DA:805,54
DA:806,54
DA:807,54
DA:808,54
DA:811,54
DA:812,54
DA:813,54
DA:814,54
DA:817,54
DA:820,54
DA:823,44979
DA:828,62
DA:829,62
DA:831,124
DA:832,62
DA:833,62
DA:836,62
DA:838,62
DA:839,0
DA:844,62
DA:846,62
DA:847,62
DA:848,62
DA:849,62
DA:852,62
DA:853,62
DA:854,62
DA:855,62
DA:856,62
DA:859,62
DA:860,62
DA:861,62
DA:862,62
DA:865,62
DA:868,62
DA:873,84024
DA:877,84024
DA:878,42012
DA:879,83688
DA:880,43244
DA:881,2464
DA:882,1840
DA:883,1232
DA:884,1232
DA:886,42012
DA:887,42012
DA:889,42012
DA:890,42012
DA:892,13854800
DA:893,13812800
DA:894,13812800
DA:895,13812800
DA:896,13812500
DA:897,336
DA:901,42012
DA:902,336
DA:903,672
DA:906,41676
DA:907,41676
DA:909,41676
DA:910,41676
DA:911,41676
DA:917,41676
DA:918,41676
DA:920,83352
DA:921,41676
DA:922,41676
DA:925,41676
DA:927,41676
DA:928,0
DA:933,41676
DA:935,41676
DA:936,41676
DA:937,41676
DA:939,41676
DA:942,41676
DA:943,41676
DA:944,41676
DA:946,41676
DA:947,41676
DA:948,41676
DA:949,41676
DA:952,41676
DA:953,41676
DA:954,41676
DA:955,41676
DA:958,41676
DA:961,368
DA:962,368
DA:964,41676
DA:967,41676
DA:971,30147
DA:972,30147
DA:974,0
DA:977,30147
DA:978,30147
DA:979,86
DA:980,43
DA:981,43
DA:982,43
DA:983,43
DA:985,0
DA:986,0
DA:988,43
DA:989,43
DA:993,311774
DA:994,311774
DA:996,0
DA:1001,311774
DA:1002,1126
DA:1003,1126
DA:1005,992
DA:1006,992
DA:1008,992
DA:1011,992
DA:1013,2976
DA:1015,1126
DA:1020,26242
DA:1021,26242
DA:1023,0
DA:1028,26242
DA:1029,2
DA:1030,2
DA:1032,2
DA:1034,6
DA:1036,2
DA:1040,3135
DA:1042,3135
DA:1043,0
DA:1044,0
DA:1045,0
DA:1046,0
DA:1051,65761
DA:1052,65761
DA:1057,0
DA:1058,0
DA:1060,0
DA:1061,0
DA:1062,0
DA:1064,0
DA:1066,0
DA:1068,0
DA:1069,0
DA:1070,0
DA:1071,0
DA:1072,0
DA:1073,0
DA:1075,0
DA:1078,0
DA:1080,0
DA:1083,0
DA:1088,0
DA:1089,0
DA:1090,0
DA:1091,0
DA:1092,0
DA:1103,5139200
DA:1111,5139200
DA:1112,2256800
DA:1115,5139200
DA:1128,6054010
DA:1129,6054010
DA:1130,6054010
DA:1132,6054010
DA:1133,6054010
DA:1135,6054010
DA:1136,4884750
DA:1137,2522600
DA:1141,4884750
DA:1142,44917
DA:1143,44917
DA:1146,106
DA:1147,106
DA:1148,52
DA:1152,54
DA:1154,54
DA:1155,54
DA:1156,54
DA:1160,24
DA:1163,184
DA:1164,130
DA:1165,130
DA:1166,0
DA:1172,114
DA:1173,114
DA:1174,52
DA:1178,62
DA:1180,62
DA:1181,62
DA:1182,62
DA:1186,0
DA:1189,214
DA:1190,152
DA:1191,152
DA:1192,152
DA:1193,152
DA:1194,0
DA:1200,44917
DA:1202,44917
DA:1203,44917
DA:1205,429504
DA:1206,384587
DA:1207,384587
DA:1209,0
DA:1210,0
DA:1211,0
DA:1213,0
DA:1214,0
DA:1216,0
DA:1222,309120
DA:1223,309120
DA:1226,950756
DA:1227,950756
DA:1228,949886
DA:1229,949886
DA:1230,30662
DA:1232,30662
DA:1233,0
DA:1234,0
DA:1238,0
DA:1239,0
DA:1240,0
DA:1241,0
DA:1243,0
DA:1244,0
DA:1248,30662
DA:1249,30662
DA:1254,50
DA:1255,50
DA:1258,50
DA:1259,50
DA:1260,50
DA:1263,50
DA:1264,50
DA:1265,50
DA:1268,50
DA:1269,0
DA:1270,0
DA:1271,0
DA:1272,0
DA:1274,0
DA:1275,0
DA:1276,0
DA:1278,0
DA:1279,0
DA:1281,0
DA:1282,0
DA:1283,0
DA:1284,0
DA:1289,50
DA:1290,50
DA:1291,50
DA:1293,46036
DA:1294,46036
DA:1295,46036
DA:1296,46036
DA:1297,46036
DA:1299,350734
DA:1300,350734
DA:1302,350734
DA:1303,350680
DA:1305,350680
DA:1306,260077
DA:1307,260077
DA:1309,0
DA:1318,3147
DA:1319,3147
DA:1320,3147
DA:1321,0
DA:1323,6294
DA:1324,0
DA:1328,3147
DA:1329,3147
DA:1330,3147
DA:1331,3147
DA:1332,94582
DA:1333,91435
DA:1337,3147
DA:1338,3147
DA:1339,3147
DA:1341,3147
DA:1342,3147
DA:1344,3147
DA:1349,691842
DA:1350,396096
DA:1360,4884750
DA:1364,1876060
DA:1365,1876060
DA:1367,1876060
DA:1368,1876060
DA:1369,109967
DA:1375,1874680
DA:1379,6786870
DA:1380,4910800
DA:1381,4910800
DA:1383,4910760
DA:1384,4910760
DA:1385,4910760
DA:1387,4910760
DA:1390,130196
DA:1394,4910800
DA:1395,50
DA:1396,290
DA:1397,240
DA:1401,4910800
DA:1402,4910800
DA:1403,1876060
DA:1409,4884750
DA:1413,86593
DA:1414,41676
DA:1419,41676
DA:1420,41676
DA:1422,83352
DA:1423,41676
DA:1424,41676
DA:1427,41676
DA:1430,41676
DA:1432,0
DA:1435,0
DA:1436,0
DA:1441,0
DA:1443,0
DA:1444,0
DA:1445,0
DA:1448,0
DA:1449,0
DA:1450,0
DA:1451,0
DA:1452,0
DA:1455,0
DA:1456,0
DA:1457,0
DA:1458,0
DA:1460,41676
DA:1463,41676
DA:1466,41676
DA:1467,41676
DA:1468,41676
DA:1471,41676
DA:1472,41676
DA:1475,41676
DA:1478,44971
DA:1483,54
DA:1484,54
DA:1486,108
DA:1487,54
DA:1488,54
DA:1491,54
DA:1492,54
DA:1493,54
DA:1495,54
DA:1498,54
DA:1499,54
DA:1500,54
DA:1503,54
DA:1504,54
DA:1507,54
DA:1510,44979
DA:1515,62
DA:1516,62
DA:1518,124
DA:1519,62
DA:1520,62
DA:1524,62
DA:1525,62
DA:1526,62
DA:1528,62
DA:1531,62
DA:1532,62
DA:1533,62
DA:1536,62
DA:1537,62
DA:1540,62
DA:1545,83352
DA:1549,83352
DA:1550,41676
DA:1551,83352
DA:1552,42300
DA:1553,1248
DA:1554,1248
DA:1555,624
DA:1556,624
DA:1558,41676
DA:1559,41676
DA:1561,41676
DA:1562,41676
DA:1564,27703200
DA:1565,27661600
DA:1566,27661600
DA:1567,27661600
DA:1568,27619900
DA:1569,41676
DA:1573,41676
DA:1574,41676
DA:1575,41676
DA:1578,0
DA:1582,309120
DA:1584,309120
DA:1585,57
DA:1586,57
DA:1587,57
DA:1592,398779
DA:1593,398779
DA:1595,0
DA:1600,398779
DA:1601,216388
DA:1602,216388
DA:1604,176151
DA:1605,176151
DA:1607,176151
DA:1610,176151
DA:1612,528453
DA:1614,216388
DA:1619,26462
DA:1620,26462
DA:1622,0
DA:1627,26462
DA:1628,2740
DA:1629,2740
DA:1631,54
DA:1633,162
DA:1635,2740
DA:1639,3147
DA:1641,3147
DA:1642,3147
DA:1643,3147
DA:1644,3147
DA:1645,3147
DA:1647,157394
DA:1648,157394
DA:1653,549623
DA:1654,392229
DA:1656,392229
DA:1657,88689
DA:1658,88689
DA:1660,443445
DA:1662,88689
DA:1664,177378
DA:1665,88689
DA:1666,303540
DA:1667,303540
DA:1668,303540
DA:1669,303540
DA:1671,392229
DA:1674,157394
DA:1676,157394
DA:1679,0
DA:1684,157394
DA:1685,102877
DA:1686,102877
DA:1687,102877
DA:1688,102877
DA:1694,100200
DA:1695,100200
DA:1696,100200
DA:1697,200400
DA:1700,100200
DA:1701,100200
DA:1702,200400
DA:1705,100200
DA:1709,0
DA:1715,195546
DA:1716,195546
DA:1717,195546
DA:1718,390652
DA:1721,195546
DA:1722,150
DA:1723,132
DA:1724,264
DA:1728,195546
DA:1730,220
DA:1731,220
DA:1732,220
DA:1735,195546
DA:1741,4884750
DA:1749,4884750
DA:1750,2522600
DA:1754,6054010
DA:1763,2769290
DA:1764,2769290
DA:1765,2769290
DA:1767,2769290
DA:1768,2755260
DA:1770,2755260
DA:1772,2755260
DA:1773,1509720
DA:1776,2755260
DA:1780,106
DA:1781,106
DA:1782,106
DA:1784,52
DA:1785,52
DA:1786,52
DA:1788,41676
DA:1789,41676
DA:1790,41676
DA:1792,350386
DA:1793,350386
DA:1795,350386
DA:1796,350332
DA:1798,350332
DA:1799,350332
DA:1801,350332
DA:1802,253457
DA:1803,253457
DA:1805,0
DA:1809,96875
DA:1810,96875
DA:1811,193750
DA:1814,350332
DA:1820,350332
DA:1821,97327
DA:1822,97327
DA:1823,89547
DA:1825,7780
DA:1828,97327
DA:1829,97327
DA:1830,97327
DA:1831,97327
DA:1832,97327
DA:1833,194654
DA:1835,0
DA:1837,194654
DA:1849,45437
DA:1850,45437
DA:1851,45437
DA:1853,215371
DA:1854,215371
DA:1856,215371
DA:1859,742173
DA:1860,742173
DA:1862,742119
DA:1863,742119
DA:1864,742119
DA:1865,742119
DA:1867,742119
DA:1868,742119
DA:1870,0
DA:1871,0
DA:1875,742119
DA:1876,1500
DA:1878,742119
DA:1879,742119
DA:1883,0
DA:1894,2755260
DA:1902,3192640
DA:1903,2120530
DA:1904,2120530
DA:1906,2120530
DA:1907,2120530
DA:1908,2120530
DA:1910,2120530
DA:1912,0
DA:1916,2120530
DA:1917,0
DA:1918,0
DA:1919,0
DA:1923,2120530
DA:1924,2120530
DA:1925,1072110
DA:1931,2755260
DA:1936,86593
DA:1941,41676
DA:1942,41676
DA:1944,83352
DA:1945,41676
DA:1946,41676
DA:1949,41676
DA:1951,41676
DA:1952,41676
DA:1955,41676
DA:1956,41676
DA:1959,41676
DA:1962,44971
DA:1967,54
DA:1968,54
DA:1970,108
DA:1971,54
DA:1972,54
DA:1975,54
DA:1977,54
DA:1978,54
DA:1981,54
DA:1982,54
DA:1985,54
DA:1990,42090
DA:1991,42090
DA:1992,42090
DA:1994,222412
DA:1995,222412
DA:1997,0
DA:2001,222412
DA:2002,222412
DA:2004,1050
DA:2005,1050
DA:2007,1050
DA:2009,84
DA:2010,0
DA:2016,1050
DA:2018,3150
DA:2020,222412
DA:2021,222412
DA:2023,26258
DA:2024,26258
DA:2026,0
DA:2030,26258
DA:2031,26258
DA:2033,328
DA:2034,328
DA:2036,328
DA:2038,0
DA:2039,0
DA:2045,328
DA:2047,984
DA:2049,26258
DA:2050,26258
DA:2052,742173
DA:2054,742173
DA:2056,742173
DA:2057,742119
DA:2058,742119
DA:2059,742119
DA:2061,742119
DA:2062,482947
DA:2064,742119
DA:2065,0
DA:2067,742119
DA:2068,0
DA:2071,742119
DA:2074,742119
DA:2075,317907
DA:2076,317907
DA:2077,198319
DA:2084,503371
DA:2085,503371
DA:2086,325691
DA:2087,325691
DA:2088,91822
DA:2099,2755260
DA:2100,1509720
DA:2104,2769290
DA:2107,45033
DA:2108,45033
DA:2109,45033
DA:2110,45033
DA:2112,45033
DA:2114,45033
DA:2115,50939
DA:2116,6022
DA:2117,6022
DA:2118,0
DA:2119,0
DA:2120,0
DA:2121,0
DA:2122,0
DA:2125,6120
DA:2126,98
DA:2127,98
DA:2130,6022
DA:2134,6022
DA:2135,6022
DA:2136,6022
DA:2137,12044
DA:2139,6022
DA:2140,6022
DA:2144,430024
DA:2145,384991
DA:2146,259778
DA:2147,297067
DA:2148,297067
DA:2149,297067
DA:2150,682058
DA:2151,87978
DA:2154,45033
DA:2156,83468
DA:2157,83468
DA:2158,372
DA:2159,372
DA:2160,372
DA:2162,744
DA:2163,372
DA:2166,746
DA:2167,426
DA:2168,374
DA:2169,374
DA:2170,0
DA:2172,374
DA:2173,48
DA:2175,62
DA:2176,14
DA:2177,0
DA:2183,48
DA:2184,48
DA:2185,0
DA:2190,326
DA:2191,326
DA:2192,326
DA:2195,52
DA:2200,372
DA:2201,0
DA:2206,83468
DA:2208,83468
DA:2209,83468
DA:2210,372
DA:2211,372
DA:2214,798
DA:2215,426
DA:2216,426
DA:2217,426
DA:2218,0
DA:2222,426
DA:2223,426
DA:2224,0
DA:2225,426
DA:2226,4
DA:2231,422
DA:2232,422
DA:2233,422
DA:2236,480
DA:2237,54
DA:2238,0
DA:2239,0
DA:2240,0
DA:2243,426
DA:2247,372
DA:2249,83468
DA:2251,44549
DA:2252,44549
DA:2253,44549
DA:2255,85857
DA:2256,41308
DA:2261,41308
DA:2262,41308
DA:2264,82616
DA:2265,41308
DA:2266,41308
DA:2269,41308
DA:2271,41308
DA:2273,41308
DA:2275,41308
DA:2278,41308
DA:2279,41308
DA:2280,41308
DA:2282,41308
DA:2284,44549
DA:2286,57
DA:2287,57
DA:2288,57
DA:2290,57
DA:2291,57
DA:2293,57
DA:2294,57
DA:2296,57
DA:2297,57
DA:2299,57
DA:2300,57
DA:2302,57
DA:2303,0
DA:2305,57
DA:2306,0
DA:2310,57
DA:2312,57
DA:2313,0
DA:2317,57
DA:2319,57
DA:2321,57
DA:2323,57
DA:2324,57
DA:2326,57
DA:2327,57
DA:2329,57
DA:2330,57
DA:2332,57
DA:2333,57
DA:2335,150
DA:2336,150
DA:2338,150
DA:2341,150
DA:2342,150
DA:2344,150
DA:2346,150
DA:2348,150
DA:2349,150
DA:2352,150
DA:2353,150
DA:2355,150
DA:2357,150
DA:2358,150
DA:2359,150
DA:2360,150
DA:2362,402
DA:2363,402
DA:2364,402
DA:2365,134
DA:2366,268
DA:2367,0
DA:2368,268
DA:2369,134
DA:2371,134
DA:2378,2088
DA:2379,2088
DA:2380,1762
DA:2381,158
DA:2382,158
DA:2383,158
DA:2384,158
DA:2386,158
DA:2388,0
DA:2392,158
DA:2394,158
DA:2395,0
DA:2397,158
DA:2398,0
DA:2403,182
DA:2404,24
DA:2405,0
DA:2410,158
DA:2411,158
DA:2412,158
DA:2415,316
DA:2416,158
DA:2420,3400
DA:2421,1796
DA:2425,2088
DA:2427,632
DA:2428,632
DA:2429,632
DA:2431,632
DA:2433,9
DA:2435,623
DA:2436,623
DA:2438,623
DA:2439,623
DA:2441,3517
DA:2442,2894
DA:2443,2894
DA:2446,1724
DA:2447,1101
DA:2448,1101
DA:2451,623
DA:2454,623
DA:2458,623
DA:2462,4506
DA:2463,3911
DA:2464,3911
DA:2465,3911
DA:2466,3911
DA:2468,15635
DA:2469,11724
DA:2472,3911
DA:2473,1551
DA:2474,478
DA:2478,2838
DA:2481,1073
DA:2486,1073
DA:2489,28
DA:2494,28
DA:2497,28
DA:2498,28
DA:2499,28
DA:2501,28
DA:2502,28
DA:2505,28
DA:2510,28
DA:2511,28
DA:2512,28
DA:2515,28
DA:2517,28
DA:2520,28
DA:2521,28
DA:2522,28
DA:2523,28
DA:2524,28
DA:2526,28
DA:2527,0
DA:2529,0
DA:2530,0
DA:2531,0
DA:2533,0
DA:2534,0
DA:2537,28
DA:2538,28
DA:2540,28
DA:2541,0
DA:2542,0
DA:2544,28
DA:2545,28
DA:2552,28
DA:2553,0
DA:2554,0
DA:2555,0
DA:2556,0
DA:2557,0
DA:2559,0
DA:2560,0
DA:2562,0
DA:2563,0
DA:2564,0
DA:2566,0
DA:2567,0
DA:2570,0
DA:2571,0
DA:2573,0
DA:2574,0
DA:2575,0
DA:2577,0
DA:2578,0
DA:2587,28
DA:2588,0
DA:2589,0
DA:2593,28
DA:2594,84
DA:2595,56
DA:2596,56
DA:2597,56
DA:2598,56
DA:2600,56
DA:2601,28
DA:2602,28
DA:2603,28
DA:2604,28
DA:2609,623
DA:2610,623
DA:2611,623
DA:2613,623
DA:2615,0
DA:2619,9
DA:2620,9
DA:2622,9
DA:2626,9
DA:2627,9
DA:2628,9
DA:2629,9
DA:2641,1388
DA:2643,1388
DA:2644,1388
DA:2645,1388
DA:2646,1388
DA:2648,1388
DA:2649,1388
DA:2652,1388
DA:2653,2776
DA:2654,1388
DA:2656,0
DA:2657,0
DA:2660,0
DA:2661,0
DA:2664,0
DA:2665,0
DA:2667,0
DA:2669,0
DA:2671,0
DA:2676,0
DA:2678,0
DA:2680,0
DA:2682,0
DA:2683,0
DA:2688,0
DA:2691,0
DA:2693,0
DA:2694,0
DA:2699,0
DA:2702,0
DA:2704,0
DA:2705,0
DA:2706,0
DA:2709,0
DA:2710,0
DA:2711,0
DA:2716,0
DA:2718,1388
end_of_record
SF:/usr/include/c++/9/bits/stl_iterator_base_funcs.h
DA:98,132239
DA:104,132239
DA:138,132239
DA:141,132239
end_of_record
SF:/usr/include/c++/9/ext/type_traits.h
DA:152,132239
end_of_record
SF:/usr/include/c++/9/ostream
DA:108,0
DA:113,0
DA:565,0
DA:568,0
DA:570,0
DA:571,0
end_of_record
SF:/usr/include/c++/9/bits/alloc_traits.h
DA:469,1892070
DA:470,1892070
DA:482,0
DA:484,585751
DA:495,0
DA:497,0
DA:505,0
DA:506,0
DA:514,1856
DA:515,1856
DA:545,2543080
DA:546,2543080
DA:553,2543080
DA:557,2543080
end_of_record
SF:/usr/include/c++/9/ext/alloc_traits.h
DA:97,1856
DA:98,1856
end_of_record
SF:/usr/include/c++/9/bits/char_traits.h
DA:299,140641
DA:300,3305
DA:315,0
DA:317,0
DA:325,0
DA:329,0
DA:335,0
DA:361,131656
DA:363,128934
DA:365,131656
end_of_record
SF:/usr/include/c++/9/new
DA:173,763129
DA:174,763129
end_of_record
SF:/usr/include/c++/9/bits/ptr_traits.h
DA:146,152668
DA:147,152668
end_of_record
SF:/usr/include/c++/9/bits/locale_facets.h
FN:872,_ZNKSt5ctypeIcE5widenEc
FNDA:0,_ZNKSt5ctypeIcE5widenEc
FN:1084,_ZNKSt5ctypeIcE8do_widenEc
FNDA:0,_ZNKSt5ctypeIcE8do_widenEc
DA:872,0
DA:874,0
DA:875,0
DA:876,0
DA:877,0
DA:1084,0
DA:1085,0
end_of_record
SF:/usr/include/c++/9/ext/string_conversions.h
FN:99,_ZN9__gnu_cxx12__to_xstringINSt7__cxx1112basic_stringIcSt11char_traitsIcESaIcEEEcEET_PFiPT0_mPKS8_P13__va_list_tagEmSB_z
FNDA:16,_ZN9__gnu_cxx12__to_xstringINSt7__cxx1112basic_stringIcSt11char_traitsIcESaIcEEEcEET_PFiPT0_mPKS8_P13__va_list_tagEmSB_z
DA:99,16
DA:105,16
DA:109,16
DA:111,16
DA:113,16
DA:115,16
end_of_record
TN:
SF:/usr/include/c++/9/bits/basic_string.h
DA:186,0
DA:2300,0
DA:2301,0
DA:6175,2054330
DA:6177,2054330
end_of_record
SF:/usr/include/c++/9/iostream
end_of_record
SF:/workspace/vtr-verilog-to-routing/ODIN_II/SRC/node_creation_library.cpp
FN:41,_Z11get_pad_pinP9netlist_t
FNDA:800478,_Z11get_pad_pinP9netlist_t
FN:52,_Z12get_zero_pinP9netlist_t
FNDA:906602,_Z12get_zero_pinP9netlist_t
FN:63,_Z11get_one_pinP9netlist_t
FNDA:119,_Z11get_one_pinP9netlist_t
FN:74,_Z24make_not_gate_with_inputP6npin_tP7nnode_ts
FNDA:850852,_Z24make_not_gate_with_inputP6npin_tP7nnode_ts
FN:89,_Z13make_not_gateP7nnode_ts
FNDA:1991710,_Z13make_not_gateP7nnode_ts
FN:116,_Z13make_inverterP6npin_tP7nnode_ts
FNDA:0,_Z13make_inverterP6npin_tP7nnode_ts
FN:156,_Z15make_1port_gate14operation_listiiP7nnode_ts
FNDA:5684530,_Z15make_1port_gate14operation_listiiP7nnode_ts
FN:178,_Z21make_1port_logic_gate14operation_listiP7nnode_ts
FNDA:5681900,_Z21make_1port_logic_gate14operation_listiP7nnode_ts
FN:188,_Z33make_1port_logic_gate_with_inputs14operation_listiP13signal_list_tP7nnode_ts
FNDA:2626,_Z33make_1port_logic_gate_with_inputs14operation_listiP13signal_list_tP7nnode_ts
FN:206,_Z15make_3port_gate14operation_listiiiiP7nnode_ts
FNDA:1070560,_Z15make_3port_gate14operation_listiiiiP7nnode_ts
FN:231,_Z15make_2port_gate14operation_listiiiP7nnode_ts
FNDA:5958100,_Z15make_2port_gate14operation_listiiiP7nnode_ts
FN:254,_Z15make_nport_gate14operation_listiiiP7nnode_ts
FNDA:972030,_Z15make_nport_gate14operation_listiiiP7nnode_ts
FN:288,_Z10make_chain14operation_listP13signal_list_tP7nnode_t
FNDA:0,_Z10make_chain14operation_listP13signal_list_tP7nnode_t
FN:348,_Z18edge_type_blif_str11edge_type_e5loc_t
FNDA:1535970,_Z18edge_type_blif_str11edge_type_e5loc_t
FN:368,_Z19edge_type_blif_enumNSt7__cxx1112basic_stringIcSt11char_traitsIcESaIcEEE5loc_t
FNDA:1027180,_Z19edge_type_blif_enumNSt7__cxx1112basic_stringIcSt11char_traitsIcESaIcEEE5loc_t
FN:391,_Z14hard_node_nameP7nnode_tPcS1_S1_
FNDA:745,_Z14hard_node_nameP7nnode_tPcS1_S1_
FN:406,_Z9node_nameP7nnode_tPc
FNDA:1786530,_Z9node_nameP7nnode_tPc
FN:414,_Z12op_node_name14operation_listPc
FNDA:17463500,_Z12op_node_name14operation_listPc
FN:429,_Z15make_mult_blockP7nnode_ts
FNDA:0,_Z15make_mult_blockP7nnode_ts
FN:460,_Z12make_ff_nodeP6npin_tS0_S0_P7nnode_tP9netlist_t
FNDA:0,_Z12make_ff_nodeP6npin_tS0_S0_P7nnode_tP9netlist_t
FN:545,_Z22smux_with_sel_polarityP6npin_tS0_S0_P7nnode_t
FNDA:0,_Z22smux_with_sel_polarityP6npin_tS0_S0_P7nnode_t
FN:603,_Z19make_multiport_smuxPP13signal_list_tS0_iS0_P7nnode_tP9netlist_t
FNDA:0,_Z19make_multiport_smuxPP13signal_list_tS0_iS0_P7nnode_tP9netlist_t
DA:41,800478
DA:42,800478
DA:43,800478
DA:44,800478
DA:45,800478
DA:52,906602
DA:53,906602
DA:54,906602
DA:55,906602
DA:56,906602
DA:63,119
DA:64,119
DA:65,119
DA:66,119
DA:67,119
DA:74,850852
DA:75,850852
DA:77,850852
DA:80,850852
DA:82,850852
DA:89,1991710
DA:90,1991710
DA:92,1991710
DA:93,1991710
DA:94,1991710
DA:95,3983410
DA:96,1991710
DA:98,1991710
DA:99,1991710
DA:101,1991710
DA:116,0
DA:118,0
DA:120,0
DA:122,0
DA:123,0
DA:124,0
DA:125,0
DA:126,0
DA:128,0
DA:129,0
DA:131,0
DA:132,0
DA:135,0
DA:138,0
DA:139,0
DA:140,0
DA:141,0
DA:143,0
DA:145,0
DA:147,0
DA:149,0
DA:156,5684530
DA:157,5684530
DA:159,5684530
DA:160,5684530
DA:161,5684530
DA:162,11369100
DA:163,5684530
DA:166,5684530
DA:167,5684530
DA:169,5684530
DA:170,5684530
DA:172,5684530
DA:178,5681900
DA:179,5681900
DA:181,5681900
DA:188,2626
DA:189,2626
DA:190,2626
DA:192,2626
DA:195,43498
DA:196,40872
DA:199,2626
DA:206,1070560
DA:207,1070560
DA:208,1070560
DA:209,1070560
DA:210,2141130
DA:211,1070560
DA:214,1070560
DA:215,1070560
DA:216,1070560
DA:217,1070560
DA:218,1070560
DA:219,1070560
DA:221,1070560
DA:222,1070560
DA:224,1070560
DA:231,5958100
DA:232,5958100
DA:233,5958100
DA:234,5958100
DA:235,11916200
DA:236,5958100
DA:239,5958100
DA:240,5958100
DA:241,5958100
DA:242,5958100
DA:244,5958100
DA:245,5958100
DA:247,5958100
DA:254,972030
DA:255,972030
DA:256,972030
DA:257,972030
DA:258,972030
DA:259,1944060
DA:260,972030
DA:263,2916090
DA:264,1944060
DA:265,1944060
DA:270,972030
DA:271,972030
DA:273,972030
DA:288,0
DA:289,0
DA:290,0
DA:292,0
DA:295,0
DA:298,0
DA:299,0
DA:300,0
DA:301,0
DA:304,0
DA:305,0
DA:308,0
DA:309,0
DA:311,0
DA:313,0
DA:314,0
DA:318,0
DA:319,0
DA:323,0
DA:324,0
DA:325,0
DA:326,0
DA:328,0
DA:330,0
DA:332,0
DA:335,0
DA:339,0
DA:342,0
DA:343,0
DA:345,0
DA:348,1535970
DA:349,1535970
DA:352,1535930
DA:353,1535930
DA:354,0
DA:355,0
DA:356,0
DA:357,0
DA:358,0
DA:359,0
DA:360,0
DA:361,0
DA:364,0
DA:368,1027180
DA:369,1027180
DA:371,1027150
DA:373,0
DA:375,0
DA:377,0
DA:380,0
DA:383,0
DA:391,745
DA:392,745
DA:395,745
DA:397,745
DA:399,745
DA:406,17463500
DA:407,17463500
DA:414,17463500
DA:415,17463500
DA:418,17463500
DA:420,17463500
DA:422,17463500
DA:429,0
DA:430,0
DA:432,0
DA:433,0
DA:434,0
DA:435,0
DA:436,0
DA:437,0
DA:438,0
DA:439,0
DA:440,0
DA:442,0
DA:443,0
DA:445,0
DA:460,0
DA:462,0
DA:464,0
DA:466,0
DA:467,0
DA:468,0
DA:469,0
DA:470,0
DA:473,0
DA:474,0
DA:475,0
DA:476,0
DA:479,0
DA:480,0
DA:481,0
DA:483,0
DA:485,0
DA:486,0
DA:489,0
DA:491,0
DA:493,0
DA:494,0
DA:497,0
DA:499,0
DA:500,0
DA:505,0
DA:507,0
DA:508,0
DA:510,0
DA:512,0
DA:514,0
DA:515,0
DA:517,0
DA:520,0
DA:521,0
DA:523,0
DA:527,0
DA:528,0
DA:530,0
DA:545,0
DA:547,0
DA:549,0
DA:550,0
DA:553,0
DA:554,0
DA:556,0
DA:559,0
DA:563,0
DA:564,0
DA:565,0
DA:569,0
DA:570,0
DA:572,0
DA:575,0
DA:576,0
DA:578,0
DA:581,0
DA:584,0
DA:586,0
DA:603,0
DA:605,0
DA:606,0
DA:608,0
DA:609,0
DA:611,0
DA:612,0
DA:613,0
DA:614,0
DA:617,0
DA:618,0
DA:619,0
DA:620,0
DA:622,0
DA:623,0
DA:625,0
DA:627,0
DA:629,0
DA:630,0
DA:632,0
DA:633,0
DA:636,0
DA:638,0
DA:639,0
DA:641,0
DA:642,0
DA:644,0
DA:645,0
DA:646,0
DA:648,0
DA:651,0
DA:655,0
DA:659,0
DA:660,0
DA:663,0
DA:664,0
DA:665,0
DA:666,0
DA:667,0
DA:668,0
DA:669,0
DA:671,0
DA:673,0
DA:674,0
DA:676,0
DA:678,0
DA:682,0
DA:684,0
DA:687,0
end_of_record
TN:
SF:/usr/include/c++/9/bits/move.h
DA:47,16528
DA:138,16528
DA:139,16528
end_of_record
SF:/usr/include/c++/9/ext/new_allocator.h
DA:89,16528
DA:119,16336
DA:128,16336
end_of_record
SF:/usr/include/c++/9/bits/allocator.h
DA:153,16528
end_of_record
SF:/usr/include/x86_64-linux-gnu/bits/stdio2.h
DA:98,23380
DA:100,23380
DA:101,8116
end_of_record
SF:/usr/include/c++/9/bits/basic_string.h
DA:150,16528
DA:186,49444
DA:200,16528
DA:203,16528
DA:221,16528
DA:222,16528
DA:229,16528
DA:231,16528
DA:232,32864
DA:236,16336
DA:237,16336
DA:286,16336
DA:287,16336
DA:657,16528
DA:658,16528
DA:2300,16580
DA:2301,16580
end_of_record
SF:/usr/include/c++/9/bits/ptr_traits.h
DA:146,16528
DA:147,16528
end_of_record
SF:/usr/include/c++/9/bits/alloc_traits.h
DA:469,16336
DA:470,16336
end_of_record
SF:/workspace/vtr-verilog-to-routing/ODIN_II/SRC/netlist_visualizer.cpp
FN:46,_Z21graphVizOutputNetlistNSt7__cxx1112basic_stringIcSt11char_traitsIcESaIcEEEPKcmP9netlist_t
FNDA:52,_Z21graphVizOutputNetlistNSt7__cxx1112basic_stringIcSt11char_traitsIcESaIcEEEPKcmP9netlist_t
FN:67,_Z35depth_first_traversal_graph_displayP8_IO_FILEmP9netlist_t
FNDA:52,_Z35depth_first_traversal_graph_displayP8_IO_FILEmP9netlist_t
FN:86,_Z30depth_first_traverse_visualizeP7nnode_tP8_IO_FILEm
FNDA:7948,_Z30depth_first_traverse_visualizeP7nnode_tP8_IO_FILEm
FN:169,_Z30graphVizOutputCombinationalNetNSt7__cxx1112basic_stringIcSt11char_traitsIcESaIcEEEPKcmP7nnode_t
FNDA:0,_Z30graphVizOutputCombinationalNetNSt7__cxx1112basic_stringIcSt11char_traitsIcESaIcEEEPKcmP7nnode_t
FN:192,_Z35forward_traversal_net_graph_displayP8_IO_FILEmP7nnode_t
FNDA:0,_Z35forward_traversal_net_graph_displayP8_IO_FILEmP7nnode_t
FN:281,_Z36backward_traversal_net_graph_displayP8_IO_FILEmP7nnode_t
FNDA:0,_Z36backward_traversal_net_graph_displayP8_IO_FILEmP7nnode_t
DA:46,52
DA:47,52
DA:48,52
DA:51,52
DA:52,52
DA:55,52
DA:57,52
DA:60,52
DA:61,52
DA:62,52
DA:67,52
DA:68,52
DA:71,316
DA:72,264
DA:73,264
DA:77,52
DA:78,52
DA:79,52
DA:80,52
DA:81,52
DA:86,7948
DA:87,7948
DA:88,7948
DA:89,7948
DA:91,7948
DA:95,1368
DA:96,1368
DA:99,1368
DA:101,1368
DA:102,1368
DA:103,356
DA:104,1012
DA:105,164
DA:106,848
DA:107,100
DA:108,748
DA:109,84
DA:111,664
DA:113,1368
DA:115,4388
DA:116,3020
DA:117,0
DA:119,26412
DA:120,26412
DA:121,23392
DA:122,23392
DA:123,23392
DA:124,23392
DA:125,15812
DA:132,7580
DA:133,7580
DA:135,7580
DA:137,0
DA:138,0
DA:139,0
DA:140,0
DA:142,7580
DA:144,84
DA:145,84
DA:146,84
DA:147,84
DA:150,7580
DA:151,7580
DA:152,6748
DA:153,7580
DA:155,7580
DA:156,7580
DA:159,7580
DA:169,0
DA:170,0
DA:171,0
DA:174,0
DA:175,0
DA:178,0
DA:180,0
DA:181,0
DA:184,0
DA:185,0
DA:186,0
DA:192,0
DA:193,0
DA:194,0
DA:195,0
DA:196,0
DA:197,0
DA:198,0
DA:200,0
DA:201,0
DA:203,0
DA:204,0
DA:207,0
DA:210,0
DA:211,0
DA:212,0
DA:213,0
DA:214,0
DA:215,0
DA:216,0
DA:217,0
DA:218,0
DA:219,0
DA:220,0
DA:222,0
DA:224,0
DA:227,0
DA:228,0
DA:229,0
DA:231,0
DA:232,0
DA:233,0
DA:236,0
DA:238,0
DA:239,0
DA:241,0
DA:242,0
DA:243,0
DA:245,0
DA:246,0
DA:248,0
DA:250,0
DA:251,0
DA:254,0
DA:256,0
DA:257,0
DA:259,0
DA:261,0
DA:262,0
DA:263,0
DA:269,0
DA:272,0
DA:273,0
DA:275,0
DA:276,0
DA:281,0
DA:282,0
DA:283,0
DA:284,0
DA:285,0
DA:286,0
DA:287,0
DA:289,0
DA:290,0
DA:292,0
DA:293,0
DA:296,0
DA:299,0
DA:300,0
DA:301,0
DA:302,0
DA:303,0
DA:304,0
DA:305,0
DA:306,0
DA:307,0
DA:308,0
DA:310,0
DA:313,0
DA:316,0
DA:317,0
DA:318,0
DA:320,0
DA:321,0
DA:325,0
DA:326,0
DA:327,0
DA:328,0
DA:330,0
DA:331,0
DA:333,0
DA:335,0
DA:336,0
DA:338,0
DA:340,0
DA:341,0
DA:342,0
DA:348,0
DA:351,0
DA:352,0
DA:354,0
DA:355,0
end_of_record
SF:/usr/include/c++/9/iostream
end_of_record
TN:
SF:/usr/include/c++/9/bits/move.h
DA:47,0
DA:99,115895000
DA:138,0
DA:139,0
DA:182,115895000
DA:193,115895000
DA:194,115895000
DA:195,115895000
end_of_record
SF:/usr/include/c++/9/bits/stl_algobase.h
DA:222,0
DA:227,0
DA:228,0
end_of_record
SF:/usr/include/c++/9/ext/new_allocator.h
DA:80,0
DA:83,0
DA:89,0
DA:119,0
DA:128,0
end_of_record
SF:/usr/include/x86_64-linux-gnu/c++/9/bits/gthr-default.h
DA:248,0
DA:250,0
DA:252,0
end_of_record
SF:/usr/include/c++/9/ext/atomicity.h
DA:48,0
DA:49,0
DA:65,0
DA:67,0
DA:68,0
DA:69,0
DA:78,0
DA:81,0
DA:82,0
DA:84,0
end_of_record
SF:/workspace/vtr-verilog-to-routing/ODIN_II/SRC/netlist_utils.cpp
FN:41,_Z14allocate_nnode5loc_t
FNDA:26926300,_Z14allocate_nnode5loc_t
FN:97,_Z10free_nnodeP7nnode_t
FNDA:13353500,_Z10free_nnodeP7nnode_t
FN:141,_Z24allocate_more_input_pinsP7nnode_ti
FNDA:60085000,_Z24allocate_more_input_pinsP7nnode_ti
FN:160,_Z25allocate_more_output_pinsP7nnode_ti
FNDA:28891900,_Z25allocate_more_output_pinsP7nnode_ti
FN:178,_Z27add_output_port_informationP7nnode_ti
FNDA:24023500,_Z27add_output_port_informationP7nnode_ti
FN:187,_Z26add_input_port_informationP7nnode_ti
FNDA:47716300,_Z26add_input_port_informationP7nnode_ti
FN:196,_Z13allocate_npinv
FNDA:115895000,_Z13allocate_npinv
FN:222,_Z9free_npinP6npin_t
FNDA:1646440,_Z9free_npinP6npin_t
FN:245,_ZL9copy_npinP6npin_t
FNDA:34500600,_ZL9copy_npinP6npin_t
FN:260,_Z16copy_output_npinP6npin_t
FNDA:0,_Z16copy_output_npinP6npin_t
FN:272,_Z15copy_input_npinP6npin_t
FNDA:34500600,_Z15copy_input_npinP6npin_t
FN:285,_Z13allocate_nnetv
FNDA:25781600,_Z13allocate_nnetv
FN:306,_Z9free_nnetP6nnet_t
FNDA:4378690,_Z9free_nnetP6nnet_t
FN:324,_Z15move_output_pinP7nnode_tii
FNDA:0,_Z15move_output_pinP7nnode_tii
FN:343,_Z14move_input_pinP7nnode_tii
FNDA:396456,_Z14move_input_pinP7nnode_tii
FN:362,_Z21add_input_pin_to_nodeP7nnode_tP6npin_ti
FNDA:117164000,_Z21add_input_pin_to_nodeP7nnode_tP6npin_ti
FN:377,_Z21add_fanout_pin_to_netP6nnet_tP6npin_t
FNDA:105120000,_Z21add_fanout_pin_to_netP6nnet_tP6npin_t
FN:394,_Z22add_output_pin_to_nodeP7nnode_tP6npin_ti
FNDA:33455000,_Z22add_output_pin_to_nodeP7nnode_tP6npin_ti
FN:409,_Z21add_driver_pin_to_netP6nnet_tP6npin_t
FNDA:23968200,_Z21add_driver_pin_to_netP6nnet_tP6npin_t
FN:429,_Z12combine_netsP6nnet_tS0_P9netlist_t
FNDA:1479830,_Z12combine_netsP6nnet_tS0_P9netlist_t
FN:461,_Z27combine_nets_with_spot_copyP6nnet_tS0_lP9netlist_t
FNDA:1219520,_Z27combine_nets_with_spot_copyP6nnet_tS0_lP9netlist_t
FN:497,_Z9join_netsP6nnet_tS0_
FNDA:3042400,_Z9join_netsP6nnet_tS0_
FN:539,_Z14integrate_netsPcS_P6nnet_t
FNDA:1673300,_Z14integrate_netsPcS_P6nnet_t
FN:600,_Z20remap_pin_to_new_netP6npin_tP6nnet_t
FNDA:0,_Z20remap_pin_to_new_netP6npin_tP6nnet_t
FN:620,_Z21remap_pin_to_new_nodeP6npin_tP7nnode_ti
FNDA:49655600,_Z21remap_pin_to_new_nodeP6npin_tP7nnode_ti
FN:638,_Z13connect_nodesP7nnode_tiS0_i
FNDA:9674500,_Z13connect_nodesP7nnode_tiS0_i
FN:677,_Z14init_attributev
FNDA:26926300,_Z14init_attributev
FN:722,_Z14copy_attributeP6attr_tS0_
FNDA:0,_Z14copy_attributeP6attr_tS0_
FN:765,_Z15copy_signednessP6attr_tS0_
FNDA:0,_Z15copy_signednessP6attr_tS0_
FN:778,_Z16init_signal_listv
FNDA:47696300,_Z16init_signal_listv
FN:801,_Z18is_constant_signalP13signal_list_tP9netlist_t
FNDA:576,_Z18is_constant_signalP13signal_list_tP9netlist_t
FN:828,_Z21constant_signal_valueP13signal_list_tP9netlist_t
FNDA:0,_Z21constant_signal_valueP13signal_list_tP9netlist_t
FN:855,_Z22create_constant_signalxiP9netlist_t
FNDA:0,_Z22create_constant_signalxiP9netlist_t
FN:901,_Z12prune_signalP13signal_list_tlli
FNDA:0,_Z12prune_signalP13signal_list_tlli
FN:953,_Z22add_pin_to_signal_listP13signal_list_tP6npin_t
FNDA:308405000,_Z22add_pin_to_signal_listP13signal_list_tP6npin_t
FN:962,_Z13combine_listsPP13signal_list_ti
FNDA:109909,_Z13combine_listsPP13signal_list_ti
FN:996,_Z17split_signal_listP13signal_list_ti
FNDA:0,_Z17split_signal_listP13signal_list_ti
FN:1037,_Z6sigcmpP13signal_list_tS0_
FNDA:0,_Z6sigcmpP13signal_list_tS0_
FN:1054,_Z39combine_lists_without_freeing_originalsPP13signal_list_ti
FNDA:45067,_Z39combine_lists_without_freeing_originalsPP13signal_list_ti
FN:1068,_Z18copy_input_signalsP13signal_list_t
FNDA:1573070,_Z18copy_input_signalsP13signal_list_t
FN:1079,_Z19copy_output_signalsP13signal_list_t
FNDA:0,_Z19copy_output_signalsP13signal_list_t
FN:1095,_ZL20compare_npin_t_namesPKvS0_
FNDA:63169900,_ZL20compare_npin_t_namesPKvS0_
FN:1101,_Z31sort_signal_list_alphabeticallyP13signal_list_t
FNDA:193523,_Z31sort_signal_list_alphabeticallyP13signal_list_t
FN:1111,_Z34make_output_pins_for_existing_nodeP7nnode_ti
FNDA:1122510,_Z34make_output_pins_for_existing_nodeP7nnode_ti
FN:1142,_Z16free_signal_listP13signal_list_t
FNDA:50627900,_Z16free_signal_listP13signal_list_t
FN:1159,_Z14free_attributeP6attr_t
FNDA:6474710,_Z14free_attributeP6attr_t
FN:1173,_Z34hookup_input_pins_from_signal_listP7nnode_tiP13signal_list_tiiP9netlist_t
FNDA:542476,_Z34hookup_input_pins_from_signal_listP7nnode_tiP13signal_list_tiiP9netlist_t
FN:1197,_Z37hookup_hb_input_pins_from_signal_listP7nnode_tiP13signal_list_tiiP9netlist_t
FNDA:2930,_Z37hookup_hb_input_pins_from_signal_listP7nnode_tiP13signal_list_tiiP9netlist_t
FN:1218,_Z35hookup_output_pins_from_signal_listP7nnode_tiP13signal_list_tii
FNDA:294,_Z35hookup_output_pins_from_signal_listP7nnode_tiP13signal_list_tii
FN:1242,_Z22count_nodes_in_netlistP9netlist_t
FNDA:0,_Z22count_nodes_in_netlistP9netlist_t
FN:1264,_Z20depth_traverse_countP7nnode_tPim
FNDA:0,_Z20depth_traverse_countP7nnode_tPim
FN:1300,_Z16allocate_netlistv
FNDA:6287,_Z16allocate_netlistv
FN:1346,_Z12free_netlistP9netlist_t
FNDA:9534,_Z12free_netlistP9netlist_t
FN:1358,_Z19add_node_to_netlistP9netlist_tP7nnode_t14operation_list
FNDA:0,_Z19add_node_to_netlistP9netlist_tP7nnode_t14operation_list
FN:1400,_Z15mark_clock_nodeP9netlist_tPKc
FNDA:0,_Z15mark_clock_nodeP9netlist_tPKc
FN:1427,_Z33get_output_pin_index_from_mappingP7nnode_tPKc
FNDA:1147730,_Z33get_output_pin_index_from_mappingP7nnode_tPKc
FN:1442,_Z34get_output_port_index_from_mappingP7nnode_tPKc
FNDA:1148290,_Z34get_output_port_index_from_mappingP7nnode_tPKc
FN:1459,_Z32get_input_pin_index_from_mappingP7nnode_tPKc
FNDA:2295460,_Z32get_input_pin_index_from_mappingP7nnode_tPKc
FN:1474,_Z33get_input_port_index_from_mappingP7nnode_tPKc
FNDA:2820500,_Z33get_input_port_index_from_mappingP7nnode_tPKc
FN:1499,_Z17legalize_polarityP6npin_t11edge_type_eP7nnode_t
FNDA:0,_Z17legalize_polarityP6npin_t11edge_type_eP7nnode_t
FN:1546,_Z20legalize_latch_clockP6npin_t11edge_type_eP7nnode_t
FNDA:0,_Z20legalize_latch_clockP6npin_t11edge_type_eP7nnode_t
FN:1588,_Z18reduce_input_portsRP7nnode_tP9netlist_t
FNDA:0,_Z18reduce_input_portsRP7nnode_tP9netlist_t
FN:1681,_Z18reduce_signal_listP13signal_list_t14operation_listP9netlist_t
FNDA:0,_Z18reduce_signal_listP13signal_list_t14operation_listP9netlist_t
FN:1714,_Z19allocate_chain_infov
FNDA:26958,_Z19allocate_chain_infov
FN:1734,_Z16pure_const_biopsP7nnode_tP9netlist_t
FNDA:0,_Z16pure_const_biopsP7nnode_tP9netlist_t
FN:1821,_Z10swap_portsRP7nnode_tii
FNDA:0,_Z10swap_portsRP7nnode_tii
FN:1889,_Z25equalize_input_ports_sizeRP7nnode_tmP9netlist_t
FNDA:0,_Z25equalize_input_ports_sizeRP7nnode_tmP9netlist_t
FN:1956,_Z19equalize_ports_sizeRP7nnode_tmP9netlist_t
FNDA:0,_Z19equalize_ports_sizeRP7nnode_tmP9netlist_t
FN:2040,_Z27remove_fanout_pins_from_netP6nnet_tP6npin_ti
FNDA:152055,_Z27remove_fanout_pins_from_netP6nnet_tP6npin_ti
FN:2051,_Z27remove_driver_pins_from_netP6nnet_tP6npin_ti
FNDA:0,_Z27remove_driver_pins_from_netP6nnet_tP6npin_ti
FN:2062,_Z11delete_npinP6npin_t
FNDA:1643020,_Z11delete_npinP6npin_t
DA:41,26926300
DA:42,26926300
DA:44,26926300
DA:45,26926300
DA:46,26926300
DA:47,26926300
DA:48,26926300
DA:49,26926300
DA:51,26926300
DA:52,26926300
DA:53,26926300
DA:54,26926300
DA:56,26926300
DA:57,26926300
DA:58,26926300
DA:59,26926300
DA:61,26926300
DA:62,26926300
DA:64,26926300
DA:65,26926300
DA:66,26926300
DA:67,26926300
DA:69,26926300
DA:71,26926300
DA:73,26926300
DA:75,26926300
DA:76,26926300
DA:78,26926300
DA:80,26926300
DA:81,26926300
DA:83,26926300
DA:85,26926300
DA:87,26926300
DA:89,26926300
DA:91,26926300
DA:97,13353500
DA:98,13353500
DA:101,47817500
DA:102,41342800
DA:103,192201
DA:104,192201
DA:106,41342800
DA:109,6474710
DA:111,20013300
DA:112,13538600
DA:113,30
DA:114,30
DA:116,13538600
DA:119,6474710
DA:121,6474710
DA:122,6474710
DA:123,6474710
DA:125,6474710
DA:127,6474710
DA:128,6210260
DA:129,6210260
DA:134,13353500
DA:141,60085000
DA:142,60085000
DA:144,60085000
DA:145,0
DA:146,0
DA:149,60085000
DA:150,176257000
DA:151,116172000
DA:153,60085000
DA:160,28891900
DA:161,28891900
DA:163,28891900
DA:164,0
DA:165,0
DA:168,28891900
DA:169,62923600
DA:170,34031700
DA:172,28891900
DA:178,24023500
DA:179,24023500
DA:180,24023500
DA:181,24023500
DA:182,24023500
DA:187,47716300
DA:188,47716300
DA:189,47716300
DA:190,47716300
DA:191,47716300
DA:196,115895000
DA:197,115895000
DA:199,115895000
DA:201,115895000
DA:202,115895000
DA:203,115895000
DA:204,115895000
DA:205,115895000
DA:206,115895000
DA:207,115895000
DA:209,115895000
DA:211,115895000
DA:213,115895000
DA:214,115895000
DA:216,115895000
DA:222,1646440
DA:223,1646440
DA:224,1646440
DA:225,1638480
DA:227,1646440
DA:229,1646440
DA:230,0
DA:232,1646440
DA:236,1646440
DA:245,34500600
DA:246,34500600
DA:247,34500600
DA:248,34500600
DA:249,34500600
DA:250,34500600
DA:251,34500600
DA:253,34500600
DA:260,0
DA:261,0
DA:262,0
DA:263,0
DA:265,0
DA:272,34500600
DA:273,34500600
DA:274,34500600
DA:275,34500600
DA:276,34500600
DA:279,34500600
DA:285,25781600
DA:286,25781600
DA:288,25781600
DA:289,25781600
DA:290,25781600
DA:291,25781600
DA:292,25781600
DA:293,25781600
DA:295,25781600
DA:296,25781600
DA:298,25781600
DA:300,25781600
DA:306,4378690
DA:307,4378690
DA:308,4368650
DA:310,4368650
DA:311,4368650
DA:313,4368650
DA:314,2646330
DA:318,4378690
DA:324,0
DA:325,0
DA:327,0
DA:328,0
DA:329,0
DA:331,0
DA:332,0
DA:333,0
DA:335,0
DA:336,0
DA:337,0
DA:338,0
DA:343,396456
DA:344,396456
DA:346,396456
DA:347,396456
DA:348,396456
DA:350,396456
DA:351,396456
DA:352,396456
DA:354,396456
DA:355,396456
DA:356,396456
DA:357,396456
DA:362,117164000
DA:363,117164000
DA:364,117164000
DA:365,117164000
DA:367,117164000
DA:369,117164000
DA:370,117164000
DA:371,117164000
DA:372,117164000
DA:377,105120000
DA:378,105120000
DA:379,105120000
DA:380,105120000
DA:382,105120000
DA:383,105120000
DA:384,105120000
DA:386,105120000
DA:387,105120000
DA:388,105120000
DA:389,105120000
DA:394,33455000
DA:395,33455000
DA:396,33455000
DA:397,33455000
DA:399,33455000
DA:401,33455000
DA:402,33455000
DA:403,33455000
DA:404,33455000
DA:409,23968200
DA:410,23968200
DA:411,23968200
DA:412,23968200
DA:414,23968200
DA:415,23968200
DA:416,23968200
DA:418,23968200
DA:419,23968200
DA:420,23968200
DA:421,23968200
DA:429,1479830
DA:431,2699360
DA:433,1219520
DA:436,1479830
DA:438,1479830
DA:440,1479830
DA:443,1479830
DA:444,1479830
DA:447,1479830
DA:448,0
DA:449,1479830
DA:450,0
DA:452,1479830
DA:461,1219520
DA:462,1219520
DA:463,1219520
DA:464,1219520
DA:467,175837000000
DA:468,175836000000
DA:469,541861
DA:470,541861
DA:471,541861
DA:475,1219520
DA:476,1219520
DA:478,1219520
DA:481,1761390
DA:482,541861
DA:483,541861
DA:485,541861
DA:486,541471
DA:489,1219520
DA:490,1219520
DA:497,3042400
DA:498,3042400
DA:499,0
DA:500,0
DA:501,0
DA:502,0
DA:504,0
DA:506,0
DA:507,0
DA:508,0
DA:509,0
DA:511,0
DA:514,0
DA:515,3042400
DA:516,0
DA:517,0
DA:519,0
DA:523,15451200
DA:524,12408800
DA:525,12084100
DA:530,3042400
DA:531,3042400
DA:539,1673300
DA:540,1673300
DA:541,1673300
DA:542,1673300
DA:544,1673300
DA:545,1673300
DA:548,1673300
DA:549,1009
DA:550,1009
DA:551,1672290
DA:552,20983
DA:553,20983
DA:554,1651310
DA:555,18
DA:556,18
DA:559,1651290
DA:561,298903
DA:563,140252
DA:565,140252
DA:567,120260
DA:570,19992
DA:571,19992
DA:572,19992
DA:574,19992
DA:578,158651
DA:579,158651
DA:583,1352390
DA:584,1352390
DA:586,1352390
DA:588,132864
DA:590,132864
DA:591,1219520
DA:593,1219520
DA:596,1673300
DA:600,0
DA:601,0
DA:603,0
DA:605,0
DA:606,0
DA:608,0
DA:609,0
DA:610,0
DA:611,0
DA:613,0
DA:615,0
DA:620,49655600
DA:621,49655600
DA:623,39040900
DA:625,39040900
DA:626,10614800
DA:628,10614800
DA:630,10614800
DA:632,49655600
DA:638,9674500
DA:639,9674500
DA:641,9674500
DA:642,9674500
DA:644,9674500
DA:647,9674500
DA:649,9674500
DA:651,8696790
DA:652,8696790
DA:653,8696790
DA:654,8696790
DA:656,8696790
DA:658,8696790
DA:660,8696790
DA:662,8696790
DA:666,977702
DA:668,9674500
DA:677,26926300
DA:678,26926300
DA:679,26926300
DA:681,26926300
DA:682,26926300
DA:683,26926300
DA:684,26926300
DA:685,26926300
DA:686,26926300
DA:688,26926300
DA:689,26926300
DA:691,26926300
DA:692,26926300
DA:695,26926300
DA:696,26926300
DA:697,26926300
DA:699,26926300
DA:700,26926300
DA:701,26926300
DA:702,26926300
DA:704,26926300
DA:705,26926300
DA:706,26926300
DA:707,26926300
DA:709,26926300
DA:722,0
DA:723,0
DA:724,0
DA:726,0
DA:727,0
DA:728,0
DA:729,0
DA:730,0
DA:731,0
DA:733,0
DA:734,0
DA:736,0
DA:737,0
DA:740,0
DA:741,0
DA:742,0
DA:744,0
DA:745,0
DA:746,0
DA:747,0
DA:749,0
DA:750,0
DA:751,0
DA:752,0
DA:753,0
DA:765,0
DA:766,0
DA:767,0
DA:769,0
DA:770,0
DA:771,0
DA:778,50437000
DA:779,50437000
DA:780,47696300
DA:782,50437000
DA:783,50437000
DA:784,50437000
DA:785,50437000
DA:787,50437000
DA:801,576
DA:802,576
DA:803,576
DA:805,576
DA:806,576
DA:808,576
DA:814,576
DA:828,0
DA:829,0
DA:834,0
DA:835,0
DA:837,0
DA:838,0
DA:842,0
DA:855,0
DA:856,0
DA:858,0
DA:859,0
DA:860,0
DA:862,0
DA:863,0
DA:864,0
DA:866,0
DA:868,0
DA:871,0
DA:872,0
DA:873,0
DA:876,0
DA:877,0
DA:878,0
DA:880,0
DA:884,0
DA:901,0
DA:903,0
DA:904,0
DA:905,0
DA:908,0
DA:911,0
DA:913,0
DA:914,0
DA:917,0
DA:919,0
DA:920,0
DA:921,0
DA:923,0
DA:924,0
DA:929,0
DA:930,0
DA:931,0
DA:936,0
DA:937,0
DA:941,0
DA:944,0
DA:946,0
DA:953,308405000
DA:954,308405000
DA:955,308405000
DA:956,308405000
DA:957,308405000
DA:962,109909
DA:963,109909
DA:964,243565
DA:965,133656
DA:967,2958830
DA:970,10165600000
DA:971,10162700000
DA:972,466
DA:975,2825470
DA:976,2825000
DA:979,133366
DA:983,109909
DA:996,0
DA:997,0
DA:1000,0
DA:1001,0
DA:1002,0
DA:1003,0
DA:1007,0
DA:1008,0
DA:1010,0
DA:1011,0
DA:1012,0
DA:1015,0
DA:1016,0
DA:1017,0
DA:1018,0
DA:1019,0
DA:1021,0
DA:1023,0
DA:1037,0
DA:1039,0
DA:1042,0
DA:1044,0
DA:1054,45067
DA:1055,45067
DA:1057,45067
DA:1058,205455
DA:1059,160388
DA:1060,160388
DA:1061,6037290
DA:1062,5876900
DA:1065,45067
DA:1068,1573070
DA:1069,1573070
DA:1070,1573070
DA:1071,11539200
DA:1072,9966120
DA:1073,9966120
DA:1074,9966120
DA:1076,1573070
DA:1079,0
DA:1080,0
DA:1081,0
DA:1082,0
DA:1083,0
DA:1084,0
DA:1086,0
DA:1095,63169900
DA:1096,63169900
DA:1097,63169900
DA:1098,63169900
DA:1101,193523
DA:1102,193523
DA:1103,193523
DA:1104,193523
DA:1111,1122510
DA:1112,1122510
DA:1113,1122510
DA:1115,1122510
DA:1117,2245020
DA:1118,1122510
DA:1119,1122510
DA:1120,1122510
DA:1121,1122510
DA:1122,1122510
DA:1123,1122510
DA:1124,1122510
DA:1126,1122510
DA:1128,1122510
DA:1130,1122510
DA:1133,1122510
DA:1136,1122510
DA:1142,50627900
DA:1143,50627900
DA:1144,50437000
DA:1145,50437000
DA:1147,50627900
DA:1148,50627900
DA:1149,50627900
DA:1159,6474710
DA:1160,6474710
DA:1161,6474710
DA:1162,6474710
DA:1165,6474710
DA:1166,6474710
DA:1167,6474710
DA:1173,542476
DA:1174,542476
DA:1176,4396650
DA:1177,3854180
DA:1178,3726940
DA:1179,3726940
DA:1180,3726940
DA:1184,127239
DA:1186,127239
DA:1187,0
DA:1190,542476
DA:1197,2930
DA:1198,2930
DA:1200,116286
DA:1201,113356
DA:1202,113356
DA:1203,113356
DA:1206,0
DA:1208,0
DA:1209,0
DA:1212,2930
DA:1218,294
DA:1219,294
DA:1220,294
DA:1222,588
DA:1223,294
DA:1226,294
DA:1228,294
DA:1230,0
DA:1234,294
DA:1236,294
DA:1242,0
DA:1243,0
DA:1244,0
DA:1247,0
DA:1248,0
DA:1249,0
DA:1252,0
DA:1253,0
DA:1254,0
DA:1258,0
DA:1264,0
DA:1265,0
DA:1266,0
DA:1267,0
DA:1269,0
DA:1273,0
DA:1276,0
DA:1278,0
DA:1279,0
DA:1280,0
DA:1282,0
DA:1283,0
DA:1284,0
DA:1285,0
DA:1286,0
DA:1287,0
DA:1288,0
DA:1291,0
DA:1300,6287
DA:1301,6287
DA:1303,6287
DA:1305,6287
DA:1306,6287
DA:1307,6287
DA:1308,6287
DA:1309,6287
DA:1310,6287
DA:1311,6287
DA:1312,6287
DA:1313,6287
DA:1314,6287
DA:1315,6287
DA:1316,6287
DA:1317,6287
DA:1318,6287
DA:1319,6287
DA:1320,6287
DA:1322,6287
DA:1323,6287
DA:1324,6287
DA:1325,6287
DA:1326,6287
DA:1327,6287
DA:1328,6287
DA:1329,6287
DA:1330,6287
DA:1331,6287
DA:1332,6287
DA:1333,6287
DA:1336,6287
DA:1337,6287
DA:1338,6287
DA:1340,6287
DA:1346,9534
DA:1347,9534
DA:1350,6287
DA:1351,6287
DA:1352,6287
DA:1358,0
DA:1359,0
DA:1362,0
DA:1364,0
DA:1365,0
DA:1366,0
DA:1368,0
DA:1371,0
DA:1374,0
DA:1375,0
DA:1376,0
DA:1377,0
DA:1379,0
DA:1380,0
DA:1381,0
DA:1382,0
DA:1383,0
DA:1384,0
DA:1385,0
DA:1386,0
DA:1387,0
DA:1388,0
DA:1389,0
DA:1391,0
DA:1392,0
DA:1393,0
DA:1395,0
DA:1400,0
DA:1403,0
DA:1404,0
DA:1405,0
DA:1408,0
DA:1409,0
DA:1411,0
DA:1412,0
DA:1413,0
DA:1415,0
DA:1416,0
DA:1417,0
DA:1420,0
DA:1421,0
DA:1427,1147730
DA:1428,1147730
DA:1429,1193600
DA:1430,1193600
DA:1431,1193600
DA:1432,1147730
DA:1442,1148290
DA:1443,1148290
DA:1444,1148290
DA:1445,1194450
DA:1447,1286190
DA:1448,1240040
DA:1449,1240040
DA:1450,1148290
DA:1459,2295460
DA:1460,2295460
DA:1461,19720700
DA:1462,19720700
DA:1463,19720700
DA:1464,2295460
DA:1474,2820500
DA:1475,2820500
DA:1476,2820500
DA:1477,5165460
DA:1479,30506900
DA:1480,28161900
DA:1481,28161900
DA:1482,2820500
DA:1499,0
DA:1501,0
DA:1502,0
DA:1505,0
DA:1508,0
DA:1509,0
DA:1511,0
DA:1513,0
DA:1515,0
DA:1517,0
DA:1518,0
DA:1519,0
DA:1520,0
DA:1522,0
DA:1524,0
DA:1526,0
DA:1530,0
DA:1532,0
DA:1546,0
DA:1548,0
DA:1549,0
DA:1552,0
DA:1553,0
DA:1556,0
DA:1558,0
DA:1560,0
DA:1561,0
DA:1562,0
DA:1563,0
DA:1565,0
DA:1567,0
DA:1569,0
DA:1572,0
DA:1574,0
DA:1588,0
DA:1589,0
DA:1591,0
DA:1592,0
DA:1593,0
DA:1595,0
DA:1597,0
DA:1599,0
DA:1600,0
DA:1601,0
DA:1603,0
DA:1607,0
DA:1609,0
DA:1610,0
DA:1613,0
DA:1615,0
DA:1616,0
DA:1617,0
DA:1618,0
DA:1622,0
DA:1623,0
DA:1624,0
DA:1627,0
DA:1630,0
DA:1631,0
DA:1632,0
DA:1634,0
DA:1637,0
DA:1640,0
DA:1642,0
DA:1643,0
DA:1644,0
DA:1645,0
DA:1647,0
DA:1650,0
DA:1656,0
DA:1657,0
DA:1661,0
DA:1662,0
DA:1664,0
DA:1665,0
DA:1667,0
DA:1668,0
DA:1681,0
DA:1683,0
DA:1685,0
DA:1686,0
DA:1688,0
DA:1690,0
DA:1691,0
DA:1692,0
DA:1693,0
DA:1694,0
DA:1702,0
DA:1703,0
DA:1704,0
DA:1709,0
DA:1711,0
DA:1714,26958
DA:1715,26958
DA:1717,26958
DA:1719,26958
DA:1720,26958
DA:1722,26958
DA:1734,0
DA:1736,0
DA:1738,0
DA:1739,0
DA:1740,0
DA:1741,0
DA:1742,0
DA:1743,0
DA:1744,0
DA:1746,0
DA:1750,0
DA:1751,0
DA:1753,0
DA:1754,0
DA:1756,0
DA:1757,0
DA:1758,0
DA:1759,0
DA:1760,0
DA:1762,0
DA:1763,0
DA:1764,0
DA:1766,0
DA:1767,0
DA:1768,0
DA:1770,0
DA:1772,0
DA:1773,0
DA:1775,0
DA:1777,0
DA:1778,0
DA:1780,0
DA:1781,0
DA:1782,0
DA:1784,0
DA:1785,0
DA:1789,0
DA:1790,0
DA:1792,0
DA:1794,0
DA:1796,0
DA:1798,0
DA:1802,0
DA:1803,0
DA:1805,0
DA:1806,0
DA:1807,0
DA:1808,0
DA:1809,0
DA:1821,0
DA:1823,0
DA:1824,0
DA:1825,0
DA:1826,0
DA:1828,0
DA:1829,0
DA:1830,0
DA:1833,0
DA:1834,0
DA:1835,0
DA:1836,0
DA:1839,0
DA:1841,0
DA:1842,0
DA:1843,0
DA:1844,0
DA:1847,0
DA:1848,0
DA:1850,0
DA:1851,0
DA:1853,0
DA:1857,0
DA:1859,0
DA:1863,0
DA:1864,0
DA:1865,0
DA:1869,0
DA:1870,0
DA:1872,0
DA:1873,0
DA:1875,0
DA:1876,0
DA:1889,0
DA:1890,0
DA:1891,0
DA:1901,0
DA:1903,0
DA:1904,0
DA:1905,0
DA:1906,0
DA:1908,0
DA:1911,0
DA:1914,0
DA:1918,0
DA:1919,0
DA:1922,0
DA:1924,0
DA:1925,0
DA:1927,0
DA:1933,0
DA:1934,0
DA:1940,0
DA:1942,0
DA:1956,0
DA:1957,0
DA:1958,0
DA:1968,0
DA:1970,0
DA:1971,0
DA:1972,0
DA:1973,0
DA:1975,0
DA:1978,0
DA:1981,0
DA:1985,0
DA:1988,0
DA:1989,0
DA:1992,0
DA:1994,0
DA:1995,0
DA:1997,0
DA:2003,0
DA:2004,0
DA:2005,0
DA:2010,0
DA:2011,0
DA:2012,0
DA:2013,0
DA:2015,0
DA:2017,0
DA:2019,0
DA:2023,0
DA:2024,0
DA:2026,0
DA:2028,0
DA:2030,0
DA:2035,0
DA:2037,0
DA:2040,152055
DA:2041,152055
DA:2042,587724000
DA:2043,587572000
DA:2044,587572000
DA:2045,587572000
DA:2047,152055
DA:2048,152055
DA:2049,152055
DA:2051,0
DA:2052,0
DA:2053,0
DA:2054,0
DA:2055,0
DA:2056,0
DA:2058,0
DA:2059,0
DA:2060,0
DA:2062,1643020
DA:2063,1643020
DA:2065,1643020
DA:2067,1643020
DA:2068,0
DA:2070,0
DA:2072,0
DA:2075,1643020
DA:2076,1643020
end_of_record
SF:/usr/include/c++/9/bits/allocator.h
DA:138,0
DA:141,0
DA:142,0
DA:153,0
end_of_record
SF:/usr/include/c++/9/bits/basic_string.h
DA:150,0
DA:156,0
DA:157,0
DA:159,0
DA:160,0
DA:178,0
DA:179,0
DA:182,0
DA:183,0
DA:186,0
DA:190,0
DA:193,0
DA:200,0
DA:203,0
DA:210,0
DA:211,0
DA:214,0
DA:216,0
DA:217,0
DA:221,0
DA:222,0
DA:229,0
DA:231,0
DA:232,0
DA:236,0
DA:237,0
DA:243,0
DA:247,0
DA:263,0
DA:266,0
DA:286,0
DA:287,0
DA:346,0
DA:348,0
DA:349,0
DA:351,0
DA:392,0
DA:393,0
DA:431,0
DA:433,0
DA:434,0
DA:625,0
DA:627,0
DA:628,0
DA:657,0
DA:658,0
DA:930,0
DA:936,0
DA:1063,0
DA:1070,0
DA:1221,0
DA:1222,0
DA:6568,0
DA:6569,0
DA:6571,0
end_of_record
SF:/workspace/vtr-verilog-to-routing/libs/EXTERNAL/libargparse/src/argparse_value.hpp
DA:50,127239
end_of_record
SF:/usr/include/c++/9/bits/basic_string.tcc
FN:206,_ZNSt7__cxx1112basic_stringIcSt11char_traitsIcESaIcEE12_M_constructIPcEEvT_S7_St20forward_iterator_tag
FNDA:0,_ZNSt7__cxx1112basic_stringIcSt11char_traitsIcESaIcEE12_M_constructIPcEEvT_S7_St20forward_iterator_tag
FN:1158,_ZStplIcSt11char_traitsIcESaIcEENSt7__cxx1112basic_stringIT_T0_T1_EEPKS5_RKS8_
FNDA:0,_ZStplIcSt11char_traitsIcESaIcEENSt7__cxx1112basic_stringIT_T0_T1_EEPKS5_RKS8_
DA:206,0
DA:211,0
DA:212,0
DA:215,0
DA:217,0
DA:219,0
DA:220,0
DA:225,0
DA:232,0
DA:233,0
DA:1158,0
DA:1164,0
DA:1165,0
DA:1166,0
DA:1167,0
DA:1168,0
DA:1169,0
end_of_record
SF:/usr/include/string.h
DA:317,4996900
DA:319,1673300
end_of_record
SF:/usr/include/c++/9/ext/type_traits.h
DA:152,0
end_of_record
SF:/usr/include/c++/9/bits/alloc_traits.h
DA:469,0
DA:470,0
end_of_record
SF:/usr/include/c++/9/cmath
DA:415,0
DA:418,0
end_of_record
SF:/usr/include/c++/9/bits/char_traits.h
DA:299,0
DA:300,0
DA:329,0
DA:335,0
DA:361,0
DA:363,0
DA:365,0
end_of_record
SF:/usr/include/c++/9/bits/ptr_traits.h
DA:146,0
DA:147,0
end_of_record
SF:/usr/include/c++/9/ext/string_conversions.h
FN:99,_ZN9__gnu_cxx12__to_xstringINSt7__cxx1112basic_stringIcSt11char_traitsIcESaIcEEEcEET_PFiPT0_mPKS8_P13__va_list_tagEmSB_z
FNDA:0,_ZN9__gnu_cxx12__to_xstringINSt7__cxx1112basic_stringIcSt11char_traitsIcESaIcEEEcEET_PFiPT0_mPKS8_P13__va_list_tagEmSB_z
DA:99,0
DA:105,0
DA:109,0
DA:111,0
DA:113,0
DA:115,0
end_of_record
SF:/usr/include/c++/9/bits/shared_ptr.h
DA:103,115895000
DA:127,115895000
DA:307,115895000
DA:333,115895000
DA:335,115895000
end_of_record
SF:/usr/include/c++/9/bits/shared_ptr_base.h
FN:131,_ZNSt16_Sp_counted_baseILN9__gnu_cxx12_Lock_policyE2EE10_M_destroyEv
FNDA:0,_ZNSt16_Sp_counted_baseILN9__gnu_cxx12_Lock_policyE2EE10_M_destroyEv
FN:148,_ZNSt16_Sp_counted_baseILN9__gnu_cxx12_Lock_policyE2EE10_M_releaseEv
FNDA:0,_ZNSt16_Sp_counted_baseILN9__gnu_cxx12_Lock_policyE2EE10_M_releaseEv
FN:404,_ZNSt15_Sp_counted_ptrIDnLN9__gnu_cxx12_Lock_policyE2EE10_M_disposeEv
FNDA:0,_ZNSt15_Sp_counted_ptrIDnLN9__gnu_cxx12_Lock_policyE2EE10_M_disposeEv
DA:131,0
DA:132,0
DA:148,0
DA:152,0
DA:155,0
DA:167,0
DA:171,0
DA:174,0
DA:404,0
DA:616,115895000
DA:727,231790000
DA:729,115895000
DA:730,0
DA:756,115895000
DA:758,115895000
DA:759,115895000
DA:1118,115895000
DA:1119,115895000
DA:1169,231790000
DA:1176,115895000
DA:1177,115895000
DA:1179,115895000
DA:1263,115895000
DA:1265,231790000
DA:1324,115895000
DA:1326,115895000
DA:1327,115895000
end_of_record
SF:/usr/include/c++/9/iostream
end_of_record
SF:/usr/include/c++/9/bits/stl_iterator_base_funcs.h
DA:98,0
DA:104,0
DA:138,0
DA:141,0
end_of_record
TN:
SF:/usr/include/c++/9/bits/alloc_traits.h
DA:469,38165
DA:470,38165
end_of_record
SF:/usr/include/c++/9/ext/type_traits.h
DA:152,38165
end_of_record
SF:/usr/include/c++/9/bits/char_traits.h
DA:299,114495
DA:300,0
DA:361,38784
DA:363,38165
DA:365,38784
end_of_record
SF:/usr/include/c++/9/bits/ptr_traits.h
DA:146,152660
DA:147,152660
end_of_record
SF:/workspace/vtr-verilog-to-routing/ODIN_II/SRC/netlist_statistic.cpp
FN:49,_Z9init_statP9netlist_t
FNDA:0,_Z9init_statP9netlist_t
FN:60,_Z25mixing_optimization_statsP7nnode_tP9netlist_t
FNDA:552,_Z25mixing_optimization_statsP7nnode_tP9netlist_t
FN:99,_ZL9aggregateP8metric_tPS0_x
FNDA:37212000,_ZL9aggregateP8metric_tPS0_x
FN:150,_ZL15count_node_type14operation_listP7nnode_tP9netlist_t
FNDA:18378500,_ZL15count_node_type14operation_listP7nnode_tP9netlist_t
FN:231,_ZL15get_upward_statP6nnet_tP9netlist_tm
FNDA:69193000,_ZL15get_upward_statP6nnet_tP9netlist_tm
FN:251,_ZL15get_upward_statP7nnode_tP9netlist_tm
FNDA:19145400,_ZL15get_upward_statP7nnode_tP9netlist_tm
FN:276,_ZL17get_downward_statP6nnet_tP9netlist_tm
FNDA:34144,_ZL17get_downward_statP6nnet_tP9netlist_tm
FN:298,_ZL17get_downward_statP7nnode_tP9netlist_tm
FNDA:59608,_ZL17get_downward_statP7nnode_tP9netlist_tm
FN:323,_ZL17get_downward_statP8metric_tP13signal_list_tP9netlist_tm
FNDA:0,_ZL17get_downward_statP8metric_tP13signal_list_tP9netlist_tm
FN:346,_ZL15get_upward_statP8metric_tP13signal_list_tP9netlist_tm
FNDA:0,_ZL15get_upward_statP8metric_tP13signal_list_tP9netlist_tm
FN:370,_ZL15get_upward_statP8metric_tPP7nnode_txP9netlist_tm
FNDA:6287,_ZL15get_upward_statP8metric_tPP7nnode_txP9netlist_tm
FN:385,_ZL17get_downward_statP8metric_tPP7nnode_txP9netlist_tm
FNDA:0,_ZL17get_downward_statP8metric_tPP7nnode_txP9netlist_tm
FN:400,_ZL15get_upward_statP8metric_tPP6nnet_txP9netlist_tm
FNDA:0,_ZL15get_upward_statP8metric_tPP6nnet_txP9netlist_tm
FN:415,_ZL17get_downward_statP8metric_tPP6nnet_txP9netlist_tm
FNDA:0,_ZL17get_downward_statP8metric_tPP6nnet_txP9netlist_tm
FN:430,_Z9get_statsP7nnode_tP9netlist_tm
FNDA:552,_Z9get_statsP7nnode_tP9netlist_tm
FN:437,_Z9get_statsP6nnet_tP9netlist_tm
FNDA:0,_Z9get_statsP6nnet_tP9netlist_tm
FN:444,_Z9get_statsP13signal_list_tS0_P9netlist_tm
FNDA:0,_Z9get_statsP13signal_list_tS0_P9netlist_tm
FN:453,_Z9get_statsPP7nnode_txP9netlist_tm
FNDA:0,_Z9get_statsPP7nnode_txP9netlist_tm
FN:460,_Z9get_statsPP6nnet_txP9netlist_tm
FNDA:0,_Z9get_statsPP6nnet_txP9netlist_tm
FN:467,_Z11delete_statP6stat_t
FNDA:0,_Z11delete_statP6stat_t
FN:481,_Z18compute_statisticsP9netlist_tb
FNDA:9534,_Z18compute_statisticsP9netlist_tb
DA:42,74581300
DA:43,74581300
DA:44,74581300
DA:45,74581300
DA:46,74581300
DA:49,552
DA:50,39744
DA:52,485569
DA:55,6839
DA:56,6839
DA:57,6839
DA:58,0
DA:60,552
DA:62,552
DA:65,552
DA:66,552
DA:67,552
DA:68,552
DA:69,552
DA:70,552
DA:72,0
DA:73,0
DA:74,0
DA:76,552
DA:87,1104
DA:88,1104
DA:89,1104
DA:90,552
DA:91,1104
DA:92,1104
DA:93,1104
DA:94,1104
DA:99,37212000
DA:100,37212000
DA:101,37212000
DA:104,125648000
DA:105,88435800
DA:106,88435800
DA:107,88429900
DA:108,88429900
DA:109,38646700
DA:111,62240300
DA:113,88429900
DA:114,88429900
DA:115,88429900
DA:119,37212000
DA:120,37210900
DA:121,37210900
DA:123,37212000
DA:125,18378500
DA:126,18378500
DA:127,18378500
DA:128,18378500
DA:129,18378500
DA:130,18378500
DA:132,19204000
DA:133,19204000
DA:134,19204000
DA:135,19204000
DA:138,69227000
DA:139,69227000
DA:140,69227000
DA:141,69227000
DA:144,30442900
DA:145,30442900
DA:146,0
DA:148,30442900
DA:149,341223
DA:150,18378500
DA:151,32270500
DA:152,7188170
DA:153,7188170
DA:154,7188170
DA:155,7188170
DA:156,7188170
DA:157,7188170
DA:158,7188170
DA:159,7188170
DA:160,7188170
DA:161,7188170
DA:163,4883520
DA:164,4883520
DA:165,4883520
DA:166,4883520
DA:167,4883520
DA:169,13677000
DA:175,13677000
DA:179,811214
DA:180,579494
DA:181,579494
DA:182,579494
DA:183,579494
DA:186,13445300
DA:188,13677000
DA:189,13677000
DA:190,13677000
DA:203,341223
DA:204,341223
DA:206,341223
DA:209,4352960
DA:210,4352960
DA:211,4352960
DA:212,4352960
DA:213,4352960
DA:214,4352960
DA:216,4352960
DA:217,4352960
DA:218,4352960
DA:220,1605320
DA:222,1605320
DA:223,1605320
DA:225,18378500
DA:227,18378500
DA:228,18378500
DA:231,69193000
DA:232,69193000
DA:233,69193000
DA:234,69193000
DA:236,69193000
DA:237,18948800
DA:239,18948800
DA:240,18948700
DA:241,37897500
DA:242,18948800
DA:243,18948700
DA:244,18948700
DA:248,69193000
DA:251,19145400
DA:252,19145400
DA:253,19145400
DA:254,19145400
DA:256,19145400
DA:257,18345000
DA:259,18345000
DA:260,18345000
DA:261,18200600
DA:262,87393600
DA:263,69193000
DA:264,69193000
DA:267,18200600
DA:268,18200600
DA:270,18345000
DA:273,19145400
DA:276,34144
DA:277,34144
DA:278,34144
DA:279,34008
DA:281,34008
DA:282,34008
DA:283,34008
DA:284,34008
DA:285,97576
DA:286,63568
DA:287,59056
DA:290,34008
DA:291,34008
DA:295,34144
DA:298,59608
DA:299,59608
DA:301,59608
DA:302,58576
DA:303,58576
DA:304,33496
DA:306,33496
DA:307,33496
DA:308,22456
DA:309,56872
DA:310,34416
DA:311,34144
DA:314,22456
DA:315,22456
DA:317,33496
DA:320,59608
DA:323,0
DA:324,0
DA:325,0
DA:326,0
DA:327,0
DA:328,0
DA:330,0
DA:331,0
DA:335,0
DA:339,0
DA:340,0
DA:343,0
DA:346,0
DA:347,0
DA:348,0
DA:349,0
DA:350,0
DA:351,0
DA:353,0
DA:354,0
DA:358,0
DA:362,0
DA:364,0
DA:367,0
DA:370,6287
DA:371,6287
DA:372,6239
DA:373,6239
DA:374,202265
DA:375,196026
DA:377,6239
DA:379,6239
DA:382,6287
DA:385,0
DA:386,0
DA:387,0
DA:388,0
DA:389,0
DA:390,0
DA:392,0
DA:394,0
DA:397,0
DA:400,0
DA:401,0
DA:402,0
DA:403,0
DA:404,0
DA:405,0
DA:407,0
DA:409,0
DA:412,0
DA:415,0
DA:416,0
DA:417,0
DA:418,0
DA:419,0
DA:420,0
DA:422,0
DA:424,0
DA:427,0
DA:430,552
DA:431,552
DA:432,552
DA:433,552
DA:434,552
DA:437,0
DA:438,0
DA:439,0
DA:440,0
DA:441,0
DA:444,0
DA:445,0
DA:447,0
DA:449,0
DA:450,0
DA:453,0
DA:454,0
DA:455,0
DA:456,0
DA:457,0
DA:460,0
DA:461,0
DA:462,0
DA:463,0
DA:464,0
DA:467,0
DA:468,0
DA:469,0
DA:470,0
DA:472,0
DA:481,9534
DA:482,9534
DA:484,452664
DA:486,6287
DA:488,6287
DA:489,6287
DA:490,452664
DA:491,446377
DA:492,0
DA:493,76330
DA:494,76330
DA:496,38165
DA:499,6287
DA:500,6287
DA:501,6287
DA:502,6287
DA:503,6287
DA:506,9534
end_of_record
SF:/usr/include/c++/9/iostream
end_of_record
SF:/usr/include/c++/9/bits/stl_iterator_base_funcs.h
DA:98,38165
DA:104,38165
DA:138,38165
DA:141,38165
end_of_record
SF:/usr/include/c++/9/bits/stl_algobase.h
DA:198,49783200
DA:203,49783200
DA:204,12457100
DA:222,88429900
DA:227,88429900
DA:228,16511600
end_of_record
SF:/usr/include/c++/9/ext/new_allocator.h
DA:80,38165
DA:83,76330
DA:89,76330
DA:119,38165
DA:128,38165
end_of_record
SF:/usr/include/c++/9/bits/move.h
DA:47,267155
DA:99,76330
DA:138,267155
DA:139,152660
end_of_record
SF:/usr/include/x86_64-linux-gnu/bits/stdio2.h
DA:105,75887
DA:107,50739
end_of_record
SF:/usr/include/c++/9/bits/allocator.h
DA:138,38165
DA:141,76330
DA:142,76330
DA:153,76330
end_of_record
SF:/usr/include/c++/9/bits/basic_string.h
FN:6121,_ZStplIcSt11char_traitsIcESaIcEENSt7__cxx1112basic_stringIT_T0_T1_EEOS8_PKS5_
FNDA:76330,_ZStplIcSt11char_traitsIcESaIcEENSt7__cxx1112basic_stringIT_T0_T1_EEOS8_PKS5_
DA:150,114495
DA:159,76330
DA:160,76330
DA:178,152041
DA:179,0
DA:182,114495
DA:183,114495
DA:186,495526
DA:190,152660
DA:193,152660
DA:200,190825
DA:203,190825
DA:210,75711
DA:211,0
DA:214,114495
DA:216,114495
DA:217,114495
DA:221,190825
DA:222,190825
DA:229,114495
DA:231,76330
DA:232,152660
DA:236,38165
DA:237,38165
DA:286,114495
DA:287,38165
DA:346,38165
DA:348,38165
DA:349,0
DA:351,38165
DA:396,38165
DA:398,38165
DA:552,76330
DA:553,76330
DA:555,76330
DA:557,619
DA:562,75711
DA:563,75711
DA:569,76330
DA:570,76330
DA:571,76330
DA:657,76330
DA:658,76330
DA:936,76330
DA:2300,38165
DA:2301,38165
DA:6121,76330
DA:6123,76330
end_of_record
SF:/usr/include/c++/9/bits/basic_string.tcc
FN:206,_ZNSt7__cxx1112basic_stringIcSt11char_traitsIcESaIcEE12_M_constructIPKcEEvT_S8_St20forward_iterator_tag
FNDA:38165,_ZNSt7__cxx1112basic_stringIcSt11char_traitsIcESaIcEE12_M_constructIPKcEEvT_S8_St20forward_iterator_tag
DA:206,38165
DA:211,38165
DA:212,0
DA:215,38165
DA:217,38165
DA:219,0
DA:220,0
DA:225,38165
DA:232,38165
DA:233,38165
end_of_record
TN:
SF:/usr/include/c++/9/bits/basic_string.tcc
FN:206,_ZNSt7__cxx1112basic_stringIcSt11char_traitsIcESaIcEE12_M_constructIPcEEvT_S7_St20forward_iterator_tag
FNDA:24,_ZNSt7__cxx1112basic_stringIcSt11char_traitsIcESaIcEE12_M_constructIPcEEvT_S7_St20forward_iterator_tag
FN:206,_ZNSt7__cxx1112basic_stringIcSt11char_traitsIcESaIcEE12_M_constructIPKcEEvT_S8_St20forward_iterator_tag
FNDA:42,_ZNSt7__cxx1112basic_stringIcSt11char_traitsIcESaIcEE12_M_constructIPKcEEvT_S8_St20forward_iterator_tag
DA:206,24
DA:211,24
DA:212,0
DA:215,24
DA:217,24
DA:219,0
DA:220,0
DA:225,24
DA:232,24
DA:233,24
DA:206,42
DA:211,42
DA:212,0
DA:215,42
DA:217,42
DA:219,0
DA:220,0
DA:225,42
DA:232,42
DA:233,42
end_of_record
SF:/usr/include/string.h
DA:317,49742500
DA:319,25624100
end_of_record
SF:/usr/include/c++/9/bits/stl_uninitialized.h
DA:76,0
DA:79,0
DA:82,0
DA:83,0
DA:115,0
DA:134,0
DA:140,0
DA:305,0
DA:307,0
DA:905,0
DA:912,0
DA:913,0
DA:949,0
DA:950,0
DA:964,0
end_of_record
SF:/workspace/vtr-verilog-to-routing/libs/EXTERNAL/libargparse/src/argparse_value.hpp
DA:50,417587
end_of_record
SF:/usr/include/c++/9/initializer_list
DA:71,0
DA:75,0
DA:79,0
end_of_record
SF:/usr/include/c++/9/bits/cpp_type_traits.h
DA:428,0
end_of_record
SF:/usr/include/c++/9/bits/vector.tcc
FN:109,_ZNSt6vectorIN8BitSpace9BitFieldsItEESaIS2_EE12emplace_backIJS2_EEEvDpOT_
FNDA:440,_ZNSt6vectorIN8BitSpace9BitFieldsItEESaIS2_EE12emplace_backIJS2_EEEvDpOT_
FN:198,_ZNSt6vectorIN8BitSpace9BitFieldsItEESaIS2_EEaSERKS4_
FNDA:0,_ZNSt6vectorIN8BitSpace9BitFieldsItEESaIS2_EEaSERKS4_
FN:426,_ZNSt6vectorIN8BitSpace9BitFieldsItEESaIS2_EE17_M_realloc_insertIJS2_EEEvN9__gnu_cxx17__normal_iteratorIPS2_S4_EEDpOT_
FNDA:0,_ZNSt6vectorIN8BitSpace9BitFieldsItEESaIS2_EE17_M_realloc_insertIJS2_EEEvN9__gnu_cxx17__normal_iteratorIPS2_S4_EEDpOT_
DA:109,440
DA:112,440
DA:115,0
DA:117,0
DA:121,440
DA:125,440
DA:198,0
DA:201,0
DA:223,0
DA:224,0
DA:226,0
DA:228,0
DA:229,0
DA:230,0
DA:231,0
DA:232,0
DA:233,0
DA:234,0
DA:236,0
DA:238,0
DA:239,0
DA:243,0
DA:245,0
DA:246,0
DA:248,0
DA:250,0
DA:252,0
DA:426,0
DA:435,0
DA:437,0
DA:438,0
DA:439,0
DA:440,0
DA:441,0
DA:449,0
DA:450,0
DA:456,0
DA:461,0
DA:462,0
DA:464,0
DA:466,0
DA:467,0
DA:500,0
DA:501,0
DA:502,0
DA:503,0
DA:504,0
DA:505,0
end_of_record
SF:/workspace/vtr-verilog-to-routing/libs/librtlnumber/src/include/rtl_utils.hpp
FN:47,_Z12_assert_WerrbPKciNSt7__cxx1112basic_stringIcSt11char_traitsIcESaIcEEE
FNDA:0,_Z12_assert_WerrbPKciNSt7__cxx1112basic_stringIcSt11char_traitsIcESaIcEEE
DA:47,0
DA:48,0
DA:49,0
DA:50,0
DA:51,0
DA:52,0
DA:54,0
end_of_record
SF:/usr/include/c++/9/bits/basic_string.h
FN:6057,_ZStplIcSt11char_traitsIcESaIcEENSt7__cxx1112basic_stringIT_T0_T1_EERKS8_PKS5_
FNDA:24,_ZStplIcSt11char_traitsIcESaIcEENSt7__cxx1112basic_stringIT_T0_T1_EERKS8_PKS5_
FN:6085,_ZStplIcSt11char_traitsIcESaIcEENSt7__cxx1112basic_stringIT_T0_T1_EEOS8_RKS8_
FNDA:0,_ZStplIcSt11char_traitsIcESaIcEENSt7__cxx1112basic_stringIT_T0_T1_EEOS8_RKS8_
FN:6109,_ZStplIcSt11char_traitsIcESaIcEENSt7__cxx1112basic_stringIT_T0_T1_EEPKS5_OS8_
FNDA:0,_ZStplIcSt11char_traitsIcESaIcEENSt7__cxx1112basic_stringIT_T0_T1_EEPKS5_OS8_
FN:6121,_ZStplIcSt11char_traitsIcESaIcEENSt7__cxx1112basic_stringIT_T0_T1_EEOS8_PKS5_
FNDA:24,_ZStplIcSt11char_traitsIcESaIcEENSt7__cxx1112basic_stringIT_T0_T1_EEOS8_PKS5_
DA:150,90
DA:156,0
DA:157,0
DA:159,24
DA:160,48
DA:178,48
DA:179,0
DA:182,90
DA:183,90
DA:186,384
DA:190,72
DA:193,24
DA:200,114
DA:203,114
DA:210,24
DA:211,0
DA:214,90
DA:216,90
DA:217,90
DA:221,114
DA:222,114
DA:229,90
DA:231,66
DA:232,114
DA:236,24
DA:237,24
DA:243,24
DA:247,24
DA:263,24
DA:266,0
DA:286,48
DA:287,24
DA:290,24
DA:291,24
DA:346,66
DA:348,66
DA:349,0
DA:351,66
DA:392,24
DA:393,24
DA:396,42
DA:398,42
DA:448,24
DA:450,24
DA:451,48
DA:540,0
DA:541,0
DA:542,0
DA:552,24
DA:553,24
DA:555,24
DA:557,0
DA:562,24
DA:563,24
DA:569,24
DA:570,24
DA:571,24
DA:625,0
DA:627,0
DA:628,0
DA:657,66
DA:658,66
DA:930,0
DA:936,24
DA:1221,0
DA:1222,0
DA:2300,42
DA:2301,42
DA:2312,0
DA:2313,0
DA:6057,24
DA:6060,24
DA:6061,24
DA:6062,24
DA:6085,0
DA:6087,0
DA:6109,0
DA:6111,0
DA:6121,24
DA:6123,24
DA:6416,0
DA:6421,0
DA:6546,0
DA:6547,0
DA:6548,0
DA:6562,0
DA:6563,0
DA:6565,0
end_of_record
SF:/usr/include/c++/9/bits/allocator.h
DA:138,482
DA:141,488
DA:142,488
DA:153,572
end_of_record
SF:/usr/include/c++/9/bits/stl_vector.h
FN:622,_ZNSt6vectorIP10ast_node_tSaIS1_EEC2ESt16initializer_listIS1_ERKS2_
FNDA:0,_ZNSt6vectorIP10ast_node_tSaIS1_EEC2ESt16initializer_listIS1_ERKS2_
FN:1753,_ZNKSt6vectorIN8BitSpace9BitFieldsItEESaIS2_EE12_M_check_lenEmPKc
FNDA:0,_ZNKSt6vectorIN8BitSpace9BitFieldsItEESaIS2_EE12_M_check_lenEmPKc
DA:94,440
DA:95,440
DA:106,440
DA:108,440
DA:109,440
DA:110,440
DA:114,440
DA:118,440
DA:119,440
DA:120,440
DA:121,440
DA:125,440
DA:128,440
DA:130,440
DA:133,440
DA:134,440
DA:273,0
DA:274,0
DA:277,440
DA:278,440
DA:281,440
DA:282,440
DA:285,440
DA:290,440
DA:291,440
DA:330,440
DA:332,440
DA:333,440
DA:334,440
DA:347,440
DA:350,0
DA:351,0
DA:453,0
DA:462,0
DA:466,0
DA:484,440
DA:494,440
DA:495,440
DA:622,0
DA:624,0
DA:626,0
DA:628,0
DA:675,440
DA:677,440
DA:678,440
DA:680,440
DA:706,440
DA:708,440
DA:711,440
DA:808,0
DA:809,0
DA:817,0
DA:818,0
DA:826,440
DA:827,440
DA:835,0
DA:836,0
DA:915,0
DA:916,0
DA:920,0
DA:921,0
DA:995,0
DA:997,0
DA:1040,5312
DA:1043,5312
DA:1200,440
DA:1201,440
DA:1505,0
DA:1508,0
DA:1511,0
DA:1512,0
DA:1753,0
DA:1755,0
DA:1756,0
DA:1758,0
DA:1759,0
DA:1773,0
DA:1780,0
DA:1781,0
DA:1812,440
DA:1814,440
DA:1815,440
DA:1816,440
DA:1817,440
end_of_record
SF:/usr/include/x86_64-linux-gnu/bits/stdio2.h
DA:105,0
DA:107,0
end_of_record
SF:/workspace/vtr-verilog-to-routing/libs/librtlnumber/src/include/internal_bits.hpp
FN:308,_ZN8BitSpaceL13bits_to_hex_cEsb
FNDA:0,_ZN8BitSpaceL13bits_to_hex_cEsb
FN:454,_ZN8BitSpace11VerilogBitsC2Emh
FNDA:440,_ZN8BitSpace11VerilogBitsC2Emh
FN:510,_ZN8BitSpace11VerilogBits12to_printableB5cxx11Ev
FNDA:0,_ZN8BitSpace11VerilogBits12to_printableB5cxx11Ev
FN:520,_ZN8BitSpace11VerilogBits4getcEv
FNDA:0,_ZN8BitSpace11VerilogBits4getcEv
FN:722,_ZN7VNumberC2EPS_
FNDA:440,_ZN7VNumberC2EPS_
FN:751,_ZN7VNumber9get_valueEv
FNDA:0,_ZN7VNumber9get_valueEv
FN:777,_ZN7VNumber9to_stringB5cxx11Ebb
FNDA:0,_ZN7VNumber9to_stringB5cxx11Ebb
FN:792,_ZN7VNumber10to_UstringB5cxx11Eb
FNDA:0,_ZN7VNumber10to_UstringB5cxx11Eb
FN:807,_ZN7VNumber12to_log2radixB5cxx11Esbb
FNDA:0,_ZN7VNumber12to_log2radixB5cxx11Esbb
FN:832,_ZN7VNumber9to_base10B5cxx11Ebb
FNDA:0,_ZN7VNumber9to_base10B5cxx11Ebb
FN:857,_ZN7VNumber20to_verilog_bitstringB5cxx11Ev
FNDA:0,_ZN7VNumber20to_verilog_bitstringB5cxx11Ev
FN:864,_ZN7VNumber10to_vstringB5cxx11Ec
FNDA:0,_ZN7VNumber10to_vstringB5cxx11Ec
FN:1007,_ZN7VNumber16get_bit_from_msbEm
FNDA:0,_ZN7VNumber16get_bit_from_msbEm
FN:1012,_ZN7VNumber16get_bit_from_lsbEm
FNDA:5312,_ZN7VNumber16get_bit_from_lsbEm
DA:286,0
DA:287,0
DA:290,0
DA:291,0
DA:292,0
DA:293,0
DA:294,0
DA:295,0
DA:299,0
DA:300,0
DA:303,0
DA:304,0
DA:308,0
DA:309,0
DA:312,0
DA:313,0
DA:314,0
DA:315,0
DA:316,0
DA:317,0
DA:318,0
DA:319,0
DA:320,0
DA:321,0
DA:322,0
DA:323,0
DA:324,0
DA:325,0
DA:326,0
DA:327,0
DA:328,0
DA:329,0
DA:330,0
DA:331,0
DA:332,0
DA:333,0
DA:334,0
DA:335,0
DA:336,0
DA:337,0
DA:338,0
DA:339,0
DA:340,0
DA:341,0
DA:342,0
DA:343,0
DA:346,0
DA:349,0
DA:376,5312
DA:377,5312
DA:378,5312
DA:379,5312
DA:384,440
DA:385,440
DA:390,5312
DA:391,5312
DA:392,0
DA:394,5312
DA:398,0
DA:399,0
DA:401,0
DA:402,0
DA:404,0
DA:405,0
DA:406,0
DA:408,0
DA:409,0
DA:416,0
DA:418,0
DA:419,0
DA:425,0
DA:435,880
DA:440,5312
DA:441,5312
DA:454,440
DA:455,440
DA:456,440
DA:458,440
DA:460,880
DA:461,880
DA:463,440
DA:470,5312
DA:471,5312
DA:478,5312
DA:486,5312
DA:489,5312
DA:497,5312
DA:500,0
DA:507,0
DA:510,0
DA:511,0
DA:513,0
DA:514,0
DA:517,0
DA:520,0
DA:521,0
DA:522,0
DA:526,0
DA:527,0
DA:561,0
DA:562,0
DA:563,0
DA:674,0
DA:722,440
DA:723,440
DA:724,440
DA:725,440
DA:726,440
DA:751,0
DA:752,0
DA:754,0
DA:757,0
DA:758,0
DA:759,0
DA:760,0
DA:763,0
DA:764,0
DA:766,0
DA:767,0
DA:768,0
DA:769,0
DA:771,0
DA:774,0
DA:777,0
DA:779,0
DA:780,0
DA:781,0
DA:782,0
DA:783,0
DA:785,0
DA:789,0
DA:792,0
DA:794,0
DA:795,0
DA:796,0
DA:797,0
DA:798,0
DA:800,0
DA:804,0
DA:807,0
DA:808,0
DA:811,0
DA:812,0
DA:813,0
DA:816,0
DA:818,0
DA:819,0
DA:820,0
DA:822,0
DA:829,0
DA:832,0
DA:833,0
DA:834,0
DA:835,0
DA:837,0
DA:839,0
DA:840,0
DA:841,0
DA:842,0
DA:843,0
DA:845,0
DA:847,0
DA:848,0
DA:850,0
DA:853,0
DA:857,0
DA:858,0
DA:859,0
DA:861,0
DA:864,0
DA:865,0
DA:866,0
DA:867,0
DA:868,0
DA:873,0
DA:874,0
DA:875,0
DA:876,0
DA:877,0
DA:878,0
DA:879,0
DA:880,0
DA:881,0
DA:882,0
DA:883,0
DA:884,0
DA:885,0
DA:886,0
DA:887,0
DA:888,0
DA:890,0
DA:891,0
DA:892,0
DA:894,0
DA:896,0
DA:1000,0
DA:1001,0
DA:1007,0
DA:1008,0
DA:1009,0
DA:1012,5312
DA:1013,5312
DA:1014,5312
DA:1016,5312
DA:1019,0
DA:1020,0
DA:1030,5312
DA:1031,5312
DA:1034,0
DA:1035,0
DA:1038,0
DA:1039,0
DA:1050,0
DA:1051,0
DA:1066,0
DA:1067,0
end_of_record
SF:/usr/include/c++/9/bits/stl_construct.h
DA:74,0
DA:75,0
DA:117,440
DA:127,440
DA:137,440
DA:203,0
DA:206,440
end_of_record
SF:/usr/include/c++/9/ext/new_allocator.h
DA:80,482
DA:83,488
DA:89,572
DA:119,24
DA:128,24
DA:132,0
DA:144,0
DA:147,0
DA:151,0
end_of_record
SF:/usr/include/c++/9/bits/stl_algobase.h
DA:198,0
DA:222,0
DA:227,0
DA:228,0
DA:280,0
DA:289,0
DA:290,0
DA:295,0
DA:375,0
DA:384,0
DA:385,0
DA:386,0
DA:387,0
DA:393,0
DA:398,0
DA:404,0
DA:438,0
DA:440,0
DA:465,0
DA:474,0
end_of_record
SF:/usr/include/c++/9/bits/move.h
DA:47,0
DA:74,440
DA:99,928
DA:138,162
DA:139,114
end_of_record
SF:/usr/include/c++/9/bits/stl_iterator_base_funcs.h
DA:98,66
DA:104,66
DA:138,66
DA:141,66
end_of_record
SF:/usr/include/c++/9/iostream
end_of_record
SF:/usr/include/c++/9/bits/stl_iterator.h
DA:806,440
DA:819,0
DA:827,0
DA:829,0
DA:859,0
DA:860,0
DA:871,0
DA:907,0
DA:910,0
DA:989,0
DA:992,0
DA:1010,0
DA:1012,0
end_of_record
SF:/usr/include/c++/9/ext/string_conversions.h
FN:99,_ZN9__gnu_cxx12__to_xstringINSt7__cxx1112basic_stringIcSt11char_traitsIcESaIcEEEcEET_PFiPT0_mPKS8_P13__va_list_tagEmSB_z
FNDA:0,_ZN9__gnu_cxx12__to_xstringINSt7__cxx1112basic_stringIcSt11char_traitsIcESaIcEEEcEET_PFiPT0_mPKS8_P13__va_list_tagEmSB_z
DA:99,0
DA:105,0
DA:109,0
DA:111,0
DA:113,0
DA:115,0
end_of_record
SF:/usr/include/c++/9/bits/locale_facets.h
FN:872,_ZNKSt5ctypeIcE5widenEc
FNDA:0,_ZNKSt5ctypeIcE5widenEc
FN:1084,_ZNKSt5ctypeIcE8do_widenEc
FNDA:0,_ZNKSt5ctypeIcE8do_widenEc
DA:872,0
DA:874,0
DA:875,0
DA:876,0
DA:877,0
DA:1084,0
DA:1085,0
end_of_record
SF:/usr/include/c++/9/bits/ptr_traits.h
DA:146,114
DA:147,114
end_of_record
SF:/usr/include/c++/9/new
DA:173,0
DA:174,0
end_of_record
SF:/usr/include/c++/9/bits/char_traits.h
DA:299,90
DA:300,0
DA:329,0
DA:335,0
DA:361,66
DA:363,66
DA:365,0
end_of_record
SF:/usr/include/c++/9/ext/alloc_traits.h
DA:97,24
DA:98,24
end_of_record
SF:/workspace/vtr-verilog-to-routing/ODIN_II/SRC/netlist_create_from_ast.cpp
FN:138,_Z14create_netlistP5ast_t
FNDA:3247,_Z14create_netlistP5ast_t
FN:210,_Z15look_for_clocksP9netlist_t
FNDA:3241,_Z15look_for_clocksP9netlist_t
FN:234,_Z44convert_ast_to_netlist_recursing_via_modulesPP10ast_node_tPcP12sc_hierarchyi
FNDA:45033,_Z44convert_ast_to_netlist_recursing_via_modulesPP10ast_node_tPcP12sc_hierarchyi
FN:343,_Z28netlist_expand_ast_of_modulePP10ast_node_tPcP12sc_hierarchyl
FNDA:2454900,_Z28netlist_expand_ast_of_modulePP10ast_node_tPcP12sc_hierarchyl
FN:718,_Z24concatenate_signal_listsPP13signal_list_ti
FNDA:72202,_Z24concatenate_signal_listsPP13signal_list_ti
FN:744,_Z36create_all_driver_nets_in_this_scopePcP12sc_hierarchy
FNDA:45033,_Z36create_all_driver_nets_in_this_scopePcP12sc_hierarchy
FN:777,_Z22create_top_driver_netsP10ast_node_tPcP12sc_hierarchy
FNDA:3241,_Z22create_top_driver_netsP10ast_node_tPcP12sc_hierarchy
FN:873,_Z23create_top_output_nodesP10ast_node_tPcP12sc_hierarchy
FNDA:3241,_Z23create_top_output_nodesP10ast_node_tPcP12sc_hierarchy
FN:991,_Z23define_nets_with_driverP10ast_node_tPc
FNDA:242735,_Z23define_nets_with_driverP10ast_node_tPc
FN:1126,_Z33define_nodes_and_nets_with_driverP10ast_node_tPc
FNDA:11630,_Z33define_nodes_and_nets_with_driverP10ast_node_tPc
FN:1239,_Z29create_symbol_table_for_scopeP10ast_node_tP12sc_hierarchy
FNDA:9682,_Z29create_symbol_table_for_scopeP10ast_node_tP12sc_hierarchy
FN:1403,_Z14get_init_valueP10ast_node_t
FNDA:169125,_Z14get_init_valueP10ast_node_t
FN:1422,_Z24connect_memory_and_aliasP10ast_node_tPcP12sc_hierarchy
FNDA:346,_Z24connect_memory_and_aliasP10ast_node_tPcP12sc_hierarchy
FN:1560,_Z28connect_hard_block_and_aliasP10ast_node_tPciP12sc_hierarchy
FNDA:286,_Z28connect_hard_block_and_aliasP10ast_node_tPciP12sc_hierarchy
FN:1706,_Z38connect_module_instantiation_and_aliassP10ast_node_tPcP12sc_hierarchy
FNDA:83352,_Z38connect_module_instantiation_and_aliassP10ast_node_tPcP12sc_hierarchy
FN:2002,_Z40connect_function_instantiation_and_aliassP10ast_node_tPcP12sc_hierarchy
FNDA:108,_Z40connect_function_instantiation_and_aliassP10ast_node_tPcP12sc_hierarchy
FN:2342,_Z36connect_task_instantiation_and_aliassP10ast_node_tPcP12sc_hierarchy
FNDA:124,_Z36connect_task_instantiation_and_aliassP10ast_node_tPcP12sc_hierarchy
FN:2658,_Z11create_pinsP10ast_node_tPcS1_P12sc_hierarchy
FNDA:2800930,_Z11create_pinsP10ast_node_tPcS1_P12sc_hierarchy
FN:2751,_Z17create_output_pinP10ast_node_tPcP12sc_hierarchy
FNDA:294,_Z17create_output_pinP10ast_node_tPcP12sc_hierarchy
FN:2773,_Z16assignment_aliasP10ast_node_tPcP12sc_hierarchyl
FNDA:350614,_Z16assignment_aliasP10ast_node_tPcP12sc_hierarchyl
FN:3141,_Z52define_latchs_initial_value_inside_initial_statementP10ast_node_tP12sc_hierarchy
FNDA:10,_Z52define_latchs_initial_value_inside_initial_statementP10ast_node_tP12sc_hierarchy
FN:3169,_Z31terminate_registered_assignmentP10ast_node_tP13signal_list_tS2_P12sc_hierarchy
FNDA:41179,_Z31terminate_registered_assignmentP10ast_node_tP13signal_list_tS2_P12sc_hierarchy
FN:3357,_Z31terminate_continuous_assignmentP10ast_node_tP13signal_list_tPc
FNDA:72742,_Z31terminate_continuous_assignmentP10ast_node_tP13signal_list_tPc
FN:3429,_Z34alias_output_assign_pins_to_inputsP11char_list_tP13signal_list_tP10ast_node_t
FNDA:350495,_Z34alias_output_assign_pins_to_inputsP11char_list_tP13signal_list_tP10ast_node_t
FN:3458,_Z11create_gateP10ast_node_tPcP12sc_hierarchyl
FNDA:294,_Z11create_gateP10ast_node_tPcP12sc_hierarchyl
FN:3559,_Z21create_operation_nodeP10ast_node_tPP13signal_list_tiPcl
FNDA:323140,_Z21create_operation_nodeP10ast_node_tPP13signal_list_tiPcl
FN:3858,_Z25evaluate_sensitivity_listP10ast_node_tPcP12sc_hierarchy
FNDA:45910,_Z25evaluate_sensitivity_listP10ast_node_tPcP12sc_hierarchy
FN:3928,_Z22create_if_for_questionP10ast_node_tPcP12sc_hierarchyl
FNDA:30092,_Z22create_if_for_questionP10ast_node_tPcP12sc_hierarchyl
FN:3951,_Z34create_if_question_mux_expressionsP10ast_node_tP7nnode_tPcP12sc_hierarchyl
FNDA:30092,_Z34create_if_question_mux_expressionsP10ast_node_tP7nnode_tPcP12sc_hierarchyl
FN:3980,_Z9create_ifP10ast_node_tPcP12sc_hierarchyl
FNDA:41072,_Z9create_ifP10ast_node_tPcP12sc_hierarchyl
FN:4003,_Z25create_if_control_signalsPP10ast_node_tP7nnode_tPcP12sc_hierarchyl
FNDA:71164,_Z25create_if_control_signalsPP10ast_node_tP7nnode_tPcP12sc_hierarchyl
FN:4060,_Z24create_if_mux_statementsP10ast_node_tP7nnode_tPcP12sc_hierarchyl
FNDA:41072,_Z24create_if_mux_statementsP10ast_node_tP7nnode_tPcP12sc_hierarchyl
FN:4099,_Z11create_caseP10ast_node_tPcP12sc_hierarchyl
FNDA:3995,_Z11create_caseP10ast_node_tPcP12sc_hierarchyl
FN:4126,_Z27create_case_control_signalsP10ast_node_tPS0_P7nnode_tPcP12sc_hierarchyl
FNDA:3995,_Z27create_case_control_signalsP10ast_node_tPS0_P7nnode_tPcP12sc_hierarchyl
FN:4191,_Z26create_case_mux_statementsP10ast_node_tP7nnode_tPcP12sc_hierarchyl
FNDA:3995,_Z26create_case_mux_statementsP10ast_node_tP7nnode_tPcP12sc_hierarchyl
FN:4240,_Z21create_mux_statementsPP13signal_list_tP7nnode_tiPcP12sc_hierarchy
FNDA:45067,_Z21create_mux_statementsPP13signal_list_tP7nnode_tiPcP12sc_hierarchy
FN:4350,_Z22create_mux_expressionsPP13signal_list_tP7nnode_tiPc
FNDA:30092,_Z22create_mux_expressionsPP13signal_list_tP7nnode_tiPc
FN:4417,_Z27find_smallest_non_numericalP10ast_node_tPP13signal_list_ti
FNDA:32231,_Z27find_smallest_non_numericalP10ast_node_tPP13signal_list_ti
FN:4467,_Z14pad_with_zerosP10ast_node_tP13signal_list_tiPc
FNDA:64462,_Z14pad_with_zerosP10ast_node_tP13signal_list_tiPc
FN:4489,_Z26create_dual_port_ram_blockP10ast_node_tPcP7t_modelP12sc_hierarchy
FNDA:248,_Z26create_dual_port_ram_blockP10ast_node_tPcP7t_modelP12sc_hierarchy
FN:4655,_Z28create_single_port_ram_blockP10ast_node_tPcP7t_modelP12sc_hierarchy
FNDA:89,_Z28create_single_port_ram_blockP10ast_node_tPcP7t_modelP12sc_hierarchy
FN:4831,_Z33create_soft_single_port_ram_blockP10ast_node_tPcP12sc_hierarchy
FNDA:9,_Z33create_soft_single_port_ram_blockP10ast_node_tPcP12sc_hierarchy
FN:4968,_Z31create_soft_dual_port_ram_blockP10ast_node_tPcP12sc_hierarchy
FNDA:0,_Z31create_soft_dual_port_ram_blockP10ast_node_tPcP12sc_hierarchy
FN:5117,_Z17create_hard_blockP10ast_node_tPcP12sc_hierarchy
FNDA:632,_Z17create_hard_blockP10ast_node_tPcP12sc_hierarchy
FN:5434,_Z29reorder_connections_from_nameP10ast_node_tS0_3ids
FNDA:17132,_Z29reorder_connections_from_nameP10ast_node_tS0_3ids
FN:5491,_Z29resolve_top_module_parametersP10ast_node_tP12sc_hierarchy
FNDA:990161,_Z29resolve_top_module_parametersP10ast_node_tP12sc_hierarchy
FN:5512,_Z44resolve_top_parameters_defined_by_parametersP10ast_node_tP12sc_hierarchyi
FNDA:92,_Z44resolve_top_parameters_defined_by_parametersP10ast_node_tP12sc_hierarchyi
DA:138,3247
DA:145,11541
DA:146,8294
DA:147,8294
DA:148,8294
DA:150,8294
DA:152,8294
DA:153,8190
DA:154,8190
DA:159,3247
DA:160,3247
DA:161,3241
DA:170,3241
DA:171,3241
DA:173,3241
DA:175,3241
DA:176,3241
DA:177,3241
DA:178,3241
DA:179,3241
DA:181,3241
DA:182,3241
DA:185,3241
DA:186,3241
DA:187,3241
DA:188,3241
DA:189,3241
DA:192,3241
DA:195,3241
DA:197,3247
DA:210,3241
DA:211,3241
DA:213,1936440
DA:215,1933200
DA:217,1933200
DA:220,1933200
DA:221,0
DA:223,1933200
DA:224,1530
DA:227,3241
DA:234,45033
DA:235,45033
DA:238,45033
DA:239,42308
DA:244,44401
DA:250,83352
DA:251,41676
DA:252,41676
DA:255,41676
DA:257,41676
DA:258,0
DA:262,41676
DA:264,41676
DA:265,41676
DA:266,41676
DA:269,41676
DA:272,41676
DA:275,2779
DA:280,108
DA:281,54
DA:282,54
DA:285,54
DA:287,54
DA:288,0
DA:292,54
DA:293,54
DA:296,54
DA:299,54
DA:302,2787
DA:308,124
DA:309,62
DA:310,62
DA:313,62
DA:315,62
DA:316,0
DA:320,62
DA:321,62
DA:324,62
DA:327,62
DA:331,2725
DA:334,45033
DA:335,45033
DA:343,2454900
DA:345,2454900
DA:346,2454900
DA:347,2454900
DA:348,2454900
DA:349,2454900
DA:351,2454900
DA:353,2454900
DA:358,2454900
DA:359,1347940
DA:360,1347940
DA:365,2454900
DA:366,0
DA:367,0
DA:369,45033
DA:370,45033
DA:371,45033
DA:373,45033
DA:374,45033
DA:375,45033
DA:379,44917
DA:382,44917
DA:385,201688
DA:386,156771
DA:387,10
DA:392,44917
DA:395,44917
DA:396,44917
DA:397,201688
DA:398,156771
DA:399,0
DA:400,156771
DA:401,520
DA:402,156251
DA:407,82616
DA:409,41308
DA:413,41308
DA:414,114943
DA:415,52
DA:416,114891
DA:417,52
DA:422,109909
DA:423,109909
DA:424,109909
DA:425,353474
DA:426,243565
DA:430,736
DA:432,368
DA:436,368
DA:441,54
DA:444,54
DA:447,54
DA:450,54
DA:451,54
DA:452,108
DA:453,54
DA:455,0
DA:460,62
DA:463,62
DA:466,62
DA:469,62
DA:470,62
DA:471,124
DA:472,62
DA:474,0
DA:475,62
DA:476,0
DA:477,62
DA:478,0
DA:484,10
DA:487,10
DA:488,10
DA:489,54
DA:490,54
DA:491,54
DA:492,54
DA:493,62
DA:494,62
DA:495,62
DA:496,62
DA:497,294
DA:499,294
DA:501,294
DA:502,294
DA:505,1394480
DA:506,1394480
DA:509,1394480
DA:510,1394480
DA:511,1394480
DA:512,1394480
DA:513,1394480
DA:516,67895
DA:518,67895
DA:519,67895
DA:520,67895
DA:521,350614
DA:522,350614
DA:523,350614
DA:524,350614
DA:525,350614
DA:526,350614
DA:528,45910
DA:529,45910
DA:530,45910
DA:531,45910
DA:533,45910
DA:536,3995
DA:537,3995
DA:538,3995
DA:539,3995
DA:540,20
DA:541,20
DA:542,20
DA:543,20
DA:544,0
DA:545,0
DA:546,0
DA:547,0
DA:548,41072
DA:549,41072
DA:550,41072
DA:551,41072
DA:552,30092
DA:553,30092
DA:554,30092
DA:555,30092
DA:556,632
DA:558,632
DA:559,632
DA:560,632
DA:562,632
DA:563,632
DA:569,2454900
DA:571,3777690
DA:572,1749010
DA:573,1615130
DA:574,1615130
DA:575,1615130
DA:576,1388
DA:580,1615130
DA:587,2454900
DA:588,0
DA:589,0
DA:591,0
DA:592,72202
DA:593,72202
DA:594,72202
DA:595,44917
DA:596,44917
DA:597,201688
DA:598,156771
DA:600,82616
DA:602,41308
DA:609,54
DA:610,54
DA:611,54
DA:612,54
DA:614,62
DA:615,62
DA:616,62
DA:617,62
DA:622,135790
DA:623,67895
DA:626,116
DA:627,116
DA:628,116
DA:629,45910
DA:631,45910
DA:632,41179
DA:633,41179
DA:634,41179
DA:635,41179
DA:637,4731
DA:639,4731
DA:640,4731
DA:642,0
DA:643,0
DA:648,45910
DA:649,41179
DA:652,221534
DA:653,221534
DA:654,221534
DA:655,221534
DA:656,25942
DA:657,25942
DA:658,25942
DA:659,25942
DA:660,109909
DA:661,109909
DA:662,353474
DA:663,243565
DA:665,736
DA:667,368
DA:672,109909
DA:673,109909
DA:674,346
DA:675,346
DA:676,346
DA:677,286
DA:678,286
DA:679,286
DA:688,2454900
DA:689,1347940
DA:691,2454900
DA:692,4020120
DA:694,2672180
DA:695,1454660
DA:696,1011600
DA:697,985654
DA:698,743865
DA:699,743865
DA:700,675970
DA:701,630060
DA:702,629944
DA:703,377993
DA:706,1347940
DA:709,2454900
DA:710,2454900
DA:718,72202
DA:719,72202
DA:721,72202
DA:722,324153
DA:724,251951
DA:725,117
DA:728,1583840
DA:729,1331890
DA:730,1331890
DA:732,251951
DA:735,72202
DA:744,45033
DA:746,45033
DA:748,45033
DA:749,45033
DA:752,430024
DA:753,384991
DA:754,384991
DA:756,384991
DA:758,270812
DA:759,116114
DA:761,167896
DA:763,25640
DA:765,242735
DA:768,45033
DA:777,3241
DA:779,3241
DA:780,3241
DA:781,3241
DA:782,3241
DA:783,3241
DA:784,3241
DA:786,3241
DA:789,3241
DA:790,77814
DA:791,74573
DA:792,11630
DA:796,0
DA:800,3241
DA:801,3241
DA:802,3241
DA:803,3241
DA:804,3241
DA:805,3241
DA:806,3241
DA:807,3241
DA:809,3241
DA:810,3241
DA:811,3241
DA:812,3241
DA:813,3241
DA:814,3241
DA:815,3241
DA:816,3241
DA:818,3241
DA:819,3241
DA:820,3241
DA:821,3241
DA:822,3241
DA:823,3241
DA:824,3241
DA:825,3241
DA:828,3241
DA:829,3241
DA:830,3241
DA:832,3241
DA:833,3241
DA:834,0
DA:837,3241
DA:838,3241
DA:841,3241
DA:842,3241
DA:843,3241
DA:845,3241
DA:846,3241
DA:847,0
DA:850,3241
DA:851,3241
DA:854,3241
DA:855,3241
DA:856,3241
DA:858,3241
DA:859,3241
DA:860,0
DA:863,3241
DA:864,3241
DA:865,3241
DA:873,3241
DA:875,3241
DA:876,3241
DA:877,3241
DA:878,3241
DA:879,3241
DA:880,3241
DA:881,3241
DA:883,3241
DA:886,3241
DA:887,77814
DA:888,74573
DA:889,7388
DA:890,7388
DA:891,7388
DA:894,7388
DA:897,2171
DA:900,2171
DA:901,0
DA:905,2171
DA:907,2171
DA:910,2171
DA:911,2171
DA:912,2171
DA:913,2171
DA:915,2171
DA:916,2171
DA:919,2171
DA:922,2171
DA:923,2171
DA:924,2171
DA:925,5217
DA:926,5217
DA:927,5217
DA:929,5217
DA:930,5217
DA:931,5217
DA:933,5217
DA:934,0
DA:938,5217
DA:939,0
DA:944,107897
DA:946,102680
DA:949,102680
DA:950,0
DA:953,102680
DA:955,102680
DA:958,102680
DA:959,102680
DA:960,102680
DA:961,102680
DA:963,102680
DA:964,102680
DA:967,102680
DA:970,102680
DA:971,102680
DA:972,102680
DA:976,0
DA:983,0
DA:985,3241
DA:991,242735
DA:992,242735
DA:993,242735
DA:994,242735
DA:995,242735
DA:997,242735
DA:1001,54688
DA:1004,54688
DA:1007,54688
DA:1008,54688
DA:1009,0
DA:1013,54688
DA:1014,54688
DA:1016,54688
DA:1017,146
DA:1020,188047
DA:1021,187892
DA:1022,187892
DA:1025,187892
DA:1026,187892
DA:1027,187892
DA:1029,187892
DA:1030,0
DA:1034,187892
DA:1035,0
DA:1041,4933970
DA:1043,4746080
DA:1046,4746080
DA:1048,4746080
DA:1049,4746080
DA:1050,0
DA:1054,4746080
DA:1055,4746080
DA:1057,4746080
DA:1058,5166
DA:1063,155
DA:1064,113
DA:1065,113
DA:1067,113
DA:1068,113
DA:1069,113
DA:1071,113
DA:1072,0
DA:1076,113
DA:1077,0
DA:1081,113
DA:1082,113
DA:1084,113
DA:1085,113
DA:1086,113
DA:1088,113
DA:1089,0
DA:1093,113
DA:1094,0
DA:1098,113
DA:1100,113
DA:1101,0
DA:1104,113
DA:1106,113
DA:1107,0
DA:1110,113
DA:1112,113
DA:1113,113
DA:1115,113
DA:1118,242735
DA:1126,11630
DA:1127,11630
DA:1128,11630
DA:1129,11630
DA:1130,11630
DA:1131,11630
DA:1132,11630
DA:1134,11630
DA:1138,5167
DA:1140,5167
DA:1142,5167
DA:1143,5167
DA:1144,0
DA:1148,5167
DA:1149,5167
DA:1152,5167
DA:1153,5167
DA:1154,5167
DA:1156,5167
DA:1157,5167
DA:1159,5167
DA:1160,5167
DA:1163,5167
DA:1164,5167
DA:1167,5167
DA:1168,5167
DA:1169,5167
DA:1170,6463
DA:1172,6463
DA:1173,6463
DA:1175,6463
DA:1176,6463
DA:1177,6463
DA:1179,6463
DA:1180,0
DA:1184,6463
DA:1185,0
DA:1190,90614
DA:1192,84151
DA:1195,84151
DA:1197,84151
DA:1198,84151
DA:1199,0
DA:1203,84151
DA:1204,84151
DA:1207,84151
DA:1208,84151
DA:1210,84151
DA:1211,84151
DA:1212,84151
DA:1214,84151
DA:1215,84151
DA:1218,84151
DA:1219,84151
DA:1222,84151
DA:1223,84151
DA:1224,84151
DA:1226,0
DA:1228,0
DA:1231,11630
DA:1239,9682
DA:1241,9682
DA:1242,9682
DA:1243,9682
DA:1244,9682
DA:1246,9682
DA:1247,9682
DA:1248,9682
DA:1250,9682
DA:1251,9682
DA:1254,9682
DA:1255,249340
DA:1256,239658
DA:1258,328168
DA:1259,169631
DA:1262,170151
DA:1264,169631
DA:1266,520
DA:1268,169111
DA:1269,169111
DA:1271,169111
DA:1272,32410
DA:1273,0
DA:1278,169111
DA:1280,169111
DA:1282,169111
DA:1288,13683
DA:1289,0
DA:1290,0
DA:1294,13683
DA:1296,0
DA:1297,13683
DA:1298,13683
DA:1300,13683
DA:1301,13683
DA:1303,0
DA:1307,155428
DA:1310,155428
DA:1311,155428
DA:1312,155428
DA:1314,155428
DA:1318,169111
DA:1319,169111
DA:1321,169111
DA:1323,169111
DA:1324,169111
DA:1327,158537
DA:1328,158017
DA:1329,158017
DA:1331,81121
DA:1333,31043
DA:1334,31043
DA:1335,0
DA:1337,0
DA:1338,0
DA:1339,0
DA:1340,0
DA:1341,0
DA:1343,0
DA:1350,9682
DA:1351,0
DA:1352,0
DA:1354,0
DA:1355,0
DA:1356,0
DA:1358,0
DA:1359,0
DA:1362,0
DA:1363,0
DA:1365,0
DA:1367,0
DA:1370,0
DA:1373,0
DA:1374,0
DA:1375,0
DA:1384,9682
DA:1385,0
DA:1388,9682
DA:1389,9682
DA:1391,0
DA:1393,9682
DA:1403,169125
DA:1405,169125
DA:1407,169125
DA:1408,440
DA:1410,169125
DA:1422,346
DA:1423,346
DA:1424,346
DA:1425,346
DA:1426,346
DA:1427,346
DA:1430,346
DA:1431,3068
DA:1432,2722
DA:1434,2722
DA:1435,2722
DA:1436,2722
DA:1439,2624
DA:1440,2722
DA:1442,2722
DA:1443,594
DA:1444,594
DA:1445,594
DA:1448,594
DA:1449,0
DA:1451,594
DA:1452,594
DA:1453,594
DA:1456,1188
DA:1457,594
DA:1458,594
DA:1459,594
DA:1462,594
DA:1463,594
DA:1464,594
DA:1465,594
DA:1467,93048
DA:1473,92454
DA:1474,92454
DA:1475,92454
DA:1476,92454
DA:1478,92454
DA:1479,92454
DA:1480,92454
DA:1481,92454
DA:1483,0
DA:1485,0
DA:1486,0
DA:1488,0
DA:1489,0
DA:1490,0
DA:1493,0
DA:1494,0
DA:1495,0
DA:1496,0
DA:1500,92454
DA:1503,92454
DA:1506,0
DA:1509,0
DA:1511,0
DA:1514,0
DA:1515,0
DA:1520,92454
DA:1521,92454
DA:1525,92454
DA:1526,92454
DA:1527,92454
DA:1531,92454
DA:1532,92454
DA:1536,92454
DA:1538,92454
DA:1541,92454
DA:1542,92454
DA:1547,346
DA:1560,286
DA:1561,286
DA:1562,286
DA:1563,286
DA:1564,286
DA:1565,286
DA:1566,286
DA:1569,286
DA:1570,286
DA:1571,286
DA:1572,0
DA:1576,286
DA:1577,1604
DA:1578,1318
DA:1579,1318
DA:1580,1318
DA:1581,1318
DA:1582,1318
DA:1585,1318
DA:1586,1318
DA:1587,516
DA:1588,516
DA:1589,516
DA:1591,516
DA:1592,12
DA:1594,6
DA:1595,6
DA:1598,18678
DA:1603,18162
DA:1604,18162
DA:1605,18162
DA:1608,18162
DA:1609,18156
DA:1610,18156
DA:1611,18156
DA:1613,18156
DA:1614,18156
DA:1615,18156
DA:1616,18156
DA:1618,6
DA:1620,6
DA:1621,0
DA:1623,6
DA:1624,6
DA:1625,6
DA:1628,6
DA:1629,6
DA:1630,6
DA:1631,6
DA:1635,18162
DA:1636,18162
DA:1637,8960
DA:1638,8960
DA:1642,18162
DA:1645,8960
DA:1648,8960
DA:1650,8960
DA:1653,0
DA:1654,0
DA:1659,9202
DA:1660,9202
DA:1664,9202
DA:1665,9202
DA:1666,9202
DA:1667,9202
DA:1671,9202
DA:1672,9202
DA:1676,9202
DA:1678,9202
DA:1682,18162
DA:1683,18162
DA:1688,286
DA:1706,83352
DA:1707,83352
DA:1708,83352
DA:1709,83352
DA:1710,83352
DA:1711,83352
DA:1712,83352
DA:1713,83352
DA:1714,83352
DA:1715,83352
DA:1717,166704
DA:1718,83352
DA:1719,83352
DA:1723,83352
DA:1724,0
DA:1728,83352
DA:1730,83352
DA:1731,83352
DA:1733,83352
DA:1734,0
DA:1740,83352
DA:1741,17012
DA:1744,486808
DA:1745,403456
DA:1746,403456
DA:1748,403456
DA:1750,403456
DA:1752,403456
DA:1754,201728
DA:1756,331998
DA:1757,201728
DA:1758,201728
DA:1761,201728
DA:1763,116735
DA:1764,116735
DA:1765,116735
DA:1767,116735
DA:1769,116735
DA:1770,116735
DA:1771,0
DA:1772,0
DA:1773,0
DA:1774,0
DA:1775,0
DA:1777,0
DA:1779,0
DA:1780,0
DA:1781,0
DA:1782,0
DA:1783,0
DA:1786,0
DA:1788,0
DA:1792,201728
DA:1793,12231
DA:1795,12231
DA:1796,12231
DA:1799,3171630
DA:1800,2969900
DA:1806,1672730
DA:1807,1672730
DA:1808,1672730
DA:1809,1672730
DA:1811,1672730
DA:1813,300874
DA:1814,300874
DA:1815,300874
DA:1818,300874
DA:1823,12
DA:1825,12
DA:1826,12
DA:1829,300862
DA:1832,300874
DA:1835,1371860
DA:1837,1306580
DA:1838,1306580
DA:1839,1306580
DA:1842,1306580
DA:1843,2613170
DA:1844,1306580
DA:1845,1306580
DA:1848,1306580
DA:1850,65274
DA:1853,65274
DA:1854,65274
DA:1855,65274
DA:1857,65274
DA:1858,130548
DA:1859,65274
DA:1860,65274
DA:1863,65274
DA:1868,1672730
DA:1870,198
DA:1871,198
DA:1872,198
DA:1874,0
DA:1876,198
DA:1878,198
DA:1883,18
DA:1884,18
DA:1885,18
DA:1886,18
DA:1892,180
DA:1893,180
DA:1894,180
DA:1904,1672550
DA:1907,1672550
DA:1908,524277
DA:1909,524277
DA:1911,0
DA:1918,1672550
DA:1919,1672550
DA:1920,1297170
DA:1923,1297170
DA:1924,1297170
DA:1925,1297170
DA:1929,1297170
DA:1931,1277430
DA:1932,1277430
DA:1933,1277430
DA:1935,1277430
DA:1936,2554860
DA:1937,1277430
DA:1938,1277430
DA:1939,1277430
DA:1941,19737
DA:1943,19737
DA:1944,19737
DA:1945,19737
DA:1947,19737
DA:1948,39474
DA:1949,19737
DA:1950,19737
DA:1951,19737
DA:1955,1297170
DA:1956,0
DA:1961,1297170
DA:1967,1297170
DA:1968,1297170
DA:1969,2594320
DA:1970,1297160
DA:1971,1287160
DA:1976,1297170
DA:1977,1297140
DA:1980,1297170
DA:1983,1297170
DA:1984,443044
DA:1985,0
DA:1992,1297170
DA:1993,1297170
DA:1997,201728
DA:2000,83352
DA:2002,108
DA:2003,108
DA:2005,108
DA:2006,108
DA:2008,108
DA:2009,108
DA:2010,108
DA:2011,108
DA:2012,108
DA:2013,108
DA:2014,108
DA:2016,108
DA:2019,108
DA:2020,0
DA:2024,108
DA:2025,0
DA:2027,108
DA:2028,108
DA:2030,108
DA:2031,0
DA:2037,108
DA:2038,60
DA:2041,476
DA:2042,368
DA:2043,368
DA:2045,368
DA:2046,368
DA:2048,368
DA:2050,368
DA:2052,184
DA:2054,238
DA:2055,184
DA:2060,184
DA:2061,72
DA:2063,0
DA:2070,184
DA:2071,184
DA:2074,184
DA:2076,140
DA:2077,280
DA:2079,140
DA:2081,140
DA:2084,140
DA:2085,140
DA:2087,140
DA:2088,140
DA:2090,140
DA:2091,140
DA:2092,0
DA:2093,0
DA:2095,0
DA:2097,0
DA:2100,0
DA:2101,0
DA:2102,0
DA:2103,0
DA:2105,0
DA:2106,0
DA:2108,0
DA:2109,0
DA:2110,0
DA:2114,0
DA:2116,0
DA:2120,184
DA:2121,48
DA:2123,48
DA:2124,48
DA:2127,736
DA:2128,552
DA:2134,338
DA:2135,338
DA:2136,338
DA:2137,338
DA:2139,338
DA:2141,174
DA:2142,174
DA:2143,174
DA:2146,174
DA:2151,6
DA:2153,6
DA:2154,6
DA:2157,168
DA:2160,174
DA:2163,164
DA:2165,128
DA:2166,128
DA:2167,128
DA:2170,128
DA:2171,256
DA:2172,128
DA:2173,128
DA:2176,128
DA:2178,36
DA:2181,36
DA:2182,36
DA:2183,36
DA:2185,36
DA:2186,72
DA:2187,36
DA:2188,36
DA:2191,36
DA:2196,338
DA:2198,0
DA:2199,0
DA:2200,0
DA:2202,0
DA:2204,0
DA:2206,0
DA:2211,0
DA:2212,0
DA:2213,0
DA:2214,0
DA:2220,0
DA:2221,0
DA:2222,0
DA:2232,338
DA:2235,338
DA:2236,228
DA:2237,228
DA:2239,0
DA:2246,338
DA:2247,338
DA:2248,214
DA:2251,214
DA:2252,214
DA:2253,214
DA:2257,214
DA:2262,206
DA:2266,206
DA:2268,412
DA:2269,206
DA:2270,206
DA:2272,206
DA:2280,8
DA:2284,8
DA:2286,16
DA:2287,8
DA:2288,8
DA:2290,8
DA:2294,214
DA:2295,0
DA:2300,214
DA:2307,214
DA:2308,214
DA:2309,214
DA:2310,214
DA:2311,214
DA:2312,214
DA:2314,428
DA:2315,214
DA:2316,162
DA:2321,214
DA:2322,52
DA:2325,214
DA:2328,214
DA:2329,214
DA:2332,184
DA:2335,108
DA:2342,124
DA:2343,124
DA:2345,124
DA:2346,124
DA:2348,124
DA:2349,124
DA:2350,124
DA:2351,124
DA:2352,124
DA:2353,124
DA:2355,124
DA:2358,124
DA:2359,0
DA:2363,124
DA:2364,0
DA:2366,124
DA:2367,124
DA:2369,124
DA:2370,0
DA:2376,124
DA:2377,60
DA:2380,552
DA:2381,428
DA:2382,428
DA:2384,428
DA:2385,428
DA:2387,428
DA:2389,214
DA:2391,276
DA:2392,214
DA:2397,214
DA:2398,72
DA:2400,0
DA:2407,214
DA:2408,214
DA:2411,214
DA:2413,178
DA:2414,356
DA:2416,178
DA:2418,178
DA:2421,178
DA:2422,178
DA:2424,178
DA:2425,178
DA:2427,178
DA:2428,178
DA:2429,0
DA:2430,0
DA:2432,0
DA:2434,0
DA:2437,0
DA:2438,0
DA:2439,0
DA:2440,0
DA:2442,0
DA:2443,0
DA:2445,0
DA:2446,0
DA:2447,0
DA:2451,0
DA:2453,0
DA:2457,214
DA:2458,48
DA:2460,48
DA:2461,48
DA:2464,214
DA:2465,564
DA:2471,412
DA:2472,412
DA:2473,412
DA:2474,412
DA:2476,412
DA:2478,174
DA:2479,174
DA:2480,174
DA:2483,174
DA:2488,6
DA:2490,6
DA:2491,6
DA:2494,168
DA:2497,174
DA:2500,238
DA:2502,208
DA:2503,208
DA:2504,208
DA:2507,208
DA:2508,416
DA:2509,208
DA:2510,208
DA:2513,208
DA:2515,30
DA:2518,30
DA:2519,30
DA:2520,30
DA:2522,30
DA:2523,60
DA:2524,30
DA:2525,30
DA:2528,30
DA:2533,412
DA:2535,0
DA:2536,0
DA:2537,0
DA:2539,0
DA:2541,0
DA:2543,0
DA:2548,0
DA:2549,0
DA:2550,0
DA:2551,0
DA:2557,0
DA:2558,0
DA:2559,0
DA:2569,412
DA:2572,412
DA:2573,228
DA:2574,228
DA:2576,0
DA:2583,412
DA:2584,412
DA:2586,62
DA:2587,336
DA:2590,274
DA:2591,274
DA:2592,274
DA:2596,274
DA:2598,274
DA:2599,274
DA:2600,274
DA:2602,274
DA:2603,548
DA:2604,274
DA:2605,274
DA:2606,274
DA:2608,0
DA:2610,0
DA:2611,0
DA:2612,0
DA:2613,0
DA:2615,0
DA:2616,0
DA:2617,0
DA:2618,0
DA:2619,0
DA:2623,274
DA:2624,0
DA:2632,274
DA:2633,274
DA:2635,274
DA:2636,274
DA:2637,274
DA:2638,274
DA:2639,274
DA:2641,274
DA:2642,274
DA:2643,274
DA:2646,214
DA:2648,124
DA:2658,2800930
DA:2659,2800930
DA:2660,2800930
DA:2661,2800930
DA:2662,2800930
DA:2663,2800930
DA:2664,2800930
DA:2665,2800930
DA:2667,2800930
DA:2669,2800930
DA:2671,1438860
DA:2672,1362070
DA:2674,1362070
DA:2675,1362070
DA:2676,1362070
DA:2677,1362070
DA:2680,28375700
DA:2681,25574700
DA:2682,25574700
DA:2685,25574700
DA:2686,1502640
DA:2687,1502640
DA:2688,1502640
DA:2689,24072100
DA:2690,14833200
DA:2691,14833200
DA:2692,14833200
DA:2696,9238890
DA:2697,9238890
DA:2698,9238890
DA:2700,3911220
DA:2702,3911220
DA:2704,3911220
DA:2706,0
DA:2708,0
DA:2709,3911220
DA:2712,0
DA:2713,0
DA:2715,0
DA:2717,5327670
DA:2718,2722150
DA:2719,2722150
DA:2720,2722150
DA:2722,2605520
DA:2723,1553590
DA:2724,1553590
DA:2725,1553590
DA:2726,1553590
DA:2730,2605520
DA:2735,25574700
DA:2738,2800930
DA:2739,2800930
DA:2740,2800930
DA:2742,2800930
DA:2751,294
DA:2752,294
DA:2753,294
DA:2754,294
DA:2755,294
DA:2758,294
DA:2759,294
DA:2760,294
DA:2762,294
DA:2763,294
DA:2765,294
DA:2767,294
DA:2773,350614
DA:2774,350614
DA:2775,350614
DA:2777,350614
DA:2778,350614
DA:2780,350614
DA:2782,350614
DA:2783,350614
DA:2786,350614
DA:2787,101
DA:2788,0
DA:2791,101
DA:2794,101
DA:2795,0
DA:2798,101
DA:2799,27
DA:2800,30
DA:2801,132
DA:2802,117
DA:2803,12
DA:2805,15
DA:2808,12
DA:2812,45
DA:2813,18
DA:2815,27
DA:2818,101
DA:2819,101
DA:2820,101
DA:2821,101
DA:2823,101
DA:2825,101
DA:2826,101
DA:2827,101
DA:2829,101
DA:2830,21
DA:2831,9
DA:2833,9
DA:2835,9
DA:2838,9
DA:2839,9
DA:2842,9
DA:2844,9
DA:2845,9
DA:2848,9
DA:2849,9
DA:2853,12
DA:2854,12
DA:2857,21
DA:2859,80
DA:2860,6
DA:2861,6
DA:2863,6
DA:2864,6
DA:2866,74
DA:2867,74
DA:2868,74
DA:2872,101
DA:2873,101
DA:2875,101
DA:2876,627
DA:2877,526
DA:2878,526
DA:2879,520
DA:2880,526
DA:2881,526
DA:2883,101
DA:2887,101
DA:2888,101
DA:2889,3841
DA:2890,3740
DA:2891,3740
DA:2892,3740
DA:2893,3740
DA:2894,3740
DA:2895,3740
DA:2896,3740
DA:2897,3740
DA:2899,3740
DA:2901,101
DA:2902,101
DA:2904,101
DA:2905,101
DA:2909,350513
DA:2910,350513
DA:2911,350614
DA:2914,350614
DA:2916,350614
DA:2917,119
DA:2918,0
DA:2922,119
DA:2923,0
DA:2924,0
DA:2928,119
DA:2931,119
DA:2932,0
DA:2935,119
DA:2936,39
DA:2937,54
DA:2938,540
DA:2939,513
DA:2940,12
DA:2942,27
DA:2945,12
DA:2949,57
DA:2950,18
DA:2952,39
DA:2955,119
DA:2956,119
DA:2959,119
DA:2961,119
DA:2962,119
DA:2963,119
DA:2964,119
DA:2966,119
DA:2968,119
DA:2969,119
DA:2970,119
DA:2972,119
DA:2973,119
DA:2974,18
DA:2976,18
DA:2978,18
DA:2981,18
DA:2982,18
DA:2985,18
DA:2987,18
DA:2990,18
DA:2991,18
DA:2992,18
DA:2996,101
DA:2997,101
DA:2998,101
DA:3001,119
DA:3003,0
DA:3004,0
DA:3007,0
DA:3008,0
DA:3009,0
DA:3011,0
DA:3012,0
DA:3013,0
DA:3014,0
DA:3018,119
DA:3019,143
DA:3020,24
DA:3022,119
DA:3024,119
DA:3026,119
DA:3027,119
DA:3028,119
DA:3030,119
DA:3031,119
DA:3033,119
DA:3034,711
DA:3035,592
DA:3036,592
DA:3037,538
DA:3038,592
DA:3039,592
DA:3041,119
DA:3043,4267
DA:3044,4148
DA:3045,4148
DA:3046,4148
DA:3047,4148
DA:3048,4148
DA:3050,119
DA:3052,238
DA:3053,119
DA:3054,119
DA:3055,119
DA:3056,119
DA:3057,119
DA:3059,119
DA:3061,119
DA:3064,119
DA:3065,119
DA:3066,119
DA:3070,350495
DA:3073,350614
DA:3074,350614
DA:3076,350614
DA:3077,350394
DA:3079,350394
DA:3082,348311
DA:3083,323163
DA:3085,25148
DA:3087,325246
DA:3088,325246
DA:3101,350394
DA:3102,350394
DA:3104,220
DA:3106,101
DA:3108,627
DA:3109,526
DA:3110,526
DA:3112,101
DA:3115,101
DA:3116,101
DA:3117,3817
DA:3118,3716
DA:3120,101
DA:3121,101
DA:3122,101
DA:3126,220
DA:3128,119
DA:3130,4978
DA:3131,4859
DA:3132,4859
DA:3134,119
DA:3138,350614
DA:3141,10
DA:3142,10
DA:3143,10
DA:3144,10
DA:3145,10
DA:3147,32
DA:3150,22
DA:3151,18
DA:3153,14
DA:3155,14
DA:3156,14
DA:3157,0
DA:3159,14
DA:3164,10
DA:3169,41179
DA:3170,41179
DA:3172,41179
DA:3173,41179
DA:3175,41179
DA:3177,66413
DA:3178,33336
DA:3180,33336
DA:3181,33336
DA:3182,31948
DA:3183,31948
DA:3184,0
DA:3187,31948
DA:3189,1388
DA:3192,33336
DA:3193,32320
DA:3194,0
DA:3199,33336
DA:3201,0
DA:3202,0
DA:3203,33336
DA:3205,32320
DA:3206,32320
DA:3211,41179
DA:3213,41179
DA:3214,41179
DA:3215,41179
DA:3216,1979260
DA:3217,1938080
DA:3218,1938080
DA:3219,1938080
DA:3220,4889
DA:3223,1933200
DA:3224,1933200
DA:3225,0
DA:3228,1933200
DA:3230,1933200
DA:3231,1933200
DA:3232,0
DA:3235,1933200
DA:3236,0
DA:3240,1933200
DA:3241,1933200
DA:3243,1933200
DA:3244,1933200
DA:3248,1933200
DA:3249,1933200
DA:3250,1933200
DA:3253,1933200
DA:3254,1933200
DA:3255,1933200
DA:3257,1933200
DA:3258,1933200
DA:3259,1933200
DA:3260,1933200
DA:3262,1933200
DA:3263,1933200
DA:3264,1933200
DA:3267,1933200
DA:3270,1933200
DA:3271,1933200
DA:3272,1933200
DA:3273,1933200
DA:3277,1933200
DA:3278,1933200
DA:3279,1933200
DA:3282,1933200
DA:3285,1933200
DA:3286,1933200
DA:3288,1933200
DA:3290,1933200
DA:3291,1933200
DA:3292,1933200
DA:3296,1979260
DA:3297,1938080
DA:3298,1938080
DA:3300,1938080
DA:3301,1553940
DA:3303,3678060000
DA:3304,3676510000
DA:3305,0
DA:3306,0
DA:3308,0
DA:3309,0
DA:3313,1553940
DA:3314,0
DA:3318,41179
DA:3319,41179
DA:3320,46068
DA:3321,4889
DA:3322,4889
DA:3323,4889
DA:3325,4889
DA:3326,4889
DA:3328,201600
DA:3329,201600
DA:3330,201600
DA:3331,4889
DA:3332,4889
DA:3333,4889
DA:3337,4889
DA:3338,113
DA:3339,113
DA:3340,113
DA:3341,113
DA:3342,113
DA:3343,113
DA:3344,113
DA:3349,41179
DA:3351,41179
DA:3352,41179
DA:3357,72742
DA:3358,72742
DA:3359,72742
DA:3360,1460750
DA:3361,1388010
DA:3362,1388010
DA:3363,1388010
DA:3364,30
DA:3367,1387980
DA:3368,1387980
DA:3369,42
DA:3372,1387940
DA:3374,1387940
DA:3375,0
DA:3377,1387940
DA:3378,1387940
DA:3380,1387940
DA:3382,1387940
DA:3384,1387940
DA:3385,1387940
DA:3386,1387940
DA:3387,1387940
DA:3389,1387940
DA:3390,1387940
DA:3393,1387940
DA:3394,1387940
DA:3396,1387940
DA:3401,72772
DA:3402,30
DA:3403,30
DA:3404,30
DA:3405,30
DA:3406,30
DA:3408,30
DA:3409,330
DA:3410,330
DA:3411,330
DA:3412,30
DA:3413,30
DA:3414,30
DA:3420,72742
DA:3422,72742
DA:3423,72742
DA:3429,350495
DA:3430,7229240
DA:3431,6878740
DA:3432,17132
DA:3433,0
DA:3436,17132
DA:3439,6878740
DA:3440,5626950
DA:3442,6878740
DA:3443,6878740
DA:3446,350495
DA:3447,0
DA:3450,350495
DA:3458,294
DA:3459,294
DA:3461,588
DA:3463,294
DA:3464,0
DA:3465,0
DA:3468,294
DA:3470,294
DA:3474,52
DA:3476,52
DA:3478,52
DA:3479,52
DA:3482,52
DA:3484,52
DA:3485,52
DA:3486,52
DA:3487,52
DA:3489,52
DA:3490,52
DA:3491,52
DA:3492,52
DA:3495,52
DA:3497,52
DA:3499,52
DA:3505,242
DA:3506,726
DA:3507,484
DA:3511,242
DA:3513,726
DA:3514,484
DA:3517,242
DA:3520,242
DA:3522,242
DA:3523,242
DA:3525,242
DA:3527,242
DA:3530,242
DA:3531,726
DA:3532,484
DA:3535,242
DA:3536,242
DA:3539,726
DA:3540,484
DA:3544,242
DA:3546,726
DA:3547,484
DA:3549,242
DA:3553,294
DA:3559,323140
DA:3560,323140
DA:3561,323140
DA:3562,323140
DA:3563,323140
DA:3564,323140
DA:3565,323140
DA:3566,323140
DA:3569,323140
DA:3571,323140
DA:3572,323140
DA:3573,323140
DA:3575,323140
DA:3578,943478
DA:3579,620338
DA:3584,323140
DA:3594,21567
DA:3596,21567
DA:3597,21567
DA:3598,21567
DA:3600,21567
DA:3601,21567
DA:3602,16083
DA:3604,16083
DA:3605,16083
DA:3606,16083
DA:3608,16083
DA:3609,7890
DA:3611,7890
DA:3612,7890
DA:3615,7890
DA:3616,7890
DA:3617,91500
DA:3618,91500
DA:3619,91500
DA:3620,91500
DA:3621,91500
DA:3622,91500
DA:3624,91500
DA:3628,5396
DA:3634,23519
DA:3635,23519
DA:3636,23519
DA:3637,23519
DA:3638,23519
DA:3639,16256
DA:3640,16256
DA:3642,16256
DA:3643,16256
DA:3645,16256
DA:3653,16256
DA:3654,0
DA:3656,15446
DA:3657,15446
DA:3658,15446
DA:3660,15446
DA:3661,15446
DA:3662,15446
DA:3663,119616
DA:3664,119616
DA:3665,119616
DA:3666,119616
DA:3667,119616
DA:3668,119616
DA:3669,119616
DA:3670,119616
DA:3671,32231
DA:3682,32231
DA:3684,32231
DA:3687,32231
DA:3688,32231
DA:3695,0
DA:3696,0
DA:3697,0
DA:3698,0
DA:3699,0
DA:3700,0
DA:3701,0
DA:3702,0
DA:3703,0
DA:3706,323140
DA:3707,323140
DA:3710,323140
DA:3711,323140
DA:3713,323140
DA:3714,39775
DA:3716,576
DA:3718,1728
DA:3720,1152
DA:3722,1152
DA:3724,1152
DA:3725,1152
DA:3730,39199
DA:3731,39199
DA:3732,39199
DA:3734,39199
DA:3738,261399
DA:3739,245431
DA:3741,245431
DA:3742,245431
DA:3744,245431
DA:3745,245431
DA:3750,265225
DA:3751,249257
DA:3753,247577
DA:3754,247577
DA:3756,1680
DA:3758,1680
DA:3759,1680
DA:3764,23231
DA:3765,23231
DA:3766,859900
DA:3768,836669
DA:3769,836669
DA:3770,836669
DA:3775,351837
DA:3776,328606
DA:3777,328606
DA:3778,996
DA:3780,327610
DA:3783,328606
DA:3784,328606
DA:3788,0
DA:3789,0
DA:3790,0
DA:3794,117597
DA:3795,78398
DA:3797,39199
DA:3799,39199
DA:3803,824153
DA:3804,540788
DA:3807,525008
DA:3809,525008
DA:3812,525008
DA:3813,525008
DA:3817,15780
DA:3819,15780
DA:3822,15780
DA:3824,15780
DA:3829,1716580
DA:3830,1432640
DA:3831,1432640
DA:3832,1432640
DA:3833,1432640
DA:3834,1432640
DA:3835,1432640
DA:3836,1432640
DA:3838,1432640
DA:3840,1432640
DA:3842,1432640
DA:3845,1432640
DA:3848,825881
DA:3849,541940
DA:3858,45910
DA:3859,45910
DA:3860,45910
DA:3861,45910
DA:3863,45910
DA:3865,152
DA:3867,45758
DA:3869,106692
DA:3871,60934
DA:3872,60934
DA:3876,41273
DA:3877,41273
DA:3878,41273
DA:3879,19484
DA:3880,19484
DA:3881,19484
DA:3884,60934
DA:3885,45758
DA:3887,60934
DA:3888,153
DA:3889,0
DA:3894,60934
DA:3895,41450
DA:3896,41450
DA:3897,41450
DA:3898,41450
DA:3899,41450
DA:3900,41450
DA:3901,41450
DA:3902,41450
DA:3911,45910
DA:3913,0
DA:3914,45910
DA:3916,4731
DA:3917,4731
DA:3920,45910
DA:3922,45910
DA:3928,30092
DA:3929,30092
DA:3930,30092
DA:3933,30092
DA:3935,30092
DA:3936,30092
DA:3937,30092
DA:3940,30092
DA:3943,30092
DA:3945,30092
DA:3951,30092
DA:3952,30092
DA:3953,30092
DA:3954,30092
DA:3957,30092
DA:3960,90276
DA:3961,60184
DA:3964,60184
DA:3966,0
DA:3971,30092
DA:3972,30092
DA:3974,30092
DA:3980,41072
DA:3981,41072
DA:3982,41072
DA:3985,41072
DA:3987,41072
DA:3988,41072
DA:3989,41072
DA:3992,41072
DA:3995,41072
DA:3997,41072
DA:4003,71164
DA:4004,71164
DA:4005,71164
DA:4006,71164
DA:4007,71164
DA:4008,71164
DA:4011,71164
DA:4013,71164
DA:4016,71164
DA:4017,71164
DA:4019,71164
DA:4020,46
DA:4021,46
DA:4023,46
DA:4024,46
DA:4027,46
DA:4029,46
DA:4030,46
DA:4033,71118
DA:4034,71118
DA:4038,71164
DA:4041,71164
DA:4044,71164
DA:4045,71164
DA:4048,71164
DA:4051,71164
DA:4053,71164
DA:4054,71164
DA:4055,71164
DA:4060,41072
DA:4061,41072
DA:4062,41072
DA:4063,41072
DA:4066,41072
DA:4069,123216
DA:4070,82144
DA:4073,70212
DA:4074,70212
DA:4077,3502940
DA:4078,3432730
DA:4079,3432730
DA:4080,0
DA:4085,11932
DA:4090,41072
DA:4091,41072
DA:4093,41072
DA:4099,3995
DA:4100,3995
DA:4101,3995
DA:4102,3995
DA:4105,3995
DA:4107,3995
DA:4108,3995
DA:4109,3995
DA:4112,3995
DA:4115,3995
DA:4118,3995
DA:4120,3995
DA:4126,3995
DA:4127,3995
DA:4128,3995
DA:4131,3995
DA:4133,3995
DA:4136,82239
DA:4137,78244
DA:4139,75664
DA:4140,75664
DA:4141,75664
DA:4142,75664
DA:4145,75664
DA:4146,75664
DA:4149,75664
DA:4150,75664
DA:4153,75664
DA:4156,75664
DA:4159,75664
DA:4161,75664
DA:4162,2580
DA:4164,2580
DA:4165,2580
DA:4167,2580
DA:4170,2580
DA:4171,2580
DA:4174,2580
DA:4177,2580
DA:4179,2580
DA:4181,0
DA:4185,3995
DA:4186,3995
DA:4191,3995
DA:4192,3995
DA:4193,3995
DA:4194,3995
DA:4197,3995
DA:4200,82239
DA:4201,78244
DA:4203,75664
DA:4204,75664
DA:4207,2455020
DA:4208,2379350
DA:4209,2379350
DA:4210,0
DA:4213,2580
DA:4214,2580
DA:4215,2580
DA:4216,2580
DA:4219,67394
DA:4220,64814
DA:4221,64814
DA:4222,0
DA:4226,0
DA:4231,3995
DA:4232,3995
DA:4234,3995
DA:4240,45067
DA:4241,45067
DA:4242,45067
DA:4243,45067
DA:4244,45067
DA:4245,45067
DA:4246,45067
DA:4249,45067
DA:4252,45067
DA:4253,45067
DA:4255,2364120
DA:4256,2319060
DA:4257,2319060
DA:4258,2319060
DA:4259,2319060
DA:4260,2319060
DA:4261,2319060
DA:4262,2319060
DA:4265,2319060
DA:4267,2319060
DA:4270,2319060
DA:4271,2319060
DA:4273,2319060
DA:4275,2319060
DA:4277,2319060
DA:4278,2319060
DA:4280,2319060
DA:4283,9672390
DA:4284,7353340
DA:4287,7353340
DA:4288,7353340
DA:4289,6382310
DA:4291,5876900
DA:4293,5876900
DA:4294,5876900
DA:4297,1476440
DA:4299,1476440
DA:4300,1365890
DA:4301,1365890
DA:4303,1365890
DA:4305,3824
DA:4308,1362070
DA:4309,1362070
DA:4311,1362070
DA:4313,1362070
DA:4317,110542
DA:4319,110542
DA:4321,110542
DA:4322,110542
DA:4324,0
DA:4325,0
DA:4332,2319060
DA:4333,2319060
DA:4334,2319060
DA:4338,205455
DA:4339,160388
DA:4341,45067
DA:4342,45067
DA:4344,45067
DA:4350,30092
DA:4351,30092
DA:4352,30092
DA:4353,30092
DA:4356,90276
DA:4357,60184
DA:4358,30485
DA:4362,698925
DA:4363,668833
DA:4364,668833
DA:4365,668833
DA:4366,668833
DA:4367,668833
DA:4368,668833
DA:4369,668833
DA:4372,668833
DA:4374,668833
DA:4377,668833
DA:4378,668833
DA:4380,668833
DA:4382,668833
DA:4384,668833
DA:4386,668833
DA:4389,2006500
DA:4390,1337670
DA:4393,1337670
DA:4395,1304170
DA:4401,33494
DA:4407,90276
DA:4408,60184
DA:4411,30092
DA:4417,32231
DA:4418,32231
DA:4419,32231
DA:4420,32231
DA:4421,32231
DA:4422,32231
DA:4424,66563
DA:4429,102996
DA:4430,68664
DA:4432,2101
DA:4434,66563
DA:4435,37324
DA:4436,37324
DA:4440,34332
DA:4441,0
DA:4444,34332
DA:4447,52746
DA:4448,49405
DA:4449,50645
DA:4450,49405
DA:4451,46262
DA:4453,18414
DA:4459,32231
DA:4461,32231
DA:4467,64462
DA:4468,64462
DA:4470,64462
DA:4471,21931
DA:4472,19830
DA:4473,0
DA:4475,19830
DA:4477,62361
DA:4478,30130
DA:4479,0
DA:4482,64462
DA:4489,248
DA:4490,248
DA:4491,0
DA:4493,248
DA:4495,248
DA:4496,248
DA:4497,248
DA:4500,248
DA:4502,248
DA:4503,248
DA:4504,248
DA:4507,248
DA:4510,248
DA:4511,248
DA:4512,2480
DA:4513,2232
DA:4514,2232
DA:4515,2232
DA:4517,10912
DA:4518,8680
DA:4520,2232
DA:4521,496
DA:4522,744
DA:4523,248
DA:4526,2232
DA:4527,0
DA:4530,2232
DA:4533,248
DA:4534,248
DA:4535,248
DA:4536,248
DA:4537,2480
DA:4538,2232
DA:4539,2232
DA:4541,2232
DA:4542,2232
DA:4543,2232
DA:4544,2232
DA:4545,2232
DA:4547,2232
DA:4549,1736
DA:4550,1736
DA:4551,1736
DA:4552,248
DA:4553,1736
DA:4554,248
DA:4556,1736
DA:4557,97464
DA:4558,95728
DA:4561,1736
DA:4563,1736
DA:4566,1736
DA:4569,1736
DA:4571,1736
DA:4575,248
DA:4576,248
DA:4578,248
DA:4579,248
DA:4580,2480
DA:4581,2232
DA:4582,2232
DA:4583,2232
DA:4585,2232
DA:4586,2232
DA:4589,1984
DA:4591,2232
DA:4592,496
DA:4593,496
DA:4595,992
DA:4597,496
DA:4598,496
DA:4601,496
DA:4602,496
DA:4603,496
DA:4604,496
DA:4607,496
DA:4608,91276
DA:4609,90780
DA:4611,90780
DA:4612,90780
DA:4616,90780
DA:4617,90780
DA:4618,90780
DA:4619,90780
DA:4620,90780
DA:4621,90780
DA:4623,90780
DA:4625,90780
DA:4627,90780
DA:4630,90780
DA:4633,90780
DA:4634,90780
DA:4636,496
DA:4640,2480
DA:4641,2232
DA:4642,248
DA:4644,248
DA:4645,248
DA:4647,248
DA:4655,89
DA:4656,89
DA:4657,0
DA:4660,89
DA:4661,89
DA:4662,89
DA:4665,89
DA:4667,89
DA:4668,89
DA:4669,89
DA:4670,89
DA:4671,178
DA:4673,89
DA:4674,89
DA:4677,89
DA:4680,89
DA:4681,89
DA:4682,89
DA:4683,89
DA:4684,534
DA:4685,445
DA:4686,445
DA:4687,445
DA:4689,1335
DA:4690,890
DA:4692,445
DA:4693,89
DA:4694,89
DA:4695,0
DA:4698,445
DA:4699,0
DA:4702,445
DA:4706,89
DA:4707,89
DA:4708,445
DA:4709,356
DA:4710,356
DA:4713,89
DA:4714,178
DA:4715,89
DA:4716,89
DA:4719,89
DA:4720,0
DA:4722,89
DA:4723,89
DA:4724,534
DA:4725,445
DA:4726,445
DA:4728,445
DA:4729,445
DA:4730,445
DA:4731,445
DA:4732,445
DA:4734,445
DA:4736,356
DA:4737,356
DA:4738,356
DA:4739,89
DA:4741,356
DA:4742,2948
DA:4743,2592
DA:4746,356
DA:4748,356
DA:4751,356
DA:4754,356
DA:4756,356
DA:4761,534
DA:4762,445
DA:4763,445
DA:4764,445
DA:4766,445
DA:4767,89
DA:4768,89
DA:4770,178
DA:4772,89
DA:4773,89
DA:4775,89
DA:4776,89
DA:4777,89
DA:4778,89
DA:4781,89
DA:4782,1607
DA:4783,1518
DA:4784,1518
DA:4785,1518
DA:4789,1518
DA:4790,1518
DA:4791,1518
DA:4792,1518
DA:4794,1518
DA:4795,1518
DA:4797,1518
DA:4799,1518
DA:4801,1518
DA:4804,1518
DA:4807,1518
DA:4808,1518
DA:4810,89
DA:4814,534
DA:4815,445
DA:4818,89
DA:4820,89
DA:4821,89
DA:4822,89
DA:4824,89
DA:4831,9
DA:4832,9
DA:4834,9
DA:4835,0
DA:4837,9
DA:4840,9
DA:4842,9
DA:4843,9
DA:4844,9
DA:4845,9
DA:4846,18
DA:4849,9
DA:4851,9
DA:4852,9
DA:4853,9
DA:4854,9
DA:4855,54
DA:4856,45
DA:4857,45
DA:4858,45
DA:4860,45
DA:4862,45
DA:4864,36
DA:4865,36
DA:4866,36
DA:4867,9
DA:4869,36
DA:4870,258
DA:4871,222
DA:4874,36
DA:4877,36
DA:4880,36
DA:4883,36
DA:4885,36
DA:4889,9
DA:4890,9
DA:4891,54
DA:4892,45
DA:4893,45
DA:4895,45
DA:4896,9
DA:4897,9
DA:4899,18
DA:4902,9
DA:4903,9
DA:4904,9
DA:4905,9
DA:4906,9
DA:4907,9
DA:4910,9
DA:4911,165
DA:4912,156
DA:4913,156
DA:4914,156
DA:4916,156
DA:4917,156
DA:4919,0
DA:4922,0
DA:4923,0
DA:4926,156
DA:4927,156
DA:4928,156
DA:4930,156
DA:4932,156
DA:4933,156
DA:4936,156
DA:4938,156
DA:4940,156
DA:4943,156
DA:4946,156
DA:4947,156
DA:4949,9
DA:4953,54
DA:4954,45
DA:4956,9
DA:4958,9
DA:4959,9
DA:4961,9
DA:4968,0
DA:4969,0
DA:4970,0
DA:4972,0
DA:4973,0
DA:4975,0
DA:4978,0
DA:4980,0
DA:4981,0
DA:4982,0
DA:4983,0
DA:4984,0
DA:4987,0
DA:4989,0
DA:4990,0
DA:4991,0
DA:4992,0
DA:4993,0
DA:4994,0
DA:4995,0
DA:4996,0
DA:4997,0
DA:4999,0
DA:5001,0
DA:5003,0
DA:5005,0
DA:5006,0
DA:5008,0
DA:5010,0
DA:5011,0
DA:5013,0
DA:5014,0
DA:5015,0
DA:5018,0
DA:5021,0
DA:5024,0
DA:5027,0
DA:5030,0
DA:5034,0
DA:5036,0
DA:5037,0
DA:5038,0
DA:5039,0
DA:5040,0
DA:5042,0
DA:5043,0
DA:5044,0
DA:5046,0
DA:5047,0
DA:5053,0
DA:5055,0
DA:5056,0
DA:5058,0
DA:5059,0
DA:5060,0
DA:5061,0
DA:5064,0
DA:5065,0
DA:5066,0
DA:5073,0
DA:5074,0
DA:5075,0
DA:5077,0
DA:5079,0
DA:5080,0
DA:5083,0
DA:5085,0
DA:5087,0
DA:5090,0
DA:5093,0
DA:5094,0
DA:5096,0
DA:5100,0
DA:5101,0
DA:5103,0
DA:5105,0
DA:5106,0
DA:5108,0
DA:5117,632
DA:5118,632
DA:5119,632
DA:5120,632
DA:5121,632
DA:5122,632
DA:5123,632
DA:5124,632
DA:5125,632
DA:5126,632
DA:5127,632
DA:5128,632
DA:5129,632
DA:5130,632
DA:5132,632
DA:5135,632
DA:5138,632
DA:5139,98
DA:5140,89
DA:5142,9
DA:5146,534
DA:5147,248
DA:5148,248
DA:5150,0
DA:5155,286
DA:5156,0
DA:5161,286
DA:5163,230
DA:5164,6
DA:5167,286
DA:5168,286
DA:5169,286
DA:5172,286
DA:5174,286
DA:5175,286
DA:5176,572
DA:5179,286
DA:5180,286
DA:5183,286
DA:5186,1604
DA:5187,1318
DA:5188,1318
DA:5189,1318
DA:5190,3556
DA:5191,2238
DA:5192,1318
DA:5193,516
DA:5194,746
DA:5195,230
DA:5198,1318
DA:5199,0
DA:5203,1318
DA:5206,286
DA:5207,1604
DA:5208,1318
DA:5209,1318
DA:5211,1318
DA:5212,1318
DA:5213,1318
DA:5214,1318
DA:5215,1318
DA:5217,1318
DA:5218,802
DA:5221,802
DA:5224,802
DA:5225,802
DA:5226,112
DA:5231,802
DA:5232,112
DA:5233,112
DA:5234,112
DA:5238,802
DA:5239,18
DA:5240,18
DA:5241,18
DA:5246,15616
DA:5247,14814
DA:5250,802
DA:5252,802
DA:5255,802
DA:5258,802
DA:5259,0
DA:5260,802
DA:5264,516
DA:5265,448
DA:5266,448
DA:5269,9408
DA:5270,8960
DA:5271,8960
DA:5272,8960
DA:5273,8960
DA:5274,8960
DA:5276,8960
DA:5277,8960
DA:5279,0
DA:5281,8960
DA:5282,8960
DA:5284,8960
DA:5285,8960
DA:5286,8960
DA:5287,8960
DA:5289,8960
DA:5291,8960
DA:5293,8960
DA:5296,8960
DA:5299,8960
DA:5300,8960
DA:5302,448
DA:5307,286
DA:5311,286
DA:5312,56
DA:5313,56
DA:5316,280
DA:5317,224
DA:5318,224
DA:5319,224
DA:5320,224
DA:5321,224
DA:5323,224
DA:5324,224
DA:5326,0
DA:5328,224
DA:5329,224
DA:5330,224
DA:5332,0
DA:5334,224
DA:5335,224
DA:5336,224
DA:5338,224
DA:5340,224
DA:5342,224
DA:5345,224
DA:5348,224
DA:5349,224
DA:5351,224
DA:5353,286
DA:5356,230
DA:5358,6
DA:5359,6
DA:5361,24
DA:5362,18
DA:5363,18
DA:5364,18
DA:5365,18
DA:5366,18
DA:5368,18
DA:5369,18
DA:5370,18
DA:5372,18
DA:5373,12
DA:5374,12
DA:5375,12
DA:5377,0
DA:5378,0
DA:5380,12
DA:5384,6
DA:5385,6
DA:5386,6
DA:5390,18
DA:5392,18
DA:5394,18
DA:5397,18
DA:5400,18
DA:5401,18
DA:5403,18
DA:5405,286
DA:5408,1604
DA:5409,1318
DA:5411,286
DA:5414,286
DA:5415,56
DA:5417,286
DA:5418,6
DA:5434,17132
DA:5435,17132
DA:5436,17132
DA:5437,17132
DA:5438,17132
DA:5439,17132
DA:5442,145364
DA:5443,128232
DA:5444,128232
DA:5445,2550640
DA:5446,2422410
DA:5447,2422410
DA:5449,128232
DA:5450,84
DA:5456,128232
DA:5457,0
DA:5464,17132
DA:5465,145364
DA:5466,128232
DA:5467,84
DA:5472,145364
DA:5473,128232
DA:5474,128148
DA:5475,128232
DA:5479,17132
DA:5480,17132
DA:5481,17132
DA:5482,17132
DA:5491,990161
DA:5492,990161
DA:5493,576
DA:5494,576
DA:5495,64
DA:5497,576
DA:5502,2082070
DA:5503,1092490
DA:5504,1092490
DA:5505,986920
DA:5507,1092490
DA:5512,92
DA:5513,92
DA:5514,92
DA:5516,92
DA:5518,92
DA:5519,0
DA:5522,92
DA:5523,58
DA:5524,58
DA:5525,58
DA:5527,58
DA:5528,0
DA:5529,58
DA:5532,42
DA:5533,42
DA:5534,6
DA:5536,42
DA:5537,42
DA:5540,76
DA:5541,102
DA:5542,68
DA:5543,68
DA:5544,22
end_of_record
SF:/usr/include/c++/9/bits/alloc_traits.h
DA:469,24
DA:470,24
DA:482,0
DA:484,0
DA:495,0
DA:497,0
DA:505,0
DA:506,0
DA:514,24
DA:515,24
DA:545,440
DA:546,440
DA:553,440
DA:557,440
end_of_record
SF:/usr/include/c++/9/ostream
DA:108,0
DA:113,0
DA:565,0
DA:568,0
DA:570,0
DA:571,0
end_of_record
SF:/usr/include/c++/9/ext/type_traits.h
DA:152,66
end_of_record
SF:/usr/include/x86_64-linux-gnu/bits/string_fortified.h
DA:59,17132
DA:71,17132
DA:88,1933200
DA:90,1933200
DA:126,1933200
DA:128,1933200
end_of_record
TN:
SF:/usr/include/c++/9/iostream
end_of_record
SF:/usr/include/c++/9/cmath
DA:350,25415
DA:351,25415
end_of_record
SF:/workspace/vtr-verilog-to-routing/ODIN_II/SRC/netlist_cleanup.cpp
FN:64,_Z16insert_node_listP11node_list_tP7nnode_t
FNDA:0,_Z16insert_node_listP11node_list_tP7nnode_t
FN:71,_Z17traverse_backwardP7nnode_t
FNDA:56184100,_Z17traverse_backwardP7nnode_t
FN:92,_Z16traverse_forwardP7nnode_tii
FNDA:16155300,_Z16traverse_forwardP7nnode_tii
FN:145,_Z24mark_output_dependenciesP9netlist_t
FNDA:0,_Z24mark_output_dependenciesP9netlist_t
FN:154,_Z21identify_unused_nodesP9netlist_t
FNDA:3241,_Z21identify_unused_nodesP9netlist_t
FN:172,_Z19remove_unused_nodesP11node_list_t
FNDA:3241,_Z19remove_unused_nodesP11node_list_t
FN:201,_Z27calculate_addsub_statisticsP11node_list_t
FNDA:3241,_Z27calculate_addsub_statisticsP11node_list_t
FN:242,_Z19remove_unused_logicP9netlist_t
FNDA:3241,_Z19remove_unused_logicP9netlist_t
DA:64,2083490
DA:65,2083490
DA:66,0
DA:67,2083490
DA:71,56184100
DA:72,56184100
DA:73,14080100
DA:74,14080100
DA:75,70159400
DA:77,112159000
DA:78,56079300
DA:80,56079300
DA:92,16155300
DA:93,16155300
DA:94,16155300
DA:98,16155300
DA:101,16155300
DA:103,16155300
DA:105,2056540
DA:108,16155300
DA:110,623963
DA:111,623963
DA:112,0
DA:115,0
DA:117,623963
DA:119,623963
DA:120,26952
DA:126,33076000
DA:127,16920800
DA:128,96175300
DA:129,79339400
DA:130,78021000
DA:131,78021000
DA:133,63132200
DA:134,16056200
DA:145,3241
DA:146,3241
DA:147,108092
DA:148,104851
DA:150,0
DA:154,3241
DA:155,3241
DA:156,3241
DA:158,3241
DA:159,3241
DA:161,3241
DA:162,3241
DA:163,3241
DA:164,3241
DA:165,92559
DA:166,89318
DA:168,3241
DA:172,3241
DA:173,2059780
DA:175,9119670
DA:176,7063130
DA:178,7063130
DA:179,7063130
DA:181,2056540
DA:182,2056540
DA:184,3241
DA:201,3241
DA:202,30193
DA:206,486025
DA:207,460610
DA:208,26952
DA:211,459073
DA:214,459073
DA:215,459073
DA:218,433658
DA:220,26952
DA:221,25415
DA:222,12472
DA:223,12472
DA:224,12472
DA:225,12943
DA:226,12943
DA:227,12943
DA:228,12943
DA:231,25415
DA:232,25415
DA:235,26952
DA:238,3241
DA:239,3241
DA:242,3241
DA:243,3241
DA:244,3241
DA:245,3241
DA:246,3241
DA:247,3241
end_of_record
TN:
SF:/usr/include/c++/9/ext/type_traits.h
DA:152,26
end_of_record
SF:/usr/include/c++/9/bits/alloc_traits.h
DA:469,2
DA:470,2
DA:514,26
DA:515,26
end_of_record
SF:/usr/include/c++/9/bits/ptr_traits.h
DA:146,52
DA:147,52
end_of_record
SF:/usr/include/c++/9/ext/alloc_traits.h
DA:97,26
DA:98,26
end_of_record
SF:/usr/include/c++/9/bits/char_traits.h
DA:299,50
DA:300,24
DA:361,2
DA:363,2
DA:365,2
end_of_record
SF:/usr/include/c++/9/bits/stl_iterator_base_funcs.h
DA:98,26
DA:104,26
DA:138,26
DA:141,26
end_of_record
SF:/usr/include/c++/9/iostream
end_of_record
SF:/usr/include/c++/9/bits/allocator.h
DA:141,26
DA:142,26
DA:153,52
end_of_record
SF:/usr/include/c++/9/ext/new_allocator.h
DA:83,26
DA:89,52
DA:119,2
DA:128,2
end_of_record
SF:/usr/include/c++/9/bits/move.h
DA:47,52
DA:99,26
DA:138,52
DA:139,52
end_of_record
SF:/usr/include/c++/9/bits/basic_string.tcc
FN:206,_ZNSt7__cxx1112basic_stringIcSt11char_traitsIcESaIcEE12_M_constructIPcEEvT_S7_St20forward_iterator_tag
FNDA:26,_ZNSt7__cxx1112basic_stringIcSt11char_traitsIcESaIcEE12_M_constructIPcEEvT_S7_St20forward_iterator_tag
DA:206,26
DA:211,26
DA:212,0
DA:215,26
DA:217,26
DA:219,2
DA:220,2
DA:225,26
DA:232,26
DA:233,26
end_of_record
SF:/workspace/vtr-verilog-to-routing/ODIN_II/SRC/netlist_check.cpp
FN:53,_Z13check_netlistP9netlist_t
FNDA:6287,_Z13check_netlistP9netlist_t
FN:65,_Z54levelize_and_check_for_combinational_loop_and_livenessP9netlist_t
FNDA:0,_Z54levelize_and_check_for_combinational_loop_and_livenessP9netlist_t
FN:87,_Z24sequential_levelized_dfssP9netlist_t
FNDA:0,_Z24sequential_levelized_dfssP9netlist_t
FN:155,_Z44depth_first_traverse_until_next_ff_or_outputP7nnode_tS0_miP9netlist_t
FNDA:0,_Z44depth_first_traverse_until_next_ff_or_outputP7nnode_tS0_miP9netlist_t
FN:221,_Z46depth_first_traversal_check_if_forward_leveledsP9netlist_t
FNDA:0,_Z46depth_first_traversal_check_if_forward_leveledsP9netlist_t
FN:240,_Z45depth_first_traverse_check_if_forward_leveledP7nnode_tm
FNDA:0,_Z45depth_first_traverse_check_if_forward_leveledP7nnode_tm
FN:282,_Z17levelize_forwardsP9netlist_t
FNDA:0,_Z17levelize_forwardsP9netlist_t
FN:416,_Z60levelize_forwards_clean_checking_for_combo_loop_and_livenessP9netlist_t
FNDA:0,_Z60levelize_forwards_clean_checking_for_combo_loop_and_livenessP9netlist_t
FN:496,_Z18levelize_backwardsP9netlist_t
FNDA:0,_Z18levelize_backwardsP9netlist_t
FN:611,_Z46levelize_backwards_clean_checking_for_livenessP9netlist_t
FNDA:0,_Z46levelize_backwards_clean_checking_for_livenessP9netlist_t
FN:679,_Z30find_node_at_top_of_combo_loopP7nnode_t
FNDA:0,_Z30find_node_at_top_of_combo_loopP7nnode_t
DA:53,6287
DA:55,6287
DA:57,52
DA:59,6287
DA:65,0
DA:67,0
DA:70,0
DA:73,0
DA:76,0
DA:78,0
DA:81,0
DA:82,0
DA:87,0
DA:88,0
DA:90,0
DA:91,0
DA:92,0
DA:93,0
DA:94,0
DA:95,0
DA:98,0
DA:101,0
DA:102,0
DA:103,0
DA:104,0
DA:106,0
DA:111,0
DA:112,0
DA:113,0
DA:115,0
DA:117,0
DA:118,0
DA:119,0
DA:121,0
DA:124,0
DA:129,0
DA:130,0
DA:131,0
DA:132,0
DA:133,0
DA:136,0
DA:137,0
DA:138,0
DA:139,0
DA:140,0
DA:143,0
DA:144,0
DA:148,0
DA:150,0
DA:155,0
DA:156,0
DA:157,0
DA:158,0
DA:161,0
DA:163,0
DA:165,0
DA:166,0
DA:167,0
DA:169,0
DA:173,0
DA:176,0
DA:179,0
DA:182,0
DA:183,0
DA:186,0
DA:187,0
DA:188,0
DA:190,0
DA:195,0
DA:196,0
DA:198,0
DA:199,0
DA:200,0
DA:202,0
DA:203,0
DA:204,0
DA:205,0
DA:207,0
DA:208,0
DA:209,0
DA:212,0
DA:221,0
DA:222,0
DA:225,0
DA:226,0
DA:227,0
DA:231,0
DA:232,0
DA:233,0
DA:234,0
DA:235,0
DA:240,0
DA:241,0
DA:242,0
DA:243,0
DA:245,0
DA:251,0
DA:253,0
DA:254,0
DA:255,0
DA:257,0
DA:258,0
DA:259,0
DA:260,0
DA:262,0
DA:263,0
DA:264,0
DA:266,0
DA:267,0
DA:268,0
DA:272,0
DA:282,0
DA:283,0
DA:284,0
DA:285,0
DA:286,0
DA:289,0
DA:290,0
DA:291,0
DA:292,0
DA:293,0
DA:294,0
DA:295,0
DA:296,0
DA:298,0
DA:299,0
DA:300,0
DA:301,0
DA:302,0
DA:304,0
DA:305,0
DA:306,0
DA:307,0
DA:308,0
DA:310,0
DA:311,0
DA:312,0
DA:313,0
DA:314,0
DA:315,0
DA:316,0
DA:317,0
DA:318,0
DA:319,0
DA:320,0
DA:323,0
DA:324,0
DA:325,0
DA:326,0
DA:327,0
DA:328,0
DA:332,0
DA:334,0
DA:335,0
DA:336,0
DA:337,0
DA:338,0
DA:341,0
DA:342,0
DA:343,0
DA:344,0
DA:347,0
DA:348,0
DA:349,0
DA:350,0
DA:352,0
DA:353,0
DA:355,0
DA:356,0
DA:358,0
DA:360,0
DA:361,0
DA:363,0
DA:365,0
DA:367,0
DA:368,0
DA:371,0
DA:372,0
DA:375,0
DA:380,0
DA:383,0
DA:384,0
DA:385,0
DA:391,0
DA:393,0
DA:394,0
DA:395,0
DA:397,0
DA:404,0
DA:406,0
DA:412,0
DA:416,0
DA:417,0
DA:418,0
DA:419,0
DA:420,0
DA:422,0
DA:424,0
DA:426,0
DA:427,0
DA:428,0
DA:429,0
DA:432,0
DA:433,0
DA:434,0
DA:435,0
DA:437,0
DA:438,0
DA:439,0
DA:442,0
DA:444,0
DA:445,0
DA:447,0
DA:448,0
DA:450,0
DA:452,0
DA:453,0
DA:454,0
DA:457,0
DA:458,0
DA:459,0
DA:465,0
DA:467,0
DA:470,0
DA:471,0
DA:474,0
DA:475,0
DA:482,0
DA:484,0
DA:490,0
DA:496,0
DA:497,0
DA:498,0
DA:499,0
DA:500,0
DA:503,0
DA:504,0
DA:505,0
DA:506,0
DA:507,0
DA:508,0
DA:509,0
DA:510,0
DA:511,0
DA:512,0
DA:513,0
DA:514,0
DA:517,0
DA:518,0
DA:519,0
DA:520,0
DA:521,0
DA:522,0
DA:526,0
DA:528,0
DA:529,0
DA:530,0
DA:531,0
DA:532,0
DA:535,0
DA:536,0
DA:537,0
DA:539,0
DA:540,0
DA:541,0
DA:543,0
DA:544,0
DA:545,0
DA:546,0
DA:548,0
DA:550,0
DA:551,0
DA:554,0
DA:555,0
DA:558,0
DA:559,0
DA:563,0
DA:564,0
DA:568,0
DA:569,0
DA:570,0
DA:571,0
DA:572,0
DA:573,0
DA:576,0
DA:577,0
DA:578,0
DA:579,0
DA:581,0
DA:583,0
DA:584,0
DA:585,0
DA:588,0
DA:598,0
DA:600,0
DA:606,0
DA:611,0
DA:612,0
DA:613,0
DA:614,0
DA:615,0
DA:617,0
DA:619,0
DA:621,0
DA:622,0
DA:623,0
DA:624,0
DA:627,0
DA:628,0
DA:629,0
DA:630,0
DA:633,0
DA:635,0
DA:637,0
DA:640,0
DA:641,0
DA:642,0
DA:645,0
DA:646,0
DA:647,0
DA:653,0
DA:655,0
DA:659,0
DA:660,0
DA:666,0
DA:668,0
DA:674,0
DA:679,0
DA:680,0
DA:681,0
DA:682,0
DA:684,0
DA:685,0
DA:686,0
DA:687,0
DA:688,0
DA:691,0
DA:692,0
DA:693,0
DA:694,0
DA:701,0
DA:702,0
DA:703,0
DA:706,0
DA:707,0
DA:710,0
DA:711,0
DA:712,0
DA:715,0
DA:716,0
end_of_record
SF:/usr/include/c++/9/bits/basic_string.h
DA:150,26
DA:159,26
DA:160,26
DA:178,2
DA:179,2
DA:182,26
DA:183,26
DA:186,106
DA:190,26
DA:193,26
DA:200,26
DA:203,26
DA:210,2
DA:211,2
DA:214,26
DA:216,26
DA:217,26
DA:221,26
DA:222,26
DA:229,26
DA:231,26
DA:232,28
DA:236,2
DA:237,2
DA:243,26
DA:247,26
DA:263,26
DA:266,52
DA:286,2
DA:287,2
DA:290,26
DA:291,26
DA:346,26
DA:348,26
DA:349,24
DA:351,26
DA:392,26
DA:393,26
DA:448,26
DA:450,26
DA:451,26
DA:657,26
DA:658,26
DA:936,26
end_of_record
TN:
SF:/usr/include/c++/9/bits/basic_string.h
FN:6057,_ZStplIcSt11char_traitsIcESaIcEENSt7__cxx1112basic_stringIT_T0_T1_EERKS8_PKS5_
FNDA:188611,_ZStplIcSt11char_traitsIcESaIcEENSt7__cxx1112basic_stringIT_T0_T1_EERKS8_PKS5_
FN:6097,_ZStplIcSt11char_traitsIcESaIcEENSt7__cxx1112basic_stringIT_T0_T1_EEOS8_S9_
FNDA:188611,_ZStplIcSt11char_traitsIcESaIcEENSt7__cxx1112basic_stringIT_T0_T1_EEOS8_S9_
FN:6121,_ZStplIcSt11char_traitsIcESaIcEENSt7__cxx1112basic_stringIT_T0_T1_EEOS8_PKS5_
FNDA:188611,_ZStplIcSt11char_traitsIcESaIcEENSt7__cxx1112basic_stringIT_T0_T1_EEOS8_PKS5_
DA:150,760847
DA:156,188611
DA:157,188611
DA:159,188611
DA:160,565833
DA:178,752932
DA:179,0
DA:182,572236
DA:183,572236
DA:186,3229730
DA:190,1131670
DA:193,377222
DA:200,1326680
DA:203,1326680
DA:210,375710
DA:211,0
DA:214,572236
DA:216,572236
DA:217,572236
DA:221,1326680
DA:222,1326680
DA:229,760847
DA:231,383625
DA:232,955101
DA:236,194254
DA:237,194254
DA:243,377222
DA:247,377222
DA:263,377222
DA:266,188611
DA:286,571476
DA:287,194254
DA:290,188611
DA:291,188611
DA:346,195014
DA:348,195014
DA:349,63700
DA:351,195014
DA:392,188611
DA:393,188611
DA:396,6403
DA:398,6403
DA:448,188611
DA:450,188611
DA:451,377222
DA:552,377222
DA:553,377222
DA:555,377222
DA:557,1512
DA:562,375710
DA:563,375710
DA:569,377222
DA:570,377222
DA:571,377222
DA:625,188611
DA:627,188611
DA:628,188611
DA:657,383625
DA:658,383625
DA:704,6403
DA:705,6403
DA:930,377222
DA:936,188611
DA:993,0
DA:995,188611
DA:1221,188611
DA:1222,188611
DA:1639,0
DA:1641,0
DA:2300,188611
DA:2301,188611
DA:6057,188611
DA:6060,188611
DA:6061,188611
DA:6062,188611
DA:6097,188611
DA:6100,188611
DA:6101,377222
DA:6102,188611
DA:6103,0
DA:6104,188611
DA:6121,188611
DA:6123,188611
DA:6546,188611
DA:6547,188611
DA:6548,188611
end_of_record
SF:/usr/include/c++/9/bits/basic_string.tcc
FN:206,_ZNSt7__cxx1112basic_stringIcSt11char_traitsIcESaIcEE12_M_constructIPcEEvT_S7_St20forward_iterator_tag
FNDA:188611,_ZNSt7__cxx1112basic_stringIcSt11char_traitsIcESaIcEE12_M_constructIPcEEvT_S7_St20forward_iterator_tag
FN:206,_ZNSt7__cxx1112basic_stringIcSt11char_traitsIcESaIcEE12_M_constructIPKcEEvT_S8_St20forward_iterator_tag
FNDA:6403,_ZNSt7__cxx1112basic_stringIcSt11char_traitsIcESaIcEE12_M_constructIPKcEEvT_S8_St20forward_iterator_tag
DA:206,188611
DA:211,188611
DA:212,0
DA:215,188611
DA:217,188611
DA:219,0
DA:220,0
DA:225,188611
DA:232,188611
DA:233,188611
DA:206,6403
DA:211,6403
DA:212,0
DA:215,6403
DA:217,6403
DA:219,0
DA:220,0
DA:225,6403
DA:232,6403
DA:233,6403
end_of_record
SF:/usr/include/c++/9/bits/stl_uninitialized.h
DA:76,0
DA:79,0
DA:82,0
DA:83,0
DA:115,0
DA:134,0
DA:140,0
DA:305,0
DA:307,0
DA:544,0
DA:545,0
DA:566,0
DA:597,0
DA:601,0
DA:661,0
DA:663,0
DA:905,0
DA:912,0
DA:913,0
DA:924,0
DA:927,0
DA:928,0
DA:929,0
DA:949,0
DA:950,0
DA:958,0
DA:964,0
end_of_record
SF:/usr/include/c++/9/bits/vector.tcc
FN:198,_ZNSt6vectorISt4pairIP7nnode_tiESaIS3_EEaSERKS5_
FNDA:0,_ZNSt6vectorISt4pairIP7nnode_tiESaIS3_EEaSERKS5_
FN:611,_ZNSt6vectorISt4pairIP7nnode_tiESaIS3_EE17_M_default_appendEm
FNDA:0,_ZNSt6vectorISt4pairIP7nnode_tiESaIS3_EE17_M_default_appendEm
FN:611,_ZNSt6vectorImSaImEE17_M_default_appendEm
FNDA:0,_ZNSt6vectorImSaImEE17_M_default_appendEm
FN:611,_ZNSt6vectorIP7nnode_tSaIS1_EE17_M_default_appendEm
FNDA:0,_ZNSt6vectorIP7nnode_tSaIS1_EE17_M_default_appendEm
FN:611,_ZNSt6vectorI12AdderTreeRowSaIS0_EE17_M_default_appendEm
FNDA:0,_ZNSt6vectorI12AdderTreeRowSaIS0_EE17_M_default_appendEm
DA:198,0
DA:201,0
DA:223,0
DA:224,0
DA:226,0
DA:228,0
DA:229,0
DA:230,0
DA:231,0
DA:232,0
DA:233,0
DA:234,0
DA:236,0
DA:238,0
DA:239,0
DA:243,0
DA:245,0
DA:248,0
DA:250,0
DA:252,0
DA:611,0
DA:614,0
DA:616,0
DA:617,0
DA:618,0
DA:620,0
DA:621,0
DA:623,0
DA:626,0
DA:627,0
DA:628,0
DA:633,0
DA:635,0
DA:640,0
DA:641,0
DA:648,0
DA:649,0
DA:675,0
DA:676,0
DA:677,0
DA:678,0
DA:679,0
DA:680,0
DA:683,0
DA:611,0
DA:614,0
DA:616,0
DA:617,0
DA:618,0
DA:620,0
DA:621,0
DA:623,0
DA:626,0
DA:627,0
DA:628,0
DA:633,0
DA:635,0
DA:640,0
DA:641,0
DA:648,0
DA:649,0
DA:675,0
DA:676,0
DA:677,0
DA:678,0
DA:679,0
DA:680,0
DA:683,0
DA:611,0
DA:614,0
DA:616,0
DA:617,0
DA:618,0
DA:620,0
DA:621,0
DA:623,0
DA:626,0
DA:627,0
DA:628,0
DA:633,0
DA:635,0
DA:640,0
DA:641,0
DA:648,0
DA:649,0
DA:675,0
DA:676,0
DA:677,0
DA:678,0
DA:679,0
DA:680,0
DA:683,0
DA:611,0
DA:614,0
DA:616,0
DA:617,0
DA:618,0
DA:620,0
DA:621,0
DA:623,0
DA:626,0
DA:627,0
DA:628,0
DA:633,0
DA:635,0
DA:640,0
DA:641,0
DA:648,0
DA:649,0
DA:675,0
DA:676,0
DA:677,0
DA:678,0
DA:679,0
DA:680,0
DA:683,0
end_of_record
SF:/usr/include/c++/9/bits/cpp_type_traits.h
DA:428,0
end_of_record
SF:/usr/include/c++/9/bits/stl_construct.h
DA:74,0
DA:75,0
DA:97,0
DA:98,0
DA:107,0
DA:108,0
DA:117,0
DA:127,0
DA:137,0
DA:203,0
DA:206,0
end_of_record
SF:/usr/include/c++/9/bits/move.h
DA:47,0
DA:74,0
DA:99,565833
DA:138,2081120
DA:139,1326680
end_of_record
SF:/usr/include/c++/9/ext/new_allocator.h
DA:80,195014
DA:83,754444
DA:89,578639
DA:119,194254
DA:128,194254
DA:132,0
DA:144,0
DA:147,0
DA:151,0
DA:153,0
end_of_record
SF:/usr/include/c++/9/bits/stl_algobase.h
DA:198,0
DA:222,6774
DA:227,6774
DA:228,2273
DA:280,0
DA:290,0
DA:295,0
DA:337,0
DA:340,0
DA:342,0
DA:343,0
DA:344,0
DA:393,0
DA:398,0
DA:404,0
DA:438,0
DA:440,0
DA:465,0
DA:474,0
DA:769,0
DA:770,0
DA:771,0
DA:772,0
DA:808,0
end_of_record
SF:/usr/include/c++/9/bits/stl_vector.h
FN:507,_ZNSt6vectorIS_I12AdderTreeRowSaIS0_EESaIS2_EEC2EmRKS3_
FNDA:0,_ZNSt6vectorIS_I12AdderTreeRowSaIS0_EESaIS2_EEC2EmRKS3_
FN:507,_ZNSt6vectorIS_IP7nnode_tSaIS1_EESaIS3_EEC2EmRKS4_
FNDA:0,_ZNSt6vectorIS_IP7nnode_tSaIS1_EESaIS3_EEC2EmRKS4_
FN:507,_ZNSt6vectorIS_ImSaImEESaIS1_EEC2EmRKS2_
FNDA:0,_ZNSt6vectorIS_ImSaImEESaIS1_EEC2EmRKS2_
FN:507,_ZNSt6vectorISt4pairIP7nnode_tiESaIS3_EEC2EmRKS4_
FNDA:0,_ZNSt6vectorISt4pairIP7nnode_tiESaIS3_EEC2EmRKS4_
FN:550,_ZNSt6vectorISt4pairIP7nnode_tiESaIS3_EEC2ERKS5_
FNDA:0,_ZNSt6vectorISt4pairIP7nnode_tiESaIS3_EEC2ERKS5_
FN:675,_ZNSt6vectorIS_I12AdderTreeRowSaIS0_EESaIS2_EED2Ev
FNDA:0,_ZNSt6vectorIS_I12AdderTreeRowSaIS0_EESaIS2_EED2Ev
FN:675,_ZNSt6vectorIS_IP7nnode_tSaIS1_EESaIS3_EED2Ev
FNDA:0,_ZNSt6vectorIS_IP7nnode_tSaIS1_EESaIS3_EED2Ev
FN:675,_ZNSt6vectorIS_ImSaImEESaIS1_EED2Ev
FNDA:0,_ZNSt6vectorIS_ImSaImEESaIS1_EED2Ev
FN:675,_ZNSt6vectorI12AdderTreeRowSaIS0_EED2Ev
FNDA:0,_ZNSt6vectorI12AdderTreeRowSaIS0_EED2Ev
FN:934,_ZNSt6vectorIP7nnode_tSaIS1_EE6resizeEm
FNDA:0,_ZNSt6vectorIP7nnode_tSaIS1_EE6resizeEm
FN:934,_ZNSt6vectorI12AdderTreeRowSaIS0_EE6resizeEm
FNDA:0,_ZNSt6vectorI12AdderTreeRowSaIS0_EE6resizeEm
FN:934,_ZNSt6vectorImSaImEE6resizeEm
FNDA:0,_ZNSt6vectorImSaImEE6resizeEm
FN:934,_ZNSt6vectorISt4pairIP7nnode_tiESaIS3_EE6resizeEm
FNDA:0,_ZNSt6vectorISt4pairIP7nnode_tiESaIS3_EE6resizeEm
FN:1753,_ZNKSt6vectorI12AdderTreeRowSaIS0_EE12_M_check_lenEmPKc
FNDA:0,_ZNKSt6vectorI12AdderTreeRowSaIS0_EE12_M_check_lenEmPKc
FN:1753,_ZNKSt6vectorIP7nnode_tSaIS1_EE12_M_check_lenEmPKc
FNDA:0,_ZNKSt6vectorIP7nnode_tSaIS1_EE12_M_check_lenEmPKc
FN:1753,_ZNKSt6vectorImSaImEE12_M_check_lenEmPKc
FNDA:0,_ZNKSt6vectorImSaImEE12_M_check_lenEmPKc
FN:1753,_ZNKSt6vectorISt4pairIP7nnode_tiESaIS3_EE12_M_check_lenEmPKc
FNDA:0,_ZNKSt6vectorISt4pairIP7nnode_tiESaIS3_EE12_M_check_lenEmPKc
DA:94,0
DA:95,0
DA:99,0
DA:100,0
DA:101,0
DA:106,0
DA:108,0
DA:109,0
DA:110,0
DA:114,0
DA:118,0
DA:119,0
DA:120,0
DA:121,0
DA:125,0
DA:128,0
DA:130,0
DA:133,0
DA:134,0
DA:140,0
DA:141,0
DA:273,0
DA:274,0
DA:277,0
DA:278,0
DA:281,0
DA:282,0
DA:285,0
DA:290,0
DA:291,0
DA:300,0
DA:301,0
DA:302,0
DA:305,0
DA:330,0
DA:332,0
DA:333,0
DA:334,0
DA:347,0
DA:350,0
DA:351,0
DA:356,0
DA:358,0
DA:359,0
DA:360,0
DA:450,0
DA:453,0
DA:462,0
DA:466,0
DA:484,0
DA:494,0
DA:495,0
DA:507,0
DA:508,0
DA:509,0
DA:507,0
DA:508,0
DA:509,0
DA:507,0
DA:508,0
DA:509,0
DA:507,0
DA:508,0
DA:509,0
DA:550,0
DA:552,0
DA:554,0
DA:555,0
DA:557,0
DA:558,0
DA:569,0
DA:675,0
DA:677,0
DA:678,0
DA:680,0
DA:675,0
DA:677,0
DA:678,0
DA:680,0
DA:675,0
DA:677,0
DA:678,0
DA:680,0
DA:675,0
DA:677,0
DA:678,0
DA:680,0
DA:675,0
DA:677,0
DA:678,0
DA:680,0
DA:706,0
DA:708,0
DA:711,0
DA:809,0
DA:817,0
DA:818,0
DA:826,0
DA:827,0
DA:835,0
DA:836,0
DA:915,0
DA:916,0
DA:920,0
DA:921,0
DA:934,0
DA:936,0
DA:937,0
DA:938,0
DA:939,0
DA:940,0
DA:934,0
DA:936,0
DA:937,0
DA:938,0
DA:939,0
DA:940,0
DA:934,0
DA:936,0
DA:937,0
DA:938,0
DA:939,0
DA:940,0
DA:934,0
DA:936,0
DA:937,0
DA:938,0
DA:939,0
DA:940,0
DA:995,0
DA:997,0
DA:1040,0
DA:1043,0
DA:1140,0
DA:1143,0
DA:1505,0
DA:1508,0
DA:1511,0
DA:1512,0
DA:1600,0
DA:1602,0
DA:1603,0
DA:1604,0
DA:1753,0
DA:1755,0
DA:1756,0
DA:1758,0
DA:1759,0
DA:1753,0
DA:1755,0
DA:1756,0
DA:1758,0
DA:1759,0
DA:1753,0
DA:1755,0
DA:1756,0
DA:1758,0
DA:1759,0
DA:1753,0
DA:1755,0
DA:1756,0
DA:1758,0
DA:1759,0
DA:1764,0
DA:1766,0
DA:1767,0
DA:1773,0
DA:1780,0
DA:1781,0
DA:1789,0
DA:1791,0
DA:1793,0
DA:1794,0
DA:1795,0
DA:1812,0
DA:1814,0
DA:1815,0
DA:1816,0
DA:1817,0
end_of_record
SF:/usr/include/c++/9/bits/allocator.h
DA:138,195014
DA:141,754444
DA:142,754444
DA:153,578639
end_of_record
SF:/usr/include/x86_64-linux-gnu/bits/stdio2.h
DA:98,705508
DA:100,418947
DA:105,7417
DA:107,4029
end_of_record
SF:/usr/include/c++/9/iostream
end_of_record
SF:/usr/include/c++/9/bits/stl_iterator.h
DA:806,0
DA:807,0
DA:819,0
DA:827,0
DA:829,0
DA:860,0
DA:867,0
DA:868,0
DA:871,0
DA:907,0
DA:910,0
DA:1012,0
end_of_record
SF:/usr/include/c++/9/bits/stl_pair.h
DA:229,0
DA:230,0
DA:341,0
DA:342,0
DA:378,0
DA:383,0
DA:384,0
DA:389,0
DA:396,0
DA:397,0
end_of_record
SF:/usr/include/c++/9/bits/stl_iterator_base_funcs.h
DA:98,195014
DA:104,195014
DA:138,195014
DA:141,195014
end_of_record
SF:/workspace/vtr-verilog-to-routing/ODIN_II/SRC/multipliers.cpp
FN:95,_Z34instantiate_simple_soft_multiplierP7nnode_tsP9netlist_t
FNDA:1070,_Z34instantiate_simple_soft_multiplierP7nnode_tsP9netlist_t
FN:266,_ZL32implement_constant_multipicationP7nnode_t16mult_port_stat_esP9netlist_t
FNDA:0,_ZL32implement_constant_multipicationP7nnode_t16mult_port_stat_esP9netlist_t
FN:468,_Z29connect_constant_mult_outputsP7nnode_tP13signal_list_t
FNDA:0,_Z29connect_constant_mult_outputsP7nnode_tP13signal_list_t
FN:505,_Z22init_mult_distributionv
FNDA:1697,_Z22init_mult_distributionv
FN:514,_Z24record_mult_distributionP7nnode_t
FNDA:6730,_Z24record_mult_distributionP7nnode_t
FN:530,_Z24report_mult_distributionv
FNDA:3241,_Z24report_mult_distributionv
FN:554,_Z21find_hard_multipliersv
FNDA:3247,_Z21find_hard_multipliersv
FN:572,_Z23declare_hard_multiplierP7nnode_t
FNDA:6403,_Z23declare_hard_multiplierP7nnode_t
FN:610,_Z27instantiate_hard_multiplierP7nnode_tsP9netlist_t
FNDA:6403,_Z27instantiate_hard_multiplierP7nnode_tsP9netlist_t
FN:654,_Z26add_the_blackbox_for_multsP8_IO_FILE
FNDA:3241,_Z26add_the_blackbox_for_multsP8_IO_FILE
FN:728,_Z20define_mult_functionP7nnode_tP8_IO_FILE
FNDA:6365,_Z20define_mult_functionP7nnode_tP8_IO_FILE
FN:810,_Z21init_split_multiplierP7nnode_tS0_iiiiS0_S0_
FNDA:88,_Z21init_split_multiplierP7nnode_tS0_iiiiS0_S0_
FN:860,_Z21init_multiplier_adderP7nnode_tS0_ii
FNDA:44,_Z21init_multiplier_adderP7nnode_tS0_ii
FN:922,_Z16split_multiplierP7nnode_tiiiiP9netlist_t
FNDA:0,_Z16split_multiplierP7nnode_tiiiiP9netlist_t
FN:1031,_Z18split_multiplier_aP7nnode_tiii
FNDA:16,_Z18split_multiplier_aP7nnode_tiii
FN:1098,_Z18split_multiplier_bP7nnode_tiii
FNDA:28,_Z18split_multiplier_bP7nnode_tiii
FN:1158,_Z14pad_multiplierP7nnode_tP9netlist_t
FNDA:0,_Z14pad_multiplierP7nnode_tP9netlist_t
FN:1260,_Z19iterate_multipliersP9netlist_t
FNDA:1694,_Z19iterate_multipliersP9netlist_t
FN:1362,_Z21split_soft_multiplierP7nnode_tP9netlist_t
FNDA:0,_Z21split_soft_multiplierP7nnode_tP9netlist_t
FN:1619,_Z28check_constant_multipicationP7nnode_tmP9netlist_t
FNDA:0,_Z28check_constant_multipicationP7nnode_tmP9netlist_t
FN:1743,_Z17is_ast_multiplierP10ast_node_t
FNDA:0,_Z17is_ast_multiplierP10ast_node_t
FN:1774,_Z26check_multiplier_port_sizeP7nnode_t
FNDA:0,_Z26check_multiplier_port_sizeP7nnode_t
FN:1818,_Z17clean_multipliersv
FNDA:1694,_Z17clean_multipliersv
FN:1839,_ZL21cleanup_mult_old_nodeP7nnode_tP9netlist_t
FNDA:0,_ZL21cleanup_mult_old_nodeP7nnode_tP9netlist_t
FN:1876,_Z16free_multipliersv
FNDA:299,_Z16free_multipliersv
DA:67,0
DA:95,1070
DA:96,1070
DA:97,1070
DA:98,1070
DA:99,1070
DA:100,1070
DA:101,1070
DA:102,1070
DA:103,1070
DA:104,1070
DA:105,1070
DA:106,1070
DA:111,1070
DA:112,1070
DA:113,1070
DA:114,1070
DA:115,1070
DA:116,1070
DA:117,1070
DA:118,1070
DA:119,1070
DA:121,1070
DA:122,1070
DA:124,1070
DA:127,1070
DA:130,15362
DA:132,14292
DA:134,14292
DA:135,13222
DA:138,282940
DA:140,268648
DA:145,15362
DA:146,282940
DA:148,268648
DA:150,14292
DA:153,254356
DA:157,268648
DA:159,13112
DA:162,255536
DA:168,14292
DA:170,281980
DA:173,268758
DA:175,14182
DA:177,12042
DA:180,2140
DA:182,254576
DA:184,242424
DA:186,12152
DA:189,268758
DA:191,255536
DA:193,13222
DA:200,28474
DA:201,27404
DA:203,0
DA:204,27404
DA:206,1070
DA:207,26334
DA:209,12152
DA:211,14182
DA:213,0
DA:215,0
DA:217,0
DA:220,14182
DA:222,14182
DA:227,14292
DA:228,13222
DA:232,1070
DA:233,14292
DA:234,13222
DA:236,1070
DA:239,15362
DA:241,14292
DA:242,14292
DA:245,1070
DA:246,1070
DA:248,1070
DA:266,0
DA:268,0
DA:269,0
DA:271,0
DA:280,0
DA:282,0
DA:283,0
DA:284,0
DA:286,0
DA:287,0
DA:288,0
DA:289,0
DA:290,0
DA:293,0
DA:296,0
DA:297,0
DA:298,0
DA:301,0
DA:302,0
DA:303,0
DA:307,0
DA:308,0
DA:310,0
DA:312,0
DA:314,0
DA:315,0
DA:317,0
DA:318,0
DA:320,0
DA:321,0
DA:325,0
DA:328,0
DA:331,0
DA:332,0
DA:334,0
DA:335,0
DA:336,0
DA:340,0
DA:342,0
DA:343,0
DA:344,0
DA:345,0
DA:347,0
DA:363,0
DA:365,0
DA:368,0
DA:370,0
DA:371,0
DA:372,0
DA:374,0
DA:375,0
DA:378,0
DA:380,0
DA:381,0
DA:386,0
DA:387,0
DA:392,0
DA:393,0
DA:394,0
DA:395,0
DA:397,0
DA:399,0
DA:401,0
DA:404,0
DA:410,0
DA:411,0
DA:413,0
DA:415,0
DA:418,0
DA:422,0
DA:423,0
DA:424,0
DA:425,0
DA:427,0
DA:429,0
DA:431,0
DA:434,0
DA:438,0
DA:439,0
DA:445,0
DA:446,0
DA:448,0
DA:449,0
DA:450,0
DA:452,0
DA:454,0
DA:468,0
DA:470,0
DA:471,0
DA:475,0
DA:476,0
DA:478,0
DA:481,0
DA:483,0
DA:487,0
DA:488,0
DA:489,0
DA:492,0
DA:495,0
DA:496,0
DA:499,0
DA:500,0
DA:505,1697
DA:506,1697
DA:507,1697
DA:508,1697
DA:509,1697
DA:514,6730
DA:515,6730
DA:517,6730
DA:518,6730
DA:520,6730
DA:521,6730
DA:523,6730
DA:524,6730
DA:530,3241
DA:531,3241
DA:533,3241
DA:536,1694
DA:537,1694
DA:538,64318
DA:539,2315580
DA:540,2252950
DA:541,641
DA:542,2252950
DA:546,1694
DA:547,1694
DA:548,1694
DA:554,3247
DA:555,3247
DA:556,3247
DA:557,7683
DA:558,6133
DA:559,1697
DA:560,1697
DA:562,4436
DA:572,6403
DA:573,6403
DA:574,6403
DA:577,6403
DA:578,0
DA:580,6403
DA:581,6403
DA:582,6403
DA:583,6403
DA:584,6403
DA:586,2209
DA:587,2209
DA:588,2209
DA:590,26303
DA:591,25827
DA:594,19900
DA:598,476
DA:599,476
DA:600,476
DA:601,476
DA:602,476
DA:603,476
DA:604,476
DA:610,6403
DA:611,6403
DA:614,6403
DA:616,6403
DA:617,6403
DA:618,6403
DA:619,6403
DA:620,6403
DA:623,6403
DA:625,0
DA:626,0
DA:627,0
DA:628,0
DA:629,0
DA:631,0
DA:632,0
DA:633,0
DA:636,195014
DA:637,188611
DA:638,0
DA:641,188611
DA:642,565833
DA:643,188611
DA:645,6403
DA:647,6403
DA:648,12726
DA:654,3241
DA:655,3241
DA:656,3241
DA:657,3241
DA:658,3241
DA:659,3241
DA:660,3241
DA:661,3241
DA:664,3241
DA:665,2942
DA:668,1694
DA:669,1694
DA:670,1694
DA:671,1694
DA:672,1694
DA:675,1694
DA:676,1694
DA:680,775
DA:682,476
DA:683,0
DA:685,476
DA:688,476
DA:689,476
DA:690,12741
DA:691,12265
DA:692,6727
DA:694,5538
DA:697,12265
DA:698,893
DA:700,12265
DA:702,476
DA:705,476
DA:706,12741
DA:707,12265
DA:708,12265
DA:709,1209
DA:710,1209
DA:712,12265
DA:714,476
DA:715,476
DA:716,476
DA:717,476
DA:719,476
DA:722,299
DA:728,6365
DA:729,6365
DA:730,6365
DA:731,6365
DA:733,6365
DA:734,6365
DA:735,6365
DA:736,6365
DA:737,6365
DA:739,6365
DA:741,6365
DA:742,0
DA:744,6365
DA:745,1362
DA:748,1362
DA:750,5003
DA:753,5003
DA:757,193312
DA:758,207273
DA:759,110429
DA:760,110429
DA:761,110429
DA:762,110429
DA:764,110429
DA:765,109021
DA:767,1408
DA:769,76518
DA:770,76518
DA:771,76518
DA:772,76518
DA:774,153036
DA:775,76518
DA:776,8240
DA:778,76518
DA:779,75558
DA:781,960
DA:784,186947
DA:785,109721
DA:788,186947
DA:791,193312
DA:792,186947
DA:793,186947
DA:794,174460
DA:797,186947
DA:800,6365
DA:801,6365
DA:810,88
DA:811,88
DA:814,88
DA:815,88
DA:816,88
DA:817,88
DA:820,88
DA:821,88
DA:822,88
DA:823,88
DA:824,88
DA:825,88
DA:826,88
DA:829,88
DA:830,88
DA:831,2520
DA:832,2432
DA:833,704
DA:835,1728
DA:838,2688
DA:839,2600
DA:840,512
DA:842,2088
DA:846,88
DA:847,88
DA:848,5120
DA:849,5032
DA:851,88
DA:860,44
DA:861,44
DA:863,44
DA:864,44
DA:865,44
DA:866,44
DA:869,44
DA:870,44
DA:873,44
DA:874,44
DA:875,44
DA:876,44
DA:877,44
DA:878,44
DA:879,44
DA:882,44
DA:883,44
DA:884,4940
DA:885,4896
DA:888,44
DA:889,44
DA:890,2716
DA:891,2672
DA:893,44
DA:894,44
DA:922,0
DA:923,0
DA:924,0
DA:927,0
DA:928,0
DA:931,0
DA:932,0
DA:933,0
DA:934,0
DA:935,0
DA:936,0
DA:939,0
DA:940,0
DA:941,0
DA:942,0
DA:943,0
DA:944,0
DA:947,0
DA:948,0
DA:949,0
DA:950,0
DA:951,0
DA:952,0
DA:955,0
DA:956,0
DA:957,0
DA:958,0
DA:959,0
DA:960,0
DA:963,0
DA:964,0
DA:965,0
DA:966,0
DA:968,0
DA:971,0
DA:972,0
DA:973,0
DA:974,0
DA:975,0
DA:978,0
DA:979,0
DA:980,0
DA:982,0
DA:983,0
DA:984,0
DA:987,0
DA:988,0
DA:989,0
DA:992,0
DA:993,0
DA:994,0
DA:995,0
DA:996,0
DA:999,0
DA:1000,0
DA:1004,0
DA:1005,0
DA:1009,0
DA:1011,0
DA:1031,16
DA:1032,16
DA:1033,16
DA:1036,16
DA:1037,16
DA:1040,16
DA:1041,16
DA:1042,16
DA:1043,16
DA:1044,16
DA:1045,16
DA:1048,16
DA:1049,16
DA:1050,16
DA:1051,16
DA:1052,16
DA:1053,16
DA:1056,16
DA:1057,16
DA:1058,16
DA:1059,16
DA:1060,16
DA:1063,528
DA:1064,512
DA:1065,976
DA:1066,960
DA:1069,592
DA:1070,576
DA:1072,976
DA:1073,960
DA:1076,16
DA:1078,16
DA:1098,28
DA:1099,28
DA:1100,28
DA:1103,28
DA:1104,28
DA:1107,28
DA:1108,28
DA:1109,28
DA:1110,28
DA:1111,28
DA:1112,28
DA:1115,28
DA:1116,28
DA:1117,28
DA:1118,28
DA:1119,28
DA:1120,28
DA:1123,28
DA:1124,28
DA:1125,28
DA:1126,28
DA:1127,28
DA:1130,732
DA:1131,704
DA:1132,1036
DA:1133,1008
DA:1134,1740
DA:1135,1712
DA:1138,596
DA:1139,568
DA:1141,1740
DA:1142,1712
DA:1145,28
DA:1147,28
DA:1158,0
DA:1159,0
DA:1160,0
DA:1161,0
DA:1163,0
DA:1165,0
DA:1167,0
DA:1168,0
DA:1170,0
DA:1171,0
DA:1172,0
DA:1173,0
DA:1176,0
DA:1177,0
DA:1178,0
DA:1179,0
DA:1180,0
DA:1182,0
DA:1183,0
DA:1184,0
DA:1186,0
DA:1187,0
DA:1188,0
DA:1189,0
DA:1190,0
DA:1191,0
DA:1192,0
DA:1193,0
DA:1194,0
DA:1195,0
DA:1196,0
DA:1202,0
DA:1203,0
DA:1206,0
DA:1207,0
DA:1208,0
DA:1212,0
DA:1213,0
DA:1214,0
DA:1216,0
DA:1219,0
DA:1222,0
DA:1224,0
DA:1225,0
DA:1226,0
DA:1228,0
DA:1231,0
DA:1236,0
DA:1237,0
DA:1238,0
DA:1240,0
DA:1242,0
DA:1243,0
DA:1245,0
DA:1248,0
DA:1260,1694
DA:1261,1694
DA:1262,1694
DA:1263,1694
DA:1264,1694
DA:1267,1694
DA:1270,1694
DA:1271,1694
DA:1272,1694
DA:1273,0
DA:1274,0
DA:1275,0
DA:1278,8468
DA:1279,6774
DA:1280,6774
DA:1282,6774
DA:1284,6774
DA:1285,56
DA:1287,6774
DA:1289,6774
DA:1290,6774
DA:1291,6774
DA:1292,6774
DA:1293,2273
DA:1294,2273
DA:1295,2273
DA:1299,6774
DA:1300,0
DA:1301,0
DA:1302,0
DA:1303,0
DA:1304,0
DA:1305,6774
DA:1307,16
DA:1308,16
DA:1309,16
DA:1310,6758
DA:1312,28
DA:1313,28
DA:1314,28
DA:1320,6730
DA:1322,6730
DA:1323,0
DA:1329,6730
DA:1331,0
DA:1332,0
DA:1333,0
DA:1362,0
DA:1363,0
DA:1364,0
DA:1365,0
DA:1366,0
DA:1368,0
DA:1369,0
DA:1375,0
DA:1378,0
DA:1382,0
DA:1384,0
DA:1386,0
DA:1389,0
DA:1391,0
DA:1393,0
DA:1394,0
DA:1396,0
DA:1397,0
DA:1399,0
DA:1400,0
DA:1403,0
DA:1407,0
DA:1408,0
DA:1410,0
DA:1412,0
DA:1415,0
DA:1418,0
DA:1420,0
DA:1423,0
DA:1429,0
DA:1431,0
DA:1433,0
DA:1434,0
DA:1437,0
DA:1438,0
DA:1439,0
DA:1440,0
DA:1441,0
DA:1444,0
DA:1446,0
DA:1449,0
DA:1452,0
DA:1453,0
DA:1454,0
DA:1457,0
DA:1458,0
DA:1460,0
DA:1461,0
DA:1464,0
DA:1465,0
DA:1469,0
DA:1471,0
DA:1472,0
DA:1473,0
DA:1476,0
DA:1479,0
DA:1480,0
DA:1483,0
DA:1489,0
DA:1490,0
DA:1495,0
DA:1498,0
DA:1499,0
DA:1500,0
DA:1508,0
DA:1509,0
DA:1511,0
DA:1512,0
DA:1516,0
DA:1517,0
DA:1518,0
DA:1519,0
DA:1521,0
DA:1522,0
DA:1528,0
DA:1529,0
DA:1530,0
DA:1531,0
DA:1533,0
DA:1534,0
DA:1540,0
DA:1541,0
DA:1619,0
DA:1620,0
DA:1623,0
DA:1626,0
DA:1628,0
DA:1630,0
DA:1633,0
DA:1636,0
DA:1743,0
DA:1744,0
DA:1745,0
DA:1746,0
DA:1747,0
DA:1749,0
DA:1750,0
DA:1752,0
DA:1753,0
DA:1755,0
DA:1762,0
DA:1774,0
DA:1776,0
DA:1779,0
DA:1780,0
DA:1781,0
DA:1782,0
DA:1785,0
DA:1787,0
DA:1788,0
DA:1790,0
DA:1791,0
DA:1794,0
DA:1795,0
DA:1796,0
DA:1798,0
DA:1799,0
DA:1800,0
DA:1803,0
DA:1805,0
DA:1809,0
DA:1818,1694
DA:1819,1694
DA:1820,0
DA:1821,1694
DA:1839,0
DA:1840,0
DA:1842,0
DA:1843,0
DA:1847,0
DA:1848,0
DA:1850,0
DA:1852,0
DA:1853,0
DA:1856,0
DA:1858,0
DA:1861,0
DA:1864,0
DA:1865,0
DA:1868,0
DA:1873,0
DA:1874,0
DA:1876,299
DA:1877,299
DA:1880,775
DA:1881,476
DA:1882,476
DA:1883,476
DA:1886,299
DA:1888,299
end_of_record
SF:/usr/include/c++/9/ext/alloc_traits.h
DA:97,188611
DA:98,188611
end_of_record
SF:/usr/include/c++/9/bits/char_traits.h
DA:299,635936
DA:300,63700
DA:361,132826
DA:363,131314
DA:365,126423
end_of_record
SF:/usr/include/c++/9/new
DA:173,0
DA:174,0
end_of_record
SF:/usr/include/c++/9/bits/ptr_traits.h
DA:146,1326680
DA:147,1326680
end_of_record
SF:/usr/include/x86_64-linux-gnu/bits/string_fortified.h
DA:88,132
DA:90,132
DA:126,132
DA:128,132
end_of_record
SF:/usr/include/c++/9/bits/alloc_traits.h
DA:469,194254
DA:470,194254
DA:482,0
DA:484,0
DA:495,0
DA:497,0
DA:505,0
DA:506,0
DA:514,0
DA:515,188611
DA:545,0
DA:546,0
DA:553,0
DA:557,0
end_of_record
SF:/usr/include/c++/9/ext/type_traits.h
DA:152,195014
end_of_record
SF:/usr/include/c++/9/ext/string_conversions.h
FN:99,_ZN9__gnu_cxx12__to_xstringINSt7__cxx1112basic_stringIcSt11char_traitsIcESaIcEEEcEET_PFiPT0_mPKS8_P13__va_list_tagEmSB_z
FNDA:188611,_ZN9__gnu_cxx12__to_xstringINSt7__cxx1112basic_stringIcSt11char_traitsIcESaIcEEEcEET_PFiPT0_mPKS8_P13__va_list_tagEmSB_z
DA:99,188611
DA:105,188611
DA:109,188611
DA:111,188611
DA:113,188611
DA:115,188611
end_of_record
TN:
SF:/usr/include/c++/9/bits/basic_string.h
DA:150,0
DA:178,0
DA:179,0
DA:182,0
DA:183,0
DA:186,0
DA:200,0
DA:203,0
DA:210,0
DA:211,0
DA:214,0
DA:216,0
DA:217,0
DA:221,0
DA:222,0
DA:229,0
DA:231,0
DA:232,0
DA:236,0
DA:237,0
DA:286,0
DA:287,0
DA:346,0
DA:348,0
DA:349,0
DA:351,0
DA:396,0
DA:398,0
DA:657,0
DA:658,0
DA:2393,0
DA:2396,0
end_of_record
SF:/usr/include/c++/9/bits/basic_string.tcc
FN:206,_ZNSt7__cxx1112basic_stringIcSt11char_traitsIcESaIcEE12_M_constructIPKcEEvT_S8_St20forward_iterator_tag
FNDA:0,_ZNSt7__cxx1112basic_stringIcSt11char_traitsIcESaIcEE12_M_constructIPKcEEvT_S8_St20forward_iterator_tag
DA:206,0
DA:211,0
DA:212,0
DA:215,0
DA:217,0
DA:219,0
DA:220,0
DA:225,0
DA:232,0
DA:233,0
end_of_record
SF:/usr/include/c++/9/ext/new_allocator.h
DA:80,0
DA:89,0
DA:119,0
DA:128,0
end_of_record
SF:/usr/include/c++/9/bits/stl_algobase.h
DA:222,0
DA:227,0
DA:228,0
end_of_record
SF:/usr/include/c++/9/bits/move.h
DA:47,0
DA:138,0
DA:139,0
end_of_record
SF:/usr/include/x86_64-linux-gnu/bits/stdio2.h
DA:105,1282
DA:107,662
end_of_record
SF:/usr/include/c++/9/bits/allocator.h
DA:138,0
DA:153,0
end_of_record
SF:/usr/include/c++/9/iostream
end_of_record
SF:/usr/include/c++/9/bits/stl_iterator_base_funcs.h
DA:98,0
DA:104,0
DA:138,0
DA:141,0
end_of_record
SF:/workspace/vtr-verilog-to-routing/ODIN_II/SRC/memories.cpp
FN:66,_Z19init_sp_ram_signalsv
FNDA:0,_Z19init_sp_ram_signalsv
FN:81,_Z19init_dp_ram_signalsv
FNDA:0,_Z19init_dp_ram_signalsv
FN:94,_Z16get_sp_ram_depthP7nnode_t
FNDA:3168270,_Z16get_sp_ram_depthP7nnode_t
FN:101,_Z16get_dp_ram_depthP7nnode_t
FNDA:92540,_Z16get_dp_ram_depthP7nnode_t
FN:109,_Z16get_sp_ram_widthP7nnode_t
FNDA:1055990,_Z16get_sp_ram_widthP7nnode_t
FN:116,_Z16get_dp_ram_widthP7nnode_t
FNDA:92540,_Z16get_dp_ram_widthP7nnode_t
FN:124,_Z20get_memory_port_sizePKc
FNDA:594,_Z20get_memory_port_sizePKc
FN:136,_Z25copy_input_port_to_memoryP7nnode_tP13signal_list_tPKc
FNDA:1573070,_Z25copy_input_port_to_memoryP7nnode_tP13signal_list_tPKc
FN:142,_Z26copy_output_port_to_memoryP7nnode_tP13signal_list_tPKc
FNDA:0,_Z26copy_output_port_to_memoryP7nnode_tP13signal_list_tPKc
FN:151,_Z26remap_input_port_to_memoryP7nnode_tP13signal_list_tPKc
FNDA:1573070,_Z26remap_input_port_to_memoryP7nnode_tP13signal_list_tPKc
FN:185,_Z24add_input_port_to_memoryP7nnode_tP13signal_list_tPKc
FNDA:2622320,_Z24add_input_port_to_memoryP7nnode_tP13signal_list_tPKc
FN:216,_Z27remap_output_port_to_memoryP7nnode_tP13signal_list_tPKc
FNDA:0,_Z27remap_output_port_to_memoryP7nnode_tP13signal_list_tPKc
FN:250,_Z25add_output_port_to_memoryP7nnode_tP13signal_list_tPKc
FNDA:140,_Z25add_output_port_to_memoryP7nnode_tP13signal_list_tPKc
FN:285,_Z38check_memories_and_report_distributionv
FNDA:1694,_Z38check_memories_and_report_distributionv
FN:364,_Z21split_sp_memory_depthP7nnode_ti
FNDA:524479,_Z21split_sp_memory_depthP7nnode_ti
FN:489,_Z21split_dp_memory_depthP7nnode_ti
FNDA:281,_Z21split_dp_memory_depthP7nnode_ti
FN:675,_Z21split_sp_memory_widthP7nnode_ti
FNDA:524479,_Z21split_sp_memory_widthP7nnode_ti
FN:767,_Z21split_dp_memory_widthP7nnode_ti
FNDA:281,_Z21split_dp_memory_widthP7nnode_ti
FN:921,_Z22get_sp_ram_split_depthv
FNDA:3391,_Z22get_sp_ram_split_depthv
FN:942,_Z22get_dp_ram_split_depthv
FNDA:3391,_Z22get_dp_ram_split_depthv
FN:963,_Z22get_sp_ram_split_widthv
FNDA:1694,_Z22get_sp_ram_split_widthv
FN:978,_Z22get_dp_ram_split_widthv
FNDA:1694,_Z22get_dp_ram_split_widthv
FN:993,_Z36filter_memories_by_soft_logic_cutoffv
FNDA:5082,_Z36filter_memories_by_soft_logic_cutoffv
FN:1037,_Z16iterate_memoriesP9netlist_t
FNDA:1694,_Z16iterate_memoriesP9netlist_t
FN:1134,_Z17free_memory_listsv
FNDA:1694,_Z17free_memory_listsv
FN:1144,_Z19pad_dp_memory_widthP7nnode_tP9netlist_t
FNDA:45871,_Z19pad_dp_memory_widthP7nnode_tP9netlist_t
FN:1160,_Z19pad_sp_memory_widthP7nnode_tP9netlist_t
FNDA:1055990,_Z19pad_sp_memory_widthP7nnode_tP9netlist_t
FN:1174,_Z22pad_memory_output_portP7nnode_tP9netlist_tP7t_modelPKc
FNDA:1147730,_Z22pad_memory_output_portP7nnode_tP9netlist_tP7t_modelPKc
FN:1212,_Z21pad_memory_input_portP7nnode_tP9netlist_tP7t_modelPKc
FNDA:2295460,_Z21pad_memory_input_portP7nnode_tP9netlist_tP7t_modelPKc
FN:1252,_Z9is_sp_ramP7nnode_t
FNDA:14943100,_Z9is_sp_ramP7nnode_t
FN:1258,_Z9is_dp_ramP7nnode_t
FNDA:5313140,_Z9is_dp_ramP7nnode_t
FN:1272,_Z14is_blif_sp_ramP7nnode_t
FNDA:0,_Z14is_blif_sp_ramP7nnode_t
FN:1319,_Z14is_blif_dp_ramP7nnode_t
FNDA:0,_Z14is_blif_dp_ramP7nnode_t
FN:1358,_Z13is_ast_sp_ramP10ast_node_t
FNDA:739,_Z13is_ast_sp_ramP10ast_node_t
FN:1380,_Z13is_ast_dp_ramP10ast_node_t
FNDA:782,_Z13is_ast_dp_ramP10ast_node_t
FN:1402,_Z18get_sp_ram_signalsP7nnode_t
FNDA:8780390,_Z18get_sp_ram_signalsP7nnode_t
FN:1453,_Z19free_sp_ram_signalsP14sp_ram_signals
FNDA:8780390,_Z19free_sp_ram_signalsP14sp_ram_signals
FN:1461,_Z18get_dp_ram_signalsP7nnode_t
FNDA:2749250,_Z18get_dp_ram_signalsP7nnode_t
FN:1529,_Z19free_dp_ram_signalsP14dp_ram_signals
FNDA:2749250,_Z19free_dp_ram_signalsP14dp_ram_signals
FN:1543,_Z32instantiate_soft_single_port_ramP7nnode_tsP9netlist_t
FNDA:36,_Z32instantiate_soft_single_port_ramP7nnode_tsP9netlist_t
FN:1647,_Z30instantiate_soft_dual_port_ramP7nnode_tsP9netlist_t
FNDA:9,_Z30instantiate_soft_dual_port_ramP7nnode_tsP9netlist_t
FN:1816,_Z14create_decoderP7nnode_tsP13signal_list_t
FNDA:54,_Z14create_decoderP7nnode_tsP13signal_list_t
FN:1903,_Z22create_single_port_ramP14sp_ram_signalsP7nnode_t
FNDA:0,_Z22create_single_port_ramP14sp_ram_signalsP7nnode_t
FN:1980,_Z20create_dual_port_ramP14dp_ram_signalsP7nnode_t
FNDA:0,_Z20create_dual_port_ramP14dp_ram_signalsP7nnode_t
FN:2083,_Z21register_memory_modelP7nnode_t
FNDA:0,_Z21register_memory_modelP7nnode_t
FN:2103,_Z23resolve_single_port_ramP7nnode_tmP9netlist_t
FNDA:0,_Z23resolve_single_port_ramP7nnode_tmP9netlist_t
FN:2206,_Z21resolve_dual_port_ramP7nnode_tmP9netlist_t
FNDA:0,_Z21resolve_dual_port_ramP7nnode_tmP9netlist_t
DA:66,0
DA:67,0
DA:69,0
DA:70,0
DA:71,0
DA:73,0
DA:81,0
DA:82,0
DA:84,0
DA:85,0
DA:86,0
DA:87,0
DA:88,0
DA:89,0
DA:91,0
DA:94,3168270
DA:95,3168270
DA:96,3168270
DA:97,3168270
DA:98,3168270
DA:101,92540
DA:102,92540
DA:103,92540
DA:104,92540
DA:105,92540
DA:106,92540
DA:109,3168270
DA:110,1055990
DA:111,3168270
DA:112,3168270
DA:113,3168270
DA:116,92540
DA:117,92540
DA:118,92540
DA:119,92540
DA:120,92540
DA:121,92540
DA:124,594
DA:125,594
DA:127,594
DA:128,842
DA:129,842
DA:130,594
DA:131,248
DA:136,1573070
DA:137,1573070
DA:138,1573070
DA:139,1573070
DA:140,1573070
DA:142,0
DA:143,0
DA:144,0
DA:145,0
DA:146,0
DA:151,1573070
DA:152,1573070
DA:153,1573070
DA:156,19929900
DA:157,18356800
DA:158,18356800
DA:159,0
DA:165,1573070
DA:166,1573070
DA:169,11539200
DA:170,9966120
DA:171,9966120
DA:172,0
DA:173,0
DA:174,0
DA:176,9966120
DA:178,1573070
DA:185,2622320
DA:186,2622320
DA:187,2622320
DA:190,39876500
DA:191,37254200
DA:192,37254200
DA:193,0
DA:199,2622320
DA:200,2622320
DA:203,13642300
DA:204,11020000
DA:205,11020000
DA:206,9966120
DA:208,11020000
DA:209,11020000
DA:211,2622320
DA:216,0
DA:217,0
DA:218,0
DA:221,0
DA:222,0
DA:223,0
DA:224,0
DA:230,0
DA:231,0
DA:234,0
DA:235,0
DA:236,0
DA:237,0
DA:238,0
DA:239,0
DA:241,0
DA:243,0
DA:250,140
DA:251,140
DA:252,140
DA:256,440
DA:257,300
DA:258,300
DA:259,0
DA:261,0
DA:266,140
DA:267,140
DA:270,4396
DA:271,4256
DA:272,4256
DA:273,0
DA:275,4256
DA:276,4256
DA:285,1694
DA:286,1694
DA:289,124
DA:290,124
DA:292,124
DA:293,124
DA:294,124
DA:295,124
DA:297,124
DA:298,272
DA:299,148
DA:301,148
DA:302,148
DA:304,148
DA:305,0
DA:307,148
DA:309,148
DA:311,148
DA:313,148
DA:316,148
DA:320,148
DA:323,124
DA:324,390
DA:325,266
DA:327,266
DA:328,266
DA:329,266
DA:330,0
DA:332,266
DA:333,266
DA:335,266
DA:336,266
DA:339,266
DA:343,266
DA:346,124
DA:347,124
DA:348,124
DA:349,124
DA:350,124
DA:364,524479
DA:365,1048810
DA:367,1048810
DA:370,1048810
DA:371,524479
DA:372,524479
DA:373,524479
DA:376,524331
DA:377,524331
DA:378,8913580
DA:379,8389250
DA:382,524331
DA:383,524331
DA:386,524331
DA:387,524331
DA:390,524331
DA:391,524331
DA:392,524331
DA:393,524331
DA:394,524331
DA:395,524331
DA:398,524331
DA:399,524331
DA:400,524331
DA:401,524331
DA:404,524331
DA:405,524331
DA:408,524331
DA:409,524331
DA:410,524331
DA:411,524331
DA:412,524331
DA:414,524331
DA:415,524331
DA:416,524331
DA:418,524331
DA:419,524331
DA:420,524331
DA:422,524331
DA:424,524331
DA:425,524331
DA:426,524331
DA:430,524331
DA:431,524331
DA:432,524331
DA:435,524331
DA:436,524331
DA:438,524331
DA:439,524331
DA:442,1575780
DA:443,1051450
DA:444,1051450
DA:445,1051450
DA:446,1051450
DA:447,1051450
DA:449,1051450
DA:450,1051450
DA:451,196
DA:452,1051450
DA:454,1051450
DA:455,1051450
DA:456,1051450
DA:458,1051450
DA:460,1051450
DA:461,1051450
DA:462,0
DA:464,1051450
DA:466,1051450
DA:467,1051450
DA:468,0
DA:470,1051450
DA:473,524331
DA:474,524331
DA:476,524331
DA:478,524331
DA:479,524331
DA:489,281
DA:490,296
DA:492,296
DA:495,296
DA:496,281
DA:497,281
DA:498,281
DA:501,15
DA:503,15
DA:504,240
DA:505,225
DA:507,15
DA:508,240
DA:509,225
DA:512,15
DA:513,15
DA:516,15
DA:517,15
DA:520,15
DA:521,15
DA:522,15
DA:523,15
DA:524,15
DA:525,15
DA:528,15
DA:529,15
DA:530,15
DA:531,15
DA:532,15
DA:533,15
DA:536,15
DA:537,15
DA:538,15
DA:539,15
DA:542,15
DA:543,15
DA:544,15
DA:545,15
DA:546,15
DA:548,15
DA:549,15
DA:550,15
DA:552,15
DA:553,15
DA:554,15
DA:556,15
DA:557,15
DA:558,15
DA:560,15
DA:561,15
DA:562,15
DA:563,15
DA:565,15
DA:566,15
DA:567,15
DA:569,15
DA:570,15
DA:571,15
DA:573,15
DA:575,15
DA:576,15
DA:577,15
DA:581,15
DA:582,15
DA:583,15
DA:586,15
DA:587,15
DA:588,15
DA:590,15
DA:591,15
DA:592,15
DA:595,325
DA:596,310
DA:597,310
DA:598,310
DA:599,310
DA:600,310
DA:602,310
DA:603,310
DA:604,310
DA:606,310
DA:607,310
DA:608,310
DA:610,310
DA:612,310
DA:614,310
DA:615,310
DA:616,0
DA:618,310
DA:620,310
DA:621,310
DA:622,0
DA:624,310
DA:628,325
DA:629,310
DA:630,310
DA:631,310
DA:632,310
DA:633,310
DA:635,310
DA:637,310
DA:638,310
DA:639,310
DA:641,310
DA:642,310
DA:643,310
DA:645,310
DA:647,310
DA:649,310
DA:650,310
DA:651,0
DA:653,310
DA:655,310
DA:656,310
DA:657,0
DA:659,310
DA:662,15
DA:663,15
DA:664,15
DA:665,15
DA:667,15
DA:668,15
DA:675,524479
DA:676,524479
DA:677,524479
DA:679,524479
DA:681,524479
DA:683,524479
DA:685,524479
DA:687,0
DA:692,1580470
DA:693,1055990
DA:694,1055990
DA:695,1055990
DA:698,1055990
DA:699,1055990
DA:700,1055990
DA:701,1055990
DA:703,1055990
DA:704,5279950
DA:705,4223960
DA:707,1055990
DA:711,5279950
DA:713,4223960
DA:715,1055990
DA:716,1055990
DA:717,2111980
DA:718,1055990
DA:719,1055990
DA:720,1055990
DA:721,1055990
DA:722,1055990
DA:723,1055990
DA:725,1055990
DA:727,1055990
DA:730,21088300
DA:731,17920300
DA:732,17920300
DA:734,17920300
DA:735,9005180
DA:737,8915140
DA:738,17920300
DA:739,17920300
DA:749,2111980
DA:750,1055990
DA:751,1055990
DA:752,1055990
DA:753,1055990
DA:754,1055990
DA:755,1055990
DA:759,524479
DA:761,524479
DA:767,281
DA:768,281
DA:769,281
DA:770,281
DA:771,281
DA:773,281
DA:774,281
DA:776,281
DA:777,281
DA:779,281
DA:780,281
DA:781,281
DA:782,281
DA:784,281
DA:785,281
DA:787,281
DA:788,281
DA:790,281
DA:791,281
DA:792,281
DA:794,281
DA:796,281
DA:798,0
DA:805,46152
DA:806,45871
DA:807,45871
DA:808,45871
DA:811,45871
DA:812,45871
DA:813,45871
DA:814,45871
DA:816,45871
DA:817,366968
DA:818,321097
DA:822,366968
DA:824,321097
DA:826,45871
DA:827,45871
DA:828,91742
DA:829,45871
DA:830,45871
DA:831,45871
DA:832,45871
DA:833,45871
DA:834,45871
DA:836,45871
DA:838,45871
DA:839,275226
DA:841,45871
DA:842,45871
DA:843,91742
DA:844,45871
DA:845,45871
DA:846,45871
DA:847,45871
DA:848,45871
DA:849,45871
DA:851,45871
DA:853,45871
DA:856,973166
DA:857,743811
DA:858,743811
DA:860,743811
DA:861,738230
DA:863,5581
DA:864,743811
DA:865,743811
DA:870,137613
DA:871,91742
DA:875,137613
DA:877,91742
DA:879,45871
DA:880,45871
DA:881,91742
DA:882,45871
DA:883,45871
DA:884,45871
DA:885,45871
DA:886,45871
DA:887,45871
DA:889,45871
DA:891,45871
DA:892,45871
DA:894,45871
DA:895,45871
DA:896,91742
DA:897,45871
DA:898,45871
DA:899,45871
DA:900,45871
DA:901,45871
DA:902,45871
DA:904,45871
DA:906,45871
DA:908,0
DA:913,281
DA:915,281
DA:921,3391
DA:922,3391
DA:923,3391
DA:924,3391
DA:925,0
DA:926,3391
DA:927,0
DA:928,3391
DA:929,48
DA:931,3343
DA:933,3391
DA:935,3391
DA:942,3391
DA:943,3391
DA:944,3391
DA:945,3391
DA:946,0
DA:947,3391
DA:948,0
DA:949,3391
DA:950,48
DA:952,3343
DA:954,3391
DA:956,3391
DA:963,1694
DA:964,1694
DA:967,1670
DA:968,1670
DA:969,1670
DA:970,1670
DA:978,1694
DA:979,1694
DA:982,1670
DA:983,1670
DA:984,1670
DA:985,1670
DA:993,5082
DA:994,5082
DA:995,5082
DA:996,5082
DA:997,2117210
DA:998,2112130
DA:999,2112130
DA:1000,2112130
DA:1001,2112130
DA:1003,2112130
DA:1004,2112130
DA:1005,2112130
DA:1006,2112130
DA:1010,5082
DA:1011,5082
DA:1012,5082
DA:1013,51485
DA:1014,46403
DA:1015,46403
DA:1016,46403
DA:1017,46403
DA:1019,46403
DA:1020,46403
DA:1021,46403
DA:1022,46403
DA:1025,5082
DA:1037,1694
DA:1039,1694
DA:1042,1694
DA:1044,1694
DA:1046,1694
DA:1047,1694
DA:1048,1694
DA:1049,1842
DA:1050,148
DA:1051,148
DA:1052,148
DA:1053,148
DA:1054,148
DA:1058,1694
DA:1059,1694
DA:1060,1694
DA:1061,526173
DA:1062,524479
DA:1063,524479
DA:1064,524479
DA:1065,524479
DA:1066,524479
DA:1070,1694
DA:1073,1694
DA:1074,1694
DA:1075,1057680
DA:1076,1055990
DA:1077,1055990
DA:1078,1055990
DA:1079,1055990
DA:1080,1055990
DA:1081,1055990
DA:1085,1694
DA:1087,1694
DA:1088,1694
DA:1089,1694
DA:1090,1960
DA:1091,266
DA:1092,266
DA:1093,266
DA:1094,266
DA:1095,266
DA:1099,1694
DA:1100,1694
DA:1101,1694
DA:1102,1975
DA:1103,281
DA:1104,281
DA:1105,281
DA:1106,281
DA:1107,281
DA:1111,1694
DA:1114,1694
DA:1115,1694
DA:1116,47565
DA:1117,45871
DA:1118,45871
DA:1119,45871
DA:1120,45871
DA:1121,45871
DA:1122,45871
DA:1123,45871
DA:1126,1694
DA:1134,1694
DA:1135,1057680
DA:1136,1055990
DA:1137,47565
DA:1138,45871
DA:1139,1694
DA:1144,45871
DA:1145,45871
DA:1146,45871
DA:1148,45871
DA:1149,45871
DA:1151,45871
DA:1152,45871
DA:1154,45871
DA:1155,45871
DA:1160,1055990
DA:1161,1055990
DA:1162,1055990
DA:1164,1055990
DA:1166,1055990
DA:1168,1055990
DA:1169,1055990
DA:1174,1147730
DA:1175,1147730
DA:1177,1147730
DA:1178,1147730
DA:1180,1147730
DA:1182,1147730
DA:1184,1147730
DA:1186,1147730
DA:1187,1147730
DA:1189,1147730
DA:1190,0
DA:1193,0
DA:1194,0
DA:1195,0
DA:1197,0
DA:1199,0
DA:1201,0
DA:1202,0
DA:1203,0
DA:1205,0
DA:1207,1147730
DA:1212,2295460
DA:1213,2295460
DA:1214,2295460
DA:1216,2295460
DA:1217,2295460
DA:1219,2295460
DA:1220,2295460
DA:1222,2295460
DA:1224,2295460
DA:1226,2295460
DA:1228,2295460
DA:1229,2295460
DA:1232,2295460
DA:1233,94604
DA:1236,94604
DA:1237,491060
DA:1238,396456
DA:1240,895082
DA:1241,800478
DA:1242,800478
DA:1243,0
DA:1245,800478
DA:1248,94604
DA:1250,2295460
DA:1252,14943100
DA:1253,14943100
DA:1254,14943100
DA:1255,14943100
DA:1258,5313140
DA:1259,5313140
DA:1260,5313140
DA:1261,5313140
DA:1272,0
DA:1273,0
DA:1275,0
DA:1276,0
DA:1280,0
DA:1285,0
DA:1286,0
DA:1287,0
DA:1290,0
DA:1296,0
DA:1297,0
DA:1298,0
DA:1301,0
DA:1319,0
DA:1320,0
DA:1322,0
DA:1323,0
DA:1327,0
DA:1332,0
DA:1333,0
DA:1334,0
DA:1337,0
DA:1343,0
DA:1344,0
DA:1345,0
DA:1348,0
DA:1358,739
DA:1359,739
DA:1360,739
DA:1361,1478
DA:1362,739
DA:1364,739
DA:1365,739
DA:1367,1230
DA:1368,1025
DA:1370,1025
DA:1377,739
DA:1380,782
DA:1381,782
DA:1382,782
DA:1383,1564
DA:1384,782
DA:1386,782
DA:1387,782
DA:1389,4960
DA:1390,4464
DA:1392,4464
DA:1399,782
DA:1402,8780390
DA:1403,8780390
DA:1405,8780390
DA:1406,8780390
DA:1409,8780390
DA:1410,8780390
DA:1411,8780390
DA:1412,8780390
DA:1413,8780390
DA:1415,8780390
DA:1416,168884000
DA:1417,160104000
DA:1418,160104000
DA:1419,132685000
DA:1420,27418100
DA:1421,9857340
DA:1422,17560800
DA:1423,8780390
DA:1424,8780390
DA:1425,8780390
DA:1427,0
DA:1432,8780390
DA:1433,8780390
DA:1434,8780390
DA:1435,8780390
DA:1436,8780390
DA:1438,18637700
DA:1439,9857340
DA:1440,9857340
DA:1441,9857340
DA:1443,0
DA:1448,8780390
DA:1450,8780390
DA:1453,8780390
DA:1454,8780390
DA:1455,8780390
DA:1456,8780390
DA:1458,8780390
DA:1459,8780390
DA:1461,2749250
DA:1462,2749250
DA:1464,2749250
DA:1465,2749250
DA:1468,2749250
DA:1469,2749250
DA:1470,2749250
DA:1471,2749250
DA:1472,2749250
DA:1473,2749250
DA:1474,2749250
DA:1475,2749250
DA:1476,2749250
DA:1478,2749250
DA:1479,98041300
DA:1480,95292100
DA:1481,95292100
DA:1482,40455100
DA:1483,54836900
DA:1484,40455100
DA:1485,14381800
DA:1486,3067030
DA:1487,11314800
DA:1488,3067030
DA:1489,8247750
DA:1490,2749250
DA:1491,5498500
DA:1492,2749250
DA:1493,2749250
DA:1494,2749250
DA:1496,0
DA:1502,2749250
DA:1503,2749250
DA:1504,2749250
DA:1505,2749250
DA:1506,2749250
DA:1507,2749250
DA:1508,2749250
DA:1511,8883300
DA:1512,6134050
DA:1513,6134050
DA:1514,3067030
DA:1515,3067030
DA:1516,3067030
DA:1518,0
DA:1523,2749250
DA:1524,2749250
DA:1526,2749250
DA:1529,2749250
DA:1530,2749250
DA:1531,2749250
DA:1532,2749250
DA:1533,2749250
DA:1534,2749250
DA:1535,2749250
DA:1537,2749250
DA:1538,2749250
DA:1543,36
DA:1544,36
DA:1546,36
DA:1549,36
DA:1552,36
DA:1554,36
DA:1556,1452
DA:1557,1416
DA:1559,1416
DA:1566,1416
DA:1567,1416
DA:1569,1416
DA:1570,36
DA:1572,1380
DA:1574,1416
DA:1577,828
DA:1578,792
DA:1581,792
DA:1583,792
DA:1584,28824
DA:1585,28032
DA:1587,28032
DA:1594,28032
DA:1595,28032
DA:1596,28032
DA:1597,28032
DA:1598,28032
DA:1599,28032
DA:1600,792
DA:1602,27240
DA:1605,28032
DA:1606,28032
DA:1607,28032
DA:1608,36
DA:1610,27996
DA:1613,28032
DA:1616,28032
DA:1619,28032
DA:1620,28032
DA:1623,792
DA:1626,792
DA:1627,792
DA:1628,792
DA:1630,792
DA:1631,792
DA:1634,36
DA:1637,36
DA:1638,36
DA:1641,36
DA:1642,36
DA:1647,9
DA:1648,9
DA:1650,9
DA:1653,9
DA:1654,9
DA:1656,9
DA:1659,9
DA:1660,9
DA:1663,9
DA:1664,9
DA:1665,9
DA:1667,9
DA:1668,93
DA:1669,84
DA:1670,84
DA:1672,84
DA:1677,84
DA:1684,84
DA:1685,84
DA:1687,84
DA:1688,9
DA:1690,75
DA:1693,84
DA:1694,84
DA:1696,84
DA:1697,9
DA:1699,75
DA:1701,84
DA:1702,84
DA:1705,84
DA:1706,84
DA:1707,84
DA:1709,84
DA:1712,138
DA:1713,129
DA:1714,129
DA:1717,129
DA:1718,129
DA:1720,129
DA:1721,1833
DA:1722,1704
DA:1723,1704
DA:1725,1704
DA:1730,1704
DA:1737,1704
DA:1739,1704
DA:1740,1704
DA:1741,1704
DA:1742,129
DA:1744,1575
DA:1745,1704
DA:1746,129
DA:1748,1575
DA:1750,1704
DA:1751,1704
DA:1754,1704
DA:1755,1704
DA:1756,1704
DA:1757,1704
DA:1760,1704
DA:1761,1704
DA:1762,1704
DA:1763,9
DA:1765,1695
DA:1768,1704
DA:1771,1704
DA:1772,1704
DA:1775,1704
DA:1776,1704
DA:1777,1704
DA:1780,129
DA:1781,129
DA:1784,129
DA:1785,129
DA:1786,129
DA:1788,129
DA:1789,129
DA:1790,129
DA:1792,129
DA:1793,129
DA:1796,129
DA:1797,129
DA:1800,9
DA:1801,9
DA:1802,9
DA:1805,9
DA:1806,9
DA:1807,9
DA:1810,9
DA:1811,9
DA:1816,54
DA:1817,54
DA:1818,54
DA:1819,0
DA:1822,54
DA:1825,54
DA:1826,270
DA:1827,216
DA:1828,0
DA:1829,0
DA:1830,0
DA:1831,0
DA:1832,0
DA:1835,216
DA:1836,216
DA:1837,216
DA:1838,216
DA:1839,216
DA:1840,216
DA:1841,216
DA:1842,216
DA:1843,216
DA:1844,216
DA:1846,216
DA:1847,216
DA:1849,216
DA:1851,216
DA:1855,54
DA:1856,1638
DA:1858,1584
DA:1860,11160
DA:1862,9576
DA:1863,9576
DA:1864,9576
DA:1866,9576
DA:1869,9576
DA:1870,9144
DA:1873,9576
DA:1877,1584
DA:1878,1584
DA:1879,1584
DA:1880,1584
DA:1881,1584
DA:1882,1584
DA:1883,1584
DA:1886,1584
DA:1889,54
DA:1890,54
DA:1903,0
DA:1905,0
DA:1906,0
DA:1907,0
DA:1908,0
DA:1909,0
DA:1910,0
DA:1914,0
DA:1916,0
DA:1918,0
DA:1919,0
DA:1920,0
DA:1923,0
DA:1924,0
DA:1928,0
DA:1931,0
DA:1934,0
DA:1935,0
DA:1936,0
DA:1939,0
DA:1940,0
DA:1941,0
DA:1944,0
DA:1946,0
DA:1947,0
DA:1948,0
DA:1949,0
DA:1951,0
DA:1953,0
DA:1956,0
DA:1959,0
DA:1961,0
DA:1964,0
DA:1965,0
DA:1967,0
DA:1980,0
DA:1982,0
DA:1983,0
DA:1984,0
DA:1985,0
DA:1986,0
DA:1987,0
DA:1988,0
DA:1989,0
DA:1991,0
DA:1992,0
DA:1994,0
DA:1995,0
DA:1999,0
DA:2001,0
DA:2003,0
DA:2004,0
DA:2005,0
DA:2008,0
DA:2009,0
DA:2013,0
DA:2014,0
DA:2017,0
DA:2018,0
DA:2021,0
DA:2022,0
DA:2023,0
DA:2025,0
DA:2026,0
DA:2027,0
DA:2030,0
DA:2031,0
DA:2032,0
DA:2035,0
DA:2037,0
DA:2038,0
DA:2039,0
DA:2040,0
DA:2042,0
DA:2044,0
DA:2047,0
DA:2048,0
DA:2050,0
DA:2051,0
DA:2052,0
DA:2053,0
DA:2055,0
DA:2057,0
DA:2060,0
DA:2063,0
DA:2065,0
DA:2068,0
DA:2069,0
DA:2070,0
DA:2072,0
DA:2083,0
DA:2085,0
DA:2087,0
DA:2089,0
DA:2091,0
DA:2103,0
DA:2104,0
DA:2105,0
DA:2106,0
DA:2109,0
DA:2110,0
DA:2124,0
DA:2125,0
DA:2126,0
DA:2127,0
DA:2128,0
DA:2129,0
DA:2132,0
DA:2133,0
DA:2136,0
DA:2138,0
DA:2142,0
DA:2143,0
DA:2145,0
DA:2147,0
DA:2149,0
DA:2152,0
DA:2154,0
DA:2155,0
DA:2157,0
DA:2160,0
DA:2162,0
DA:2164,0
DA:2166,0
DA:2168,0
DA:2171,0
DA:2173,0
DA:2174,0
DA:2178,0
DA:2179,0
DA:2181,0
DA:2183,0
DA:2185,0
DA:2189,0
DA:2192,0
DA:2193,0
DA:2194,0
DA:2206,0
DA:2207,0
DA:2208,0
DA:2209,0
DA:2212,0
DA:2213,0
DA:2230,0
DA:2231,0
DA:2232,0
DA:2233,0
DA:2234,0
DA:2235,0
DA:2236,0
DA:2237,0
DA:2238,0
DA:2239,0
DA:2242,0
DA:2243,0
DA:2244,0
DA:2245,0
DA:2247,0
DA:2250,0
DA:2252,0
DA:2256,0
DA:2258,0
DA:2259,0
DA:2261,0
DA:2263,0
DA:2265,0
DA:2268,0
DA:2271,0
DA:2273,0
DA:2274,0
DA:2276,0
DA:2278,0
DA:2280,0
DA:2283,0
DA:2286,0
DA:2288,0
DA:2289,0
DA:2291,0
DA:2294,0
DA:2296,0
DA:2298,0
DA:2300,0
DA:2302,0
DA:2305,0
DA:2307,0
DA:2309,0
DA:2311,0
DA:2313,0
DA:2316,0
DA:2318,0
DA:2319,0
DA:2321,0
DA:2324,0
DA:2326,0
DA:2327,0
DA:2330,0
DA:2332,0
DA:2334,0
DA:2336,0
DA:2338,0
DA:2340,0
DA:2343,0
DA:2345,0
DA:2347,0
DA:2349,0
DA:2353,0
DA:2356,0
DA:2357,0
DA:2358,0
end_of_record
SF:/usr/include/c++/9/ext/type_traits.h
DA:152,0
end_of_record
SF:/usr/include/c++/9/bits/alloc_traits.h
DA:469,0
DA:470,0
end_of_record
SF:/usr/include/c++/9/bits/char_traits.h
DA:299,0
DA:300,0
DA:329,0
DA:335,0
DA:361,0
DA:363,0
DA:365,0
end_of_record
SF:/usr/include/c++/9/bits/ptr_traits.h
DA:146,0
DA:147,0
end_of_record
TN:
SF:/usr/include/c++/9/ext/new_allocator.h
DA:80,5127280
DA:83,5128740
DA:89,20512000
DA:119,605462
DA:128,605462
end_of_record
SF:/usr/include/c++/9/bits/move.h
DA:47,15384800
DA:99,5128740
DA:138,15384800
DA:139,15384800
end_of_record
SF:/usr/include/c++/9/bits/allocator.h
DA:138,5127280
DA:141,5128740
DA:142,5128740
DA:153,20512000
end_of_record
SF:/usr/include/c++/9/bits/basic_string.h
DA:150,10256000
DA:159,5128740
DA:160,5128740
DA:178,0
DA:179,0
DA:182,0
DA:183,0
DA:186,21120400
DA:190,5128740
DA:193,5128740
DA:200,10256000
DA:203,10256000
DA:210,0
DA:211,0
DA:214,0
DA:216,0
DA:217,0
DA:221,10256000
DA:222,10256000
DA:229,10256000
DA:231,10256000
DA:232,10861500
DA:236,605462
DA:237,605462
DA:243,5128740
DA:247,5128740
DA:263,5128740
DA:266,10257500
DA:286,605462
DA:287,605462
DA:290,5128740
DA:291,5128740
DA:346,0
DA:348,0
DA:349,0
DA:351,0
DA:392,0
DA:393,0
DA:396,0
DA:398,0
DA:448,5128740
DA:450,5128740
DA:451,5128740
DA:657,10256000
DA:658,10256000
DA:665,0
DA:696,0
DA:930,5128740
DA:936,5128740
DA:1031,5128740
DA:1032,5128740
DA:1364,0
DA:1366,0
DA:2300,5130210
DA:2301,5130210
DA:2571,5127280
DA:2572,5127280
DA:6163,0
DA:6165,0
end_of_record
SF:/usr/include/c++/9/bits/basic_string.tcc
FN:206,_ZNSt7__cxx1112basic_stringIcSt11char_traitsIcESaIcEE12_M_constructIPcEEvT_S7_St20forward_iterator_tag
FNDA:0,_ZNSt7__cxx1112basic_stringIcSt11char_traitsIcESaIcEE12_M_constructIPcEEvT_S7_St20forward_iterator_tag
FN:206,_ZNSt7__cxx1112basic_stringIcSt11char_traitsIcESaIcEE12_M_constructIPKcEEvT_S8_St20forward_iterator_tag
FNDA:0,_ZNSt7__cxx1112basic_stringIcSt11char_traitsIcESaIcEE12_M_constructIPKcEEvT_S8_St20forward_iterator_tag
DA:206,0
DA:211,0
DA:212,0
DA:215,0
DA:217,0
DA:219,0
DA:220,0
DA:225,0
DA:232,0
DA:233,0
DA:206,0
DA:211,0
DA:212,0
DA:215,0
DA:217,0
DA:219,0
DA:220,0
DA:225,0
DA:232,0
DA:233,0
end_of_record
SF:/usr/include/c++/9/bits/ptr_traits.h
DA:146,15384800
DA:147,15384800
end_of_record
SF:/usr/include/c++/9/ext/alloc_traits.h
DA:97,5128740
DA:98,5128740
end_of_record
SF:/usr/include/c++/9/bits/char_traits.h
DA:299,0
DA:300,0
DA:361,0
DA:363,0
DA:365,0
end_of_record
SF:/usr/include/c++/9/ext/type_traits.h
DA:152,0
end_of_record
SF:/usr/include/c++/9/bits/alloc_traits.h
DA:469,605462
DA:470,605462
DA:514,5128740
DA:515,5128740
end_of_record
SF:/workspace/vtr-verilog-to-routing/ODIN_II/SRC/hierarchy_util.cpp
FN:10,_Z17init_sc_hierarchyv
FNDA:9682,_Z17init_sc_hierarchyv
FN:44,_Z17copy_sc_hierarchyP12sc_hierarchy
FNDA:41792,_Z17copy_sc_hierarchyP12sc_hierarchy
FN:72,_Z19copy_param_table_scP12STRING_CACHE
FNDA:41676,_Z19copy_param_table_scP12STRING_CACHE
FN:88,_Z17free_sc_hierarchyP12sc_hierarchy
FNDA:45413,_Z17free_sc_hierarchyP12sc_hierarchy
FN:141,_Z35resolve_hierarchical_name_referenceP12sc_hierarchyPc
FNDA:5127280,_Z35resolve_hierarchical_name_referenceP12sc_hierarchyPc
FN:211,_Z50resolve_hierarchical_name_reference_by_path_searchP12sc_hierarchyNSt7__cxx1112basic_stringIcSt11char_traitsIcESaIcEEE
FNDA:0,_Z50resolve_hierarchical_name_reference_by_path_searchP12sc_hierarchyNSt7__cxx1112basic_stringIcSt11char_traitsIcESaIcEEE
FN:278,_Z52resolve_hierarchical_name_reference_by_upward_searchP12sc_hierarchyNSt7__cxx1112basic_stringIcSt11char_traitsIcESaIcEEE
FNDA:5128740,_Z52resolve_hierarchical_name_reference_by_upward_searchP12sc_hierarchyNSt7__cxx1112basic_stringIcSt11char_traitsIcESaIcEEE
DA:10,9682
DA:11,9682
DA:12,9682
DA:14,9682
DA:15,9682
DA:16,9682
DA:17,9682
DA:19,9682
DA:20,9682
DA:21,9682
DA:22,9682
DA:24,9682
DA:26,9682
DA:27,9682
DA:29,9682
DA:31,9682
DA:32,9682
DA:33,9682
DA:35,9682
DA:36,9682
DA:38,9682
DA:44,41792
DA:45,41792
DA:46,41792
DA:47,41792
DA:48,41792
DA:50,41792
DA:51,41792
DA:52,41792
DA:54,352210
DA:55,310418
DA:57,310418
DA:58,310418
DA:59,310418
DA:62,41792
DA:63,41676
DA:66,41792
DA:72,41676
DA:73,41676
DA:75,41676
DA:77,47111
DA:78,5435
DA:79,5435
DA:82,41676
DA:88,45413
DA:89,45413
DA:91,86721
DA:92,41308
DA:94,45413
DA:96,45467
DA:97,54
DA:99,45413
DA:101,45475
DA:102,62
DA:104,45413
DA:106,46161
DA:107,748
DA:109,45413
DA:111,45413
DA:112,50315
DA:113,5766
DA:115,44549
DA:118,429828
DA:119,384415
DA:121,45413
DA:122,45413
DA:123,45413
DA:125,45413
DA:126,45413
DA:128,45413
DA:130,45413
DA:131,45413
DA:132,45413
DA:133,45413
DA:135,45413
DA:136,45413
DA:141,5127280
DA:145,5127280
DA:146,5127280
DA:147,10254600
DA:149,5127280
DA:150,5127280
DA:151,10557300
DA:154,0
DA:155,0
DA:160,0
DA:161,0
DA:165,0
DA:166,0
DA:167,0
DA:168,0
DA:171,0
DA:172,0
DA:173,0
DA:174,0
DA:177,0
DA:178,0
DA:179,0
DA:180,0
DA:183,0
DA:184,0
DA:185,0
DA:186,0
DA:192,0
DA:193,0
DA:197,0
DA:198,0
DA:202,5127280
DA:211,0
DA:212,0
DA:213,0
DA:215,0
DA:216,0
DA:218,0
DA:219,0
DA:221,0
DA:223,0
DA:224,0
DA:225,0
DA:228,0
DA:229,0
DA:230,0
DA:231,0
DA:232,0
DA:236,0
DA:241,0
DA:242,0
DA:244,0
DA:245,0
DA:246,0
DA:250,0
DA:251,0
DA:252,0
DA:256,0
DA:257,0
DA:258,0
DA:262,0
DA:263,0
DA:264,0
DA:269,0
DA:278,5128740
DA:279,5128740
DA:280,5128740
DA:282,5128740
DA:283,5128740
DA:285,5128740
DA:287,5128740
DA:288,5127280
DA:289,5127280
DA:292,5128740
DA:293,1466
DA:294,1466
DA:295,0
DA:296,0
DA:300,5128740
DA:302,1466
DA:305,5128740
end_of_record
SF:/usr/include/c++/9/iostream
end_of_record
SF:/usr/include/c++/9/bits/stl_iterator_base_funcs.h
DA:98,0
DA:104,0
DA:138,0
DA:141,0
end_of_record
TN:
SF:/usr/include/x86_64-linux-gnu/bits/stdio2.h
DA:98,34536800
DA:100,23989900
end_of_record
SF:/workspace/vtr-verilog-to-routing/ODIN_II/SRC/hard_blocks.cpp
FN:40,_Z21register_hb_port_sizeP13t_model_portsi
FNDA:0,_Z21register_hb_port_sizeP13t_model_portsi
FN:49,_Z14get_model_portP13t_model_portsPKc
FNDA:3453320,_Z14get_model_portP13t_model_portsPKc
FN:56,_Z22cache_hard_block_namesv
FNDA:3247,_Z22cache_hard_block_namesv
FN:68,_Z20register_hard_blocksv
FNDA:3247,_Z20register_hard_blocksv
FN:108,_Z22deregister_hard_blocksv
FNDA:3241,_Z22deregister_hard_blocksv
FN:113,_Z15find_hard_blockPKc
FNDA:1110060,_Z15find_hard_blockPKc
FN:126,_Z17define_hard_blockP7nnode_tP8_IO_FILE
FNDA:1101770,_Z17define_hard_blockP7nnode_tP8_IO_FILE
FN:208,_Z18output_hard_blocksP8_IO_FILE
FNDA:3241,_Z18output_hard_blocksP8_IO_FILE
FN:269,_Z22instantiate_hard_blockP7nnode_tsP9netlist_t
FNDA:1102080,_Z22instantiate_hard_blockP7nnode_tsP9netlist_t
FN:289,_Z20hard_block_port_sizeP7t_modelPc
FNDA:516,_Z20hard_block_port_sizeP7t_modelPc
FN:321,_Z25hard_block_port_directionP7t_modelPc
FNDA:1318,_Z25hard_block_port_directionP7t_modelPc
DA:40,5235
DA:41,0
DA:42,5235
DA:47,0
DA:49,3453320
DA:50,7171850
DA:51,3713300
DA:53,3458550
DA:56,3247
DA:57,3247
DA:59,3247
DA:60,3247
DA:61,9380
DA:62,6133
DA:63,6133
DA:64,6133
DA:66,3247
DA:68,3247
DA:69,3247
DA:70,3247
DA:71,3247
DA:73,3247
DA:74,1697
DA:75,48
DA:78,48
DA:82,3394
DA:83,1697
DA:86,3247
DA:87,1697
DA:88,48
DA:90,48
DA:93,48
DA:95,48
DA:99,1697
DA:101,3394
DA:103,3394
DA:106,3247
DA:108,3241
DA:109,3241
DA:110,3241
DA:113,1110060
DA:114,1110060
DA:116,1110060
DA:117,3272880
DA:118,3269680
DA:119,1106860
DA:121,2162820
DA:126,1101770
DA:127,1101770
DA:128,1101770
DA:129,1101770
DA:130,1101770
DA:133,1101770
DA:134,1101770
DA:137,1101770
DA:140,1101770
DA:141,1101770
DA:142,1101770
DA:145,1101770
DA:146,21722900
DA:148,20621100
DA:149,0
DA:150,0
DA:151,0
DA:152,0
DA:153,0
DA:154,20621100
DA:155,0
DA:158,20621100
DA:159,3396590
DA:160,256
DA:162,3396330
DA:164,17224500
DA:165,8768
DA:167,17215700
DA:170,20621100
DA:171,8308140
DA:174,20621100
DA:176,20621100
DA:177,20621100
DA:178,4544440
DA:179,4544440
DA:185,2258140
DA:186,1156370
DA:187,8960
DA:189,1147410
DA:191,1156370
DA:192,1136860
DA:195,1156370
DA:197,1156370
DA:198,1156370
DA:199,1147860
DA:200,1147860
DA:204,1101770
DA:208,3241
DA:209,3241
DA:210,3241
DA:211,3241
DA:212,3241
DA:213,3241
DA:215,3241
DA:216,3241
DA:217,9318
DA:218,6109
DA:221,240
DA:222,3241
DA:226,208
DA:227,208
DA:228,208
DA:229,1278
DA:230,7776
DA:231,6706
DA:232,740
DA:234,5966
DA:236,6706
DA:237,744
DA:239,6706
DA:241,1070
DA:244,208
DA:245,208
DA:246,538
DA:247,1876
DA:248,1546
DA:249,266
DA:251,1280
DA:253,1546
DA:254,160
DA:256,1546
DA:258,330
DA:261,208
DA:263,6077
DA:266,3241
DA:269,1102080
DA:270,1102080
DA:272,1102080
DA:274,2258780
DA:275,1156690
DA:276,1052890
DA:278,1156690
DA:279,1156690
DA:285,1102080
DA:286,1102080
DA:289,516
DA:290,516
DA:292,516
DA:299,516
DA:303,516
DA:304,2008
DA:305,1492
DA:306,0
DA:308,1492
DA:310,516
DA:311,746
DA:312,746
DA:313,516
DA:315,230
DA:321,1318
DA:322,1318
DA:324,1318
DA:327,1318
DA:328,3556
DA:329,3040
DA:330,802
DA:332,2238
DA:334,516
DA:335,746
DA:336,746
DA:337,516
DA:339,230
end_of_record
SF:/usr/include/c++/9/iostream
end_of_record
TN:
SF:/usr/include/c++/9/bits/allocator.h
DA:141,1535490
DA:142,1510320
DA:151,50464
DA:153,1560780
end_of_record
SF:/usr/include/c++/9/bits/stl_function.h
DA:355,0
DA:356,0
end_of_record
SF:/usr/include/c++/9/bits/stl_algobase.h
DA:222,25172
DA:227,25172
DA:228,0
end_of_record
SF:/usr/include/c++/9/ext/new_allocator.h
DA:80,50464
DA:83,1535490
DA:89,1560780
DA:102,1510320
DA:104,1510320
DA:114,1510320
DA:119,25292
DA:128,25292
DA:132,1510320
DA:144,1510320
DA:147,1510320
end_of_record
SF:/usr/include/c++/9/bits/move.h
DA:47,1535610
DA:74,6066570
DA:99,1510320
DA:138,1535610
DA:139,1535610
end_of_record
SF:/usr/include/c++/9/utility
DA:174,120
DA:175,120
DA:184,1510320
DA:185,1510320
DA:219,120
DA:220,120
DA:229,1510320
DA:230,1510320
end_of_record
SF:/usr/include/c++/9/bits/basic_string.tcc
FN:206,_ZNSt7__cxx1112basic_stringIcSt11char_traitsIcESaIcEE12_M_constructIPcEEvT_S7_St20forward_iterator_tag
FNDA:1510320,_ZNSt7__cxx1112basic_stringIcSt11char_traitsIcESaIcEE12_M_constructIPcEEvT_S7_St20forward_iterator_tag
FN:206,_ZNSt7__cxx1112basic_stringIcSt11char_traitsIcESaIcEE12_M_constructIPKcEEvT_S8_St20forward_iterator_tag
FNDA:0,_ZNSt7__cxx1112basic_stringIcSt11char_traitsIcESaIcEE12_M_constructIPKcEEvT_S8_St20forward_iterator_tag
DA:206,1510320
DA:211,1510320
DA:212,0
DA:215,1510320
DA:217,1510320
DA:219,6293
DA:220,6293
DA:225,1510320
DA:232,1510320
DA:233,1510320
DA:206,0
DA:211,0
DA:212,0
DA:215,0
DA:217,0
DA:219,0
DA:220,0
DA:225,0
DA:232,0
DA:233,0
end_of_record
SF:/usr/include/c++/9/initializer_list
end_of_record
SF:/usr/include/c++/9/bits/basic_string.h
FN:6149,_ZSteqIcEN9__gnu_cxx11__enable_ifIXsrSt9__is_charIT_E7__valueEbE6__typeERKNSt7__cxx1112basic_stringIS3_St11char_traitsIS3_ESaIS3_EEESE_
FNDA:0,_ZSteqIcEN9__gnu_cxx11__enable_ifIXsrSt9__is_charIT_E7__valueEbE6__typeERKNSt7__cxx1112basic_stringIS3_St11char_traitsIS3_ESaIS3_EEESE_
DA:159,1510320
DA:160,1510320
DA:178,6293
DA:179,6293
DA:182,1510320
DA:183,1510320
DA:186,6041280
DA:190,1510320
DA:193,1510320
DA:210,6293
DA:211,6293
DA:214,1510320
DA:216,1510320
DA:217,1510320
DA:243,1510320
DA:247,1510320
DA:263,1510320
DA:266,3020640
DA:290,1510320
DA:291,1510320
DA:346,1510320
DA:348,1510320
DA:349,0
DA:351,1510320
DA:392,1510320
DA:393,1510320
DA:396,0
DA:398,0
DA:448,1510320
DA:450,1510320
DA:451,1510320
DA:930,0
DA:936,1510320
DA:2312,1510320
DA:2313,1510320
DA:6149,0
DA:6151,0
DA:6152,0
DA:6153,0
DA:6734,1510320
DA:6735,1510320
end_of_record
SF:/usr/include/c++/9/bits/hashtable_policy.h
FN:2079,_ZNSt8__detail16_Hashtable_allocISaINS_10_Hash_nodeISt4pairIKNSt7__cxx1112basic_stringIcSt11char_traitsIcESaIcEEE14operation_listELb1EEEEE16_M_allocate_nodeIJRKSB_EEEPSC_DpOT_
FNDA:1459980,_ZNSt8__detail16_Hashtable_allocISaINS_10_Hash_nodeISt4pairIKNSt7__cxx1112basic_stringIcSt11char_traitsIcESaIcEEE14operation_listELb1EEEEE16_M_allocate_nodeIJRKSB_EEEPSC_DpOT_
FN:2079,_ZNSt8__detail16_Hashtable_allocISaINS_10_Hash_nodeISt4pairIKNSt7__cxx1112basic_stringIcSt11char_traitsIcESaIcEEE12elaborator_eELb1EEEEE16_M_allocate_nodeIJRKSB_EEEPSC_DpOT_
FNDA:12586,_ZNSt8__detail16_Hashtable_allocISaINS_10_Hash_nodeISt4pairIKNSt7__cxx1112basic_stringIcSt11char_traitsIcESaIcEEE12elaborator_eELb1EEEEE16_M_allocate_nodeIJRKSB_EEEPSC_DpOT_
FN:2079,_ZNSt8__detail16_Hashtable_allocISaINS_10_Hash_nodeISt4pairIKNSt7__cxx1112basic_stringIcSt11char_traitsIcESaIcEEE11file_type_eELb1EEEEE16_M_allocate_nodeIJRKSB_EEEPSC_DpOT_
FNDA:37758,_ZNSt8__detail16_Hashtable_allocISaINS_10_Hash_nodeISt4pairIKNSt7__cxx1112basic_stringIcSt11char_traitsIcESaIcEEE11file_type_eELb1EEEEE16_M_allocate_nodeIJRKSB_EEEPSC_DpOT_
DA:70,25172
DA:72,25172
DA:76,25172
DA:77,25172
DA:92,1510320
DA:94,1510440
DA:161,1510320
DA:162,1510320
DA:166,1510320
DA:167,1510320
DA:218,1535490
DA:229,1510320
DA:236,1510440
DA:237,1510440
DA:244,120
DA:245,120
DA:264,1510320
DA:269,1593030
DA:294,1460470
DA:340,1460470
DA:341,1460470
DA:431,3103470
DA:433,3103470
DA:449,25172
DA:450,25172
DA:462,25172
DA:463,25172
DA:476,1460470
DA:477,1460470
DA:484,0
DA:485,0
DA:805,1510320
DA:820,1510320
DA:822,1510320
DA:823,1510320
DA:824,1510320
DA:1093,25172
DA:1099,25172
DA:1100,25172
DA:1104,5280850
DA:1108,4556370
DA:1374,25172
DA:1377,25172
DA:1380,1510320
DA:1384,1510320
DA:1388,1510440
DA:1390,1510440
DA:1393,1593030
DA:1396,1593030
DA:1399,1460470
DA:1400,1460470
DA:1415,667058
DA:1418,1510440
DA:1421,1510320
DA:1427,3103470
DA:1448,667058
DA:1450,0
DA:1823,25172
DA:1825,25172
DA:1829,667058
DA:1834,667058
DA:1846,667058
DA:2017,25172
DA:2041,25172
DA:2042,25172
DA:2046,3045930
DA:2047,1510320
DA:2079,1459980
DA:2081,1459980
DA:2082,1459980
DA:2085,1459980
DA:2086,1459980
DA:2089,1459980
DA:2091,0
DA:2093,0
DA:2094,0
DA:2079,12586
DA:2081,12586
DA:2082,12586
DA:2085,12586
DA:2086,12586
DA:2089,12586
DA:2091,0
DA:2093,0
DA:2094,0
DA:2079,37758
DA:2081,37758
DA:2082,37758
DA:2085,37758
DA:2086,37758
DA:2089,37758
DA:2091,0
DA:2093,0
DA:2094,0
DA:2118,25172
DA:2120,1539290
DA:2122,1514120
DA:2123,1514120
DA:2124,1514120
DA:2142,25292
DA:2146,25292
DA:2147,25292
DA:2148,25292
DA:2149,25292
end_of_record
SF:/usr/include/c++/9/new
DA:173,1510320
DA:174,1510320
end_of_record
SF:/usr/include/c++/9/ext/alloc_traits.h
DA:97,1510320
DA:98,1510320
end_of_record
SF:/usr/include/c++/9/bits/char_traits.h
DA:299,1510320
DA:300,0
DA:315,0
DA:317,0
DA:325,0
DA:361,1510320
DA:363,1510320
DA:365,1510320
end_of_record
SF:/usr/include/c++/9/bits/ptr_traits.h
DA:146,1535610
DA:147,1535610
DA:156,1510320
end_of_record
SF:/usr/include/c++/9/bits/unordered_map.h
end_of_record
SF:/usr/include/c++/9/ext/aligned_buffer.h
DA:102,1510440
DA:104,1510440
DA:114,1510440
DA:115,1510440
end_of_record
SF:/usr/include/c++/9/ext/type_traits.h
DA:152,1510320
end_of_record
SF:/usr/include/c++/9/bits/alloc_traits.h
DA:443,1510320
DA:444,1510320
DA:469,25292
DA:470,25292
DA:482,1510320
DA:484,1510320
DA:514,1510320
DA:515,1510320
end_of_record
SF:/usr/include/c++/9/bits/stl_iterator_base_funcs.h
DA:98,1535490
DA:104,1535490
DA:138,1535490
DA:141,1535490
end_of_record
SF:/workspace/vtr-verilog-to-routing/ODIN_II/SRC/enum_str.cpp
end_of_record
SF:/usr/include/c++/9/bits/stl_pair.h
DA:303,1510320
DA:341,1510320
DA:342,1510320
DA:524,0
DA:529,0
end_of_record
SF:/usr/include/c++/9/bits/functional_hash.h
DA:195,1510320
DA:197,1510320
end_of_record
SF:/usr/include/c++/9/bits/hashtable.h
FN:972,_ZNSt10_HashtableINSt7__cxx1112basic_stringIcSt11char_traitsIcESaIcEEESt4pairIKS5_11file_type_eESaIS9_ENSt8__detail10_Select1stESt8equal_toIS5_ESt4hashIS5_ENSB_18_Mod_range_hashingENSB_20_Default_ranged_hashENSB_20_Prime_rehash_policyENSB_17_Hashtable_traitsILb1ELb0ELb1EEEEC2IPKS9_EET_SQ_mRKSG_RKSH_RKSI_RKSE_RKSC_RKSA_
FNDA:6293,_ZNSt10_HashtableINSt7__cxx1112basic_stringIcSt11char_traitsIcESaIcEEESt4pairIKS5_11file_type_eESaIS9_ENSt8__detail10_Select1stESt8equal_toIS5_ESt4hashIS5_ENSB_18_Mod_range_hashingENSB_20_Default_ranged_hashENSB_20_Prime_rehash_policyENSB_17_Hashtable_traitsILb1ELb0ELb1EEEEC2IPKS9_EET_SQ_mRKSG_RKSH_RKSI_RKSE_RKSC_RKSA_
FN:972,_ZNSt10_HashtableINSt7__cxx1112basic_stringIcSt11char_traitsIcESaIcEEESt4pairIKS5_12elaborator_eESaIS9_ENSt8__detail10_Select1stESt8equal_toIS5_ESt4hashIS5_ENSB_18_Mod_range_hashingENSB_20_Default_ranged_hashENSB_20_Prime_rehash_policyENSB_17_Hashtable_traitsILb1ELb0ELb1EEEEC2IPKS9_EET_SQ_mRKSG_RKSH_RKSI_RKSE_RKSC_RKSA_
FNDA:6293,_ZNSt10_HashtableINSt7__cxx1112basic_stringIcSt11char_traitsIcESaIcEEESt4pairIKS5_12elaborator_eESaIS9_ENSt8__detail10_Select1stESt8equal_toIS5_ESt4hashIS5_ENSB_18_Mod_range_hashingENSB_20_Default_ranged_hashENSB_20_Prime_rehash_policyENSB_17_Hashtable_traitsILb1ELb0ELb1EEEEC2IPKS9_EET_SQ_mRKSG_RKSH_RKSI_RKSE_RKSC_RKSA_
FN:972,_ZNSt10_HashtableINSt7__cxx1112basic_stringIcSt11char_traitsIcESaIcEEESt4pairIKS5_14operation_listESaIS9_ENSt8__detail10_Select1stESt8equal_toIS5_ESt4hashIS5_ENSB_18_Mod_range_hashingENSB_20_Default_ranged_hashENSB_20_Prime_rehash_policyENSB_17_Hashtable_traitsILb1ELb0ELb1EEEEC2IPKS9_EET_SQ_mRKSG_RKSH_RKSI_RKSE_RKSC_RKSA_
FNDA:12586,_ZNSt10_HashtableINSt7__cxx1112basic_stringIcSt11char_traitsIcESaIcEEESt4pairIKS5_14operation_listESaIS9_ENSt8__detail10_Select1stESt8equal_toIS5_ESt4hashIS5_ENSB_18_Mod_range_hashingENSB_20_Default_ranged_hashENSB_20_Prime_rehash_policyENSB_17_Hashtable_traitsILb1ELb0ELb1EEEEC2IPKS9_EET_SQ_mRKSG_RKSH_RKSI_RKSE_RKSC_RKSA_
FN:1348,_ZNSt10_HashtableINSt7__cxx1112basic_stringIcSt11char_traitsIcESaIcEEESt4pairIKS5_11file_type_eESaIS9_ENSt8__detail10_Select1stESt8equal_toIS5_ESt4hashIS5_ENSB_18_Mod_range_hashingENSB_20_Default_ranged_hashENSB_20_Prime_rehash_policyENSB_17_Hashtable_traitsILb1ELb0ELb1EEEED2Ev
FNDA:6293,_ZNSt10_HashtableINSt7__cxx1112basic_stringIcSt11char_traitsIcESaIcEEESt4pairIKS5_11file_type_eESaIS9_ENSt8__detail10_Select1stESt8equal_toIS5_ESt4hashIS5_ENSB_18_Mod_range_hashingENSB_20_Default_ranged_hashENSB_20_Prime_rehash_policyENSB_17_Hashtable_traitsILb1ELb0ELb1EEEED2Ev
FN:1348,_ZNSt10_HashtableINSt7__cxx1112basic_stringIcSt11char_traitsIcESaIcEEESt4pairIKS5_12elaborator_eESaIS9_ENSt8__detail10_Select1stESt8equal_toIS5_ESt4hashIS5_ENSB_18_Mod_range_hashingENSB_20_Default_ranged_hashENSB_20_Prime_rehash_policyENSB_17_Hashtable_traitsILb1ELb0ELb1EEEED2Ev
FNDA:6293,_ZNSt10_HashtableINSt7__cxx1112basic_stringIcSt11char_traitsIcESaIcEEESt4pairIKS5_12elaborator_eESaIS9_ENSt8__detail10_Select1stESt8equal_toIS5_ESt4hashIS5_ENSB_18_Mod_range_hashingENSB_20_Default_ranged_hashENSB_20_Prime_rehash_policyENSB_17_Hashtable_traitsILb1ELb0ELb1EEEED2Ev
FN:1348,_ZNSt10_HashtableINSt7__cxx1112basic_stringIcSt11char_traitsIcESaIcEEESt4pairIKS5_14operation_listESaIS9_ENSt8__detail10_Select1stESt8equal_toIS5_ESt4hashIS5_ENSB_18_Mod_range_hashingENSB_20_Default_ranged_hashENSB_20_Prime_rehash_policyENSB_17_Hashtable_traitsILb1ELb0ELb1EEEED2Ev
FNDA:12586,_ZNSt10_HashtableINSt7__cxx1112basic_stringIcSt11char_traitsIcESaIcEEESt4pairIKS5_14operation_listESaIS9_ENSt8__detail10_Select1stESt8equal_toIS5_ESt4hashIS5_ENSB_18_Mod_range_hashingENSB_20_Default_ranged_hashENSB_20_Prime_rehash_policyENSB_17_Hashtable_traitsILb1ELb0ELb1EEEED2Ev
FN:1532,_ZNKSt10_HashtableINSt7__cxx1112basic_stringIcSt11char_traitsIcESaIcEEESt4pairIKS5_14operation_listESaIS9_ENSt8__detail10_Select1stESt8equal_toIS5_ESt4hashIS5_ENSB_18_Mod_range_hashingENSB_20_Default_ranged_hashENSB_20_Prime_rehash_policyENSB_17_Hashtable_traitsILb1ELb0ELb1EEEE19_M_find_before_nodeEmRS7_m
FNDA:1459980,_ZNKSt10_HashtableINSt7__cxx1112basic_stringIcSt11char_traitsIcESaIcEEESt4pairIKS5_14operation_listESaIS9_ENSt8__detail10_Select1stESt8equal_toIS5_ESt4hashIS5_ENSB_18_Mod_range_hashingENSB_20_Default_ranged_hashENSB_20_Prime_rehash_policyENSB_17_Hashtable_traitsILb1ELb0ELb1EEEE19_M_find_before_nodeEmRS7_m
FN:1532,_ZNKSt10_HashtableINSt7__cxx1112basic_stringIcSt11char_traitsIcESaIcEEESt4pairIKS5_12elaborator_eESaIS9_ENSt8__detail10_Select1stESt8equal_toIS5_ESt4hashIS5_ENSB_18_Mod_range_hashingENSB_20_Default_ranged_hashENSB_20_Prime_rehash_policyENSB_17_Hashtable_traitsILb1ELb0ELb1EEEE19_M_find_before_nodeEmRS7_m
FNDA:12586,_ZNKSt10_HashtableINSt7__cxx1112basic_stringIcSt11char_traitsIcESaIcEEESt4pairIKS5_12elaborator_eESaIS9_ENSt8__detail10_Select1stESt8equal_toIS5_ESt4hashIS5_ENSB_18_Mod_range_hashingENSB_20_Default_ranged_hashENSB_20_Prime_rehash_policyENSB_17_Hashtable_traitsILb1ELb0ELb1EEEE19_M_find_before_nodeEmRS7_m
FN:1532,_ZNKSt10_HashtableINSt7__cxx1112basic_stringIcSt11char_traitsIcESaIcEEESt4pairIKS5_11file_type_eESaIS9_ENSt8__detail10_Select1stESt8equal_toIS5_ESt4hashIS5_ENSB_18_Mod_range_hashingENSB_20_Default_ranged_hashENSB_20_Prime_rehash_policyENSB_17_Hashtable_traitsILb1ELb0ELb1EEEE19_M_find_before_nodeEmRS7_m
FNDA:37758,_ZNKSt10_HashtableINSt7__cxx1112basic_stringIcSt11char_traitsIcESaIcEEESt4pairIKS5_11file_type_eESaIS9_ENSt8__detail10_Select1stESt8equal_toIS5_ESt4hashIS5_ENSB_18_Mod_range_hashingENSB_20_Default_ranged_hashENSB_20_Prime_rehash_policyENSB_17_Hashtable_traitsILb1ELb0ELb1EEEE19_M_find_before_nodeEmRS7_m
FN:1560,_ZNSt10_HashtableINSt7__cxx1112basic_stringIcSt11char_traitsIcESaIcEEESt4pairIKS5_14operation_listESaIS9_ENSt8__detail10_Select1stESt8equal_toIS5_ESt4hashIS5_ENSB_18_Mod_range_hashingENSB_20_Default_ranged_hashENSB_20_Prime_rehash_policyENSB_17_Hashtable_traitsILb1ELb0ELb1EEEE22_M_insert_bucket_beginEmPNSB_10_Hash_nodeIS9_Lb1EEE
FNDA:1460470,_ZNSt10_HashtableINSt7__cxx1112basic_stringIcSt11char_traitsIcESaIcEEESt4pairIKS5_14operation_listESaIS9_ENSt8__detail10_Select1stESt8equal_toIS5_ESt4hashIS5_ENSB_18_Mod_range_hashingENSB_20_Default_ranged_hashENSB_20_Prime_rehash_policyENSB_17_Hashtable_traitsILb1ELb0ELb1EEEE22_M_insert_bucket_beginEmPNSB_10_Hash_nodeIS9_Lb1EEE
FN:1560,_ZNSt10_HashtableINSt7__cxx1112basic_stringIcSt11char_traitsIcESaIcEEESt4pairIKS5_12elaborator_eESaIS9_ENSt8__detail10_Select1stESt8equal_toIS5_ESt4hashIS5_ENSB_18_Mod_range_hashingENSB_20_Default_ranged_hashENSB_20_Prime_rehash_policyENSB_17_Hashtable_traitsILb1ELb0ELb1EEEE22_M_insert_bucket_beginEmPNSB_10_Hash_nodeIS9_Lb1EEE
FNDA:0,_ZNSt10_HashtableINSt7__cxx1112basic_stringIcSt11char_traitsIcESaIcEEESt4pairIKS5_12elaborator_eESaIS9_ENSt8__detail10_Select1stESt8equal_toIS5_ESt4hashIS5_ENSB_18_Mod_range_hashingENSB_20_Default_ranged_hashENSB_20_Prime_rehash_policyENSB_17_Hashtable_traitsILb1ELb0ELb1EEEE22_M_insert_bucket_beginEmPNSB_10_Hash_nodeIS9_Lb1EEE
FN:1560,_ZNSt10_HashtableINSt7__cxx1112basic_stringIcSt11char_traitsIcESaIcEEESt4pairIKS5_11file_type_eESaIS9_ENSt8__detail10_Select1stESt8equal_toIS5_ESt4hashIS5_ENSB_18_Mod_range_hashingENSB_20_Default_ranged_hashENSB_20_Prime_rehash_policyENSB_17_Hashtable_traitsILb1ELb0ELb1EEEE22_M_insert_bucket_beginEmPNSB_10_Hash_nodeIS9_Lb1EEE
FNDA:0,_ZNSt10_HashtableINSt7__cxx1112basic_stringIcSt11char_traitsIcESaIcEEESt4pairIKS5_11file_type_eESaIS9_ENSt8__detail10_Select1stESt8equal_toIS5_ESt4hashIS5_ENSB_18_Mod_range_hashingENSB_20_Default_ranged_hashENSB_20_Prime_rehash_policyENSB_17_Hashtable_traitsILb1ELb0ELb1EEEE22_M_insert_bucket_beginEmPNSB_10_Hash_nodeIS9_Lb1EEE
FN:1698,_ZNSt10_HashtableINSt7__cxx1112basic_stringIcSt11char_traitsIcESaIcEEESt4pairIKS5_12elaborator_eESaIS9_ENSt8__detail10_Select1stESt8equal_toIS5_ESt4hashIS5_ENSB_18_Mod_range_hashingENSB_20_Default_ranged_hashENSB_20_Prime_rehash_policyENSB_17_Hashtable_traitsILb1ELb0ELb1EEEE21_M_insert_unique_nodeEmmPNSB_10_Hash_nodeIS9_Lb1EEEm
FNDA:0,_ZNSt10_HashtableINSt7__cxx1112basic_stringIcSt11char_traitsIcESaIcEEESt4pairIKS5_12elaborator_eESaIS9_ENSt8__detail10_Select1stESt8equal_toIS5_ESt4hashIS5_ENSB_18_Mod_range_hashingENSB_20_Default_ranged_hashENSB_20_Prime_rehash_policyENSB_17_Hashtable_traitsILb1ELb0ELb1EEEE21_M_insert_unique_nodeEmmPNSB_10_Hash_nodeIS9_Lb1EEEm
FN:1698,_ZNSt10_HashtableINSt7__cxx1112basic_stringIcSt11char_traitsIcESaIcEEESt4pairIKS5_11file_type_eESaIS9_ENSt8__detail10_Select1stESt8equal_toIS5_ESt4hashIS5_ENSB_18_Mod_range_hashingENSB_20_Default_ranged_hashENSB_20_Prime_rehash_policyENSB_17_Hashtable_traitsILb1ELb0ELb1EEEE21_M_insert_unique_nodeEmmPNSB_10_Hash_nodeIS9_Lb1EEEm
FNDA:0,_ZNSt10_HashtableINSt7__cxx1112basic_stringIcSt11char_traitsIcESaIcEEESt4pairIKS5_11file_type_eESaIS9_ENSt8__detail10_Select1stESt8equal_toIS5_ESt4hashIS5_ENSB_18_Mod_range_hashingENSB_20_Default_ranged_hashENSB_20_Prime_rehash_policyENSB_17_Hashtable_traitsILb1ELb0ELb1EEEE21_M_insert_unique_nodeEmmPNSB_10_Hash_nodeIS9_Lb1EEEm
FN:1698,_ZNSt10_HashtableINSt7__cxx1112basic_stringIcSt11char_traitsIcESaIcEEESt4pairIKS5_14operation_listESaIS9_ENSt8__detail10_Select1stESt8equal_toIS5_ESt4hashIS5_ENSB_18_Mod_range_hashingENSB_20_Default_ranged_hashENSB_20_Prime_rehash_policyENSB_17_Hashtable_traitsILb1ELb0ELb1EEEE21_M_insert_unique_nodeEmmPNSB_10_Hash_nodeIS9_Lb1EEEm
FNDA:1460470,_ZNSt10_HashtableINSt7__cxx1112basic_stringIcSt11char_traitsIcESaIcEEESt4pairIKS5_14operation_listESaIS9_ENSt8__detail10_Select1stESt8equal_toIS5_ESt4hashIS5_ENSB_18_Mod_range_hashingENSB_20_Default_ranged_hashENSB_20_Prime_rehash_policyENSB_17_Hashtable_traitsILb1ELb0ELb1EEEE21_M_insert_unique_nodeEmmPNSB_10_Hash_nodeIS9_Lb1EEEm
FN:1803,_ZNSt10_HashtableINSt7__cxx1112basic_stringIcSt11char_traitsIcESaIcEEESt4pairIKS5_14operation_listESaIS9_ENSt8__detail10_Select1stESt8equal_toIS5_ESt4hashIS5_ENSB_18_Mod_range_hashingENSB_20_Default_ranged_hashENSB_20_Prime_rehash_policyENSB_17_Hashtable_traitsILb1ELb0ELb1EEEE9_M_insertIRKS9_NSB_10_AllocNodeISaINSB_10_Hash_nodeIS9_Lb1EEEEEEEES6_INSB_14_Node_iteratorIS9_Lb0ELb1EEEbEOT_RKT0_St17integral_constantIbLb1EEm
FNDA:1459980,_ZNSt10_HashtableINSt7__cxx1112basic_stringIcSt11char_traitsIcESaIcEEESt4pairIKS5_14operation_listESaIS9_ENSt8__detail10_Select1stESt8equal_toIS5_ESt4hashIS5_ENSB_18_Mod_range_hashingENSB_20_Default_ranged_hashENSB_20_Prime_rehash_policyENSB_17_Hashtable_traitsILb1ELb0ELb1EEEE9_M_insertIRKS9_NSB_10_AllocNodeISaINSB_10_Hash_nodeIS9_Lb1EEEEEEEES6_INSB_14_Node_iteratorIS9_Lb0ELb1EEEbEOT_RKT0_St17integral_constantIbLb1EEm
FN:1803,_ZNSt10_HashtableINSt7__cxx1112basic_stringIcSt11char_traitsIcESaIcEEESt4pairIKS5_12elaborator_eESaIS9_ENSt8__detail10_Select1stESt8equal_toIS5_ESt4hashIS5_ENSB_18_Mod_range_hashingENSB_20_Default_ranged_hashENSB_20_Prime_rehash_policyENSB_17_Hashtable_traitsILb1ELb0ELb1EEEE9_M_insertIRKS9_NSB_10_AllocNodeISaINSB_10_Hash_nodeIS9_Lb1EEEEEEEES6_INSB_14_Node_iteratorIS9_Lb0ELb1EEEbEOT_RKT0_St17integral_constantIbLb1EEm
FNDA:12586,_ZNSt10_HashtableINSt7__cxx1112basic_stringIcSt11char_traitsIcESaIcEEESt4pairIKS5_12elaborator_eESaIS9_ENSt8__detail10_Select1stESt8equal_toIS5_ESt4hashIS5_ENSB_18_Mod_range_hashingENSB_20_Default_ranged_hashENSB_20_Prime_rehash_policyENSB_17_Hashtable_traitsILb1ELb0ELb1EEEE9_M_insertIRKS9_NSB_10_AllocNodeISaINSB_10_Hash_nodeIS9_Lb1EEEEEEEES6_INSB_14_Node_iteratorIS9_Lb0ELb1EEEbEOT_RKT0_St17integral_constantIbLb1EEm
FN:1803,_ZNSt10_HashtableINSt7__cxx1112basic_stringIcSt11char_traitsIcESaIcEEESt4pairIKS5_11file_type_eESaIS9_ENSt8__detail10_Select1stESt8equal_toIS5_ESt4hashIS5_ENSB_18_Mod_range_hashingENSB_20_Default_ranged_hashENSB_20_Prime_rehash_policyENSB_17_Hashtable_traitsILb1ELb0ELb1EEEE9_M_insertIRKS9_NSB_10_AllocNodeISaINSB_10_Hash_nodeIS9_Lb1EEEEEEEES6_INSB_14_Node_iteratorIS9_Lb0ELb1EEEbEOT_RKT0_St17integral_constantIbLb1EEm
FNDA:37758,_ZNSt10_HashtableINSt7__cxx1112basic_stringIcSt11char_traitsIcESaIcEEESt4pairIKS5_11file_type_eESaIS9_ENSt8__detail10_Select1stESt8equal_toIS5_ESt4hashIS5_ENSB_18_Mod_range_hashingENSB_20_Default_ranged_hashENSB_20_Prime_rehash_policyENSB_17_Hashtable_traitsILb1ELb0ELb1EEEE9_M_insertIRKS9_NSB_10_AllocNodeISaINSB_10_Hash_nodeIS9_Lb1EEEEEEEES6_INSB_14_Node_iteratorIS9_Lb0ELb1EEEbEOT_RKT0_St17integral_constantIbLb1EEm
FN:2024,_ZNSt10_HashtableINSt7__cxx1112basic_stringIcSt11char_traitsIcESaIcEEESt4pairIKS5_14operation_listESaIS9_ENSt8__detail10_Select1stESt8equal_toIS5_ESt4hashIS5_ENSB_18_Mod_range_hashingENSB_20_Default_ranged_hashENSB_20_Prime_rehash_policyENSB_17_Hashtable_traitsILb1ELb0ELb1EEEE5clearEv
FNDA:12586,_ZNSt10_HashtableINSt7__cxx1112basic_stringIcSt11char_traitsIcESaIcEEESt4pairIKS5_14operation_listESaIS9_ENSt8__detail10_Select1stESt8equal_toIS5_ESt4hashIS5_ENSB_18_Mod_range_hashingENSB_20_Default_ranged_hashENSB_20_Prime_rehash_policyENSB_17_Hashtable_traitsILb1ELb0ELb1EEEE5clearEv
FN:2024,_ZNSt10_HashtableINSt7__cxx1112basic_stringIcSt11char_traitsIcESaIcEEESt4pairIKS5_12elaborator_eESaIS9_ENSt8__detail10_Select1stESt8equal_toIS5_ESt4hashIS5_ENSB_18_Mod_range_hashingENSB_20_Default_ranged_hashENSB_20_Prime_rehash_policyENSB_17_Hashtable_traitsILb1ELb0ELb1EEEE5clearEv
FNDA:6293,_ZNSt10_HashtableINSt7__cxx1112basic_stringIcSt11char_traitsIcESaIcEEESt4pairIKS5_12elaborator_eESaIS9_ENSt8__detail10_Select1stESt8equal_toIS5_ESt4hashIS5_ENSB_18_Mod_range_hashingENSB_20_Default_ranged_hashENSB_20_Prime_rehash_policyENSB_17_Hashtable_traitsILb1ELb0ELb1EEEE5clearEv
FN:2024,_ZNSt10_HashtableINSt7__cxx1112basic_stringIcSt11char_traitsIcESaIcEEESt4pairIKS5_11file_type_eESaIS9_ENSt8__detail10_Select1stESt8equal_toIS5_ESt4hashIS5_ENSB_18_Mod_range_hashingENSB_20_Default_ranged_hashENSB_20_Prime_rehash_policyENSB_17_Hashtable_traitsILb1ELb0ELb1EEEE5clearEv
FNDA:6293,_ZNSt10_HashtableINSt7__cxx1112basic_stringIcSt11char_traitsIcESaIcEEESt4pairIKS5_11file_type_eESaIS9_ENSt8__detail10_Select1stESt8equal_toIS5_ESt4hashIS5_ENSB_18_Mod_range_hashingENSB_20_Default_ranged_hashENSB_20_Prime_rehash_policyENSB_17_Hashtable_traitsILb1ELb0ELb1EEEE5clearEv
FN:2061,_ZNSt10_HashtableINSt7__cxx1112basic_stringIcSt11char_traitsIcESaIcEEESt4pairIKS5_11file_type_eESaIS9_ENSt8__detail10_Select1stESt8equal_toIS5_ESt4hashIS5_ENSB_18_Mod_range_hashingENSB_20_Default_ranged_hashENSB_20_Prime_rehash_policyENSB_17_Hashtable_traitsILb1ELb0ELb1EEEE9_M_rehashEmRKm
FNDA:0,_ZNSt10_HashtableINSt7__cxx1112basic_stringIcSt11char_traitsIcESaIcEEESt4pairIKS5_11file_type_eESaIS9_ENSt8__detail10_Select1stESt8equal_toIS5_ESt4hashIS5_ENSB_18_Mod_range_hashingENSB_20_Default_ranged_hashENSB_20_Prime_rehash_policyENSB_17_Hashtable_traitsILb1ELb0ELb1EEEE9_M_rehashEmRKm
FN:2061,_ZNSt10_HashtableINSt7__cxx1112basic_stringIcSt11char_traitsIcESaIcEEESt4pairIKS5_12elaborator_eESaIS9_ENSt8__detail10_Select1stESt8equal_toIS5_ESt4hashIS5_ENSB_18_Mod_range_hashingENSB_20_Default_ranged_hashENSB_20_Prime_rehash_policyENSB_17_Hashtable_traitsILb1ELb0ELb1EEEE9_M_rehashEmRKm
FNDA:0,_ZNSt10_HashtableINSt7__cxx1112basic_stringIcSt11char_traitsIcESaIcEEESt4pairIKS5_12elaborator_eESaIS9_ENSt8__detail10_Select1stESt8equal_toIS5_ESt4hashIS5_ENSB_18_Mod_range_hashingENSB_20_Default_ranged_hashENSB_20_Prime_rehash_policyENSB_17_Hashtable_traitsILb1ELb0ELb1EEEE9_M_rehashEmRKm
FN:2061,_ZNSt10_HashtableINSt7__cxx1112basic_stringIcSt11char_traitsIcESaIcEEESt4pairIKS5_14operation_listESaIS9_ENSt8__detail10_Select1stESt8equal_toIS5_ESt4hashIS5_ENSB_18_Mod_range_hashingENSB_20_Default_ranged_hashENSB_20_Prime_rehash_policyENSB_17_Hashtable_traitsILb1ELb0ELb1EEEE9_M_rehashEmRKm
FNDA:120,_ZNSt10_HashtableINSt7__cxx1112basic_stringIcSt11char_traitsIcESaIcEEESt4pairIKS5_14operation_listESaIS9_ENSt8__detail10_Select1stESt8equal_toIS5_ESt4hashIS5_ENSB_18_Mod_range_hashingENSB_20_Default_ranged_hashENSB_20_Prime_rehash_policyENSB_17_Hashtable_traitsILb1ELb0ELb1EEEE9_M_rehashEmRKm
FN:2084,_ZNSt10_HashtableINSt7__cxx1112basic_stringIcSt11char_traitsIcESaIcEEESt4pairIKS5_14operation_listESaIS9_ENSt8__detail10_Select1stESt8equal_toIS5_ESt4hashIS5_ENSB_18_Mod_range_hashingENSB_20_Default_ranged_hashENSB_20_Prime_rehash_policyENSB_17_Hashtable_traitsILb1ELb0ELb1EEEE13_M_rehash_auxEmSt17integral_constantIbLb1EE
FNDA:120,_ZNSt10_HashtableINSt7__cxx1112basic_stringIcSt11char_traitsIcESaIcEEESt4pairIKS5_14operation_listESaIS9_ENSt8__detail10_Select1stESt8equal_toIS5_ESt4hashIS5_ENSB_18_Mod_range_hashingENSB_20_Default_ranged_hashENSB_20_Prime_rehash_policyENSB_17_Hashtable_traitsILb1ELb0ELb1EEEE13_M_rehash_auxEmSt17integral_constantIbLb1EE
FN:2084,_ZNSt10_HashtableINSt7__cxx1112basic_stringIcSt11char_traitsIcESaIcEEESt4pairIKS5_11file_type_eESaIS9_ENSt8__detail10_Select1stESt8equal_toIS5_ESt4hashIS5_ENSB_18_Mod_range_hashingENSB_20_Default_ranged_hashENSB_20_Prime_rehash_policyENSB_17_Hashtable_traitsILb1ELb0ELb1EEEE13_M_rehash_auxEmSt17integral_constantIbLb1EE
FNDA:0,_ZNSt10_HashtableINSt7__cxx1112basic_stringIcSt11char_traitsIcESaIcEEESt4pairIKS5_11file_type_eESaIS9_ENSt8__detail10_Select1stESt8equal_toIS5_ESt4hashIS5_ENSB_18_Mod_range_hashingENSB_20_Default_ranged_hashENSB_20_Prime_rehash_policyENSB_17_Hashtable_traitsILb1ELb0ELb1EEEE13_M_rehash_auxEmSt17integral_constantIbLb1EE
FN:2084,_ZNSt10_HashtableINSt7__cxx1112basic_stringIcSt11char_traitsIcESaIcEEESt4pairIKS5_12elaborator_eESaIS9_ENSt8__detail10_Select1stESt8equal_toIS5_ESt4hashIS5_ENSB_18_Mod_range_hashingENSB_20_Default_ranged_hashENSB_20_Prime_rehash_policyENSB_17_Hashtable_traitsILb1ELb0ELb1EEEE13_M_rehash_auxEmSt17integral_constantIbLb1EE
FNDA:0,_ZNSt10_HashtableINSt7__cxx1112basic_stringIcSt11char_traitsIcESaIcEEESt4pairIKS5_12elaborator_eESaIS9_ENSt8__detail10_Select1stESt8equal_toIS5_ESt4hashIS5_ENSB_18_Mod_range_hashingENSB_20_Default_ranged_hashENSB_20_Prime_rehash_policyENSB_17_Hashtable_traitsILb1ELb0ELb1EEEE13_M_rehash_auxEmSt17integral_constantIbLb1EE
DA:342,25292
DA:343,25292
DA:353,25292
DA:355,25172
DA:357,0
DA:358,0
DA:361,25292
DA:365,25292
DA:367,25292
DA:370,25292
DA:374,25292
DA:375,120
DA:383,25292
DA:405,25172
DA:409,25172
DA:639,1592410
DA:640,1592410
DA:643,1510440
DA:644,120
DA:652,1510320
DA:655,1510320
DA:656,1510320
DA:657,0
DA:972,12586
DA:979,12586
DA:981,12586
DA:982,37758
DA:984,12586
DA:987,12586
DA:989,12586
DA:990,12586
DA:993,1472560
DA:994,1459980
DA:995,12586
DA:972,6293
DA:979,6293
DA:981,6293
DA:982,18879
DA:984,6293
DA:987,6293
DA:989,6293
DA:990,6293
DA:993,18879
DA:994,12586
DA:995,6293
DA:972,6293
DA:979,6293
DA:981,6293
DA:982,18879
DA:984,6293
DA:987,6293
DA:989,6293
DA:990,6293
DA:993,44051
DA:994,37758
DA:995,6293
DA:1348,12586
DA:1352,12586
DA:1353,12586
DA:1354,12586
DA:1348,6293
DA:1352,6293
DA:1353,6293
DA:1354,6293
DA:1348,6293
DA:1352,6293
DA:1353,6293
DA:1354,6293
DA:1532,1459980
DA:1538,1459980
DA:1539,1459980
DA:1542,490854
DA:1545,654472
DA:1546,0
DA:1548,654472
DA:1532,12586
DA:1538,12586
DA:1539,12586
DA:1542,6293
DA:1545,6293
DA:1546,0
DA:1548,6293
DA:1532,37758
DA:1538,37758
DA:1539,37758
DA:1542,6293
DA:1545,6293
DA:1546,0
DA:1548,6293
DA:1560,1460470
DA:1564,1460470
DA:1568,491069
DA:1569,491069
DA:1576,969404
DA:1577,969404
DA:1578,969404
DA:1581,956818
DA:1582,969404
DA:1584,1460470
DA:1560,0
DA:1564,0
DA:1568,0
DA:1569,0
DA:1576,0
DA:1577,0
DA:1578,0
DA:1581,0
DA:1582,0
DA:1584,0
DA:1560,0
DA:1564,0
DA:1568,0
DA:1569,0
DA:1576,0
DA:1577,0
DA:1578,0
DA:1581,0
DA:1582,0
DA:1584,0
DA:1698,1460470
DA:1704,1460470
DA:1705,1460470
DA:1711,1460470
DA:1713,120
DA:1714,120
DA:1717,1460470
DA:1720,1460470
DA:1721,1460470
DA:1722,1460470
DA:1724,0
DA:1726,0
DA:1727,0
DA:1698,0
DA:1704,0
DA:1705,0
DA:1711,0
DA:1713,0
DA:1714,0
DA:1717,0
DA:1720,0
DA:1721,0
DA:1722,0
DA:1724,0
DA:1726,0
DA:1727,0
DA:1698,0
DA:1704,0
DA:1705,0
DA:1711,0
DA:1713,0
DA:1714,0
DA:1717,0
DA:1720,0
DA:1721,0
DA:1722,0
DA:1724,0
DA:1726,0
DA:1727,0
DA:1803,1459980
DA:1809,1459980
DA:1810,1459980
DA:1811,1459980
DA:1813,1459980
DA:1814,0
DA:1815,0
DA:1817,1459980
DA:1818,1459980
DA:1803,12586
DA:1809,12586
DA:1810,12586
DA:1811,12586
DA:1813,12586
DA:1814,0
DA:1815,0
DA:1817,12586
DA:1818,12586
DA:1803,37758
DA:1809,37758
DA:1810,37758
DA:1811,37758
DA:1813,37758
DA:1814,0
DA:1815,0
DA:1817,37758
DA:1818,37758
DA:2024,12586
DA:2028,12586
DA:2029,12586
DA:2030,12586
DA:2031,12586
DA:2032,12586
DA:2024,6293
DA:2028,6293
DA:2029,6293
DA:2030,6293
DA:2031,6293
DA:2032,6293
DA:2024,6293
DA:2028,6293
DA:2029,6293
DA:2030,6293
DA:2031,6293
DA:2032,6293
DA:2061,120
DA:2067,120
DA:2069,0
DA:2073,0
DA:2074,0
DA:2076,120
DA:2061,0
DA:2067,0
DA:2069,0
DA:2073,0
DA:2074,0
DA:2076,0
DA:2061,0
DA:2067,0
DA:2069,0
DA:2073,0
DA:2074,0
DA:2076,0
DA:2084,120
DA:2088,120
DA:2089,120
DA:2090,120
DA:2091,120
DA:2092,738
DA:2094,618
DA:2095,618
DA:2096,618
DA:2098,556
DA:2099,556
DA:2100,556
DA:2101,556
DA:2102,436
DA:2107,62
DA:2108,62
DA:2113,120
DA:2114,120
DA:2115,120
DA:2116,120
DA:2084,0
DA:2088,0
DA:2089,0
DA:2090,0
DA:2091,0
DA:2092,0
DA:2094,0
DA:2095,0
DA:2096,0
DA:2098,0
DA:2099,0
DA:2100,0
DA:2101,0
DA:2102,0
DA:2107,0
DA:2108,0
DA:2113,0
DA:2114,0
DA:2115,0
DA:2116,0
DA:2084,0
DA:2088,0
DA:2089,0
DA:2090,0
DA:2091,0
DA:2092,0
DA:2094,0
DA:2095,0
DA:2096,0
DA:2098,0
DA:2099,0
DA:2100,0
DA:2101,0
DA:2102,0
DA:2107,0
DA:2108,0
DA:2113,0
DA:2114,0
DA:2115,0
DA:2116,0
end_of_record
SF:/usr/include/c++/9/iostream
end_of_record
TN:
SF:/usr/include/c++/9/bits/vector.tcc
FN:109,_ZNSt6vectorIN8BitSpace9BitFieldsItEESaIS2_EE12emplace_backIJS2_EEEvDpOT_
FNDA:41796100,_ZNSt6vectorIN8BitSpace9BitFieldsItEESaIS2_EE12emplace_backIJS2_EEEvDpOT_
FN:198,_ZNSt6vectorIN8BitSpace9BitFieldsItEESaIS2_EEaSERKS4_
FNDA:0,_ZNSt6vectorIN8BitSpace9BitFieldsItEESaIS2_EEaSERKS4_
FN:426,_ZNSt6vectorIN8BitSpace9BitFieldsItEESaIS2_EE17_M_realloc_insertIJS2_EEEvN9__gnu_cxx17__normal_iteratorIPS2_S4_EEDpOT_
FNDA:0,_ZNSt6vectorIN8BitSpace9BitFieldsItEESaIS2_EE17_M_realloc_insertIJS2_EEEvN9__gnu_cxx17__normal_iteratorIPS2_S4_EEDpOT_
DA:109,41796100
DA:112,41796100
DA:115,1708950
DA:117,1708950
DA:121,40087100
DA:125,41796100
DA:198,0
DA:201,0
DA:223,0
DA:224,0
DA:226,0
DA:228,0
DA:229,0
DA:230,0
DA:231,0
DA:232,0
DA:233,0
DA:234,0
DA:236,0
DA:238,0
DA:239,0
DA:243,0
DA:245,0
DA:246,0
DA:248,0
DA:250,0
DA:252,0
DA:426,0
DA:435,0
DA:437,0
DA:438,0
DA:439,0
DA:440,0
DA:441,0
DA:449,0
DA:450,0
DA:456,0
DA:461,0
DA:462,0
DA:464,0
DA:466,0
DA:467,0
DA:500,0
DA:501,0
DA:502,0
DA:503,0
DA:504,0
DA:505,0
end_of_record
SF:/workspace/vtr-verilog-to-routing/libs/librtlnumber/src/include/rtl_utils.hpp
FN:47,_Z12_assert_WerrbPKciNSt7__cxx1112basic_stringIcSt11char_traitsIcESaIcEEE
FNDA:47813500,_Z12_assert_WerrbPKciNSt7__cxx1112basic_stringIcSt11char_traitsIcESaIcEEE
DA:47,47813500
DA:48,47813500
DA:49,0
DA:50,0
DA:51,0
DA:52,0
DA:54,47813500
end_of_record
SF:/usr/include/c++/9/bits/cpp_type_traits.h
DA:428,0
end_of_record
SF:/usr/include/c++/9/bits/stl_algo.h
FN:112,_ZSt9__find_ifIN9__gnu_cxx17__normal_iteratorIPcNSt7__cxx1112basic_stringIcSt11char_traitsIcESaIcEEEEENS0_5__ops16_Iter_equals_valIKcEEET_SE_SE_T0_St26random_access_iterator_tag
FNDA:1767760,_ZSt9__find_ifIN9__gnu_cxx17__normal_iteratorIPcNSt7__cxx1112basic_stringIcSt11char_traitsIcESaIcEEEEENS0_5__ops16_Iter_equals_valIKcEEET_SE_SE_T0_St26random_access_iterator_tag
FN:860,_ZSt11__remove_ifIN9__gnu_cxx17__normal_iteratorIPcNSt7__cxx1112basic_stringIcSt11char_traitsIcESaIcEEEEENS0_5__ops16_Iter_equals_valIKcEEET_SE_SE_T0_
FNDA:1767760,_ZSt11__remove_ifIN9__gnu_cxx17__normal_iteratorIPcNSt7__cxx1112basic_stringIcSt11char_traitsIcESaIcEEEEENS0_5__ops16_Iter_equals_valIKcEEET_SE_SE_T0_
DA:112,1767760
DA:116,1767760
DA:118,1939640
DA:120,171883
DA:121,0
DA:122,171883
DA:124,171883
DA:125,0
DA:126,171883
DA:128,171883
DA:129,0
DA:130,171883
DA:132,171883
DA:133,0
DA:134,171883
DA:137,1767760
DA:139,33833
DA:140,33833
DA:141,0
DA:142,263383
DA:143,263383
DA:144,263383
DA:145,0
DA:146,1740750
DA:147,1740750
DA:148,1740750
DA:149,0
DA:150,1767760
DA:151,1767760
DA:153,1767760
DA:159,1767760
DA:161,1767760
DA:860,1767760
DA:863,1767760
DA:864,1767760
DA:865,1767760
DA:866,0
DA:867,0
DA:868,0
DA:869,0
DA:871,0
DA:872,0
DA:874,0
DA:896,1767760
DA:906,1767760
end_of_record
SF:/usr/include/c++/9/initializer_list
DA:71,12
DA:75,12
DA:79,12
end_of_record
SF:/workspace/vtr-verilog-to-routing/libs/EXTERNAL/libargparse/src/argparse_value.hpp
DA:53,0
end_of_record
SF:/usr/include/c++/9/bits/basic_string.tcc
FN:206,_ZNSt7__cxx1112basic_stringIcSt11char_traitsIcESaIcEE12_M_constructIPcEEvT_S7_St20forward_iterator_tag
FNDA:24052900,_ZNSt7__cxx1112basic_stringIcSt11char_traitsIcESaIcEE12_M_constructIPcEEvT_S7_St20forward_iterator_tag
FN:206,_ZNSt7__cxx1112basic_stringIcSt11char_traitsIcESaIcEE12_M_constructIPKcEEvT_S8_St20forward_iterator_tag
FNDA:23761600,_ZNSt7__cxx1112basic_stringIcSt11char_traitsIcESaIcEE12_M_constructIPKcEEvT_S8_St20forward_iterator_tag
FN:1158,_ZStplIcSt11char_traitsIcESaIcEENSt7__cxx1112basic_stringIT_T0_T1_EEPKS5_RKS8_
FNDA:0,_ZStplIcSt11char_traitsIcESaIcEENSt7__cxx1112basic_stringIT_T0_T1_EEPKS5_RKS8_
DA:206,24052900
DA:211,24052900
DA:212,0
DA:215,24052900
DA:217,24052900
DA:219,0
DA:220,0
DA:225,24052900
DA:232,24052900
DA:233,24052900
DA:206,23761600
DA:211,23761600
DA:212,0
DA:215,23761600
DA:217,23761600
DA:219,23761600
DA:220,23761600
DA:225,23761600
DA:232,23761600
DA:233,23761600
DA:1158,0
DA:1164,0
DA:1165,0
DA:1166,0
DA:1167,0
DA:1168,0
DA:1169,0
end_of_record
SF:/usr/include/c++/9/bits/stl_uninitialized.h
DA:76,0
DA:79,0
DA:82,0
DA:83,0
DA:115,0
DA:134,0
DA:140,0
DA:305,0
DA:307,0
DA:905,0
DA:912,0
DA:913,0
DA:949,0
DA:950,0
DA:964,0
end_of_record
SF:/usr/include/c++/9/bits/predefined_ops.h
DA:234,1767760
DA:240,2725500
DA:241,2209850
DA:246,1767760
DA:247,1767760
end_of_record
SF:/usr/include/c++/9/bits/basic_string.h
FN:6085,_ZStplIcSt11char_traitsIcESaIcEENSt7__cxx1112basic_stringIT_T0_T1_EEOS8_RKS8_
FNDA:24051900,_ZStplIcSt11char_traitsIcESaIcEENSt7__cxx1112basic_stringIT_T0_T1_EEOS8_RKS8_
FN:6109,_ZStplIcSt11char_traitsIcESaIcEENSt7__cxx1112basic_stringIT_T0_T1_EEPKS5_OS8_
FNDA:24051900,_ZStplIcSt11char_traitsIcESaIcEENSt7__cxx1112basic_stringIT_T0_T1_EEPKS5_OS8_
FN:6121,_ZStplIcSt11char_traitsIcESaIcEENSt7__cxx1112basic_stringIT_T0_T1_EEOS8_PKS5_
FNDA:24051900,_ZStplIcSt11char_traitsIcESaIcEENSt7__cxx1112basic_stringIT_T0_T1_EEOS8_PKS5_
DA:150,151834000
DA:156,24052900
DA:157,24052900
DA:159,3535940
DA:160,75691800
DA:178,143987000
DA:179,23761600
DA:182,119970000
DA:183,119970000
DA:186,550063000
DA:190,171901000
DA:193,3535940
DA:200,223989000
DA:203,223989000
DA:210,71831600
DA:211,23761600
DA:214,119970000
DA:216,119970000
DA:217,0
DA:221,223989000
DA:222,223989000
DA:229,151834000
DA:231,101979000
DA:232,223747000
DA:236,71913000
DA:237,71913000
DA:243,27588900
DA:247,27588900
DA:263,27588900
DA:266,24052900
DA:286,144069000
DA:287,71913000
DA:290,3535940
DA:291,3535940
DA:346,47814500
DA:348,47814500
DA:349,34719
DA:351,47814500
DA:392,24052900
DA:393,24052900
DA:396,23761600
DA:398,23761600
DA:431,0
DA:433,0
DA:434,0
DA:448,3535940
DA:450,3535940
DA:451,3535940
DA:540,0
DA:541,0
DA:542,0
DA:552,72155800
DA:553,72155800
DA:555,72155800
DA:557,24085900
DA:562,48070000
DA:563,48070000
DA:569,72155800
DA:570,72155800
DA:571,72155800
DA:625,24052900
DA:627,24052900
DA:628,24052900
DA:657,101979000
DA:658,101944000
DA:704,18
DA:705,18
DA:826,3535730
DA:827,3535730
DA:842,3535730
DA:843,1767970
DA:930,5304140
DA:936,3535940
DA:1031,40
DA:1032,40
DA:1063,7071690
DA:1070,6522450
DA:1143,210
DA:1146,210
DA:1221,24051900
DA:1222,0
DA:1864,210
DA:1867,210
DA:2300,110921
DA:2301,110921
DA:2312,0
DA:2313,0
DA:2393,1767760
DA:2396,1767760
DA:2551,20
DA:2555,20
DA:2571,38
DA:2572,38
DA:6085,24051900
DA:6087,24051900
DA:6109,24051900
DA:6111,24051900
DA:6121,24051900
DA:6123,24051900
DA:6175,2
DA:6177,2
DA:6416,0
DA:6421,0
DA:6546,0
DA:6547,0
DA:6548,0
DA:6557,974
DA:6558,974
DA:6559,974
DA:6562,24051900
DA:6563,24051900
DA:6565,24051900
end_of_record
SF:/usr/include/x86_64-linux-gnu/bits/stdio2.h
DA:105,250
DA:107,250
end_of_record
SF:/usr/include/c++/9/bits/stl_vector.h
FN:622,_ZNSt6vectorIP10ast_node_tSaIS1_EEC2ESt16initializer_listIS1_ERKS2_
FNDA:12,_ZNSt6vectorIP10ast_node_tSaIS1_EEC2ESt16initializer_listIS1_ERKS2_
FN:1753,_ZNKSt6vectorIN8BitSpace9BitFieldsItEESaIS2_EE12_M_check_lenEmPKc
FNDA:0,_ZNKSt6vectorIN8BitSpace9BitFieldsItEESaIS2_EE12_M_check_lenEmPKc
DA:94,50564800
DA:95,50564800
DA:106,50564800
DA:108,50564800
DA:109,50564800
DA:110,50564800
DA:114,50564800
DA:118,50564800
DA:119,50564800
DA:120,50564800
DA:121,50564800
DA:125,69668500
DA:128,34963200
DA:130,34963200
DA:133,50564800
DA:134,50564800
DA:273,0
DA:274,0
DA:277,50564800
DA:278,50564800
DA:281,50564800
DA:282,50564800
DA:285,34963200
DA:290,50564800
DA:291,50564800
DA:330,69668500
DA:332,86826100
DA:333,69668500
DA:334,69668500
DA:347,69668500
DA:350,15779700
DA:351,36082700
DA:453,0
DA:462,0
DA:466,0
DA:484,34963200
DA:494,50564800
DA:495,50564800
DA:622,12
DA:624,12
DA:626,12
DA:628,12
DA:675,69668500
DA:677,69668500
DA:678,67900600
DA:680,71046000
DA:706,50564800
DA:708,50564800
DA:711,66166400
DA:808,0
DA:809,0
DA:817,0
DA:818,0
DA:826,40087100
DA:827,40087100
DA:835,0
DA:836,0
DA:915,0
DA:916,1403040
DA:920,0
DA:921,0
DA:995,0
DA:997,0
DA:1040,1639940000
DA:1043,1639940000
DA:1200,41796100
DA:1201,41796100
DA:1505,0
DA:1508,0
DA:1511,0
DA:1512,0
DA:1753,0
DA:1755,0
DA:1756,0
DA:1758,0
DA:1759,0
DA:1773,0
DA:1780,0
DA:1781,0
DA:1812,50564800
DA:1814,65987800
DA:1815,50564800
DA:1816,50564800
DA:1817,50564800
end_of_record
SF:/usr/include/c++/9/bits/allocator.h
DA:138,83406000
DA:141,150310000
DA:142,150310000
DA:153,173398000
end_of_record
SF:/workspace/vtr-verilog-to-routing/ODIN_II/SRC/ast_util.cpp
FN:53,_Z15update_tree_tagP10ast_node_tii
FNDA:0,_Z15update_tree_tagP10ast_node_tii
FN:73,_Z12add_tag_dataP5ast_t
FNDA:0,_Z12add_tag_dataP5ast_t
FN:97,_Z12allocate_astv
FNDA:3247,_Z12allocate_astv
FN:112,_Z8free_astP5ast_t
FNDA:0,_Z8free_astP5ast_t
FN:121,_Z21add_top_module_to_astP5ast_tP10ast_node_t
FNDA:49982,_Z21add_top_module_to_astP5ast_tP10ast_node_t
FN:135,_Z18create_node_w_type3ids5loc_t
FNDA:10111900,_Z18create_node_w_type3ids5loc_t
FN:186,_Z34free_assignement_of_node_keep_treeP10ast_node_t
FNDA:2646810,_Z34free_assignement_of_node_keep_treeP10ast_node_t
FN:219,_Z16free_single_nodeP10ast_node_t
FNDA:6757300,_Z16free_single_nodeP10ast_node_t
FN:231,_Z17free_all_childrenP10ast_node_t
FNDA:3932580,_Z17free_all_childrenP10ast_node_t
FN:246,_Z22free_resolved_childrenP10ast_node_t
FNDA:535347,_Z22free_resolved_childrenP10ast_node_t
FN:264,_Z15free_whole_treeP10ast_node_t
FNDA:1151980,_Z15free_whole_treeP10ast_node_t
FN:272,_Z18free_resolved_treeP10ast_node_t
FNDA:0,_Z18free_resolved_treeP10ast_node_t
FN:284,_Z19create_tree_node_idPc5loc_t
FNDA:1203020,_Z19create_tree_node_idPc5loc_t
FN:294,_Z23create_tree_node_stringPc5loc_t
FNDA:210,_Z23create_tree_node_stringPc5loc_t
FN:304,_Z23create_tree_node_numberPc5loc_t
FNDA:628003,_Z23create_tree_node_numberPc5loc_t
FN:314,_Z23create_tree_node_numberR7VNumber5loc_t
FNDA:178577,_Z23create_tree_node_numberR7VNumber5loc_t
FN:324,_Z23create_tree_node_numberl5loc_t
FNDA:364,_Z23create_tree_node_numberl5loc_t
FN:334,_Z25allocate_children_to_nodeP10ast_node_tSt6vectorIS0_SaIS0_EE
FNDA:1403040,_Z25allocate_children_to_nodeP10ast_node_tSt6vectorIS0_SaIS0_EE
FN:347,_Z17add_child_to_nodeP10ast_node_tS0_
FNDA:725046,_Z17add_child_to_nodeP10ast_node_tS0_
FN:361,_Z26add_child_to_node_at_indexP10ast_node_tS0_i
FNDA:2681,_Z26add_child_to_node_at_indexP10ast_node_tS0_i
FN:377,_Z31remove_child_from_node_at_indexP10ast_node_ti
FNDA:327738,_Z31remove_child_from_node_at_indexP10ast_node_ti
FN:397,_Z19expand_node_list_atPP10ast_node_tlll
FNDA:0,_Z19expand_node_list_atPP10ast_node_tlll
FN:415,_Z32make_concat_into_list_of_stringsP10ast_node_tPcP12sc_hierarchy
FNDA:357,_Z32make_concat_into_list_of_stringsP10ast_node_tPcP12sc_hierarchy
FN:504,_Z21change_to_number_nodeP10ast_node_tl
FNDA:556,_Z21change_to_number_nodeP10ast_node_tl
FN:513,_Z21change_to_number_nodeP10ast_node_t7VNumber
FNDA:179133,_Z21change_to_number_nodeP10ast_node_t7VNumber
FN:530,_Z30get_name_of_var_declare_at_bitP10ast_node_ti
FNDA:2669920,_Z30get_name_of_var_declare_at_bitP10ast_node_ti
FN:552,_Z14get_identifierP10ast_node_t
FNDA:294,_Z14get_identifierP10ast_node_t
FN:565,_Z22get_name_of_pin_at_bitP10ast_node_tiPcP12sc_hierarchy
FNDA:2788580,_Z22get_name_of_pin_at_bitP10ast_node_tiPcP12sc_hierarchy
FN:640,_Z23get_name_of_pins_numberP10ast_node_tii
FNDA:687038,_Z23get_name_of_pins_numberP10ast_node_tii
FN:652,_Z22get_name_of_pin_numberP10ast_node_ti
FNDA:16338700,_Z22get_name_of_pin_numberP10ast_node_ti
FN:686,_Z16get_name_of_pinsP10ast_node_tPcP12sc_hierarchy
FNDA:1789350,_Z16get_name_of_pinsP10ast_node_tPcP12sc_hierarchy
FN:787,_Z28get_name_of_pins_with_prefixP10ast_node_tPcP12sc_hierarchy
FNDA:1789350,_Z28get_name_of_pins_with_prefixP10ast_node_tPcP12sc_hierarchy
FN:808,_Z20get_size_of_variableP10ast_node_tP12sc_hierarchy
FNDA:1235370,_Z20get_size_of_variableP10ast_node_tP12sc_hierarchy
FN:879,_Z13move_ast_nodeP10ast_node_tS0_S0_
FNDA:0,_Z13move_ast_nodeP10ast_node_tS0_S0_
FN:899,_Z18ast_node_deep_copyP10ast_node_t
FNDA:14216500,_Z18ast_node_deep_copyP10ast_node_t
FN:920,_Z13ast_node_copyP10ast_node_t
FNDA:14218500,_Z13ast_node_copyP10ast_node_t
FN:949,_ZL12expand_powerPP10ast_node_t
FNDA:12,_ZL12expand_powerPP10ast_node_t
FN:1013,_ZL22check_binary_operationPP10ast_node_t
FNDA:261733,_ZL22check_binary_operationPP10ast_node_t
FN:1045,_Z10fold_unaryPP10ast_node_t
FNDA:29000,_Z10fold_unaryPP10ast_node_t
FN:1145,_Z11fold_binaryPP10ast_node_t
FNDA:439926,_Z11fold_binaryPP10ast_node_t
FN:1308,_Z16node_is_constantP10ast_node_t
FNDA:3051300,_Z16node_is_constantP10ast_node_t
FN:1315,_Z32assert_constant_positionnal_argsP10ast_node_tl
FNDA:20,_Z32assert_constant_positionnal_argsP10ast_node_tl
FN:1336,_Z14c_simple_printNSt7__cxx1112basic_stringIcSt11char_traitsIcESaIcEEE
FNDA:20,_Z14c_simple_printNSt7__cxx1112basic_stringIcSt11char_traitsIcESaIcEEE
FN:1389,_Z9c_displayP10ast_node_t
FNDA:20,_Z9c_displayP10ast_node_t
FN:1470,_Z8c_finishP10ast_node_t
FNDA:0,_Z8c_finishP10ast_node_t
FN:1479,_Z5clog2li
FNDA:54,_Z5clog2li
FN:1501,_Z20resolve_concat_sizesP10ast_node_tP12sc_hierarchy
FNDA:362273,_Z20resolve_concat_sizesP10ast_node_tP12sc_hierarchy
DA:53,0
DA:54,0
DA:55,0
DA:56,0
DA:57,0
DA:58,0
DA:60,0
DA:61,0
DA:62,0
DA:65,0
DA:66,0
DA:68,0
DA:73,0
DA:74,0
DA:75,0
DA:77,0
DA:78,0
DA:80,0
DA:82,0
DA:87,0
DA:88,0
DA:90,0
DA:97,3247
DA:98,3247
DA:100,3247
DA:101,3247
DA:103,3247
DA:104,3247
DA:106,3247
DA:112,0
DA:113,0
DA:114,0
DA:115,0
DA:121,49982
DA:122,49982
DA:123,49982
DA:124,49982
DA:125,49982
DA:126,49982
DA:128,49982
DA:130,49982
DA:135,10111900
DA:136,10111900
DA:138,10111900
DA:140,10111900
DA:142,10111900
DA:143,10111900
DA:145,10111900
DA:146,10111900
DA:147,10111900
DA:148,10111900
DA:149,10111900
DA:150,10111900
DA:151,10111900
DA:152,10111900
DA:153,10111900
DA:154,10111900
DA:155,10111900
DA:156,10111900
DA:157,10111900
DA:158,10111900
DA:160,10111900
DA:162,10111900
DA:163,10111900
DA:164,10111900
DA:165,10111900
DA:166,10111900
DA:167,10111900
DA:168,10111900
DA:169,10111900
DA:170,10111900
DA:171,10111900
DA:172,10111900
DA:173,10111900
DA:174,10111900
DA:176,10111900
DA:177,10111900
DA:179,10111900
DA:186,2646810
DA:187,2646810
DA:189,2646810
DA:192,2646810
DA:193,2646810
DA:196,2646810
DA:197,1224
DA:198,2646810
DA:201,2646810
DA:202,2395380
DA:203,2646810
DA:206,2646810
DA:207,0
DA:208,0
DA:210,2646810
DA:211,2646810
DA:212,2646810
DA:214,2646810
DA:219,6757300
DA:220,6757300
DA:221,2467680
DA:222,2467680
DA:223,2467680
DA:225,6757300
DA:231,3932580
DA:232,3932580
DA:234,3932580
DA:235,4256650
DA:236,2429160
DA:237,1827490
DA:238,1827490
DA:239,1827490
DA:241,3932580
DA:246,535347
DA:247,535347
DA:249,535347
DA:250,892117
DA:251,713540
DA:252,356770
DA:255,535347
DA:256,535347
DA:257,535347
DA:259,535347
DA:264,3753450
DA:265,3581130
DA:266,3753450
DA:272,356770
DA:273,356770
DA:274,356770
DA:275,356770
DA:278,356770
DA:284,1203020
DA:285,1203020
DA:286,1203020
DA:288,1203020
DA:294,210
DA:295,210
DA:296,210
DA:297,210
DA:298,210
DA:304,628003
DA:305,628003
DA:306,628003
DA:308,628003
DA:314,178577
DA:315,178577
DA:316,178577
DA:318,178577
DA:324,364
DA:325,364
DA:326,364
DA:328,364
DA:334,1403040
DA:336,1403040
DA:337,1403040
DA:339,4146960
DA:340,2743920
DA:342,1403040
DA:347,725046
DA:349,725046
DA:353,725046
DA:354,725046
DA:355,725046
DA:361,2681
DA:362,2681
DA:365,2681
DA:366,5725
DA:367,3044
DA:370,2681
DA:371,2681
DA:377,327738
DA:378,327738
DA:381,327738
DA:382,172310
DA:383,172310
DA:386,86181600
DA:387,85853800
DA:388,85853800
DA:391,327738
DA:397,0
DA:398,0
DA:399,0
DA:400,0
DA:402,0
DA:403,0
DA:404,0
DA:415,357
DA:416,357
DA:417,357
DA:418,357
DA:420,357
DA:421,357
DA:424,1079
DA:425,722
DA:426,0
DA:430,1079
DA:431,722
DA:432,716
DA:433,716
DA:434,716
DA:435,0
DA:437,716
DA:438,327
DA:439,327
DA:440,327
DA:441,389
DA:443,389
DA:444,389
DA:445,389
DA:447,7153
DA:448,6764
DA:449,6764
DA:450,6764
DA:452,0
DA:453,0
DA:456,716
DA:457,6
DA:458,6
DA:459,6
DA:460,6
DA:461,0
DA:462,0
DA:463,0
DA:464,0
DA:465,0
DA:466,0
DA:470,0
DA:471,0
DA:472,0
DA:473,0
DA:475,0
DA:476,0
DA:478,0
DA:479,0
DA:480,0
DA:481,0
DA:484,0
DA:486,0
DA:488,0
DA:489,0
DA:490,0
DA:491,0
DA:494,0
DA:497,357
DA:504,556
DA:505,1112
DA:513,179133
DA:514,179133
DA:515,179133
DA:516,0
DA:518,179133
DA:519,179133
DA:521,179133
DA:522,179133
DA:523,179133
DA:524,179133
DA:530,2669920
DA:531,2669920
DA:534,2669920
DA:535,85055
DA:536,85055
DA:537,2584860
DA:538,2584860
DA:539,2584860
DA:540,0
DA:542,0
DA:545,2669920
DA:552,294
DA:553,294
DA:554,116
DA:556,178
DA:557,178
DA:565,2788580
DA:566,2788580
DA:568,2788580
DA:569,2788580
DA:573,2788580
DA:574,10178
DA:575,10178
DA:576,10178
DA:577,2778400
DA:578,166687
DA:580,166687
DA:581,166687
DA:583,166687
DA:584,166687
DA:585,166687
DA:586,166687
DA:588,166687
DA:589,2611710
DA:590,75945
DA:591,2535770
DA:592,2532990
DA:593,2532990
DA:595,2532990
DA:596,0
DA:599,2532990
DA:601,2532580
DA:602,2532580
DA:603,2532580
DA:605,0
DA:607,2532990
DA:608,2777
DA:609,2777
DA:610,0
DA:611,0
DA:612,0
DA:613,0
DA:615,0
DA:616,0
DA:618,0
DA:621,0
DA:622,0
DA:628,0
DA:629,0
DA:630,0
DA:632,0
DA:634,0
DA:637,2788580
DA:640,687038
DA:641,687038
DA:642,687038
DA:644,687038
DA:645,687038
DA:646,17023000
DA:647,16335900
DA:649,687038
DA:652,16338700
DA:653,16338700
DA:654,16338700
DA:656,16338700
DA:657,181
DA:659,16338700
DA:660,16338700
DA:661,1503650
DA:662,1503650
DA:663,1503650
DA:664,14833200
DA:665,14833200
DA:666,14833200
DA:667,1728
DA:668,1728
DA:669,1728
DA:670,114
DA:671,114
DA:672,114
DA:673,0
DA:674,0
DA:675,0
DA:678,16338700
DA:686,1789350
DA:687,1789350
DA:688,1789350
DA:689,1789350
DA:690,1789350
DA:691,1789350
DA:693,1789350
DA:694,215407
DA:695,215407
DA:697,215407
DA:698,215407
DA:699,215407
DA:701,215407
DA:702,1573940
DA:703,107425
DA:704,107425
DA:705,107425
DA:707,107425
DA:708,107425
DA:709,107425
DA:710,107425
DA:711,1938270
DA:712,1830850
DA:714,0
DA:715,0
DA:717,1466520
DA:720,779124
DA:721,779124
DA:723,779124
DA:724,0
DA:727,779124
DA:729,779124
DA:730,779124
DA:731,257418
DA:732,257418
DA:733,257418
DA:734,521706
DA:735,521706
DA:737,521706
DA:738,521706
DA:739,521706
DA:741,521706
DA:742,521706
DA:744,12966400
DA:745,12444700
DA:746,12444700
DA:747,12444700
DA:751,0
DA:752,0
DA:755,687395
DA:756,687038
DA:757,687038
DA:758,357
DA:759,357
DA:760,0
DA:762,357
DA:763,357
DA:766,357
DA:767,357
DA:768,7454
DA:770,7097
DA:771,7097
DA:775,0
DA:778,1789350
DA:779,1789350
DA:781,1789350
DA:787,1789350
DA:788,1789350
DA:789,1789350
DA:790,1789350
DA:793,1789350
DA:795,32880800
DA:796,31091400
DA:797,31091400
DA:798,31091400
DA:799,31091400
DA:802,1789350
DA:808,1235370
DA:809,1235370
DA:810,1235370
DA:811,1235370
DA:813,1235370
DA:815,1235370
DA:816,1072040
DA:817,1072040
DA:818,1072040
DA:819,0
DA:821,0
DA:822,0
DA:824,0
DA:827,0
DA:828,0
DA:831,1072040
DA:832,1072040
DA:837,0
DA:838,0
DA:840,101024
DA:841,101024
DA:842,101024
DA:848,714
DA:849,714
DA:850,714
DA:853,0
DA:854,0
DA:858,1234650
DA:860,978583
DA:861,877559
DA:862,877559
DA:864,877559
DA:865,877559
DA:866,877559
DA:868,877559
DA:871,978583
DA:879,0
DA:880,0
DA:881,0
DA:882,0
DA:883,0
DA:884,0
DA:885,0
DA:886,0
DA:887,0
DA:888,0
DA:892,0
DA:893,0
DA:899,14216500
DA:900,14216500
DA:902,14216500
DA:904,6407980
DA:907,12794700
DA:908,6386750
DA:909,6386750
DA:913,14216500
DA:920,14218500
DA:921,14218500
DA:923,14218500
DA:928,6409980
DA:929,6409980
DA:932,6409980
DA:933,1653250
DA:934,6409980
DA:935,714
DA:937,6409980
DA:938,6409980
DA:939,6409980
DA:940,6409980
DA:942,6409980
DA:949,12
DA:951,12
DA:953,12
DA:954,12
DA:957,12
DA:958,12
DA:959,0
DA:960,0
DA:961,0
DA:963,12
DA:964,0
DA:966,12
DA:967,24
DA:968,12
DA:969,12
DA:971,12
DA:972,12
DA:976,12
DA:977,12
DA:978,12
DA:1013,261733
DA:1014,261733
DA:1015,261733
DA:1016,8152
DA:1017,8152
DA:1018,2013
DA:1019,8152
DA:1020,22
DA:1022,36
DA:1023,72
DA:1024,0
DA:1025,36
DA:1026,36
DA:1028,12
DA:1029,24
DA:1030,0
DA:1031,12
DA:1032,12
DA:1037,261733
DA:1045,29000
DA:1046,29000
DA:1049,29000
DA:1050,29000
DA:1052,58000
DA:1053,384
DA:1054,0
DA:1055,384
DA:1057,384
DA:1058,0
DA:1059,0
DA:1060,0
DA:1061,0
DA:1063,270
DA:1064,270
DA:1065,270
DA:1066,270
DA:1068,0
DA:1069,0
DA:1070,0
DA:1071,0
DA:1073,60
DA:1074,60
DA:1075,60
DA:1076,60
DA:1078,0
DA:1079,0
DA:1080,0
DA:1081,0
DA:1083,0
DA:1084,0
DA:1085,0
DA:1086,0
DA:1088,0
DA:1089,0
DA:1090,0
DA:1091,0
DA:1093,0
DA:1094,0
DA:1095,0
DA:1096,0
DA:1098,0
DA:1099,0
DA:1100,0
DA:1101,0
DA:1103,0
DA:1104,0
DA:1105,0
DA:1106,0
DA:1108,54
DA:1109,54
DA:1110,0
DA:1112,54
DA:1113,54
DA:1114,54
DA:1116,0
DA:1117,0
DA:1118,0
DA:1119,0
DA:1121,0
DA:1122,0
DA:1123,0
DA:1124,0
DA:1130,384
DA:1131,384
DA:1132,768
DA:1134,28616
DA:1136,0
DA:1145,439926
DA:1146,439926
DA:1149,439926
DA:1150,439926
DA:1151,439926
DA:1153,1059000
DA:1154,178193
DA:1155,0
DA:1156,178193
DA:1157,178193
DA:1159,178193
DA:1160,4228
DA:1161,4228
DA:1162,4228
DA:1163,4228
DA:1165,165691
DA:1166,165691
DA:1167,165691
DA:1168,165691
DA:1170,7445
DA:1171,7445
DA:1172,7445
DA:1173,7445
DA:1175,75
DA:1176,75
DA:1177,75
DA:1178,75
DA:1180,0
DA:1181,0
DA:1182,0
DA:1183,0
DA:1185,0
DA:1186,0
DA:1187,0
DA:1188,0
DA:1190,0
DA:1191,0
DA:1192,0
DA:1193,0
DA:1195,0
DA:1196,0
DA:1197,0
DA:1198,0
DA:1200,0
DA:1201,0
DA:1202,0
DA:1203,0
DA:1205,0
DA:1206,0
DA:1207,0
DA:1208,0
DA:1210,0
DA:1211,0
DA:1212,0
DA:1213,0
DA:1215,0
DA:1216,0
DA:1217,0
DA:1218,0
DA:1220,234
DA:1221,234
DA:1222,234
DA:1223,234
DA:1225,236
DA:1226,236
DA:1227,236
DA:1228,236
DA:1230,24
DA:1231,24
DA:1232,24
DA:1233,24
DA:1235,0
DA:1236,0
DA:1237,0
DA:1238,0
DA:1240,0
DA:1241,0
DA:1242,0
DA:1243,0
DA:1245,0
DA:1246,0
DA:1247,0
DA:1248,0
DA:1250,0
DA:1251,0
DA:1252,0
DA:1253,0
DA:1255,0
DA:1256,0
DA:1257,0
DA:1258,0
DA:1260,260
DA:1261,260
DA:1262,260
DA:1263,260
DA:1265,0
DA:1266,0
DA:1267,0
DA:1268,0
DA:1270,0
DA:1271,0
DA:1272,0
DA:1273,0
DA:1275,0
DA:1276,0
DA:1277,0
DA:1278,0
DA:1280,0
DA:1281,0
DA:1282,0
DA:1283,0
DA:1285,0
DA:1286,0
DA:1287,0
DA:1288,0
DA:1294,178193
DA:1295,178193
DA:1296,356386
DA:1299,261733
DA:1300,261733
DA:1308,3699440
DA:1309,3699440
DA:1310,2567850
DA:1315,20
DA:1316,20
DA:1317,0
DA:1319,20
DA:1320,0
DA:1323,40
DA:1324,40
DA:1325,0
DA:1330,20
DA:1336,20
DA:1337,20
DA:1338,20
DA:1339,58
DA:1340,38
DA:1341,38
DA:1342,38
DA:1343,56
DA:1346,38
DA:1347,18
DA:1348,18
DA:1349,18
DA:1350,18
DA:1352,0
DA:1353,0
DA:1355,0
DA:1357,0
DA:1359,0
DA:1360,0
DA:1361,0
DA:1362,0
DA:1363,0
DA:1364,0
DA:1365,0
DA:1366,0
DA:1367,0
DA:1369,0
DA:1372,0
DA:1373,0
DA:1374,0
DA:1379,0
DA:1380,58
DA:1387,20
DA:1389,20
DA:1390,20
DA:1396,20
DA:1397,20
DA:1398,20
DA:1399,40
DA:1400,20
DA:1401,20
DA:1402,20
DA:1403,58
DA:1406,4
DA:1407,2
DA:1409,2
DA:1410,2
DA:1411,2
DA:1412,0
DA:1415,2
DA:1416,2
DA:1418,2
DA:1419,2
DA:1420,2
DA:1421,2
DA:1422,2
DA:1423,2
DA:1424,2
DA:1425,0
DA:1429,2
DA:1430,2
DA:1432,0
DA:1433,0
DA:1435,0
DA:1439,0
DA:1444,0
DA:1445,0
DA:1449,0
DA:1450,0
DA:1451,0
DA:1456,0
DA:1459,0
DA:1460,0
DA:1464,2
DA:1468,20
DA:1470,0
DA:1471,0
DA:1473,0
DA:1479,54
DA:1480,54
DA:1482,54
DA:1485,54
DA:1487,54
DA:1488,0
DA:1489,0
DA:1491,54
DA:1492,54
DA:1501,362273
DA:1502,362273
DA:1504,362273
DA:1505,362273
DA:1507,181616
DA:1508,138537
DA:1512,115489
DA:1513,115489
DA:1514,115489
DA:1515,115489
DA:1516,115489
DA:1521,5488
DA:1522,3402
DA:1523,3402
DA:1528,76
DA:1530,76
DA:1531,76
DA:1532,76
DA:1535,201543
DA:1537,201543
DA:1538,0
DA:1540,201543
DA:1541,201543
DA:1543,0
DA:1544,0
DA:1549,362273
end_of_record
SF:/usr/include/c++/9/bits/move.h
DA:47,0
DA:74,41796100
DA:99,168053000
DA:138,323734000
DA:139,201723000
end_of_record
SF:/usr/include/c++/9/ext/new_allocator.h
DA:80,83406000
DA:83,150310000
DA:89,173398000
DA:119,91016700
DA:128,91016700
DA:132,0
DA:144,1708950
DA:147,1708950
DA:151,0
end_of_record
SF:/usr/include/c++/9/bits/stl_algobase.h
DA:198,0
DA:222,0
DA:227,0
DA:228,0
DA:280,0
DA:289,0
DA:290,0
DA:295,0
DA:375,0
DA:384,0
DA:385,0
DA:386,0
DA:387,0
DA:393,0
DA:398,0
DA:404,0
DA:438,0
DA:440,0
DA:465,0
DA:474,0
end_of_record
SF:/workspace/vtr-verilog-to-routing/libs/librtlnumber/src/include/internal_bits.hpp
FN:308,_ZN8BitSpaceL13bits_to_hex_cEsb
FNDA:0,_ZN8BitSpaceL13bits_to_hex_cEsb
FN:352,_ZN8BitSpaceL8c_to_bitEc
FNDA:7174180,_ZN8BitSpaceL8c_to_bitEc
FN:454,_ZN8BitSpace11VerilogBitsC2Emh
FNDA:34963200,_ZN8BitSpace11VerilogBitsC2Emh
FN:510,_ZN8BitSpace11VerilogBits12to_printableB5cxx11Ev
FNDA:0,_ZN8BitSpace11VerilogBits12to_printableB5cxx11Ev
FN:520,_ZN8BitSpace11VerilogBits4getcEv
FNDA:0,_ZN8BitSpace11VerilogBits4getcEv
FN:615,_ZN8BitSpace11VerilogBits6resizeEhm
FNDA:1767970,_ZN8BitSpace11VerilogBits6resizeEhm
FN:674,_ZN7VNumberaSEOS_
FNDA:178625,_ZN7VNumberaSEOS_
FN:706,_ZN7VNumberC2Ev
FNDA:13655000,_ZN7VNumberC2Ev
FN:716,_ZN7VNumberC2ERKS_
FNDA:3488120,_ZN7VNumberC2ERKS_
FN:722,_ZN7VNumberC2EPS_
FNDA:0,_ZN7VNumberC2EPS_
FN:734,_ZN7VNumberC2ERKNSt7__cxx1112basic_stringIcSt11char_traitsIcESaIcEEE
FNDA:628213,_ZN7VNumberC2ERKNSt7__cxx1112basic_stringIcSt11char_traitsIcESaIcEEE
FN:738,_ZN7VNumberC2El
FNDA:974,_ZN7VNumberC2El
FN:751,_ZN7VNumber9get_valueEv
FNDA:24051900,_ZN7VNumber9get_valueEv
FN:777,_ZN7VNumber9to_stringB5cxx11Ebb
FNDA:0,_ZN7VNumber9to_stringB5cxx11Ebb
FN:792,_ZN7VNumber10to_UstringB5cxx11Eb
FNDA:0,_ZN7VNumber10to_UstringB5cxx11Eb
FN:807,_ZN7VNumber12to_log2radixB5cxx11Esbb
FNDA:0,_ZN7VNumber12to_log2radixB5cxx11Esbb
FN:832,_ZN7VNumber9to_base10B5cxx11Ebb
FNDA:0,_ZN7VNumber9to_base10B5cxx11Ebb
FN:857,_ZN7VNumber20to_verilog_bitstringB5cxx11Ev
FNDA:24051900,_ZN7VNumber20to_verilog_bitstringB5cxx11Ev
FN:864,_ZN7VNumber10to_vstringB5cxx11Ec
FNDA:0,_ZN7VNumber10to_vstringB5cxx11Ec
FN:902,_ZN7VNumber9set_valueERKNSt7__cxx1112basic_stringIcSt11char_traitsIcESaIcEEE
FNDA:1767970,_ZN7VNumber9set_valueERKNSt7__cxx1112basic_stringIcSt11char_traitsIcESaIcEEE
FN:996,_ZN7VNumber9set_valueEl
FNDA:974,_ZN7VNumber9set_valueEl
FN:1007,_ZN7VNumber16get_bit_from_msbEm
FNDA:23761600,_ZN7VNumber16get_bit_from_msbEm
FN:1012,_ZN7VNumber16get_bit_from_lsbEm
FNDA:16338700,_ZN7VNumber16get_bit_from_lsbEm
DA:286,0
DA:287,0
DA:290,0
DA:291,0
DA:292,0
DA:293,0
DA:294,0
DA:295,0
DA:299,0
DA:300,0
DA:303,0
DA:304,0
DA:308,0
DA:309,0
DA:312,0
DA:313,0
DA:314,0
DA:315,0
DA:316,0
DA:317,0
DA:318,0
DA:319,0
DA:320,0
DA:321,0
DA:322,0
DA:323,0
DA:324,0
DA:325,0
DA:326,0
DA:327,0
DA:328,0
DA:329,0
DA:330,0
DA:331,0
DA:332,0
DA:333,0
DA:334,0
DA:335,0
DA:336,0
DA:337,0
DA:338,0
DA:339,0
DA:340,0
DA:341,0
DA:342,0
DA:343,0
DA:346,0
DA:349,0
DA:352,7174180
DA:353,7174180
DA:356,1149330
DA:357,1149330
DA:358,114
DA:359,114
DA:360,440052
DA:361,440052
DA:362,0
DA:363,0
DA:365,0
DA:367,0
DA:376,1637200000
DA:377,1637200000
DA:378,1637200000
DA:379,1637200000
DA:384,41796100
DA:385,31427300
DA:390,1583010000
DA:391,1583010000
DA:392,1537610000
DA:394,40100300
DA:398,59485200
DA:399,59485200
DA:401,59485200
DA:402,59485200
DA:404,59485200
DA:405,59485200
DA:406,59485200
DA:408,59485200
DA:409,59485200
DA:416,0
DA:418,0
DA:419,0
DA:425,0
DA:435,0
DA:440,1637200000
DA:441,1637200000
DA:454,34963200
DA:455,34963200
DA:456,34963200
DA:458,34963200
DA:460,76759300
DA:461,73223400
DA:463,34963200
DA:470,1681580000
DA:471,1681580000
DA:478,1637200000
DA:486,1637200000
DA:489,1583010000
DA:497,1583010000
DA:500,59485200
DA:507,59485200
DA:510,0
DA:511,0
DA:513,0
DA:514,0
DA:517,0
DA:520,0
DA:521,0
DA:522,0
DA:526,768819000
DA:527,768819000
DA:561,0
DA:562,0
DA:563,0
DA:615,1767970
DA:619,1767970
DA:620,0
DA:621,0
DA:623,0
DA:624,0
DA:625,0
DA:627,0
DA:628,0
DA:629,0
DA:635,0
DA:638,1767970
DA:640,1767970
DA:642,7068870
DA:643,5300900
DA:644,5300900
DA:647,50546000
DA:648,48778100
DA:649,48778100
DA:652,1767970
DA:674,3468840
DA:706,13655000
DA:707,13655000
DA:708,27310000
DA:709,13655000
DA:710,13655000
DA:716,3488120
DA:717,3488120
DA:718,3488120
DA:719,3488120
DA:720,3488120
DA:722,0
DA:723,0
DA:724,0
DA:725,0
DA:726,0
DA:734,628213
DA:735,628213
DA:736,628213
DA:738,974
DA:739,974
DA:740,974
DA:751,24051900
DA:752,24051900
DA:754,840975000
DA:757,24051900
DA:758,24051900
DA:759,192
DA:760,192
DA:763,24051900
DA:764,48103900
DA:766,792842000
DA:767,768790000
DA:768,768790000
DA:769,768790000
DA:771,768790000
DA:774,24051900
DA:777,0
DA:779,0
DA:780,0
DA:781,0
DA:782,0
DA:783,0
DA:785,0
DA:789,0
DA:792,0
DA:794,0
DA:795,0
DA:796,0
DA:797,0
DA:798,0
DA:800,0
DA:804,0
DA:807,0
DA:808,0
DA:811,0
DA:812,0
DA:813,0
DA:816,0
DA:818,0
DA:819,0
DA:820,0
DA:822,0
DA:829,0
DA:832,0
DA:833,0
DA:834,0
DA:835,0
DA:837,0
DA:839,0
DA:840,0
DA:841,0
DA:842,0
DA:843,0
DA:845,0
DA:847,0
DA:848,0
DA:850,0
DA:853,0
DA:857,24051900
DA:858,24051900
DA:859,24051900
DA:861,72121900
DA:864,0
DA:865,0
DA:866,0
DA:867,0
DA:868,0
DA:873,0
DA:874,0
DA:875,0
DA:876,0
DA:877,0
DA:878,0
DA:879,0
DA:880,0
DA:881,0
DA:882,0
DA:883,0
DA:884,0
DA:885,0
DA:886,0
DA:887,0
DA:888,0
DA:890,0
DA:891,0
DA:892,0
DA:894,0
DA:896,0
DA:902,1767970
DA:903,1767970
DA:904,0
DA:907,3535940
DA:912,1767970
DA:913,1767970
DA:914,1767970
DA:915,1767970
DA:918,1767970
DA:919,210
DA:922,210
DA:925,210
DA:926,210
DA:928,210
DA:929,210
DA:932,210
DA:933,210
DA:934,210
DA:936,1767760
DA:937,1767760
DA:938,1218540
DA:942,549223
DA:943,221762
DA:944,110881
DA:945,110881
DA:948,1767760
DA:949,1218730
DA:952,1767760
DA:953,1767760
DA:957,3
DA:958,3
DA:959,3
DA:960,1221030
DA:961,1221030
DA:962,1221030
DA:963,2848
DA:964,2848
DA:965,2848
DA:966,0
DA:967,0
DA:969,0
DA:973,1767760
DA:974,1767760
DA:979,5303910
DA:981,1767970
DA:982,1767970
DA:983,0
DA:987,3535940
DA:988,1767970
DA:989,7174180
DA:990,5406210
DA:993,3535940
DA:996,974
DA:997,974
DA:998,974
DA:1000,47523200
DA:1001,47523200
DA:1007,23761600
DA:1008,23761600
DA:1009,23761600
DA:1012,16338700
DA:1013,16338700
DA:1014,16338700
DA:1016,16338700
DA:1019,0
DA:1020,0
DA:1030,810070000
DA:1031,810070000
DA:1034,24051900
DA:1035,23761600
DA:1038,48103900
DA:1039,48103900
DA:1042,201543
DA:1043,201543
DA:1050,0
DA:1051,0
DA:1066,0
DA:1067,0
end_of_record
SF:/usr/include/c++/9/bits/stl_construct.h
DA:74,0
DA:75,0
DA:117,69668500
DA:127,69668500
DA:137,69668500
DA:203,0
DA:206,67900600
end_of_record
SF:/usr/include/c++/9/bits/std_abs.h
DA:56,107425
end_of_record
SF:/usr/include/c++/9/bits/stl_iterator_base_funcs.h
DA:98,47814500
DA:104,47814500
DA:138,47814500
DA:141,47814500
end_of_record
SF:/usr/include/c++/9/bits/stl_iterator.h
DA:806,41855100
DA:811,3535520
DA:815,3535520
DA:819,7616060
DA:827,6390960
DA:829,1939640
DA:830,5703430
DA:859,0
DA:860,0
DA:871,1767760
DA:893,1767760
DA:896,1767760
DA:907,7174180
DA:910,7174180
DA:989,3535520
DA:992,3535520
DA:1010,0
DA:1012,0
end_of_record
SF:/usr/include/c++/9/iostream
end_of_record
SF:/usr/include/c++/9/bits/locale_facets.h
FN:872,_ZNKSt5ctypeIcE5widenEc
FNDA:0,_ZNKSt5ctypeIcE5widenEc
FN:1084,_ZNKSt5ctypeIcE8do_widenEc
FNDA:0,_ZNKSt5ctypeIcE8do_widenEc
DA:872,0
DA:874,0
DA:875,0
DA:876,0
DA:877,0
DA:1084,0
DA:1085,0
end_of_record
SF:/usr/include/c++/9/ext/string_conversions.h
FN:99,_ZN9__gnu_cxx12__to_xstringINSt7__cxx1112basic_stringIcSt11char_traitsIcESaIcEEEcEET_PFiPT0_mPKS8_P13__va_list_tagEmSB_z
FNDA:24052900,_ZN9__gnu_cxx12__to_xstringINSt7__cxx1112basic_stringIcSt11char_traitsIcESaIcEEEcEET_PFiPT0_mPKS8_P13__va_list_tagEmSB_z
DA:99,24052900
DA:105,24052900
DA:109,24052900
DA:111,24052900
DA:113,24052900
DA:115,24052900
end_of_record
SF:/usr/include/x86_64-linux-gnu/bits/string_fortified.h
DA:31,6409980
DA:34,6409980
end_of_record
SF:/usr/include/c++/9/bits/alloc_traits.h
DA:469,91016700
DA:470,91016700
DA:482,0
DA:484,1708950
DA:495,0
DA:497,0
DA:505,0
DA:506,0
DA:514,3535940
DA:515,3535940
DA:545,50564800
DA:546,50564800
DA:553,50564800
DA:557,50564800
end_of_record
SF:/usr/include/c++/9/ostream
DA:108,0
DA:113,0
DA:565,0
DA:568,0
DA:570,0
DA:571,0
end_of_record
SF:/usr/include/c++/9/ext/type_traits.h
DA:152,47814500
end_of_record
SF:/usr/include/c++/9/bits/char_traits.h
DA:299,120005000
DA:300,34719
DA:329,1767780
DA:335,1767780
DA:361,71865600
DA:363,47779800
DA:365,71865600
end_of_record
SF:/usr/include/c++/9/ext/alloc_traits.h
DA:97,3535940
DA:98,3535940
end_of_record
SF:/usr/include/c++/9/cmath
DA:415,0
DA:418,0
end_of_record
SF:/usr/include/c++/9/new
DA:173,1708950
DA:174,1708950
end_of_record
SF:/usr/include/c++/9/bits/ptr_traits.h
DA:146,201723000
DA:147,201723000
end_of_record
TN:
SF:/usr/include/c++/9/ext/string_conversions.h
FN:99,_ZN9__gnu_cxx12__to_xstringINSt7__cxx1112basic_stringIcSt11char_traitsIcESaIcEEEcEET_PFiPT0_mPKS8_P13__va_list_tagEmSB_z
FNDA:6713970,_ZN9__gnu_cxx12__to_xstringINSt7__cxx1112basic_stringIcSt11char_traitsIcESaIcEEEcEET_PFiPT0_mPKS8_P13__va_list_tagEmSB_z
DA:99,6713970
DA:105,6713970
DA:109,6713970
DA:111,6713970
DA:113,6713970
DA:115,6713970
end_of_record
SF:/usr/include/c++/9/bits/locale_facets.h
FN:872,_ZNKSt5ctypeIcE5widenEc
FNDA:0,_ZNKSt5ctypeIcE5widenEc
FN:1084,_ZNKSt5ctypeIcE8do_widenEc
FNDA:0,_ZNKSt5ctypeIcE8do_widenEc
DA:872,0
DA:874,0
DA:875,0
DA:876,0
DA:877,0
DA:1084,0
DA:1085,0
end_of_record
SF:/usr/include/c++/9/bits/ptr_traits.h
DA:146,47528800
DA:147,47528800
end_of_record
SF:/usr/include/c++/9/bits/char_traits.h
DA:299,33557000
DA:300,6170130
DA:329,0
DA:335,0
DA:361,13959100
DA:363,1074880
DA:365,13959100
end_of_record
SF:/usr/include/c++/9/new
DA:173,0
DA:174,0
end_of_record
SF:/usr/include/c++/9/bits/alloc_traits.h
DA:469,7788670
DA:470,7788670
DA:482,0
DA:484,0
DA:495,0
DA:497,0
DA:505,0
DA:506,0
DA:545,0
DA:546,0
DA:553,0
DA:557,0
end_of_record
SF:/usr/include/c++/9/ostream
DA:108,0
DA:113,0
DA:565,0
DA:568,0
DA:570,0
DA:571,0
end_of_record
SF:/usr/include/c++/9/ext/type_traits.h
DA:152,7245020
end_of_record
SF:/usr/include/c++/9/bits/stl_iterator_base_funcs.h
DA:98,7245020
DA:104,7245020
DA:138,7245020
DA:141,7245020
end_of_record
SF:/usr/include/c++/9/iostream
end_of_record
SF:/workspace/vtr-verilog-to-routing/ODIN_II/SRC/adders.cpp
FN:68,_Z21init_add_distributionv
FNDA:1010,_Z21init_add_distributionv
FN:78,_Z23record_add_distributionP7nnode_t
FNDA:0,_Z23record_add_distributionP7nnode_t
FN:97,_Z23report_add_distributionv
FNDA:3241,_Z23report_add_distributionv
FN:124,_Z16find_hard_addersv
FNDA:3247,_Z16find_hard_addersv
FN:145,_Z18declare_hard_adderP7nnode_t
FNDA:355363,_Z18declare_hard_adderP7nnode_t
FN:180,_Z22instantiate_hard_adderP7nnode_tsP9netlist_t
FNDA:355363,_Z22instantiate_hard_adderP7nnode_tsP9netlist_t
FN:220,_Z25add_the_blackbox_for_addsP8_IO_FILE
FNDA:3241,_Z25add_the_blackbox_for_addsP8_IO_FILE
FN:305,_Z19define_add_functionP7nnode_tP8_IO_FILE
FNDA:459097,_Z19define_add_functionP7nnode_tP8_IO_FILE
FN:377,_Z16init_split_adderP7nnode_tS0_iiiiiiiiP9netlist_t
FNDA:355363,_Z16init_split_adderP7nnode_tS0_iiiiiiiiP9netlist_t
FN:616,_Z11split_adderP7nnode_tiiiiiiiP9netlist_t
FNDA:13685,_Z11split_adderP7nnode_tiiiiiiiP9netlist_t
FN:803,_Z14iterate_addersP9netlist_t
FNDA:1007,_Z14iterate_addersP9netlist_t
FN:866,_Z12clean_addersv
FNDA:1007,_Z12clean_addersv
FN:877,_Z17reduce_operationsP9netlist_t14operation_list
FNDA:3708,_Z17reduce_operationsP9netlist_t14operation_list
FN:909,_Z13traverse_list14operation_listPN3vtr13t_linked_vptrE
FNDA:0,_Z13traverse_list14operation_listPN3vtr13t_linked_vptrE
FN:919,_Z10match_nodePN3vtr13t_linked_vptrE14operation_list
FNDA:32841,_Z10match_nodePN3vtr13t_linked_vptrE14operation_list
FN:957,_Z11match_portsP7nnode_tS0_14operation_list
FNDA:4642580,_Z11match_portsP7nnode_tS0_14operation_list
FN:1024,_Z23traverse_operation_nodeP10ast_node_tPPc14operation_listPi
FNDA:8637250,_Z23traverse_operation_nodeP10ast_node_tPPc14operation_listPi
FN:1053,_Z11merge_nodesP7nnode_tS0_
FNDA:1840,_Z11merge_nodesP7nnode_tS0_
FN:1062,_Z16remove_list_nodePN3vtr13t_linked_vptrES1_
FNDA:0,_Z16remove_list_nodePN3vtr13t_linked_vptrES1_
FN:1073,_Z18remove_fanout_pinsP7nnode_t
FNDA:1840,_Z18remove_fanout_pinsP7nnode_t
FN:1093,_Z15reallocate_pinsP7nnode_tS0_
FNDA:1840,_Z15reallocate_pinsP7nnode_tS0_
FN:1117,_Z13free_op_nodesP7nnode_t
FNDA:1840,_Z13free_op_nodesP7nnode_t
FN:1129,_Z10match_pinsP7nnode_tS0_
FNDA:263703,_Z10match_pinsP7nnode_tS0_
FN:1153,_ZL26connect_output_pin_to_nodePiiiP7nnode_tS1_s
FNDA:497670,_ZL26connect_output_pin_to_nodePiiiP7nnode_tS1_s
FN:1173,_ZL10make_adder14operation_listP7nnode_tS1_PiiP9netlist_tS1_ss
FNDA:993141,_ZL10make_adder14operation_listP7nnode_tS1_PiiP9netlist_tS1_ss
FN:1248,_Z29instantiate_add_w_carry_blockPiP7nnode_tsP9netlist_ts
FNDA:22599,_Z29instantiate_add_w_carry_blockPiP7nnode_tsP9netlist_ts
FN:1269,_Z12is_ast_adderP10ast_node_t
FNDA:0,_Z12is_ast_adderP10ast_node_t
FN:1306,_ZL20cleanup_add_old_nodeP7nnode_tP9netlist_t
FNDA:13685,_ZL20cleanup_add_old_nodeP7nnode_tP9netlist_t
FN:1354,_Z19check_missing_portsP7nnode_tmP9netlist_t
FNDA:0,_Z19check_missing_portsP7nnode_tmP9netlist_t
DA:68,1010
DA:69,1010
DA:71,1010
DA:72,1010
DA:73,1010
DA:78,0
DA:79,0
DA:80,0
DA:81,0
DA:82,0
DA:97,3241
DA:98,3241
DA:101,1007
DA:102,1007
DA:103,1007
DA:104,1007
DA:106,1007
DA:107,1007
DA:109,1007
DA:110,1007
DA:112,1007
DA:113,1007
DA:115,1007
DA:116,1007
DA:118,1007
DA:124,3247
DA:125,3247
DA:128,3247
DA:130,5340
DA:131,3103
DA:132,1010
DA:133,1010
DA:135,2093
DA:145,355363
DA:146,355363
DA:147,355363
DA:150,355363
DA:151,0
DA:153,355363
DA:154,355363
DA:155,355363
DA:156,355363
DA:158,355363
DA:159,355063
DA:162,0
DA:166,300
DA:167,300
DA:168,300
DA:169,300
DA:170,300
DA:171,300
DA:172,300
DA:173,300
DA:174,300
DA:180,355363
DA:181,355363
DA:182,355363
DA:184,355363
DA:187,355363
DA:188,355363
DA:189,355363
DA:195,355363
DA:197,355363
DA:198,355363
DA:200,355363
DA:201,0
DA:204,1066090
DA:205,710726
DA:206,683312
DA:207,683312
DA:208,683312
DA:209,683312
DA:213,355363
DA:214,355363
DA:220,3241
DA:221,3241
DA:222,3241
DA:223,3241
DA:224,3241
DA:225,3241
DA:226,3241
DA:227,3241
DA:230,3241
DA:231,2896
DA:234,1007
DA:235,1007
DA:236,1007
DA:237,1007
DA:238,1007
DA:239,1007
DA:241,1007
DA:242,1007
DA:243,1007
DA:244,1007
DA:247,1007
DA:248,1007
DA:252,690
DA:257,345
DA:260,345
DA:261,345
DA:262,1380
DA:263,1035
DA:264,345
DA:265,690
DA:266,345
DA:268,345
DA:270,1035
DA:271,0
DA:273,1035
DA:275,345
DA:278,345
DA:279,345
DA:280,1035
DA:281,690
DA:282,345
DA:284,345
DA:287,690
DA:288,0
DA:289,0
DA:291,690
DA:293,345
DA:294,345
DA:295,345
DA:296,345
DA:298,345
DA:305,459097
DA:306,459097
DA:307,459097
DA:308,459097
DA:310,459097
DA:311,459097
DA:312,459097
DA:313,459097
DA:314,459097
DA:315,459097
DA:316,459097
DA:319,459097
DA:322,1836390
DA:323,1377290
DA:324,1377290
DA:326,1377290
DA:327,459097
DA:328,344031
DA:330,115066
DA:331,918194
DA:332,459097
DA:333,411558
DA:335,47539
DA:337,459097
DA:338,25419
DA:340,433678
DA:343,1377290
DA:344,878014
DA:347,1377290
DA:351,1377290
DA:352,918194
DA:353,459097
DA:355,459097
DA:356,918194
DA:357,874483
DA:360,918194
DA:363,459097
DA:364,459097
DA:377,355363
DA:378,355363
DA:379,355363
DA:380,355363
DA:381,355363
DA:386,355363
DA:389,355363
DA:390,355363
DA:391,355363
DA:392,355363
DA:393,355363
DA:396,355363
DA:399,355363
DA:400,355363
DA:402,355363
DA:404,14133
DA:408,0
DA:409,0
DA:410,0
DA:413,355363
DA:415,13685
DA:419,0
DA:420,0
DA:421,0
DA:424,0
DA:427,0
DA:428,0
DA:431,0
DA:435,355363
DA:436,355363
DA:437,355363
DA:438,355363
DA:439,355363
DA:440,355363
DA:441,355363
DA:442,355363
DA:445,355363
DA:446,0
DA:448,355363
DA:451,355363
DA:452,355363
DA:454,355363
DA:455,28266
DA:456,14133
DA:457,341230
DA:458,0
DA:459,0
DA:460,0
DA:461,0
DA:462,0
DA:463,0
DA:464,0
DA:466,0
DA:467,0
DA:470,0
DA:471,0
DA:472,0
DA:473,0
DA:475,0
DA:476,0
DA:479,341230
DA:480,13685
DA:481,13685
DA:482,13685
DA:483,0
DA:484,0
DA:485,0
DA:486,0
DA:490,0
DA:491,0
DA:492,0
DA:493,0
DA:497,327545
DA:498,655090
DA:500,327545
DA:501,327545
DA:502,327545
DA:505,0
DA:506,0
DA:508,0
DA:509,0
DA:510,0
DA:511,0
DA:512,0
DA:519,355363
DA:520,27370
DA:521,13685
DA:522,341678
DA:523,0
DA:524,0
DA:525,0
DA:526,0
DA:527,0
DA:528,0
DA:529,0
DA:531,0
DA:532,0
DA:535,0
DA:536,0
DA:537,0
DA:538,0
DA:540,0
DA:541,0
DA:544,341678
DA:545,13685
DA:546,13685
DA:547,13685
DA:548,0
DA:549,0
DA:550,0
DA:551,0
DA:555,0
DA:556,0
DA:557,0
DA:558,0
DA:562,327993
DA:563,655986
DA:564,327993
DA:565,327993
DA:566,327993
DA:569,0
DA:570,0
DA:572,0
DA:573,0
DA:574,0
DA:575,0
DA:576,0
DA:584,710726
DA:585,355363
DA:589,355363
DA:590,355363
DA:591,0
DA:593,355363
DA:595,355363
DA:596,355363
DA:597,1066090
DA:598,710726
DA:600,355363
DA:616,13685
DA:617,13685
DA:618,13685
DA:619,13685
DA:620,13685
DA:621,13685
DA:626,13685
DA:629,13685
DA:630,13685
DA:632,13685
DA:634,369048
DA:635,355363
DA:636,355363
DA:637,355363
DA:638,355363
DA:640,13685
DA:641,0
DA:643,13685
DA:647,13685
DA:648,13685
DA:651,13685
DA:653,13685
DA:654,13685
DA:657,0
DA:658,0
DA:662,341678
DA:665,355363
DA:668,13685
DA:670,13685
DA:671,13685
DA:673,0
DA:674,13685
DA:675,13685
DA:676,13685
DA:679,13685
DA:681,13685
DA:682,13685
DA:684,13685
DA:685,13685
DA:688,13685
DA:690,13679
DA:691,6
DA:693,6
DA:696,13685
DA:697,13685
DA:698,13685
DA:699,13685
DA:704,369048
DA:705,355363
DA:706,1066090
DA:707,710726
DA:708,448
DA:712,13685
DA:714,0
DA:718,355363
DA:719,341678
DA:722,13685
DA:723,0
DA:724,0
DA:725,0
DA:726,0
DA:728,0
DA:729,0
DA:732,0
DA:733,0
DA:736,0
DA:737,0
DA:738,0
DA:742,13685
DA:743,0
DA:745,341678
DA:746,655986
DA:747,327993
DA:750,13685
DA:751,27370
DA:753,13685
DA:754,13641
DA:756,44
DA:758,44
DA:762,13685
DA:764,13685
DA:766,0
DA:768,0
DA:769,0
DA:770,0
DA:772,0
DA:774,0
DA:779,13685
DA:780,0
DA:781,0
DA:782,0
DA:783,0
DA:788,13685
DA:790,13685
DA:791,13685
DA:803,1007
DA:804,1007
DA:805,1007
DA:806,1007
DA:807,1007
DA:808,1007
DA:812,1007
DA:815,1007
DA:818,1007
DA:819,1007
DA:820,1007
DA:822,1007
DA:824,14692
DA:825,13685
DA:826,13685
DA:827,13685
DA:828,13685
DA:829,6
DA:831,13685
DA:833,13685
DA:834,13685
DA:835,13685
DA:836,13685
DA:837,13685
DA:842,13685
DA:844,13685
DA:846,13685
DA:849,16
DA:850,13685
DA:851,13685
DA:855,0
DA:866,1007
DA:867,1007
DA:868,0
DA:869,1007
DA:877,3708
DA:878,3708
DA:879,3708
DA:880,3708
DA:881,1007
DA:882,1007
DA:883,1007
DA:884,1007
DA:886,1694
DA:887,1694
DA:888,1694
DA:889,1694
DA:891,1007
DA:892,1007
DA:893,1007
DA:894,1007
DA:901,7416
DA:902,3708
DA:909,3708
DA:910,36549
DA:911,32841
DA:912,32841
DA:914,0
DA:919,32841
DA:920,32841
DA:921,32841
DA:922,32841
DA:923,32841
DA:924,32841
DA:925,32841
DA:926,32841
DA:927,32841
DA:928,32841
DA:929,10036000
DA:930,10003200
DA:931,10003200
DA:932,10003200
DA:933,10003200
DA:934,10003200
DA:935,4642580
DA:936,4642580
DA:937,263703
DA:938,263703
DA:939,1840
DA:940,10266900
DA:945,263703
DA:946,1840
DA:948,10001400
DA:949,10001400
DA:952,32841
DA:957,4642580
DA:958,4642580
DA:959,4642580
DA:960,4642580
DA:961,4642580
DA:962,4642580
DA:963,4642580
DA:964,4642580
DA:965,4642580
DA:966,4642580
DA:968,4642580
DA:969,4642490
DA:970,4642490
DA:971,3994760
DA:972,3994760
DA:973,3671940
DA:974,3671940
DA:975,444946
DA:976,444946
DA:977,444946
DA:978,444946
DA:979,444946
DA:980,135129
DA:982,309817
DA:983,309817
DA:988,3226990
DA:989,3226990
DA:990,3226990
DA:991,2846020
DA:999,3671940
DA:1000,263703
DA:1004,13915200
DA:1005,9272740
DA:1006,4665800
DA:1009,13914900
DA:1010,9272360
DA:1011,4604780
DA:1016,4642580
DA:1024,8637250
DA:1025,8637250
DA:1027,8637250
DA:1030,8637250
DA:1031,24027600
DA:1032,16360900
DA:1033,16360900
DA:1034,970556
DA:1035,970556
DA:1037,15390300
DA:1038,8676360
DA:1039,6713970
DA:1040,6713970
DA:1041,6713970
DA:1042,6713970
DA:1043,6713970
DA:1053,1840
DA:1054,1840
DA:1055,1840
DA:1056,1840
DA:1057,1840
DA:1062,1840
DA:1063,1840
DA:1064,1738
DA:1066,102
DA:1067,1840
DA:1068,1840
DA:1073,1840
DA:1074,1840
DA:1075,68558
DA:1076,66718
DA:1077,319018000
DA:1078,319018000
DA:1081,2767090000
DA:1082,2767020000
DA:1083,2767020000
DA:1085,66718
DA:1086,66718
DA:1088,1840
DA:1093,1840
DA:1094,1840
DA:1095,1840
DA:1096,1840
DA:1097,1840
DA:1098,1840
DA:1099,40947
DA:1100,78214
DA:1101,39107
DA:1102,35696
DA:1103,35696
DA:1104,35696
DA:1105,35696
DA:1106,35696
DA:1108,3411
DA:1112,1840
DA:1117,1840
DA:1118,40947
DA:1119,39107
DA:1120,39107
DA:1123,1840
DA:1124,1840
DA:1129,263703
DA:1130,677559
DA:1131,1089580
DA:1132,675719
DA:1133,675719
DA:1134,9590570
DA:1135,17415900
DA:1136,8914860
DA:1142,675719
DA:1153,497670
DA:1155,497670
DA:1156,44058
DA:1158,453612
DA:1159,453612
DA:1160,453612
DA:1161,453612
DA:1163,0
DA:1164,0
DA:1168,497670
DA:1173,993141
DA:1175,993141
DA:1176,993141
DA:1178,993141
DA:1179,40800
DA:1180,20400
DA:1181,20400
DA:1182,20400
DA:1183,952341
DA:1184,4308
DA:1185,2199
DA:1186,2109
DA:1187,2109
DA:1189,948033
DA:1190,948033
DA:1191,948033
DA:1195,993141
DA:1196,495471
DA:1197,495471
DA:1202,497670
DA:1203,479422
DA:1204,479422
DA:1205,479422
DA:1206,26929
DA:1207,26929
DA:1208,452493
DA:1209,42
DA:1210,42
DA:1212,452451
DA:1215,18248
DA:1219,497670
DA:1221,490492
DA:1222,490492
DA:1223,490492
DA:1224,26893
DA:1225,26893
DA:1226,26893
DA:1227,463599
DA:1228,222
DA:1229,222
DA:1230,222
DA:1232,463377
DA:1233,39723
DA:1234,39723
DA:1235,39723
DA:1237,423654
DA:1241,7178
DA:1242,7178
DA:1245,993141
DA:1248,22599
DA:1249,22599
DA:1251,520269
DA:1253,497670
DA:1256,497670
DA:1257,497670
DA:1258,495471
DA:1260,497670
DA:1262,22599
DA:1269,0
DA:1270,0
DA:1271,0
DA:1272,0
DA:1273,0
DA:1275,0
DA:1276,0
DA:1278,0
DA:1279,0
DA:1281,0
DA:1288,0
DA:1306,13685
DA:1307,13685
DA:1309,669229
DA:1310,655544
DA:1314,355319
DA:1315,341634
DA:1317,341634
DA:1319,0
DA:1320,0
DA:1323,0
DA:1325,0
DA:1328,0
DA:1331,0
DA:1332,0
DA:1335,0
DA:1340,13685
DA:1341,13685
DA:1354,0
DA:1355,0
DA:1356,0
DA:1359,0
DA:1360,0
DA:1361,0
DA:1362,0
DA:1363,0
DA:1365,0
DA:1370,0
DA:1372,0
DA:1373,0
DA:1378,0
DA:1379,0
DA:1385,0
DA:1386,0
DA:1387,0
DA:1389,0
DA:1392,0
DA:1393,0
DA:1394,0
DA:1398,0
DA:1399,0
DA:1400,0
DA:1401,0
DA:1403,0
DA:1405,0
DA:1407,0
DA:1415,0
DA:1417,0
DA:1419,0
DA:1423,0
DA:1429,0
DA:1432,0
DA:1433,0
DA:1436,0
end_of_record
SF:/usr/include/c++/9/bits/stl_iterator.h
DA:806,0
DA:819,0
DA:827,0
DA:829,0
DA:859,0
DA:860,0
DA:871,0
DA:907,0
DA:910,0
DA:989,0
DA:992,0
DA:1010,0
DA:1012,0
end_of_record
SF:/usr/include/c++/9/bits/allocator.h
DA:138,7245020
DA:141,26855900
DA:142,26855900
DA:153,14502600
end_of_record
SF:/usr/include/c++/9/bits/stl_vector.h
FN:1753,_ZNKSt6vectorIN8BitSpace9BitFieldsItEESaIS2_EE12_M_check_lenEmPKc
FNDA:0,_ZNKSt6vectorIN8BitSpace9BitFieldsItEESaIS2_EE12_M_check_lenEmPKc
DA:94,0
DA:95,0
DA:106,0
DA:108,0
DA:109,0
DA:110,0
DA:114,0
DA:118,0
DA:119,0
DA:120,0
DA:121,0
DA:125,0
DA:128,0
DA:130,0
DA:133,0
DA:134,0
DA:273,0
DA:274,0
DA:277,0
DA:278,0
DA:281,0
DA:282,0
DA:285,0
DA:290,0
DA:291,0
DA:330,0
DA:332,0
DA:333,0
DA:334,0
DA:347,0
DA:350,0
DA:351,0
DA:453,0
DA:462,0
DA:466,0
DA:484,0
DA:494,0
DA:495,0
DA:675,0
DA:677,0
DA:678,0
DA:680,0
DA:706,0
DA:708,0
DA:711,0
DA:808,0
DA:809,0
DA:817,0
DA:818,0
DA:826,0
DA:827,0
DA:835,0
DA:836,0
DA:915,0
DA:916,0
DA:920,0
DA:921,0
DA:995,0
DA:997,0
DA:1040,133599000
DA:1043,133599000
DA:1200,0
DA:1201,0
DA:1505,0
DA:1508,0
DA:1511,0
DA:1512,0
DA:1753,0
DA:1755,0
DA:1756,0
DA:1758,0
DA:1759,0
DA:1773,0
DA:1780,0
DA:1781,0
DA:1812,0
DA:1814,0
DA:1815,0
DA:1816,0
DA:1817,0
end_of_record
SF:/usr/include/x86_64-linux-gnu/bits/stdio2.h
DA:64,6713970
DA:67,6713970
DA:98,5429760
DA:100,3675540
DA:105,12084
DA:107,1007
end_of_record
SF:/workspace/vtr-verilog-to-routing/libs/librtlnumber/src/include/internal_bits.hpp
FN:308,_ZN8BitSpaceL13bits_to_hex_cEsb
FNDA:0,_ZN8BitSpaceL13bits_to_hex_cEsb
FN:454,_ZN8BitSpace11VerilogBitsC2Emh
FNDA:0,_ZN8BitSpace11VerilogBitsC2Emh
FN:510,_ZN8BitSpace11VerilogBits12to_printableB5cxx11Ev
FNDA:0,_ZN8BitSpace11VerilogBits12to_printableB5cxx11Ev
FN:520,_ZN8BitSpace11VerilogBits4getcEv
FNDA:0,_ZN8BitSpace11VerilogBits4getcEv
FN:722,_ZN7VNumberC2EPS_
FNDA:0,_ZN7VNumberC2EPS_
FN:751,_ZN7VNumber9get_valueEv
FNDA:6713970,_ZN7VNumber9get_valueEv
FN:777,_ZN7VNumber9to_stringB5cxx11Ebb
FNDA:0,_ZN7VNumber9to_stringB5cxx11Ebb
FN:792,_ZN7VNumber10to_UstringB5cxx11Eb
FNDA:0,_ZN7VNumber10to_UstringB5cxx11Eb
FN:807,_ZN7VNumber12to_log2radixB5cxx11Esbb
FNDA:0,_ZN7VNumber12to_log2radixB5cxx11Esbb
FN:832,_ZN7VNumber9to_base10B5cxx11Ebb
FNDA:0,_ZN7VNumber9to_base10B5cxx11Ebb
FN:857,_ZN7VNumber20to_verilog_bitstringB5cxx11Ev
FNDA:6713970,_ZN7VNumber20to_verilog_bitstringB5cxx11Ev
FN:864,_ZN7VNumber10to_vstringB5cxx11Ec
FNDA:0,_ZN7VNumber10to_vstringB5cxx11Ec
FN:1007,_ZN7VNumber16get_bit_from_msbEm
FNDA:531051,_ZN7VNumber16get_bit_from_msbEm
FN:1012,_ZN7VNumber16get_bit_from_lsbEm
FNDA:0,_ZN7VNumber16get_bit_from_lsbEm
DA:286,0
DA:287,0
DA:290,0
DA:291,0
DA:292,0
DA:293,0
DA:294,0
DA:295,0
DA:299,0
DA:300,0
DA:303,0
DA:304,0
DA:308,0
DA:309,0
DA:312,0
DA:313,0
DA:314,0
DA:315,0
DA:316,0
DA:317,0
DA:318,0
DA:319,0
DA:320,0
DA:321,0
DA:322,0
DA:323,0
DA:324,0
DA:325,0
DA:326,0
DA:327,0
DA:328,0
DA:329,0
DA:330,0
DA:331,0
DA:332,0
DA:333,0
DA:334,0
DA:335,0
DA:336,0
DA:337,0
DA:338,0
DA:339,0
DA:340,0
DA:341,0
DA:342,0
DA:343,0
DA:346,0
DA:349,0
DA:376,133599000
DA:377,133599000
DA:378,133599000
DA:379,133599000
DA:384,0
DA:385,0
DA:390,133599000
DA:391,133599000
DA:392,133068000
DA:394,531051
DA:398,0
DA:399,0
DA:401,0
DA:402,0
DA:404,0
DA:405,0
DA:406,0
DA:408,0
DA:409,0
DA:416,0
DA:418,0
DA:419,0
DA:425,0
DA:435,0
DA:440,133599000
DA:441,133599000
DA:454,0
DA:455,0
DA:456,0
DA:458,0
DA:460,0
DA:461,0
DA:463,0
DA:470,154272000
DA:471,154272000
DA:478,133599000
DA:486,133599000
DA:489,133599000
DA:497,133599000
DA:500,0
DA:507,0
DA:510,0
DA:511,0
DA:513,0
DA:514,0
DA:517,0
DA:520,0
DA:521,0
DA:522,0
DA:526,66533900
DA:527,66533900
DA:561,0
DA:562,0
DA:563,0
DA:674,0
DA:722,0
DA:723,0
DA:724,0
DA:725,0
DA:726,0
DA:751,6713970
DA:752,6713970
DA:754,86675800
DA:757,6713970
DA:758,6713970
DA:759,0
DA:760,0
DA:763,6713970
DA:764,13427900
DA:766,73247900
DA:767,66533900
DA:768,66533900
DA:769,66533900
DA:771,66533900
DA:774,6713970
DA:777,0
DA:779,0
DA:780,0
DA:781,0
DA:782,0
DA:783,0
DA:785,0
DA:789,0
DA:792,0
DA:794,0
DA:795,0
DA:796,0
DA:797,0
DA:798,0
DA:800,0
DA:804,0
DA:807,0
DA:808,0
DA:811,0
DA:812,0
DA:813,0
DA:816,0
DA:818,0
DA:819,0
DA:820,0
DA:822,0
DA:829,0
DA:832,0
DA:833,0
DA:834,0
DA:835,0
DA:837,0
DA:839,0
DA:840,0
DA:841,0
DA:842,0
DA:843,0
DA:845,0
DA:847,0
DA:848,0
DA:850,0
DA:853,0
DA:857,6713970
DA:858,6713970
DA:859,6713970
DA:861,13971600
DA:864,0
DA:865,0
DA:866,0
DA:867,0
DA:868,0
DA:873,0
DA:874,0
DA:875,0
DA:876,0
DA:877,0
DA:878,0
DA:879,0
DA:880,0
DA:881,0
DA:882,0
DA:883,0
DA:884,0
DA:885,0
DA:886,0
DA:887,0
DA:888,0
DA:890,0
DA:891,0
DA:892,0
DA:894,0
DA:896,0
DA:1000,1062100
DA:1001,1062100
DA:1007,531051
DA:1008,531051
DA:1009,531051
DA:1012,0
DA:1013,0
DA:1014,0
DA:1016,0
DA:1019,0
DA:1020,0
DA:1030,73247900
DA:1031,73247900
DA:1034,6713970
DA:1035,531051
DA:1038,13427900
DA:1039,13427900
DA:1050,0
DA:1051,0
DA:1066,0
DA:1067,0
end_of_record
SF:/usr/include/c++/9/bits/stl_construct.h
DA:74,0
DA:75,0
DA:117,0
DA:127,0
DA:137,0
DA:203,0
DA:206,0
end_of_record
SF:/usr/include/c++/9/bits/move.h
DA:47,0
DA:74,0
DA:99,20141900
DA:138,81098600
DA:139,47528800
end_of_record
SF:/usr/include/c++/9/bits/stl_algobase.h
DA:198,0
DA:222,0
DA:227,0
DA:228,0
DA:280,0
DA:289,0
DA:290,0
DA:295,0
DA:375,0
DA:384,0
DA:385,0
DA:386,0
DA:387,0
DA:393,0
DA:398,0
DA:404,0
DA:438,0
DA:440,0
DA:465,0
DA:474,0
end_of_record
SF:/usr/include/c++/9/ext/new_allocator.h
DA:80,7245020
DA:83,26855900
DA:89,14502600
DA:119,7788670
DA:128,7788670
DA:132,0
DA:144,0
DA:147,0
DA:151,0
end_of_record
SF:/usr/include/c++/9/bits/stl_uninitialized.h
DA:76,0
DA:79,0
DA:82,0
DA:83,0
DA:115,0
DA:134,0
DA:140,0
DA:305,0
DA:307,0
DA:905,0
DA:912,0
DA:913,0
DA:949,0
DA:950,0
DA:964,0
end_of_record
SF:/usr/include/c++/9/bits/basic_string.tcc
FN:206,_ZNSt7__cxx1112basic_stringIcSt11char_traitsIcESaIcEE12_M_constructIPcEEvT_S7_St20forward_iterator_tag
FNDA:6713970,_ZNSt7__cxx1112basic_stringIcSt11char_traitsIcESaIcEE12_M_constructIPcEEvT_S7_St20forward_iterator_tag
FN:206,_ZNSt7__cxx1112basic_stringIcSt11char_traitsIcESaIcEE12_M_constructIPKcEEvT_S8_St20forward_iterator_tag
FNDA:531051,_ZNSt7__cxx1112basic_stringIcSt11char_traitsIcESaIcEE12_M_constructIPKcEEvT_S8_St20forward_iterator_tag
DA:206,6713970
DA:211,6713970
DA:212,0
DA:215,6713970
DA:217,6713970
DA:219,0
DA:220,0
DA:225,6713970
DA:232,6713970
DA:233,6713970
DA:206,531051
DA:211,531051
DA:212,0
DA:215,531051
DA:217,531051
DA:219,531051
DA:220,531051
DA:225,531051
DA:232,531051
DA:233,531051
end_of_record
SF:/usr/include/c++/9/bits/cpp_type_traits.h
DA:428,0
end_of_record
SF:/workspace/vtr-verilog-to-routing/libs/librtlnumber/src/include/rtl_utils.hpp
FN:47,_Z12_assert_WerrbPKciNSt7__cxx1112basic_stringIcSt11char_traitsIcESaIcEEE
FNDA:7245020,_Z12_assert_WerrbPKciNSt7__cxx1112basic_stringIcSt11char_traitsIcESaIcEEE
DA:47,7245020
DA:48,7245020
DA:49,0
DA:50,0
DA:51,0
DA:52,0
DA:54,7245020
end_of_record
SF:/usr/include/c++/9/bits/vector.tcc
FN:109,_ZNSt6vectorIN8BitSpace9BitFieldsItEESaIS2_EE12emplace_backIJS2_EEEvDpOT_
FNDA:0,_ZNSt6vectorIN8BitSpace9BitFieldsItEESaIS2_EE12emplace_backIJS2_EEEvDpOT_
FN:198,_ZNSt6vectorIN8BitSpace9BitFieldsItEESaIS2_EEaSERKS4_
FNDA:0,_ZNSt6vectorIN8BitSpace9BitFieldsItEESaIS2_EEaSERKS4_
FN:426,_ZNSt6vectorIN8BitSpace9BitFieldsItEESaIS2_EE17_M_realloc_insertIJS2_EEEvN9__gnu_cxx17__normal_iteratorIPS2_S4_EEDpOT_
FNDA:0,_ZNSt6vectorIN8BitSpace9BitFieldsItEESaIS2_EE17_M_realloc_insertIJS2_EEEvN9__gnu_cxx17__normal_iteratorIPS2_S4_EEDpOT_
DA:109,0
DA:112,0
DA:115,0
DA:117,0
DA:121,0
DA:125,0
DA:198,0
DA:201,0
DA:223,0
DA:224,0
DA:226,0
DA:228,0
DA:229,0
DA:230,0
DA:231,0
DA:232,0
DA:233,0
DA:234,0
DA:236,0
DA:238,0
DA:239,0
DA:243,0
DA:245,0
DA:246,0
DA:248,0
DA:250,0
DA:252,0
DA:426,0
DA:435,0
DA:437,0
DA:438,0
DA:439,0
DA:440,0
DA:441,0
DA:449,0
DA:450,0
DA:456,0
DA:461,0
DA:462,0
DA:464,0
DA:466,0
DA:467,0
DA:500,0
DA:501,0
DA:502,0
DA:503,0
DA:504,0
DA:505,0
end_of_record
SF:/usr/include/c++/9/bits/basic_string.h
FN:6085,_ZStplIcSt11char_traitsIcESaIcEENSt7__cxx1112basic_stringIT_T0_T1_EEOS8_RKS8_
FNDA:6713970,_ZStplIcSt11char_traitsIcESaIcEENSt7__cxx1112basic_stringIT_T0_T1_EEOS8_RKS8_
FN:6109,_ZStplIcSt11char_traitsIcESaIcEENSt7__cxx1112basic_stringIT_T0_T1_EEPKS5_OS8_
FNDA:6713970,_ZStplIcSt11char_traitsIcESaIcEENSt7__cxx1112basic_stringIT_T0_T1_EEPKS5_OS8_
FN:6121,_ZStplIcSt11char_traitsIcESaIcEENSt7__cxx1112basic_stringIT_T0_T1_EEOS8_PKS5_
FNDA:6713970,_ZStplIcSt11char_traitsIcESaIcEENSt7__cxx1112basic_stringIT_T0_T1_EEOS8_PKS5_
DA:150,34100900
DA:156,6713970
DA:157,6713970
DA:159,20141900
DA:160,20141900
DA:178,27930700
DA:179,531051
DA:182,27386900
DA:183,27386900
DA:186,110635000
DA:190,46997800
DA:193,46997800
DA:200,54242800
DA:203,54242800
DA:210,7788760
DA:211,531051
DA:214,27386900
DA:216,27386900
DA:217,27386900
DA:221,54242800
DA:222,54242800
DA:229,34100900
DA:231,20672900
DA:232,41889600
DA:236,7788670
DA:237,7788670
DA:243,6713970
DA:247,6713970
DA:263,6713970
DA:266,6713970
DA:286,27930600
DA:287,7788670
DA:346,7245020
DA:348,7245020
DA:349,6170130
DA:351,7245020
DA:392,6713970
DA:393,6713970
DA:396,531051
DA:398,531051
DA:540,0
DA:541,0
DA:542,0
DA:552,20141900
DA:553,20141900
DA:555,20141900
DA:557,12884200
DA:562,7257710
DA:563,7257710
DA:569,20141900
DA:570,20141900
DA:571,20141900
DA:625,6713970
DA:627,6713970
DA:628,6713970
DA:657,20672900
DA:658,14502600
DA:930,6713970
DA:936,20141900
DA:1221,6713970
DA:1222,6713970
DA:2312,0
DA:2313,0
DA:6085,6713970
DA:6087,6713970
DA:6109,6713970
DA:6111,6713970
DA:6121,6713970
DA:6123,6713970
DA:6416,0
DA:6421,0
DA:6546,0
DA:6547,0
DA:6548,0
DA:6562,6713970
DA:6563,6713970
DA:6565,6713970
end_of_record
TN:
SF:/usr/include/c++/9/bits/alloc_traits.h
DA:469,0
DA:470,0
DA:505,0
DA:506,0
DA:514,0
DA:515,0
end_of_record
SF:/usr/include/c++/9/ext/type_traits.h
DA:152,0
end_of_record
SF:/usr/include/c++/9/bits/ptr_traits.h
DA:146,0
DA:147,0
end_of_record
SF:/usr/include/c++/9/new
DA:173,0
DA:174,0
end_of_record
SF:/usr/include/c++/9/bits/char_traits.h
DA:299,0
DA:300,0
DA:361,0
DA:363,0
DA:365,0
end_of_record
SF:/usr/include/c++/9/ext/alloc_traits.h
DA:97,0
DA:98,0
end_of_record
SF:/usr/include/c++/9/bits/stl_iterator.h
DA:806,0
DA:807,0
DA:811,0
DA:815,0
DA:819,0
DA:827,0
DA:829,0
DA:830,0
DA:859,0
DA:860,0
DA:871,0
DA:907,0
DA:910,0
DA:989,0
DA:992,0
DA:1010,0
DA:1012,0
end_of_record
SF:/usr/include/c++/9/iostream
end_of_record
SF:/workspace/vtr-verilog-to-routing/ODIN_II/SRC/YYosys.cpp
FN:69,_ZN6YYosysC2Ev
FNDA:0,_ZN6YYosysC2Ev
FN:92,_ZN6YYosysD2Ev
FNDA:0,_ZN6YYosysD2Ev
FN:117,_ZN6YYosys19perform_elaborationEv
FNDA:0,_ZN6YYosys19perform_elaborationEv
FN:159,_ZN6YYosys22load_target_dsp_blocksEv
FNDA:0,_ZN6YYosys22load_target_dsp_blocksEv
FN:186,_ZN6YYosys10init_yosysEv
FNDA:0,_ZN6YYosys10init_yosysEv
FN:213,_ZN6YYosys21set_default_variablesEv
FNDA:0,_ZN6YYosys21set_default_variablesEv
FN:239,_ZN6YYosys7executeEv
FNDA:0,_ZN6YYosys7executeEv
FN:322,_ZN6YYosys9elaborateEv
FNDA:0,_ZN6YYosys9elaborateEv
FN:341,_ZN6YYosys11output_blifEv
FNDA:0,_ZN6YYosys11output_blifEv
FN:360,_ZN6YYosys26re_initialize_odin_globalsEv
FNDA:0,_ZN6YYosys26re_initialize_odin_globalsEv
DA:69,0
DA:72,0
DA:86,0
DA:92,0
DA:94,0
DA:108,0
DA:117,0
DA:119,0
DA:149,0
DA:159,0
DA:161,0
DA:178,0
DA:186,0
DA:188,0
DA:205,0
DA:213,0
DA:215,0
DA:216,0
DA:219,0
DA:222,0
DA:224,0
DA:226,0
DA:227,0
DA:229,0
DA:230,0
DA:231,0
DA:239,0
DA:241,0
DA:313,0
DA:322,0
DA:324,0
DA:327,0
DA:328,0
DA:330,0
DA:331,0
DA:332,0
DA:341,0
DA:343,0
DA:352,0
DA:360,0
DA:362,0
DA:365,0
DA:366,0
DA:368,0
DA:369,0
DA:371,0
DA:372,0
DA:374,0
DA:375,0
DA:376,0
end_of_record
SF:/usr/include/c++/9/bits/stl_iterator_base_funcs.h
DA:98,0
DA:104,0
DA:138,0
DA:141,0
DA:174,0
DA:180,0
DA:181,0
DA:182,0
DA:183,0
DA:185,0
DA:202,0
DA:205,0
DA:206,0
end_of_record
SF:/usr/include/c++/9/bits/stl_algobase.h
DA:198,0
DA:280,0
DA:290,0
DA:295,0
DA:337,0
DA:340,0
DA:342,0
DA:343,0
DA:344,0
DA:356,0
DA:359,0
DA:361,0
DA:362,0
DA:363,0
DA:393,0
DA:398,0
DA:404,0
DA:438,0
DA:440,0
DA:465,0
DA:474,0
DA:497,0
DA:505,0
end_of_record
SF:/usr/include/c++/9/ext/new_allocator.h
DA:80,0
DA:83,0
DA:89,0
DA:119,0
DA:128,0
DA:132,0
end_of_record
SF:/usr/include/c++/9/bits/move.h
DA:47,0
DA:99,0
DA:138,0
DA:139,0
end_of_record
SF:/usr/include/c++/9/bits/stl_construct.h
DA:74,0
DA:75,0
DA:97,0
DA:98,0
DA:105,0
DA:107,0
DA:108,0
DA:127,0
DA:137,0
DA:203,0
DA:206,0
end_of_record
SF:/usr/include/x86_64-linux-gnu/bits/stdio2.h
DA:105,0
DA:107,0
end_of_record
SF:/usr/include/c++/9/bits/allocator.h
DA:138,0
DA:141,0
DA:142,0
DA:153,0
end_of_record
SF:/usr/include/c++/9/bits/stl_vector.h
FN:675,_ZNSt6vectorINSt7__cxx1112basic_stringIcSt11char_traitsIcESaIcEEESaIS5_EED2Ev
FNDA:0,_ZNSt6vectorINSt7__cxx1112basic_stringIcSt11char_traitsIcESaIcEEESaIS5_EED2Ev
FN:1505,_ZNSt6vectorINSt7__cxx1112basic_stringIcSt11char_traitsIcESaIcEEESaIS5_EE20_M_allocate_and_copyIPKS5_EEPS5_mT_SC_
FNDA:0,_ZNSt6vectorINSt7__cxx1112basic_stringIcSt11char_traitsIcESaIcEEESaIS5_EE20_M_allocate_and_copyIPKS5_EEPS5_mT_SC_
FN:1505,_ZNSt6vectorINSt7__cxx1112basic_stringIcSt11char_traitsIcESaIcEEESaIS5_EE20_M_allocate_and_copyIN9__gnu_cxx17__normal_iteratorIPKS5_S7_EEEEPS5_mT_SF_
FNDA:0,_ZNSt6vectorINSt7__cxx1112basic_stringIcSt11char_traitsIcESaIcEEESaIS5_EE20_M_allocate_and_copyIN9__gnu_cxx17__normal_iteratorIPKS5_S7_EEEEPS5_mT_SF_
DA:94,0
DA:95,0
DA:125,0
DA:128,0
DA:130,0
DA:273,0
DA:274,0
DA:285,0
DA:330,0
DA:332,0
DA:333,0
DA:334,0
DA:347,0
DA:350,0
DA:351,0
DA:484,0
DA:675,0
DA:677,0
DA:678,0
DA:680,0
DA:727,0
DA:729,0
DA:808,0
DA:809,0
DA:817,0
DA:818,0
DA:826,0
DA:827,0
DA:835,0
DA:836,0
DA:881,0
DA:882,0
DA:915,0
DA:916,0
DA:995,0
DA:997,0
DA:1454,0
DA:1456,0
DA:1457,0
DA:1458,0
DA:1505,0
DA:1508,0
DA:1511,0
DA:1512,0
DA:1513,0
DA:1515,0
DA:1517,0
DA:1518,0
DA:1505,0
DA:1508,0
DA:1511,0
DA:1512,0
DA:1513,0
DA:1515,0
DA:1517,0
DA:1518,0
DA:1764,0
DA:1766,0
DA:1767,0
DA:1773,0
DA:1780,0
DA:1781,0
end_of_record
SF:/usr/include/c++/9/bits/basic_string.h
FN:6057,_ZStplIcSt11char_traitsIcESaIcEENSt7__cxx1112basic_stringIT_T0_T1_EERKS8_PKS5_
FNDA:0,_ZStplIcSt11char_traitsIcESaIcEENSt7__cxx1112basic_stringIT_T0_T1_EERKS8_PKS5_
FN:6121,_ZStplIcSt11char_traitsIcESaIcEENSt7__cxx1112basic_stringIT_T0_T1_EEOS8_PKS5_
FNDA:0,_ZStplIcSt11char_traitsIcESaIcEENSt7__cxx1112basic_stringIT_T0_T1_EEOS8_PKS5_
DA:150,0
DA:159,0
DA:160,0
DA:178,0
DA:179,0
DA:182,0
DA:183,0
DA:186,0
DA:190,0
DA:193,0
DA:200,0
DA:203,0
DA:210,0
DA:211,0
DA:214,0
DA:216,0
DA:217,0
DA:221,0
DA:222,0
DA:229,0
DA:231,0
DA:232,0
DA:236,0
DA:237,0
DA:243,0
DA:247,0
DA:263,0
DA:266,0
DA:286,0
DA:287,0
DA:290,0
DA:291,0
DA:346,0
DA:348,0
DA:349,0
DA:351,0
DA:392,0
DA:393,0
DA:431,0
DA:433,0
DA:434,0
DA:448,0
DA:450,0
DA:451,0
DA:552,0
DA:553,0
DA:555,0
DA:557,0
DA:562,0
DA:563,0
DA:569,0
DA:570,0
DA:571,0
DA:657,0
DA:658,0
DA:665,0
DA:696,0
DA:936,0
DA:1364,0
DA:1366,0
DA:2300,0
DA:2301,0
DA:6057,0
DA:6060,0
DA:6061,0
DA:6062,0
DA:6121,0
DA:6123,0
DA:6175,0
DA:6177,0
end_of_record
SF:/usr/include/c++/9/initializer_list
DA:71,0
DA:75,0
DA:79,0
end_of_record
SF:/usr/include/c++/9/bits/cpp_type_traits.h
DA:428,0
end_of_record
SF:/usr/include/c++/9/bits/vector.tcc
FN:184,_ZNSt6vectorINSt7__cxx1112basic_stringIcSt11char_traitsIcESaIcEEESaIS5_EE8_M_eraseEN9__gnu_cxx17__normal_iteratorIPS5_S7_EESB_
FNDA:0,_ZNSt6vectorINSt7__cxx1112basic_stringIcSt11char_traitsIcESaIcEEESaIS5_EE8_M_eraseEN9__gnu_cxx17__normal_iteratorIPS5_S7_EESB_
FN:198,_ZNSt6vectorINSt7__cxx1112basic_stringIcSt11char_traitsIcESaIcEEESaIS5_EEaSERKS7_
FNDA:0,_ZNSt6vectorINSt7__cxx1112basic_stringIcSt11char_traitsIcESaIcEEESaIS5_EEaSERKS7_
FN:300,_ZNSt6vectorINSt7__cxx1112basic_stringIcSt11char_traitsIcESaIcEEESaIS5_EE13_M_assign_auxIPKS5_EEvT_SB_St20forward_iterator_tag
FNDA:0,_ZNSt6vectorINSt7__cxx1112basic_stringIcSt11char_traitsIcESaIcEEESaIS5_EE13_M_assign_auxIPKS5_EEvT_SB_St20forward_iterator_tag
DA:184,0
DA:187,0
DA:189,0
DA:190,0
DA:191,0
DA:193,0
DA:198,0
DA:201,0
DA:223,0
DA:224,0
DA:226,0
DA:228,0
DA:229,0
DA:230,0
DA:231,0
DA:232,0
DA:233,0
DA:234,0
DA:236,0
DA:238,0
DA:239,0
DA:243,0
DA:245,0
DA:246,0
DA:248,0
DA:250,0
DA:252,0
DA:300,0
DA:304,0
DA:306,0
DA:308,0
DA:309,0
DA:310,0
DA:311,0
DA:313,0
DA:314,0
DA:315,0
DA:316,0
DA:317,0
DA:318,0
DA:320,0
DA:321,0
DA:324,0
DA:325,0
DA:326,0
DA:327,0
DA:329,0
DA:330,0
DA:332,0
DA:335,0
end_of_record
SF:/usr/include/c++/9/bits/stl_uninitialized.h
FN:76,_ZNSt20__uninitialized_copyILb0EE13__uninit_copyIPKNSt7__cxx1112basic_stringIcSt11char_traitsIcESaIcEEEPS7_EET0_T_SC_SB_
FNDA:0,_ZNSt20__uninitialized_copyILb0EE13__uninit_copyIPKNSt7__cxx1112basic_stringIcSt11char_traitsIcESaIcEEEPS7_EET0_T_SC_SB_
FN:76,_ZNSt20__uninitialized_copyILb0EE13__uninit_copyIN9__gnu_cxx17__normal_iteratorIPKNSt7__cxx1112basic_stringIcSt11char_traitsIcESaIcEEESt6vectorIS9_SaIS9_EEEEPS9_EET0_T_SI_SH_
FNDA:0,_ZNSt20__uninitialized_copyILb0EE13__uninit_copyIN9__gnu_cxx17__normal_iteratorIPKNSt7__cxx1112basic_stringIcSt11char_traitsIcESaIcEEESt6vectorIS9_SaIS9_EEEEPS9_EET0_T_SI_SH_
FN:76,_ZNSt20__uninitialized_copyILb0EE13__uninit_copyIPNSt7__cxx1112basic_stringIcSt11char_traitsIcESaIcEEES8_EET0_T_SA_S9_
FNDA:0,_ZNSt20__uninitialized_copyILb0EE13__uninit_copyIPNSt7__cxx1112basic_stringIcSt11char_traitsIcESaIcEEES8_EET0_T_SA_S9_
DA:76,0
DA:79,0
DA:82,0
DA:83,0
DA:84,0
DA:86,0
DA:88,0
DA:89,0
DA:76,0
DA:79,0
DA:82,0
DA:83,0
DA:84,0
DA:86,0
DA:88,0
DA:89,0
DA:76,0
DA:79,0
DA:82,0
DA:83,0
DA:84,0
DA:86,0
DA:88,0
DA:89,0
DA:115,0
DA:134,0
DA:140,0
DA:305,0
DA:307,0
end_of_record
SF:/usr/include/c++/9/bits/basic_string.tcc
FN:206,_ZNSt7__cxx1112basic_stringIcSt11char_traitsIcESaIcEE12_M_constructIPcEEvT_S7_St20forward_iterator_tag
FNDA:0,_ZNSt7__cxx1112basic_stringIcSt11char_traitsIcESaIcEE12_M_constructIPcEEvT_S7_St20forward_iterator_tag
DA:206,0
DA:211,0
DA:212,0
DA:215,0
DA:217,0
DA:219,0
DA:220,0
DA:225,0
DA:232,0
DA:233,0
end_of_record
SF:/workspace/vtr-verilog-to-routing/libs/EXTERNAL/libargparse/src/argparse_value.hpp
DA:50,0
DA:53,0
DA:56,0
DA:74,0
DA:75,0
DA:76,0
end_of_record
TN:
SF:/workspace/vtr-verilog-to-routing/ODIN_II/SRC/VerilogWriter.cpp
FN:38,_ZN7Verilog6WriterC2Ev
FNDA:0,_ZN7Verilog6WriterC2Ev
FN:43,_ZN7Verilog6WriterD0Ev
FNDA:0,_ZN7Verilog6WriterD0Ev
FN:43,_ZN7Verilog6WriterD2Ev
FNDA:0,_ZN7Verilog6WriterD2Ev
FN:48,_ZN7Verilog6Writer12_create_fileEPKc11file_type_e
FNDA:0,_ZN7Verilog6Writer12_create_fileEPKc11file_type_e
FN:59,_ZN7Verilog6Writer6_writeEPK9netlist_t
FNDA:0,_ZN7Verilog6Writer6_writeEPK9netlist_t
FN:89,_ZN7Verilog6Writer14create_verilogEPKc
FNDA:0,_ZN7Verilog6Writer14create_verilogEPKc
FN:116,_ZN7Verilog6Writer16declare_blackboxEPKc
FNDA:0,_ZN7Verilog6Writer16declare_blackboxEPKc
FN:162,_ZN7Verilog6Writer13declare_portsB5cxx11EP7t_model
FNDA:0,_ZN7Verilog6Writer13declare_portsB5cxx11EP7t_model
DA:38,0
DA:39,0
DA:40,0
DA:41,0
DA:43,0
DA:46,0
DA:43,0
DA:44,0
DA:45,0
DA:46,0
DA:48,0
DA:50,0
DA:52,0
DA:53,0
DA:56,0
DA:57,0
DA:59,0
DA:61,0
DA:66,0
DA:68,0
DA:69,0
DA:70,0
DA:71,0
DA:72,0
DA:74,0
DA:76,0
DA:89,0
DA:90,0
DA:93,0
DA:95,0
DA:96,0
DA:98,0
DA:116,0
DA:118,0
DA:120,0
DA:121,0
DA:122,0
DA:126,0
DA:130,0
DA:131,0
DA:134,0
DA:135,0
DA:136,0
DA:137,0
DA:138,0
DA:140,0
DA:141,0
DA:142,0
DA:143,0
DA:162,0
DA:164,0
DA:166,0
DA:167,0
DA:168,0
DA:169,0
DA:171,0
DA:174,0
DA:175,0
DA:178,0
DA:181,0
DA:182,0
DA:183,0
DA:184,0
DA:186,0
DA:189,0
DA:190,0
DA:193,0
DA:196,0
DA:197,0
DA:201,0
DA:202,0
DA:203,0
DA:204,0
DA:205,0
DA:206,0
DA:207,0
DA:209,0
DA:213,0
end_of_record
SF:/usr/include/c++/9/bits/locale_facets.h
FN:872,_ZNKSt5ctypeIcE5widenEc
FNDA:0,_ZNKSt5ctypeIcE5widenEc
FN:1084,_ZNKSt5ctypeIcE8do_widenEc
FNDA:0,_ZNKSt5ctypeIcE8do_widenEc
DA:872,0
DA:874,0
DA:875,0
DA:876,0
DA:877,0
DA:1084,0
DA:1085,0
end_of_record
SF:/usr/include/c++/9/ostream
DA:108,0
DA:113,0
DA:565,0
DA:568,0
DA:570,0
DA:571,0
end_of_record
SF:/usr/include/c++/9/ext/type_traits.h
DA:152,0
end_of_record
SF:/usr/include/c++/9/bits/alloc_traits.h
DA:469,0
DA:470,0
end_of_record
SF:/usr/include/c++/9/bits/ptr_traits.h
DA:146,0
DA:147,0
end_of_record
SF:/usr/include/c++/9/bits/char_traits.h
DA:299,0
DA:300,0
DA:329,0
DA:335,0
DA:361,0
DA:363,0
DA:365,0
end_of_record
SF:/usr/include/c++/9/bits/stl_iterator_base_funcs.h
DA:98,0
DA:104,0
DA:138,0
DA:141,0
end_of_record
SF:/usr/include/c++/9/iostream
end_of_record
SF:/usr/include/x86_64-linux-gnu/bits/stdio2.h
DA:98,0
DA:100,0
end_of_record
SF:/usr/include/c++/9/bits/allocator.h
DA:153,0
end_of_record
SF:/usr/include/c++/9/ext/new_allocator.h
DA:89,0
DA:119,0
DA:128,0
end_of_record
SF:/usr/include/c++/9/bits/move.h
DA:47,0
DA:138,0
DA:139,0
end_of_record
SF:/workspace/vtr-verilog-to-routing/ODIN_II/SRC/include/GenericWriter.hpp
FN:50,_ZN13GenericWriter5_readEv
FNDA:0,_ZN13GenericWriter5_readEv
DA:50,0
DA:51,0
DA:52,0
end_of_record
SF:/usr/include/c++/9/bits/basic_string.tcc
FN:206,_ZNSt7__cxx1112basic_stringIcSt11char_traitsIcESaIcEE12_M_constructIPKcEEvT_S8_St20forward_iterator_tag
FNDA:0,_ZNSt7__cxx1112basic_stringIcSt11char_traitsIcESaIcEE12_M_constructIPKcEEvT_S8_St20forward_iterator_tag
DA:206,0
DA:211,0
DA:212,0
DA:215,0
DA:217,0
DA:219,0
DA:220,0
DA:225,0
DA:232,0
DA:233,0
end_of_record
SF:/usr/include/c++/9/sstream
DA:831,0
DA:832,0
end_of_record
SF:/usr/include/c++/9/streambuf
end_of_record
SF:/usr/include/c++/9/bits/basic_string.h
DA:150,0
DA:178,0
DA:179,0
DA:182,0
DA:183,0
DA:186,0
DA:200,0
DA:203,0
DA:210,0
DA:211,0
DA:214,0
DA:216,0
DA:217,0
DA:221,0
DA:222,0
DA:229,0
DA:231,0
DA:232,0
DA:236,0
DA:237,0
DA:286,0
DA:287,0
DA:346,0
DA:348,0
DA:349,0
DA:351,0
DA:396,0
DA:398,0
DA:657,0
DA:658,0
DA:930,0
DA:1031,0
DA:1032,0
DA:1063,0
DA:1070,0
DA:2300,0
DA:2301,0
DA:2312,0
DA:2313,0
DA:2800,0
DA:2804,0
DA:6416,0
DA:6421,0
end_of_record
TN:
SF:/usr/include/x86_64-linux-gnu/bits/stdio2.h
DA:105,6494
DA:107,6494
end_of_record
SF:/workspace/vtr-verilog-to-routing/libs/EXTERNAL/libargparse/src/argparse_value.hpp
end_of_record
SF:/workspace/vtr-verilog-to-routing/ODIN_II/SRC/VerilogReader.cpp
FN:39,_ZN7Verilog6ReaderC2Ev
FNDA:3247,_ZN7Verilog6ReaderC2Ev
FN:44,_ZN7Verilog6Reader5_readEv
FNDA:3247,_ZN7Verilog6Reader5_readEv
DA:39,3247
DA:40,3247
DA:44,3247
DA:46,3247
DA:47,3247
DA:48,3247
DA:56,6494
DA:57,0
DA:63,3247
DA:64,3247
DA:66,3247
end_of_record
SF:/usr/include/c++/9/iostream
end_of_record
SF:/workspace/vtr-verilog-to-routing/ODIN_II/SRC/include/Verilog.hpp
FN:77,_ZN7Verilog6ReaderD0Ev
FNDA:3247,_ZN7Verilog6ReaderD0Ev
FN:77,_ZN7Verilog6ReaderD2Ev
FNDA:0,_ZN7Verilog6ReaderD2Ev
FN:93,_ZN7Verilog6Reader6_writeEPK9netlist_t
FNDA:0,_ZN7Verilog6Reader6_writeEPK9netlist_t
DA:77,3247
DA:77,0
DA:93,0
DA:94,0
DA:95,0
end_of_record
TN:
SF:/workspace/vtr-verilog-to-routing/ODIN_II/SRC/Shift.cpp
FN:46,_Z14constant_shiftP13signal_list_ti14operation_listiS1_P9netlist_t
FNDA:0,_Z14constant_shiftP13signal_list_ti14operation_listiS1_P9netlist_t
DA:46,0
DA:47,0
DA:50,0
DA:51,0
DA:54,0
DA:55,0
DA:59,0
DA:60,0
DA:62,0
DA:63,0
DA:65,0
DA:66,0
DA:71,0
DA:72,0
DA:74,0
DA:75,0
DA:77,0
DA:79,0
DA:80,0
DA:87,0
DA:89,0
DA:90,0
DA:91,0
DA:95,0
DA:97,0
DA:98,0
DA:99,0
DA:100,0
DA:102,0
DA:105,0
DA:106,0
DA:110,0
DA:111,0
DA:112,0
DA:116,0
DA:118,0
end_of_record
SF:/usr/include/c++/9/iostream
end_of_record
TN:
SF:/usr/include/c++/9/iostream
end_of_record
SF:/workspace/vtr-verilog-to-routing/ODIN_II/SRC/Multiplexer.cpp
FN:46,_Z27make_selector_as_first_portP7nnode_t
FNDA:0,_Z27make_selector_as_first_portP7nnode_t
FN:98,_Z17resolve_pmux_nodeP7nnode_tmP9netlist_t
FNDA:0,_Z17resolve_pmux_nodeP7nnode_tmP9netlist_t
FN:414,_Z33transform_to_single_bit_mux_nodesP7nnode_tmP9netlist_t
FNDA:0,_Z33transform_to_single_bit_mux_nodesP7nnode_tmP9netlist_t
DA:46,0
DA:47,0
DA:48,0
DA:50,0
DA:51,0
DA:53,0
DA:54,0
DA:55,0
DA:56,0
DA:57,0
DA:58,0
DA:61,0
DA:62,0
DA:63,0
DA:66,0
DA:67,0
DA:68,0
DA:69,0
DA:71,0
DA:72,0
DA:73,0
DA:74,0
DA:76,0
DA:80,0
DA:81,0
DA:83,0
DA:84,0
DA:85,0
DA:98,0
DA:99,0
DA:107,0
DA:108,0
DA:110,0
DA:111,0
DA:112,0
DA:114,0
DA:115,0
DA:117,0
DA:118,0
DA:121,0
DA:123,0
DA:124,0
DA:125,0
DA:128,0
DA:176,0
DA:177,0
DA:180,0
DA:185,0
DA:187,0
DA:190,0
DA:199,0
DA:200,0
DA:201,0
DA:202,0
DA:204,0
DA:206,0
DA:208,0
DA:211,0
DA:227,0
DA:228,0
DA:231,0
DA:232,0
DA:235,0
DA:237,0
DA:242,0
DA:243,0
DA:247,0
DA:252,0
DA:253,0
DA:254,0
DA:255,0
DA:257,0
DA:259,0
DA:261,0
DA:264,0
DA:279,0
DA:280,0
DA:281,0
DA:284,0
DA:285,0
DA:289,0
DA:291,0
DA:293,0
DA:295,0
DA:298,0
DA:300,0
DA:301,0
DA:305,0
DA:307,0
DA:311,0
DA:312,0
DA:313,0
DA:314,0
DA:316,0
DA:318,0
DA:320,0
DA:323,0
DA:326,0
DA:332,0
DA:334,0
DA:335,0
DA:339,0
DA:340,0
DA:341,0
DA:345,0
DA:346,0
DA:347,0
DA:348,0
DA:349,0
DA:351,0
DA:353,0
DA:355,0
DA:358,0
DA:361,0
DA:368,0
DA:370,0
DA:371,0
DA:373,0
DA:375,0
DA:377,0
DA:379,0
DA:380,0
DA:385,0
DA:386,0
DA:388,0
DA:389,0
DA:392,0
DA:393,0
DA:395,0
DA:396,0
DA:397,0
DA:398,0
DA:400,0
DA:401,0
DA:402,0
DA:414,0
DA:415,0
DA:419,0
DA:420,0
DA:423,0
DA:424,0
DA:425,0
DA:427,0
DA:434,0
DA:435,0
DA:437,0
DA:438,0
DA:444,0
DA:446,0
DA:447,0
DA:449,0
DA:454,0
DA:455,0
DA:460,0
DA:461,0
DA:470,0
DA:471,0
DA:472,0
DA:474,0
DA:475,0
DA:479,0
DA:480,0
DA:482,0
DA:486,0
DA:488,0
end_of_record
TN:
SF:/usr/include/c++/9/bits/cpp_type_traits.h
DA:428,108
end_of_record
SF:/usr/include/c++/9/bits/vector.tcc
FN:171,_ZNSt6vectorIP7nnode_tSaIS1_EE8_M_eraseEN9__gnu_cxx17__normal_iteratorIPS1_S3_EE
FNDA:552,_ZNSt6vectorIP7nnode_tSaIS1_EE8_M_eraseEN9__gnu_cxx17__normal_iteratorIPS1_S3_EE
DA:171,552
DA:174,552
DA:175,108
DA:176,552
DA:177,552
DA:179,552
end_of_record
SF:/workspace/vtr-verilog-to-routing/ODIN_II/SRC/MixingOptimization.cpp
FN:35,_ZN9MixingOpt12scale_countsEv
FNDA:248,_ZN9MixingOpt12scale_countsEv
FN:43,_ZN9MixingOpt14assign_weightsEP9netlist_tSt6vectorIP7nnode_tSaIS4_EE
FNDA:0,_ZN9MixingOpt14assign_weightsEP9netlist_tSt6vectorIP7nnode_tSaIS4_EE
FN:49,_ZN9MixingOpt7performEP9netlist_tRSt6vectorIP7nnode_tSaIS4_EE
FNDA:0,_ZN9MixingOpt7performEP9netlist_tRSt6vectorIP7nnode_tSaIS4_EE
FN:54,_ZN8MultsOptC2Ei
FNDA:0,_ZN8MultsOptC2Ei
FN:60,_ZN8MultsOptC2Ef
FNDA:310,_ZN8MultsOptC2Ef
FN:72,_ZN8MultsOpt10hardenableEP7nnode_t
FNDA:8081,_ZN8MultsOpt10hardenableEP7nnode_t
FN:77,_ZN8MultsOpt14assign_weightsEP9netlist_tSt6vectorIP7nnode_tSaIS4_EE
FNDA:248,_ZN8MultsOpt14assign_weightsEP9netlist_tSt6vectorIP7nnode_tSaIS4_EE
FN:84,_ZN8MultsOpt7performEP9netlist_tRSt6vectorIP7nnode_tSaIS4_EE
FNDA:248,_ZN8MultsOpt7performEP9netlist_tRSt6vectorIP7nnode_tSaIS4_EE
FN:122,_ZN9MixingOpt17set_blocks_neededEi
FNDA:0,_ZN9MixingOpt17set_blocks_neededEi
FN:126,_ZN8MultsOpt17set_blocks_neededEi
FNDA:248,_ZN8MultsOpt17set_blocks_neededEi
FN:142,_ZN9MixingOpt22instantiate_soft_logicEP9netlist_tSt6vectorIP7nnode_tSaIS4_EE
FNDA:0,_ZN9MixingOpt22instantiate_soft_logicEP9netlist_tSt6vectorIP7nnode_tSaIS4_EE
FN:147,_ZN9MixingOpt16partial_map_nodeEP7nnode_tsP9netlist_tP18HardSoftLogicMixer
FNDA:0,_ZN9MixingOpt16partial_map_nodeEP7nnode_tsP9netlist_tP18HardSoftLogicMixer
FN:152,_ZN8MultsOpt16partial_map_nodeEP7nnode_tsP9netlist_tP18HardSoftLogicMixer
FNDA:7473,_ZN8MultsOpt16partial_map_nodeEP7nnode_tsP9netlist_tP18HardSoftLogicMixer
FN:163,_ZN8MultsOpt22instantiate_soft_logicEP9netlist_tSt6vectorIP7nnode_tSaIS4_EE
FNDA:248,_ZN8MultsOpt22instantiate_soft_logicEP9netlist_tSt6vectorIP7nnode_tSaIS4_EE
DA:35,248
DA:36,248
DA:37,0
DA:38,0
DA:40,248
DA:41,248
DA:43,0
DA:45,0
DA:46,0
DA:49,0
DA:50,0
DA:51,0
DA:54,0
DA:55,0
DA:56,0
DA:57,0
DA:58,0
DA:60,310
DA:61,310
DA:62,310
DA:63,0
DA:64,0
DA:68,310
DA:69,310
DA:70,310
DA:72,8081
DA:73,8081
DA:74,8081
DA:77,248
DA:79,800
DA:80,552
DA:82,248
DA:84,248
DA:85,248
DA:88,494
DA:91,1200
DA:94,954
DA:95,312
DA:96,312
DA:102,246
DA:106,246
DA:108,246
DA:109,246
DA:115,800
DA:116,552
DA:117,246
DA:120,248
DA:122,0
DA:123,0
DA:124,0
DA:126,248
DA:128,248
DA:129,248
DA:130,248
DA:132,248
DA:133,248
DA:136,248
DA:137,248
DA:140,248
DA:141,248
DA:142,0
DA:143,0
DA:144,0
DA:147,0
DA:148,0
DA:149,0
DA:152,7473
DA:153,7473
DA:154,552
DA:155,6921
DA:156,6157
DA:157,764
DA:158,764
DA:160,7473
DA:161,7473
DA:163,248
DA:164,248
DA:165,554
DA:166,306
DA:168,554
DA:169,306
DA:170,306
DA:172,248
end_of_record
SF:/workspace/vtr-verilog-to-routing/ODIN_II/SRC/include/MixingOptimization.hpp
FN:61,_ZN9MixingOptD0Ev
FNDA:0,_ZN9MixingOptD0Ev
FN:61,_ZN9MixingOptD2Ev
FNDA:0,_ZN9MixingOptD2Ev
FN:75,_ZN9MixingOpt7enabledEv
FNDA:0,_ZN9MixingOpt7enabledEv
FN:118,_ZN9MixingOpt10hardenableEP7nnode_t
FNDA:0,_ZN9MixingOpt10hardenableEP7nnode_t
DA:52,310
DA:53,310
DA:54,310
DA:61,0
DA:61,0
DA:75,0
DA:76,0
DA:118,0
DA:119,0
end_of_record
SF:/usr/include/c++/9/bits/stl_vector.h
DA:808,552
DA:809,552
DA:826,660
DA:827,552
DA:881,552
DA:882,552
DA:915,1296
DA:916,1296
DA:1040,558
DA:1043,3228
DA:1427,552
DA:1428,552
end_of_record
SF:/usr/include/c++/9/bits/stl_algobase.h
DA:222,8081
DA:227,8081
DA:228,2351
DA:289,108
DA:290,108
DA:375,108
DA:384,108
DA:386,108
DA:387,108
DA:393,108
DA:398,108
DA:404,108
DA:438,108
DA:440,108
DA:497,108
DA:505,108
end_of_record
SF:/usr/include/c++/9/ext/new_allocator.h
DA:151,552
end_of_record
SF:/usr/include/c++/9/bits/stl_iterator.h
DA:806,108
DA:807,552
DA:811,552
DA:815,552
DA:859,1212
DA:860,108
DA:871,552
DA:907,552
DA:910,552
DA:989,552
DA:992,552
DA:1010,108
DA:1012,108
end_of_record
SF:/usr/include/c++/9/iostream
end_of_record
SF:/usr/include/c++/9/bits/alloc_traits.h
DA:495,552
DA:497,552
end_of_record
TN:
SF:/usr/include/c++/9/bits/alloc_traits.h
DA:469,816
DA:470,816
DA:482,72
DA:484,552
DA:505,960
DA:506,960
DA:514,496
DA:515,496
end_of_record
SF:/usr/include/c++/9/new
DA:173,552
DA:174,552
end_of_record
SF:/usr/include/c++/9/ext/alloc_traits.h
DA:97,496
DA:98,496
end_of_record
SF:/usr/include/c++/9/bits/stl_iterator.h
DA:806,1456
DA:871,768
DA:989,480
DA:992,480
DA:1010,496
DA:1012,496
end_of_record
SF:/usr/include/c++/9/iostream
end_of_record
SF:/usr/include/c++/9/bits/stl_algobase.h
DA:198,960
DA:222,480
DA:227,480
DA:228,192
DA:280,768
DA:295,496
DA:375,496
DA:384,496
DA:385,496
DA:386,336
DA:387,496
DA:393,496
DA:398,496
DA:404,496
DA:438,496
DA:440,992
DA:465,496
DA:474,496
end_of_record
SF:/usr/include/c++/9/ext/new_allocator.h
DA:80,446803
DA:83,496
DA:89,447795
DA:119,816
DA:128,816
DA:132,960
DA:144,552
DA:147,552
end_of_record
SF:/usr/include/c++/9/bits/move.h
DA:74,552
end_of_record
SF:/usr/include/c++/9/bits/stl_construct.h
DA:117,447299
DA:127,447299
DA:137,447299
DA:203,447299
DA:206,447299
end_of_record
SF:/workspace/vtr-verilog-to-routing/ODIN_II/SRC/HardSoftLogicMixer.cpp
FN:31,_ZN18HardSoftLogicMixerC2Ev
FNDA:6293,_ZN18HardSoftLogicMixerC2Ev
FN:41,_ZN18HardSoftLogicMixerD2Ev
FNDA:6293,_ZN18HardSoftLogicMixerD2Ev
FN:46,_ZN18HardSoftLogicMixer19note_candidate_nodeEP7nnode_t
FNDA:552,_ZN18HardSoftLogicMixer19note_candidate_nodeEP7nnode_t
FN:50,_ZN18HardSoftLogicMixer10hardenableEP7nnode_t
FNDA:7769,_ZN18HardSoftLogicMixer10hardenableEP7nnode_t
FN:54,_ZN18HardSoftLogicMixer7enabledEP7nnode_t
FNDA:7473,_ZN18HardSoftLogicMixer7enabledEP7nnode_t
FN:58,_ZN18HardSoftLogicMixer18hard_blocks_neededE14operation_list
FNDA:0,_ZN18HardSoftLogicMixer18hard_blocks_neededE14operation_list
FN:62,_ZN18HardSoftLogicMixer16partial_map_nodeEP7nnode_tsP9netlist_t
FNDA:7473,_ZN18HardSoftLogicMixer16partial_map_nodeEP7nnode_tsP9netlist_t
FN:66,_ZN18HardSoftLogicMixer21perform_optimizationsEP9netlist_t
FNDA:3241,_ZN18HardSoftLogicMixer21perform_optimizationsEP9netlist_t
DA:31,453096
DA:32,453096
DA:33,446803
DA:34,6293
DA:36,440510
DA:39,6293
DA:41,453096
DA:42,453096
DA:43,446803
DA:45,6293
DA:46,552
DA:47,552
DA:48,552
DA:50,7769
DA:51,7769
DA:54,7473
DA:55,7473
DA:58,248
DA:59,248
DA:62,7473
DA:63,7473
DA:64,7473
DA:66,3241
DA:67,3241
DA:68,248
DA:69,248
DA:70,248
DA:71,248
DA:72,496
DA:74,3241
end_of_record
SF:/usr/include/c++/9/bits/stl_vector.h
FN:550,_ZNSt6vectorIP7nnode_tSaIS1_EEC2ERKS3_
FNDA:496,_ZNSt6vectorIP7nnode_tSaIS1_EEC2ERKS3_
FN:1184,_ZNSt6vectorIP7nnode_tSaIS1_EE9push_backERKS1_
FNDA:552,_ZNSt6vectorIP7nnode_tSaIS1_EE9push_backERKS1_
FN:1753,_ZNKSt6vectorIP7nnode_tSaIS1_EE12_M_check_lenEmPKc
FNDA:480,_ZNKSt6vectorIP7nnode_tSaIS1_EE12_M_check_lenEmPKc
DA:94,447299
DA:95,447299
DA:125,447299
DA:128,446803
DA:130,446803
DA:133,496
DA:134,496
DA:273,480
DA:274,480
DA:277,1456
DA:278,1456
DA:285,446803
DA:300,496
DA:301,496
DA:302,496
DA:330,447299
DA:332,894598
DA:333,447299
DA:334,447299
DA:347,447779
DA:350,480
DA:351,448115
DA:356,496
DA:358,992
DA:359,496
DA:360,496
DA:450,960
DA:453,1440
DA:462,480
DA:466,768
DA:484,446803
DA:550,496
DA:552,496
DA:554,496
DA:555,992
DA:557,496
DA:558,496
DA:675,447299
DA:677,447299
DA:678,447299
DA:680,447827
DA:808,480
DA:809,480
DA:817,496
DA:818,496
DA:826,480
DA:827,480
DA:835,496
DA:836,496
DA:915,2184
DA:916,744
DA:920,960
DA:921,1440
DA:1184,552
DA:1186,552
DA:1189,72
DA:1191,72
DA:1195,480
DA:1196,552
DA:1753,480
DA:1755,480
DA:1756,0
DA:1758,480
DA:1759,480
DA:1773,960
DA:1780,960
DA:1781,960
end_of_record
SF:/workspace/vtr-verilog-to-routing/ODIN_II/SRC/include/MixingOptimization.hpp
FN:61,_ZN9MixingOptD0Ev
FNDA:440510,_ZN9MixingOptD0Ev
FN:61,_ZN9MixingOptD2Ev
FNDA:0,_ZN9MixingOptD2Ev
FN:75,_ZN9MixingOpt7enabledEv
FNDA:10714,_ZN9MixingOpt7enabledEv
FN:118,_ZN9MixingOpt10hardenableEP7nnode_t
FNDA:0,_ZN9MixingOpt10hardenableEP7nnode_t
DA:38,440510
DA:61,440510
DA:61,0
DA:75,10714
DA:76,10714
DA:118,0
DA:119,0
DA:160,6293
DA:161,6293
end_of_record
SF:/usr/include/c++/9/bits/allocator.h
DA:138,446803
DA:141,496
DA:142,496
DA:153,447795
end_of_record
SF:/usr/include/c++/9/bits/vector.tcc
FN:426,_ZNSt6vectorIP7nnode_tSaIS1_EE17_M_realloc_insertIJRKS1_EEEvN9__gnu_cxx17__normal_iteratorIPS1_S3_EEDpOT_
FNDA:480,_ZNSt6vectorIP7nnode_tSaIS1_EE17_M_realloc_insertIJRKS1_EEEvN9__gnu_cxx17__normal_iteratorIPS1_S3_EEDpOT_
DA:426,480
DA:435,480
DA:437,480
DA:438,480
DA:439,480
DA:440,480
DA:441,480
DA:449,480
DA:450,480
DA:456,480
DA:461,480
DA:462,480
DA:464,480
DA:466,480
DA:467,480
DA:500,960
DA:501,480
DA:502,480
DA:503,480
DA:504,480
DA:505,480
end_of_record
SF:/usr/include/c++/9/bits/cpp_type_traits.h
DA:428,496
end_of_record
SF:/usr/include/c++/9/bits/stl_uninitialized.h
DA:99,496
DA:101,496
DA:115,496
DA:134,496
DA:140,496
DA:305,496
DA:307,496
DA:924,960
DA:927,960
DA:928,480
DA:929,288
DA:930,480
DA:958,768
DA:964,768
end_of_record
TN:
SF:/usr/include/c++/9/iostream
end_of_record
SF:/workspace/vtr-verilog-to-routing/ODIN_II/SRC/GenericWriter.cpp
FN:36,_ZN13GenericWriterC2Ev
FNDA:15833,_ZN13GenericWriterC2Ev
FN:43,_ZN13GenericWriterD0Ev
FNDA:0,_ZN13GenericWriterD0Ev
FN:43,_ZN13GenericWriterD2Ev
FNDA:15833,_ZN13GenericWriterD2Ev
FN:52,_ZN13GenericWriter6_writeEPK9netlist_t
FNDA:3241,_ZN13GenericWriter6_writeEPK9netlist_t
FN:90,_ZN13GenericWriter12_create_fileEPKc11file_type_e
FNDA:3247,_ZN13GenericWriter12_create_fileEPKc11file_type_e
DA:36,15833
DA:37,15833
DA:38,15833
DA:39,15833
DA:40,15833
DA:41,15833
DA:43,0
DA:50,0
DA:43,15833
DA:44,15833
DA:45,3247
DA:46,15833
DA:47,3247
DA:48,15833
DA:49,0
DA:50,15833
DA:52,3241
DA:53,3241
DA:54,3241
DA:55,3241
DA:56,3241
DA:58,0
DA:59,0
DA:60,0
DA:73,0
DA:74,0
DA:75,0
DA:78,3241
DA:90,3247
DA:92,3247
DA:94,3247
DA:95,3247
DA:96,3247
DA:97,3247
DA:98,3247
DA:102,0
DA:103,0
DA:104,0
DA:105,0
DA:120,0
DA:121,0
DA:122,0
DA:125,3247
end_of_record
SF:/workspace/vtr-verilog-to-routing/ODIN_II/SRC/include/GenericWriter.hpp
FN:50,_ZN13GenericWriter5_readEv
FNDA:0,_ZN13GenericWriter5_readEv
DA:50,0
DA:51,0
DA:52,0
end_of_record
TN:
SF:/workspace/vtr-verilog-to-routing/ODIN_II/SRC/GenericReader.cpp
FN:36,_ZN13GenericReaderC2Ev
FNDA:18879,_ZN13GenericReaderC2Ev
FN:44,_ZN13GenericReader5_readEv
FNDA:6293,_ZN13GenericReader5_readEv
FN:76,_ZN13GenericReader12read_verilogEv
FNDA:3247,_ZN13GenericReader12read_verilogEv
FN:86,_ZN13GenericReader9read_blifEv
FNDA:3046,_ZN13GenericReader9read_blifEv
DA:36,18879
DA:37,18879
DA:38,18879
DA:39,18879
DA:40,18879
DA:44,6293
DA:45,6293
DA:47,6293
DA:48,3247
DA:49,3247
DA:50,3247
DA:52,3046
DA:53,3046
DA:54,3046
DA:67,0
DA:68,0
DA:69,0
DA:73,6293
DA:76,3247
DA:77,3247
DA:78,3247
DA:80,3247
DA:81,3247
DA:83,3247
DA:86,3046
DA:87,3046
DA:88,3046
DA:90,3046
DA:91,3046
DA:93,3046
end_of_record
SF:/usr/include/c++/9/iostream
end_of_record
SF:/workspace/vtr-verilog-to-routing/ODIN_II/SRC/include/GenericReader.hpp
FN:37,_ZN13GenericReaderD0Ev
FNDA:0,_ZN13GenericReaderD0Ev
FN:37,_ZN13GenericReaderD2Ev
FNDA:18879,_ZN13GenericReaderD2Ev
FN:60,_ZN13GenericReader6_writeEPK9netlist_t
FNDA:0,_ZN13GenericReader6_writeEPK9netlist_t
DA:37,0
DA:37,18879
DA:60,0
DA:61,0
DA:62,0
end_of_record
TN:
SF:/usr/include/c++/9/bits/move.h
DA:47,0
DA:74,0
DA:99,0
DA:138,0
DA:139,0
end_of_record
SF:/usr/include/c++/9/utility
DA:174,0
DA:175,0
DA:219,0
DA:220,0
end_of_record
SF:/usr/include/c++/9/ext/new_allocator.h
DA:80,0
DA:83,0
DA:89,0
DA:102,0
DA:104,0
DA:114,0
DA:119,0
DA:128,0
DA:132,0
DA:144,0
DA:147,0
end_of_record
SF:/usr/include/c++/9/bits/stl_function.h
DA:355,0
DA:356,0
end_of_record
SF:/usr/include/c++/9/bits/allocator.h
DA:138,0
DA:141,0
DA:142,0
DA:151,0
DA:153,0
end_of_record
SF:/usr/include/c++/9/bits/hashtable_policy.h
FN:2079,_ZNSt8__detail16_Hashtable_allocISaINS_10_Hash_nodeISt4pairIKNSt7__cxx1112basic_stringIcSt11char_traitsIcESaIcEEEP14block_memory_tELb1EEEEE16_M_allocate_nodeIJRPcRSB_EEEPSD_DpOT_
FNDA:0,_ZNSt8__detail16_Hashtable_allocISaINS_10_Hash_nodeISt4pairIKNSt7__cxx1112basic_stringIcSt11char_traitsIcESaIcEEEP14block_memory_tELb1EEEEE16_M_allocate_nodeIJRPcRSB_EEEPSD_DpOT_
FN:2079,_ZNSt8__detail16_Hashtable_allocISaINS_10_Hash_nodeISt4pairIKNSt7__cxx1112basic_stringIcSt11char_traitsIcESaIcEEEP14block_memory_tELb1EEEEE16_M_allocate_nodeIJRKSC_EEEPSD_DpOT_
FNDA:0,_ZNSt8__detail16_Hashtable_allocISaINS_10_Hash_nodeISt4pairIKNSt7__cxx1112basic_stringIcSt11char_traitsIcESaIcEEEP14block_memory_tELb1EEEEE16_M_allocate_nodeIJRKSC_EEEPSD_DpOT_
DA:92,0
DA:94,0
DA:218,0
DA:229,0
DA:236,0
DA:237,0
DA:240,0
DA:241,0
DA:244,0
DA:245,0
DA:248,0
DA:249,0
DA:264,0
DA:269,0
DA:294,0
DA:295,0
DA:298,0
DA:299,0
DA:304,0
DA:311,0
DA:340,0
DA:341,0
DA:344,0
DA:345,0
DA:352,0
DA:354,0
DA:355,0
DA:391,0
DA:393,0
DA:400,0
DA:401,0
DA:431,0
DA:433,0
DA:449,0
DA:450,0
DA:476,0
DA:477,0
DA:480,0
DA:481,0
DA:484,0
DA:485,0
DA:1093,12586
DA:1096,0
DA:1099,0
DA:1100,0
DA:1104,0
DA:1108,0
DA:1380,0
DA:1384,0
DA:1388,0
DA:1390,0
DA:1393,0
DA:1396,0
DA:1399,0
DA:1400,0
DA:1403,0
DA:1404,0
DA:1415,0
DA:1418,0
DA:1421,0
DA:1427,0
DA:1448,0
DA:1450,0
DA:1829,0
DA:1834,0
DA:1846,0
DA:2017,12586
DA:2036,0
DA:2041,0
DA:2042,0
DA:2046,0
DA:2047,0
DA:2050,0
DA:2051,0
DA:2079,0
DA:2081,0
DA:2082,0
DA:2085,0
DA:2086,0
DA:2089,0
DA:2091,0
DA:2093,0
DA:2094,0
DA:2079,0
DA:2081,0
DA:2082,0
DA:2085,0
DA:2086,0
DA:2089,0
DA:2091,0
DA:2093,0
DA:2094,0
DA:2118,12586
DA:2120,12586
DA:2122,0
DA:2123,0
DA:2124,0
DA:2142,0
DA:2146,0
DA:2147,0
DA:2148,0
DA:2149,0
end_of_record
SF:/usr/include/c++/9/bits/basic_string.h
FN:6149,_ZSteqIcEN9__gnu_cxx11__enable_ifIXsrSt9__is_charIT_E7__valueEbE6__typeERKNSt7__cxx1112basic_stringIS3_St11char_traitsIS3_ESaIS3_EEESE_
FNDA:0,_ZSteqIcEN9__gnu_cxx11__enable_ifIXsrSt9__is_charIT_E7__valueEbE6__typeERKNSt7__cxx1112basic_stringIS3_St11char_traitsIS3_ESaIS3_EEESE_
DA:150,0
DA:159,0
DA:160,0
DA:178,0
DA:179,0
DA:182,0
DA:183,0
DA:186,0
DA:190,0
DA:193,0
DA:200,0
DA:203,0
DA:210,0
DA:211,0
DA:214,0
DA:216,0
DA:217,0
DA:221,0
DA:222,0
DA:229,0
DA:231,0
DA:232,0
DA:236,0
DA:237,0
DA:243,0
DA:247,0
DA:263,0
DA:266,0
DA:286,0
DA:287,0
DA:290,0
DA:291,0
DA:346,0
DA:348,0
DA:349,0
DA:351,0
DA:392,0
DA:393,0
DA:396,0
DA:398,0
DA:448,0
DA:450,0
DA:451,0
DA:657,0
DA:658,0
DA:930,0
DA:936,0
DA:2312,0
DA:2313,0
DA:6149,0
DA:6151,0
DA:6152,0
DA:6153,0
DA:6734,0
DA:6735,0
end_of_record
SF:/usr/include/c++/9/bits/basic_string.tcc
FN:206,_ZNSt7__cxx1112basic_stringIcSt11char_traitsIcESaIcEE12_M_constructIPcEEvT_S7_St20forward_iterator_tag
FNDA:0,_ZNSt7__cxx1112basic_stringIcSt11char_traitsIcESaIcEE12_M_constructIPcEEvT_S7_St20forward_iterator_tag
FN:206,_ZNSt7__cxx1112basic_stringIcSt11char_traitsIcESaIcEE12_M_constructIPKcEEvT_S8_St20forward_iterator_tag
FNDA:0,_ZNSt7__cxx1112basic_stringIcSt11char_traitsIcESaIcEE12_M_constructIPKcEEvT_S8_St20forward_iterator_tag
DA:206,0
DA:211,0
DA:212,0
DA:215,0
DA:217,0
DA:219,0
DA:220,0
DA:225,0
DA:232,0
DA:233,0
DA:206,0
DA:211,0
DA:212,0
DA:215,0
DA:217,0
DA:219,0
DA:220,0
DA:225,0
DA:232,0
DA:233,0
end_of_record
SF:/usr/include/c++/9/ext/aligned_buffer.h
DA:102,0
DA:104,0
DA:108,0
DA:110,0
DA:114,0
DA:115,0
DA:118,0
DA:119,0
end_of_record
SF:/usr/include/c++/9/ext/type_traits.h
DA:152,0
end_of_record
SF:/usr/include/c++/9/bits/alloc_traits.h
DA:443,0
DA:444,0
DA:469,0
DA:470,0
DA:482,0
DA:484,0
DA:514,0
DA:515,0
DA:545,0
DA:546,0
DA:553,0
DA:557,0
end_of_record
SF:/usr/include/c++/9/ext/alloc_traits.h
DA:97,0
DA:98,0
end_of_record
SF:/usr/include/c++/9/bits/char_traits.h
DA:299,0
DA:300,0
DA:315,0
DA:317,0
DA:325,0
DA:361,0
DA:363,0
DA:365,0
end_of_record
SF:/usr/include/c++/9/new
DA:173,0
DA:174,0
end_of_record
SF:/usr/include/c++/9/bits/unordered_map.h
DA:102,0
DA:141,0
DA:181,0
DA:304,0
DA:305,0
DA:324,0
DA:325,0
DA:346,0
DA:347,0
DA:387,0
DA:388,0
DA:842,0
DA:843,0
DA:920,0
DA:921,0
end_of_record
SF:/usr/include/c++/9/bits/ptr_traits.h
DA:146,0
DA:147,0
DA:156,0
end_of_record
SF:/workspace/vtr-verilog-to-routing/ODIN_II/SRC/BlockMemories.cpp
FN:90,_Z23init_block_memory_indexv
FNDA:0,_Z23init_block_memory_indexv
FN:103,_Z19lookup_block_memoryPcS_
FNDA:0,_Z19lookup_block_memoryPcS_
FN:223,_ZL21init_read_only_memoryP7nnode_tP9netlist_t
FNDA:0,_ZL21init_read_only_memoryP7nnode_tP9netlist_t
FN:307,_ZL24create_r_single_port_ramP14block_memory_tP9netlist_t
FNDA:0,_ZL24create_r_single_port_ramP14block_memory_tP9netlist_t
FN:357,_ZL23create_2r_dual_port_ramP14block_memory_tP9netlist_t
FNDA:0,_ZL23create_2r_dual_port_ramP14block_memory_tP9netlist_t
FN:441,_ZL25create_nr_single_port_ramP14block_memory_tP9netlist_t
FNDA:0,_ZL25create_nr_single_port_ramP14block_memory_tP9netlist_t
FN:580,_ZL23create_rw_dual_port_ramP14block_memory_tP9netlist_t
FNDA:0,_ZL23create_rw_dual_port_ramP14block_memory_tP9netlist_t
FN:661,_ZL24create_r2w_dual_port_ramP14block_memory_tP9netlist_t
FNDA:0,_ZL24create_r2w_dual_port_ramP14block_memory_tP9netlist_t
FN:799,_ZL24create_2rw_dual_port_ramP14block_memory_tP9netlist_t
FNDA:0,_ZL24create_2rw_dual_port_ramP14block_memory_tP9netlist_t
FN:927,_ZL25create_2r2w_dual_port_ramP14block_memory_tP9netlist_t
FNDA:0,_ZL25create_2r2w_dual_port_ramP14block_memory_tP9netlist_t
FN:1072,_ZL25create_nrmw_dual_port_ramP14block_memory_tP9netlist_t
FNDA:0,_ZL25create_nrmw_dual_port_ramP14block_memory_tP9netlist_t
FN:1173,_Z25map_rom_to_mem_hardblocksP14block_memory_tP9netlist_t
FNDA:0,_Z25map_rom_to_mem_hardblocksP14block_memory_tP9netlist_t
FN:1220,_Z26map_bram_to_mem_hardblocksP14block_memory_tP9netlist_t
FNDA:0,_Z26map_bram_to_mem_hardblocksP14block_memory_tP9netlist_t
FN:1282,_Z17resolve_bram_nodeP7nnode_tmP9netlist_t
FNDA:0,_Z17resolve_bram_nodeP7nnode_tmP9netlist_t
FN:1309,_Z16resolve_rom_nodeP7nnode_tmP9netlist_t
FNDA:0,_Z16resolve_rom_nodeP7nnode_tmP9netlist_t
FN:1334,_Z17resolve_ymem_nodeP7nnode_tmP9netlist_t
FNDA:0,_Z17resolve_ymem_nodeP7nnode_tmP9netlist_t
FN:1362,_Z22iterate_block_memoriesP9netlist_t
FNDA:0,_Z22iterate_block_memoriesP9netlist_t
FN:1417,_ZL11ymem_to_romP7nnode_tm
FNDA:0,_ZL11ymem_to_romP7nnode_tm
FN:1508,_ZL12ymem_to_bramP7nnode_tm
FNDA:0,_ZL12ymem_to_bramP7nnode_tm
FN:1648,_ZL20perform_optimizationP14block_memory_t
FNDA:0,_ZL20perform_optimizationP14block_memory_t
FN:1909,_ZL29cleanup_block_memory_old_nodeP7nnode_t
FNDA:0,_ZL29cleanup_block_memory_old_nodeP7nnode_t
FN:1934,_Z19free_block_memoriesv
FNDA:0,_Z19free_block_memoriesv
FN:1958,_ZL23free_block_memory_indexSt13unordered_mapINSt7__cxx1112basic_stringIcSt11char_traitsIcESaIcEEEP14block_memory_tSt4hashIS5_ESt8equal_toIS5_ESaISt4pairIKS5_S7_EEE
FNDA:0,_ZL23free_block_memory_indexSt13unordered_mapINSt7__cxx1112basic_stringIcSt11char_traitsIcESaIcEEEP14block_memory_tSt4hashIS5_ESt8equal_toIS5_ESaISt4pairIKS5_S7_EEE
FN:1976,_ZL17free_block_memoryP14block_memory_t
FNDA:0,_ZL17free_block_memoryP14block_memory_t
DA:90,0
DA:91,0
DA:92,0
DA:93,0
DA:103,0
DA:104,0
DA:106,0
DA:108,0
DA:110,0
DA:113,0
DA:223,0
DA:224,0
DA:225,0
DA:236,0
DA:237,0
DA:238,0
DA:239,0
DA:240,0
DA:242,0
DA:246,0
DA:247,0
DA:248,0
DA:251,0
DA:252,0
DA:253,0
DA:254,0
DA:258,0
DA:259,0
DA:260,0
DA:261,0
DA:265,0
DA:266,0
DA:267,0
DA:268,0
DA:273,0
DA:274,0
DA:275,0
DA:279,0
DA:280,0
DA:283,0
DA:286,0
DA:288,0
DA:291,0
DA:292,0
DA:294,0
DA:307,0
DA:308,0
DA:309,0
DA:310,0
DA:313,0
DA:314,0
DA:317,0
DA:321,0
DA:324,0
DA:330,0
DA:333,0
DA:334,0
DA:338,0
DA:340,0
DA:343,0
DA:344,0
DA:345,0
DA:357,0
DA:358,0
DA:360,0
DA:361,0
DA:362,0
DA:363,0
DA:364,0
DA:367,0
DA:368,0
DA:369,0
DA:370,0
DA:373,0
DA:376,0
DA:377,0
DA:378,0
DA:382,0
DA:383,0
DA:384,0
DA:388,0
DA:389,0
DA:392,0
DA:395,0
DA:396,0
DA:397,0
DA:401,0
DA:402,0
DA:403,0
DA:404,0
DA:408,0
DA:409,0
DA:412,0
DA:413,0
DA:414,0
DA:418,0
DA:419,0
DA:420,0
DA:421,0
DA:425,0
DA:428,0
DA:429,0
DA:430,0
DA:441,0
DA:442,0
DA:443,0
DA:444,0
DA:445,0
DA:446,0
DA:449,0
DA:450,0
DA:453,0
DA:454,0
DA:457,0
DA:459,0
DA:466,0
DA:471,0
DA:474,0
DA:478,0
DA:481,0
DA:483,0
DA:484,0
DA:485,0
DA:489,0
DA:492,0
DA:493,0
DA:495,0
DA:496,0
DA:497,0
DA:580,0
DA:581,0
DA:582,0
DA:583,0
DA:584,0
DA:587,0
DA:588,0
DA:591,0
DA:594,0
DA:595,0
DA:598,0
DA:601,0
DA:604,0
DA:605,0
DA:606,0
DA:608,0
DA:610,0
DA:612,0
DA:614,0
DA:617,0
DA:621,0
DA:624,0
DA:625,0
DA:626,0
DA:628,0
DA:629,0
DA:630,0
DA:631,0
DA:633,0
DA:635,0
DA:638,0
DA:640,0
DA:642,0
DA:645,0
DA:646,0
DA:647,0
DA:648,0
DA:649,0
DA:661,0
DA:662,0
DA:664,0
DA:665,0
DA:666,0
DA:667,0
DA:668,0
DA:671,0
DA:672,0
DA:675,0
DA:678,0
DA:679,0
DA:680,0
DA:684,0
DA:685,0
DA:686,0
DA:687,0
DA:688,0
DA:689,0
DA:692,0
DA:693,0
DA:694,0
DA:696,0
DA:697,0
DA:698,0
DA:699,0
DA:700,0
DA:701,0
DA:709,0
DA:710,0
DA:712,0
DA:713,0
DA:714,0
DA:715,0
DA:717,0
DA:718,0
DA:719,0
DA:720,0
DA:723,0
DA:724,0
DA:732,0
DA:735,0
DA:737,0
DA:740,0
DA:743,0
DA:744,0
DA:745,0
DA:750,0
DA:753,0
DA:756,0
DA:759,0
DA:760,0
DA:762,0
DA:763,0
DA:764,0
DA:766,0
DA:768,0
DA:771,0
DA:775,0
DA:779,0
DA:780,0
DA:782,0
DA:784,0
DA:786,0
DA:787,0
DA:799,0
DA:800,0
DA:802,0
DA:803,0
DA:804,0
DA:805,0
DA:806,0
DA:809,0
DA:810,0
DA:813,0
DA:816,0
DA:817,0
DA:818,0
DA:825,0
DA:826,0
DA:827,0
DA:830,0
DA:832,0
DA:835,0
DA:836,0
DA:837,0
DA:838,0
DA:839,0
DA:840,0
DA:843,0
DA:844,0
DA:845,0
DA:846,0
DA:847,0
DA:848,0
DA:852,0
DA:853,0
DA:861,0
DA:862,0
DA:864,0
DA:865,0
DA:866,0
DA:867,0
DA:869,0
DA:870,0
DA:871,0
DA:872,0
DA:875,0
DA:876,0
DA:881,0
DA:884,0
DA:888,0
DA:891,0
DA:894,0
DA:895,0
DA:896,0
DA:900,0
DA:903,0
DA:907,0
DA:908,0
DA:910,0
DA:912,0
DA:914,0
DA:915,0
DA:927,0
DA:928,0
DA:930,0
DA:931,0
DA:932,0
DA:933,0
DA:934,0
DA:937,0
DA:938,0
DA:939,0
DA:940,0
DA:943,0
DA:944,0
DA:945,0
DA:946,0
DA:947,0
DA:948,0
DA:951,0
DA:952,0
DA:953,0
DA:955,0
DA:956,0
DA:957,0
DA:958,0
DA:959,0
DA:960,0
DA:964,0
DA:965,0
DA:966,0
DA:967,0
DA:968,0
DA:969,0
DA:972,0
DA:973,0
DA:974,0
DA:975,0
DA:976,0
DA:977,0
DA:981,0
DA:982,0
DA:990,0
DA:991,0
DA:992,0
DA:993,0
DA:994,0
DA:997,0
DA:999,0
DA:1000,0
DA:1001,0
DA:1002,0
DA:1003,0
DA:1004,0
DA:1005,0
DA:1006,0
DA:1009,0
DA:1010,0
DA:1014,0
DA:1017,0
DA:1020,0
DA:1023,0
DA:1026,0
DA:1029,0
DA:1032,0
DA:1035,0
DA:1038,0
DA:1041,0
DA:1044,0
DA:1048,0
DA:1050,0
DA:1051,0
DA:1053,0
DA:1055,0
DA:1056,0
DA:1058,0
DA:1059,0
DA:1072,0
DA:1073,0
DA:1074,0
DA:1075,0
DA:1076,0
DA:1077,0
DA:1078,0
DA:1081,0
DA:1082,0
DA:1085,0
DA:1086,0
DA:1089,0
DA:1091,0
DA:1096,0
DA:1098,0
DA:1100,0
DA:1105,0
DA:1108,0
DA:1111,0
DA:1112,0
DA:1113,0
DA:1115,0
DA:1117,0
DA:1122,0
DA:1125,0
DA:1128,0
DA:1129,0
DA:1130,0
DA:1132,0
DA:1138,0
DA:1142,0
DA:1143,0
DA:1146,0
DA:1148,0
DA:1149,0
DA:1150,0
DA:1154,0
DA:1157,0
DA:1158,0
DA:1159,0
DA:1160,0
DA:1161,0
DA:1162,0
DA:1173,0
DA:1174,0
DA:1176,0
DA:1177,0
DA:1179,0
DA:1180,0
DA:1183,0
DA:1185,0
DA:1186,0
DA:1188,0
DA:1189,0
DA:1190,0
DA:1196,0
DA:1198,0
DA:1200,0
DA:1202,0
DA:1206,0
DA:1209,0
DA:1220,0
DA:1221,0
DA:1223,0
DA:1224,0
DA:1227,0
DA:1228,0
DA:1235,0
DA:1236,0
DA:1238,0
DA:1239,0
DA:1240,0
DA:1245,0
DA:1246,0
DA:1248,0
DA:1252,0
DA:1255,0
DA:1257,0
DA:1259,0
DA:1261,0
DA:1263,0
DA:1265,0
DA:1269,0
DA:1272,0
DA:1282,0
DA:1283,0
DA:1286,0
DA:1287,0
DA:1290,0
DA:1293,0
DA:1295,0
DA:1296,0
DA:1309,0
DA:1310,0
DA:1313,0
DA:1314,0
DA:1317,0
DA:1320,0
DA:1322,0
DA:1323,0
DA:1334,0
DA:1335,0
DA:1337,0
DA:1340,0
DA:1342,0
DA:1344,0
DA:1347,0
DA:1349,0
DA:1351,0
DA:1353,0
DA:1362,0
DA:1363,0
DA:1364,0
DA:1365,0
DA:1368,0
DA:1370,0
DA:1371,0
DA:1374,0
DA:1375,0
DA:1376,0
DA:1379,0
DA:1381,0
DA:1382,0
DA:1384,0
DA:1396,0
DA:1397,0
DA:1398,0
DA:1401,0
DA:1406,0
DA:1417,0
DA:1418,0
DA:1420,0
DA:1421,0
DA:1422,0
DA:1423,0
DA:1424,0
DA:1426,0
DA:1427,0
DA:1428,0
DA:1429,0
DA:1432,0
DA:1433,0
DA:1436,0
DA:1437,0
DA:1438,0
DA:1439,0
DA:1440,0
DA:1441,0
DA:1452,0
DA:1453,0
DA:1454,0
DA:1455,0
DA:1456,0
DA:1457,0
DA:1460,0
DA:1463,0
DA:1466,0
DA:1467,0
DA:1468,0
DA:1469,0
DA:1470,0
DA:1471,0
DA:1473,0
DA:1476,0
DA:1477,0
DA:1478,0
DA:1479,0
DA:1480,0
DA:1481,0
DA:1483,0
DA:1486,0
DA:1487,0
DA:1488,0
DA:1489,0
DA:1490,0
DA:1491,0
DA:1495,0
DA:1497,0
DA:1508,0
DA:1509,0
DA:1511,0
DA:1512,0
DA:1513,0
DA:1514,0
DA:1515,0
DA:1516,0
DA:1518,0
DA:1519,0
DA:1520,0
DA:1521,0
DA:1522,0
DA:1523,0
DA:1524,0
DA:1525,0
DA:1528,0
DA:1529,0
DA:1532,0
DA:1533,0
DA:1534,0
DA:1535,0
DA:1536,0
DA:1537,0
DA:1552,0
DA:1553,0
DA:1554,0
DA:1555,0
DA:1556,0
DA:1557,0
DA:1560,0
DA:1563,0
DA:1566,0
DA:1567,0
DA:1568,0
DA:1569,0
DA:1570,0
DA:1571,0
DA:1573,0
DA:1576,0
DA:1577,0
DA:1578,0
DA:1579,0
DA:1583,0
DA:1584,0
DA:1585,0
DA:1586,0
DA:1587,0
DA:1588,0
DA:1590,0
DA:1593,0
DA:1594,0
DA:1595,0
DA:1596,0
DA:1597,0
DA:1598,0
DA:1600,0
DA:1603,0
DA:1604,0
DA:1605,0
DA:1606,0
DA:1607,0
DA:1608,0
DA:1610,0
DA:1613,0
DA:1614,0
DA:1615,0
DA:1616,0
DA:1617,0
DA:1618,0
DA:1619,0
DA:1621,0
DA:1625,0
DA:1626,0
DA:1627,0
DA:1628,0
DA:1629,0
DA:1630,0
DA:1634,0
DA:1636,0
DA:1648,0
DA:1649,0
DA:1650,0
DA:1651,0
DA:1652,0
DA:1653,0
DA:1655,0
DA:1656,0
DA:1658,0
DA:1659,0
DA:1660,0
DA:1678,0
DA:1680,0
DA:1684,0
DA:1686,0
DA:1690,0
DA:1691,0
DA:1909,0
DA:1910,0
DA:1911,0
DA:1912,0
DA:1914,0
DA:1915,0
DA:1918,0
DA:1919,0
DA:1921,0
DA:1922,0
DA:1926,0
DA:1927,0
DA:1934,0
DA:1936,0
DA:1937,0
DA:1938,0
DA:1939,0
DA:1942,0
DA:1943,0
DA:1944,0
DA:1945,0
DA:1947,0
DA:1958,0
DA:1959,0
DA:1960,0
DA:1961,0
DA:1964,0
DA:1965,0
DA:1976,0
DA:1977,0
DA:1978,0
DA:1979,0
DA:1980,0
DA:1981,0
DA:1982,0
DA:1983,0
DA:1985,0
DA:1986,0
DA:1988,0
DA:1989,0
end_of_record
SF:/usr/include/c++/9/iostream
end_of_record
SF:/usr/include/c++/9/bits/functional_hash.h
DA:195,0
DA:197,0
end_of_record
SF:/usr/include/c++/9/bits/hashtable.h
FN:1111,_ZNSt10_HashtableINSt7__cxx1112basic_stringIcSt11char_traitsIcESaIcEEESt4pairIKS5_P14block_memory_tESaISA_ENSt8__detail10_Select1stESt8equal_toIS5_ESt4hashIS5_ENSC_18_Mod_range_hashingENSC_20_Default_ranged_hashENSC_20_Prime_rehash_policyENSC_17_Hashtable_traitsILb1ELb0ELb1EEEE9_M_assignIZNSN_C4ERKSN_EUlPKNSC_10_Hash_nodeISA_Lb1EEEE_EEvSQ_RKT_
FNDA:0,_ZNSt10_HashtableINSt7__cxx1112basic_stringIcSt11char_traitsIcESaIcEEESt4pairIKS5_P14block_memory_tESaISA_ENSt8__detail10_Select1stESt8equal_toIS5_ESt4hashIS5_ENSC_18_Mod_range_hashingENSC_20_Default_ranged_hashENSC_20_Prime_rehash_policyENSC_17_Hashtable_traitsILb1ELb0ELb1EEEE9_M_assignIZNSN_C4ERKSN_EUlPKNSC_10_Hash_nodeISA_Lb1EEEE_EEvSQ_RKT_
FN:1176,_ZNSt10_HashtableINSt7__cxx1112basic_stringIcSt11char_traitsIcESaIcEEESt4pairIKS5_P14block_memory_tESaISA_ENSt8__detail10_Select1stESt8equal_toIS5_ESt4hashIS5_ENSC_18_Mod_range_hashingENSC_20_Default_ranged_hashENSC_20_Prime_rehash_policyENSC_17_Hashtable_traitsILb1ELb0ELb1EEEE14_M_move_assignEOSN_St17integral_constantIbLb1EE
FNDA:0,_ZNSt10_HashtableINSt7__cxx1112basic_stringIcSt11char_traitsIcESaIcEEESt4pairIKS5_P14block_memory_tESaISA_ENSt8__detail10_Select1stESt8equal_toIS5_ESt4hashIS5_ENSC_18_Mod_range_hashingENSC_20_Default_ranged_hashENSC_20_Prime_rehash_policyENSC_17_Hashtable_traitsILb1ELb0ELb1EEEE14_M_move_assignEOSN_St17integral_constantIbLb1EE
FN:1348,_ZNSt10_HashtableINSt7__cxx1112basic_stringIcSt11char_traitsIcESaIcEEESt4pairIKS5_P14block_memory_tESaISA_ENSt8__detail10_Select1stESt8equal_toIS5_ESt4hashIS5_ENSC_18_Mod_range_hashingENSC_20_Default_ranged_hashENSC_20_Prime_rehash_policyENSC_17_Hashtable_traitsILb1ELb0ELb1EEEED2Ev
FNDA:12586,_ZNSt10_HashtableINSt7__cxx1112basic_stringIcSt11char_traitsIcESaIcEEESt4pairIKS5_P14block_memory_tESaISA_ENSt8__detail10_Select1stESt8equal_toIS5_ESt4hashIS5_ENSC_18_Mod_range_hashingENSC_20_Default_ranged_hashENSC_20_Prime_rehash_policyENSC_17_Hashtable_traitsILb1ELb0ELb1EEEED2Ev
FN:1412,_ZNSt10_HashtableINSt7__cxx1112basic_stringIcSt11char_traitsIcESaIcEEESt4pairIKS5_P14block_memory_tESaISA_ENSt8__detail10_Select1stESt8equal_toIS5_ESt4hashIS5_ENSC_18_Mod_range_hashingENSC_20_Default_ranged_hashENSC_20_Prime_rehash_policyENSC_17_Hashtable_traitsILb1ELb0ELb1EEEE4findERS7_
FNDA:0,_ZNSt10_HashtableINSt7__cxx1112basic_stringIcSt11char_traitsIcESaIcEEESt4pairIKS5_P14block_memory_tESaISA_ENSt8__detail10_Select1stESt8equal_toIS5_ESt4hashIS5_ENSC_18_Mod_range_hashingENSC_20_Default_ranged_hashENSC_20_Prime_rehash_policyENSC_17_Hashtable_traitsILb1ELb0ELb1EEEE4findERS7_
FN:1532,_ZNKSt10_HashtableINSt7__cxx1112basic_stringIcSt11char_traitsIcESaIcEEESt4pairIKS5_P14block_memory_tESaISA_ENSt8__detail10_Select1stESt8equal_toIS5_ESt4hashIS5_ENSC_18_Mod_range_hashingENSC_20_Default_ranged_hashENSC_20_Prime_rehash_policyENSC_17_Hashtable_traitsILb1ELb0ELb1EEEE19_M_find_before_nodeEmRS7_m
FNDA:0,_ZNKSt10_HashtableINSt7__cxx1112basic_stringIcSt11char_traitsIcESaIcEEESt4pairIKS5_P14block_memory_tESaISA_ENSt8__detail10_Select1stESt8equal_toIS5_ESt4hashIS5_ENSC_18_Mod_range_hashingENSC_20_Default_ranged_hashENSC_20_Prime_rehash_policyENSC_17_Hashtable_traitsILb1ELb0ELb1EEEE19_M_find_before_nodeEmRS7_m
FN:1560,_ZNSt10_HashtableINSt7__cxx1112basic_stringIcSt11char_traitsIcESaIcEEESt4pairIKS5_P14block_memory_tESaISA_ENSt8__detail10_Select1stESt8equal_toIS5_ESt4hashIS5_ENSC_18_Mod_range_hashingENSC_20_Default_ranged_hashENSC_20_Prime_rehash_policyENSC_17_Hashtable_traitsILb1ELb0ELb1EEEE22_M_insert_bucket_beginEmPNSC_10_Hash_nodeISA_Lb1EEE
FNDA:0,_ZNSt10_HashtableINSt7__cxx1112basic_stringIcSt11char_traitsIcESaIcEEESt4pairIKS5_P14block_memory_tESaISA_ENSt8__detail10_Select1stESt8equal_toIS5_ESt4hashIS5_ENSC_18_Mod_range_hashingENSC_20_Default_ranged_hashENSC_20_Prime_rehash_policyENSC_17_Hashtable_traitsILb1ELb0ELb1EEEE22_M_insert_bucket_beginEmPNSC_10_Hash_nodeISA_Lb1EEE
FN:1632,_ZNSt10_HashtableINSt7__cxx1112basic_stringIcSt11char_traitsIcESaIcEEESt4pairIKS5_P14block_memory_tESaISA_ENSt8__detail10_Select1stESt8equal_toIS5_ESt4hashIS5_ENSC_18_Mod_range_hashingENSC_20_Default_ranged_hashENSC_20_Prime_rehash_policyENSC_17_Hashtable_traitsILb1ELb0ELb1EEEE10_M_emplaceIJRPcRS9_EEES6_INSC_14_Node_iteratorISA_Lb0ELb1EEEbESt17integral_constantIbLb1EEDpOT_
FNDA:0,_ZNSt10_HashtableINSt7__cxx1112basic_stringIcSt11char_traitsIcESaIcEEESt4pairIKS5_P14block_memory_tESaISA_ENSt8__detail10_Select1stESt8equal_toIS5_ESt4hashIS5_ENSC_18_Mod_range_hashingENSC_20_Default_ranged_hashENSC_20_Prime_rehash_policyENSC_17_Hashtable_traitsILb1ELb0ELb1EEEE10_M_emplaceIJRPcRS9_EEES6_INSC_14_Node_iteratorISA_Lb0ELb1EEEbESt17integral_constantIbLb1EEDpOT_
FN:1698,_ZNSt10_HashtableINSt7__cxx1112basic_stringIcSt11char_traitsIcESaIcEEESt4pairIKS5_P14block_memory_tESaISA_ENSt8__detail10_Select1stESt8equal_toIS5_ESt4hashIS5_ENSC_18_Mod_range_hashingENSC_20_Default_ranged_hashENSC_20_Prime_rehash_policyENSC_17_Hashtable_traitsILb1ELb0ELb1EEEE21_M_insert_unique_nodeEmmPNSC_10_Hash_nodeISA_Lb1EEEm
FNDA:0,_ZNSt10_HashtableINSt7__cxx1112basic_stringIcSt11char_traitsIcESaIcEEESt4pairIKS5_P14block_memory_tESaISA_ENSt8__detail10_Select1stESt8equal_toIS5_ESt4hashIS5_ENSC_18_Mod_range_hashingENSC_20_Default_ranged_hashENSC_20_Prime_rehash_policyENSC_17_Hashtable_traitsILb1ELb0ELb1EEEE21_M_insert_unique_nodeEmmPNSC_10_Hash_nodeISA_Lb1EEEm
FN:2024,_ZNSt10_HashtableINSt7__cxx1112basic_stringIcSt11char_traitsIcESaIcEEESt4pairIKS5_P14block_memory_tESaISA_ENSt8__detail10_Select1stESt8equal_toIS5_ESt4hashIS5_ENSC_18_Mod_range_hashingENSC_20_Default_ranged_hashENSC_20_Prime_rehash_policyENSC_17_Hashtable_traitsILb1ELb0ELb1EEEE5clearEv
FNDA:12586,_ZNSt10_HashtableINSt7__cxx1112basic_stringIcSt11char_traitsIcESaIcEEESt4pairIKS5_P14block_memory_tESaISA_ENSt8__detail10_Select1stESt8equal_toIS5_ESt4hashIS5_ENSC_18_Mod_range_hashingENSC_20_Default_ranged_hashENSC_20_Prime_rehash_policyENSC_17_Hashtable_traitsILb1ELb0ELb1EEEE5clearEv
FN:2061,_ZNSt10_HashtableINSt7__cxx1112basic_stringIcSt11char_traitsIcESaIcEEESt4pairIKS5_P14block_memory_tESaISA_ENSt8__detail10_Select1stESt8equal_toIS5_ESt4hashIS5_ENSC_18_Mod_range_hashingENSC_20_Default_ranged_hashENSC_20_Prime_rehash_policyENSC_17_Hashtable_traitsILb1ELb0ELb1EEEE9_M_rehashEmRKm
FNDA:0,_ZNSt10_HashtableINSt7__cxx1112basic_stringIcSt11char_traitsIcESaIcEEESt4pairIKS5_P14block_memory_tESaISA_ENSt8__detail10_Select1stESt8equal_toIS5_ESt4hashIS5_ENSC_18_Mod_range_hashingENSC_20_Default_ranged_hashENSC_20_Prime_rehash_policyENSC_17_Hashtable_traitsILb1ELb0ELb1EEEE9_M_rehashEmRKm
FN:2084,_ZNSt10_HashtableINSt7__cxx1112basic_stringIcSt11char_traitsIcESaIcEEESt4pairIKS5_P14block_memory_tESaISA_ENSt8__detail10_Select1stESt8equal_toIS5_ESt4hashIS5_ENSC_18_Mod_range_hashingENSC_20_Default_ranged_hashENSC_20_Prime_rehash_policyENSC_17_Hashtable_traitsILb1ELb0ELb1EEEE13_M_rehash_auxEmSt17integral_constantIbLb1EE
FNDA:0,_ZNSt10_HashtableINSt7__cxx1112basic_stringIcSt11char_traitsIcESaIcEEESt4pairIKS5_P14block_memory_tESaISA_ENSt8__detail10_Select1stESt8equal_toIS5_ESt4hashIS5_ENSC_18_Mod_range_hashingENSC_20_Default_ranged_hashENSC_20_Prime_rehash_policyENSC_17_Hashtable_traitsILb1ELb0ELb1EEEE13_M_rehash_auxEmSt17integral_constantIbLb1EE
DA:342,12586
DA:343,12586
DA:346,0
DA:347,0
DA:353,0
DA:355,0
DA:357,0
DA:358,0
DA:361,0
DA:365,12586
DA:367,12586
DA:370,0
DA:374,12586
DA:375,0
DA:383,12586
DA:414,0
DA:473,0
DA:478,0
DA:481,0
DA:504,0
DA:505,0
DA:512,0
DA:513,0
DA:528,0
DA:532,0
DA:533,0
DA:639,0
DA:640,0
DA:643,0
DA:644,0
DA:652,0
DA:655,0
DA:656,0
DA:657,0
DA:748,0
DA:749,0
DA:1111,0
DA:1115,0
DA:1116,0
DA:1117,0
DA:1121,0
DA:1126,0
DA:1127,0
DA:1128,0
DA:1129,0
DA:1130,0
DA:1133,0
DA:1134,0
DA:1136,0
DA:1137,0
DA:1138,0
DA:1139,0
DA:1140,0
DA:1141,0
DA:1142,0
DA:1145,0
DA:1147,0
DA:1148,0
DA:1149,0
DA:1150,0
DA:1159,0
DA:1163,0
DA:1164,0
DA:1165,0
DA:1166,0
DA:1167,0
DA:1168,0
DA:1176,0
DA:1180,0
DA:1181,0
DA:1182,0
DA:1183,0
DA:1184,0
DA:1185,0
DA:1188,0
DA:1189,0
DA:1191,0
DA:1192,0
DA:1193,0
DA:1194,0
DA:1198,0
DA:1199,0
DA:1200,0
DA:1201,0
DA:1228,0
DA:1235,0
DA:1237,0
DA:1238,0
DA:1239,0
DA:1241,0
DA:1242,0
DA:1243,0
DA:1348,12586
DA:1352,12586
DA:1353,12586
DA:1354,12586
DA:1412,0
DA:1417,0
DA:1418,0
DA:1419,0
DA:1420,0
DA:1532,0
DA:1538,0
DA:1539,0
DA:1542,0
DA:1545,0
DA:1546,0
DA:1548,0
DA:1560,0
DA:1564,0
DA:1568,0
DA:1569,0
DA:1576,0
DA:1577,0
DA:1578,0
DA:1581,0
DA:1582,0
DA:1584,0
DA:1632,0
DA:1638,0
DA:1639,0
DA:1643,0
DA:1651,0
DA:1652,0
DA:1655,0
DA:1656,0
DA:1660,0
DA:1698,0
DA:1704,0
DA:1705,0
DA:1711,0
DA:1713,0
DA:1714,0
DA:1717,0
DA:1720,0
DA:1721,0
DA:1722,0
DA:1724,0
DA:1726,0
DA:1727,0
DA:2024,12586
DA:2028,12586
DA:2029,12586
DA:2030,12586
DA:2031,12586
DA:2032,12586
DA:2061,0
DA:2067,0
DA:2069,0
DA:2073,0
DA:2074,0
DA:2076,0
DA:2084,0
DA:2088,0
DA:2089,0
DA:2090,0
DA:2091,0
DA:2092,0
DA:2094,0
DA:2095,0
DA:2096,0
DA:2098,0
DA:2099,0
DA:2100,0
DA:2101,0
DA:2102,0
DA:2107,0
DA:2108,0
DA:2113,0
DA:2114,0
DA:2115,0
DA:2116,0
end_of_record
SF:/workspace/vtr-verilog-to-routing/ODIN_II/SRC/include/BlockMemories.hpp
end_of_record
SF:/usr/include/c++/9/bits/stl_pair.h
DA:208,0
DA:303,0
DA:341,0
DA:342,0
DA:524,0
DA:529,0
end_of_record
SF:/usr/include/c++/9/bits/stl_iterator_base_funcs.h
DA:98,0
DA:104,0
DA:138,0
DA:141,0
end_of_record
TN:
SF:/usr/include/x86_64-linux-gnu/bits/stdio2.h
DA:105,10070
DA:107,1007
end_of_record
SF:/workspace/vtr-verilog-to-routing/ODIN_II/SRC/subtractions.cpp
FN:59,_Z23report_sub_distributionv
FNDA:3241,_Z23report_sub_distributionv
FN:83,_Z26declare_hard_adder_for_subP7nnode_t
FNDA:268600,_Z26declare_hard_adder_for_subP7nnode_t
FN:118,_Z34instantiate_hard_adder_subtractionP7nnode_tsP9netlist_t
FNDA:268600,_Z34instantiate_hard_adder_subtractionP7nnode_tsP9netlist_t
FN:161,_Z24init_split_adder_for_subP7nnode_tS0_iiiiiiii
FNDA:268600,_Z24init_split_adder_for_subP7nnode_tS0_iiiiiiii
FN:327,_Z19split_adder_for_subP7nnode_tiiiiiiiP9netlist_t
FNDA:13273,_Z19split_adder_for_subP7nnode_tiiiiiiiP9netlist_t
FN:595,_Z22iterate_adders_for_subP9netlist_t
FNDA:1007,_Z22iterate_adders_for_subP9netlist_t
FN:669,_Z30instantiate_sub_w_borrow_blockP7nnode_tsP9netlist_t
FNDA:0,_Z30instantiate_sub_w_borrow_blockP7nnode_tsP9netlist_t
FN:820,_Z20clean_adders_for_subv
FNDA:1007,_Z20clean_adders_for_subv
FN:843,_ZL20cleanup_sub_old_nodeP7nnode_tP9netlist_t
FNDA:13273,_ZL20cleanup_sub_old_nodeP7nnode_tP9netlist_t
DA:59,3241
DA:60,3241
DA:63,1007
DA:64,1007
DA:65,1007
DA:66,1007
DA:68,1007
DA:69,1007
DA:71,1007
DA:72,1007
DA:74,1007
DA:75,1007
DA:83,268600
DA:84,268600
DA:85,268600
DA:88,268600
DA:89,0
DA:91,268600
DA:92,268600
DA:93,268600
DA:94,268600
DA:96,268600
DA:97,268555
DA:100,0
DA:104,45
DA:105,45
DA:106,45
DA:107,45
DA:108,45
DA:109,45
DA:110,45
DA:111,45
DA:112,45
DA:118,268600
DA:119,268600
DA:120,268600
DA:122,268600
DA:125,268600
DA:126,268600
DA:127,268600
DA:131,268600
DA:135,268600
DA:136,268600
DA:139,268600
DA:140,0
DA:143,805800
DA:144,537200
DA:145,510654
DA:146,510654
DA:147,510654
DA:148,510654
DA:152,268600
DA:153,268600
DA:161,268600
DA:162,268600
DA:163,268600
DA:164,268600
DA:165,268600
DA:166,268600
DA:171,268600
DA:174,268600
DA:175,268600
DA:176,268600
DA:177,268600
DA:180,268600
DA:181,268600
DA:182,268600
DA:183,268600
DA:185,0
DA:189,0
DA:190,0
DA:191,0
DA:195,0
DA:198,0
DA:199,0
DA:202,0
DA:206,268600
DA:207,268600
DA:208,268600
DA:209,268600
DA:210,268600
DA:211,268600
DA:212,268600
DA:213,268600
DA:216,268600
DA:217,0
DA:219,268600
DA:222,268600
DA:223,268600
DA:226,268600
DA:227,33842
DA:228,16921
DA:229,251679
DA:230,0
DA:231,0
DA:232,251679
DA:233,0
DA:234,0
DA:235,0
DA:236,0
DA:237,0
DA:238,0
DA:239,0
DA:241,0
DA:242,0
DA:245,0
DA:246,0
DA:247,0
DA:248,0
DA:250,0
DA:251,0
DA:254,251679
DA:255,12685
DA:256,12685
DA:257,12685
DA:258,0
DA:259,0
DA:260,0
DA:261,0
DA:265,0
DA:266,0
DA:267,0
DA:268,0
DA:272,238994
DA:273,477988
DA:274,238994
DA:275,238994
DA:276,238994
DA:279,0
DA:280,0
DA:281,0
DA:282,0
DA:283,0
DA:289,537200
DA:290,268600
DA:293,537200
DA:294,268600
DA:298,268600
DA:299,268600
DA:300,0
DA:302,268600
DA:304,268600
DA:305,268600
DA:306,805800
DA:307,537200
DA:309,268600
DA:327,13273
DA:328,13273
DA:329,13273
DA:330,13273
DA:331,13273
DA:332,13273
DA:333,13273
DA:338,13273
DA:341,13273
DA:342,12685
DA:343,12685
DA:345,588
DA:346,588
DA:349,13273
DA:350,13273
DA:352,268600
DA:353,255327
DA:354,255327
DA:355,255327
DA:356,238994
DA:358,16333
DA:359,255327
DA:362,281873
DA:363,268600
DA:364,268600
DA:365,268600
DA:366,268600
DA:367,13273
DA:368,0
DA:370,13273
DA:374,13273
DA:375,13273
DA:378,13273
DA:380,13273
DA:381,13273
DA:384,0
DA:385,0
DA:389,255327
DA:392,268600
DA:395,13273
DA:397,13273
DA:398,13273
DA:400,0
DA:401,13273
DA:402,13273
DA:403,13273
DA:405,13273
DA:406,0
DA:410,0
DA:412,0
DA:414,0
DA:415,0
DA:416,0
DA:417,0
DA:418,0
DA:419,0
DA:420,0
DA:421,0
DA:422,0
DA:424,0
DA:427,13273
DA:428,0
DA:431,0
DA:432,0
DA:436,0
DA:438,0
DA:440,0
DA:441,0
DA:442,0
DA:443,0
DA:444,0
DA:445,0
DA:446,0
DA:447,0
DA:448,0
DA:450,0
DA:454,268600
DA:455,255327
DA:456,255327
DA:459,510654
DA:460,255327
DA:464,0
DA:465,0
DA:467,0
DA:468,0
DA:469,0
DA:470,0
DA:471,0
DA:472,0
DA:473,0
DA:474,0
DA:475,0
DA:477,0
DA:481,255327
DA:483,255327
DA:485,0
DA:487,255327
DA:488,255327
DA:489,82658
DA:490,82658
DA:491,82658
DA:492,172669
DA:493,15311
DA:494,15311
DA:495,15311
DA:497,157358
DA:503,13273
DA:505,13273
DA:506,13273
DA:508,13273
DA:509,13273
DA:513,13273
DA:514,0
DA:516,13273
DA:520,281873
DA:521,268600
DA:522,805800
DA:523,537200
DA:524,16333
DA:525,15745
DA:527,588
DA:533,268600
DA:534,255327
DA:536,13273
DA:537,0
DA:538,0
DA:539,0
DA:541,0
DA:543,0
DA:547,13273
DA:548,0
DA:549,0
DA:551,0
DA:553,0
DA:558,13273
DA:560,268600
DA:561,510654
DA:562,255327
DA:563,255327
DA:565,0
DA:567,0
DA:572,13273
DA:574,13273
DA:579,13273
DA:581,13273
DA:582,13273
DA:583,13273
DA:595,1007
DA:596,1007
DA:597,1007
DA:598,1007
DA:599,1007
DA:600,1007
DA:602,1007
DA:605,1007
DA:609,1007
DA:610,1007
DA:611,1007
DA:613,1007
DA:615,14280
DA:616,13273
DA:617,13273
DA:619,13273
DA:620,13273
DA:622,13273
DA:623,13273
DA:624,12685
DA:627,13273
DA:629,13273
DA:631,13273
DA:632,13273
DA:634,0
DA:636,13273
DA:637,13273
DA:639,0
DA:641,13273
DA:645,13273
DA:647,13273
DA:651,0
DA:669,0
DA:671,0
DA:672,0
DA:674,0
DA:675,0
DA:676,0
DA:721,0
DA:722,0
DA:723,0
DA:725,0
DA:726,0
DA:732,0
DA:734,0
DA:736,0
DA:738,0
DA:739,0
DA:742,0
DA:744,0
DA:746,0
DA:747,0
DA:749,0
DA:752,0
DA:758,0
DA:759,0
DA:762,0
DA:764,0
DA:766,0
DA:768,0
DA:769,0
DA:772,0
DA:773,0
DA:776,0
DA:778,0
DA:780,0
DA:782,0
DA:783,0
DA:786,0
DA:788,0
DA:790,0
DA:791,0
DA:793,0
DA:794,0
DA:795,0
DA:796,0
DA:798,0
DA:800,0
DA:802,0
DA:804,0
DA:808,0
DA:809,0
DA:810,0
DA:811,0
DA:812,0
DA:820,1007
DA:821,1007
DA:822,0
DA:823,624970
DA:824,623963
DA:825,1007
DA:843,13273
DA:844,13273
DA:846,507594
DA:847,494321
DA:848,494321
DA:849,255327
DA:851,494321
DA:855,268600
DA:856,255327
DA:858,255327
DA:860,0
DA:861,0
DA:864,0
DA:866,0
DA:869,0
DA:872,0
DA:873,0
DA:876,0
DA:881,13273
DA:882,13273
end_of_record
SF:/usr/include/c++/9/iostream
end_of_record
TN:
SF:/usr/include/x86_64-linux-gnu/bits/stdio2.h
DA:98,0
DA:100,0
end_of_record
SF:/usr/include/x86_64-linux-gnu/bits/string_fortified.h
DA:31,18364
DA:34,18364
DA:59,251687
DA:71,251687
end_of_record
SF:/workspace/vtr-verilog-to-routing/ODIN_II/SRC/string_cache.cpp
FN:15,_Z11string_hashP12STRING_CACHEPKc
FNDA:0,_Z11string_hashP12STRING_CACHEPKc
FN:27,_Z16generate_sc_hashP12STRING_CACHE
FNDA:251687,_Z16generate_sc_hashP12STRING_CACHE
FN:48,_Z19sc_new_string_cachev
FNDA:242505,_Z19sc_new_string_cachev
FN:65,_Z16sc_lookup_stringP12STRING_CACHEPKc
FNDA:70407700,_Z16sc_lookup_stringP12STRING_CACHEPKc
FN:83,_Z16sc_remove_stringP12STRING_CACHEPKc
FNDA:0,_Z16sc_remove_stringP12STRING_CACHEPKc
FN:107,_Z13sc_add_stringP12STRING_CACHEPKc
FNDA:29771100,_Z13sc_add_stringP12STRING_CACHEPKc
FN:143,_Z11sc_valid_idP12STRING_CACHEl
FNDA:0,_Z11sc_valid_idP12STRING_CACHEl
FN:152,_Z11sc_do_allocll
FNDA:1249250,_Z11sc_do_allocll
FN:170,_Z20sc_free_string_cacheP12STRING_CACHE
FNDA:217391,_Z20sc_free_string_cacheP12STRING_CACHE
FN:205,_Z21sc_merge_string_cachePP12STRING_CACHES0_
FNDA:51380,_Z21sc_merge_string_cachePP12STRING_CACHES0_
DA:15,98596700
DA:17,98596700
DA:19,98596700
DA:20,98596700
DA:21,98596700
DA:22,3769810000
DA:23,3671220000
DA:24,98596700
DA:27,251687
DA:28,251687
DA:29,251687
DA:31,251687
DA:32,9182
DA:33,251687
DA:34,9182
DA:35,251687
DA:36,251687
DA:37,251687
DA:38,251687
DA:39,251687
DA:40,16390000
DA:41,16138400
DA:42,16138400
DA:43,16138400
DA:45,251687
DA:48,242505
DA:49,242505
DA:51,242505
DA:52,242505
DA:53,242505
DA:54,242505
DA:55,242505
DA:56,242505
DA:57,242505
DA:58,242505
DA:59,242505
DA:60,242505
DA:61,242505
DA:62,242505
DA:65,70407700
DA:67,70407700
DA:69,70407700
DA:72,70403600
DA:73,70403600
DA:74,80638500
DA:75,57048000
DA:76,46813000
DA:77,10234900
DA:83,0
DA:85,0
DA:87,0
DA:88,0
DA:89,0
DA:90,0
DA:91,0
DA:92,0
DA:93,0
DA:94,0
DA:95,0
DA:97,0
DA:98,0
DA:100,0
DA:107,29771100
DA:109,29771100
DA:110,29771100
DA:111,29771100
DA:113,29771100
DA:114,29771100
DA:116,12054800
DA:117,9182
DA:119,9182
DA:120,9182
DA:121,9182
DA:122,9182
DA:123,9182
DA:125,9182
DA:126,9182
DA:127,9182
DA:128,9182
DA:129,9182
DA:131,9182
DA:133,12054800
DA:134,12054800
DA:135,12054800
DA:136,12054800
DA:137,12054800
DA:138,12054800
DA:139,12054800
DA:140,12054800
DA:143,0
DA:145,0
DA:147,0
DA:148,0
DA:152,1249250
DA:154,1249250
DA:156,1249250
DA:158,1249250
DA:160,1249250
DA:161,1249250
DA:162,0
DA:165,0
DA:167,1249250
DA:170,217391
DA:171,217391
DA:172,216643
DA:173,2688840
DA:174,2472200
DA:175,2472200
DA:177,2472200
DA:179,216643
DA:181,216643
DA:183,216643
DA:184,216643
DA:186,216643
DA:188,216643
DA:189,216643
DA:191,216643
DA:193,216643
DA:194,216643
DA:196,216643
DA:198,216643
DA:200,217391
DA:202,217391
DA:205,51380
DA:206,51380
DA:207,51380
DA:208,0
DA:209,0
DA:211,0
DA:215,51380
DA:216,51380
DA:217,51380
end_of_record
TN:
SF:/usr/include/c++/9/bits/vector.tcc
FN:109,_ZNSt6vectorISt6threadSaIS0_EE12emplace_backIJS0_EEEvDpOT_
FNDA:1980,_ZNSt6vectorISt6threadSaIS0_EE12emplace_backIJS0_EEEvDpOT_
FN:109,_ZNSt6vectorIN8BitSpace9BitFieldsItEESaIS2_EE12emplace_backIJS2_EEEvDpOT_
FNDA:719129000,_ZNSt6vectorIN8BitSpace9BitFieldsItEESaIS2_EE12emplace_backIJS2_EEEvDpOT_
FN:109,_ZNSt6vectorINSt7__cxx1112basic_stringIcSt11char_traitsIcESaIcEEESaIS5_EE12emplace_backIJS5_EEEvDpOT_
FNDA:0,_ZNSt6vectorINSt7__cxx1112basic_stringIcSt11char_traitsIcESaIcEEESaIS5_EE12emplace_backIJS5_EEEvDpOT_
FN:198,_ZNSt6vectorIhSaIhEEaSERKS1_
FNDA:4389300,_ZNSt6vectorIhSaIhEEaSERKS1_
FN:426,_ZNSt6vectorISt6threadSaIS0_EE17_M_realloc_insertIJS0_EEEvN9__gnu_cxx17__normal_iteratorIPS0_S2_EEDpOT_
FNDA:1980,_ZNSt6vectorISt6threadSaIS0_EE17_M_realloc_insertIJS0_EEEvN9__gnu_cxx17__normal_iteratorIPS0_S2_EEDpOT_
FN:426,_ZNSt6vectorIN8BitSpace9BitFieldsItEESaIS2_EE17_M_realloc_insertIJS2_EEEvN9__gnu_cxx17__normal_iteratorIPS2_S4_EEDpOT_
FNDA:0,_ZNSt6vectorIN8BitSpace9BitFieldsItEESaIS2_EE17_M_realloc_insertIJS2_EEEvN9__gnu_cxx17__normal_iteratorIPS2_S4_EEDpOT_
FN:426,_ZNSt6vectorINSt7__cxx1112basic_stringIcSt11char_traitsIcESaIcEEESaIS5_EE17_M_realloc_insertIJS5_EEEvN9__gnu_cxx17__normal_iteratorIPS5_S7_EEDpOT_
FNDA:0,_ZNSt6vectorINSt7__cxx1112basic_stringIcSt11char_traitsIcESaIcEEESaIS5_EE17_M_realloc_insertIJS5_EEEvN9__gnu_cxx17__normal_iteratorIPS5_S7_EEDpOT_
DA:109,1980
DA:112,1980
DA:115,0
DA:117,0
DA:121,1980
DA:125,1980
DA:109,719129000
DA:112,719129000
DA:115,2078650
DA:117,2078650
DA:121,717051000
DA:125,719129000
DA:109,0
DA:112,0
DA:115,0
DA:117,0
DA:121,0
DA:125,0
DA:198,4389300
DA:201,4389300
DA:223,4389300
DA:224,4389300
DA:226,0
DA:228,0
DA:229,0
DA:230,0
DA:231,0
DA:232,0
DA:233,0
DA:234,0
DA:236,4389300
DA:238,8778600
DA:239,4389300
DA:243,0
DA:245,4389300
DA:246,0
DA:248,0
DA:250,4389300
DA:252,4389300
DA:426,1980
DA:435,1980
DA:437,1980
DA:438,1980
DA:439,1980
DA:440,1980
DA:441,1980
DA:449,1980
DA:450,1980
DA:456,1980
DA:461,1980
DA:462,1980
DA:464,1980
DA:466,1980
DA:467,1980
DA:500,3960
DA:501,1980
DA:502,1980
DA:503,1980
DA:504,1980
DA:505,1980
DA:426,0
DA:435,0
DA:437,0
DA:438,0
DA:439,0
DA:440,0
DA:441,0
DA:449,0
DA:450,0
DA:456,0
DA:461,0
DA:462,0
DA:464,0
DA:466,0
DA:467,0
DA:500,0
DA:501,0
DA:502,0
DA:503,0
DA:504,0
DA:505,0
DA:426,0
DA:435,0
DA:437,0
DA:438,0
DA:439,0
DA:440,0
DA:441,0
DA:449,0
DA:450,0
DA:456,0
DA:461,0
DA:462,0
DA:464,0
DA:466,0
DA:467,0
DA:500,0
DA:501,0
DA:502,0
DA:503,0
DA:504,0
DA:505,0
end_of_record
SF:/workspace/vtr-verilog-to-routing/libs/librtlnumber/src/include/rtl_utils.hpp
FN:47,_Z12_assert_WerrbPKciNSt7__cxx1112basic_stringIcSt11char_traitsIcESaIcEEE
FNDA:889416,_Z12_assert_WerrbPKciNSt7__cxx1112basic_stringIcSt11char_traitsIcESaIcEEE
DA:47,889416
DA:48,889416
DA:49,0
DA:50,0
DA:51,0
DA:52,0
DA:54,889416
end_of_record
SF:/usr/include/c++/9/bits/stl_algo.h
DA:4326,109932
DA:4336,492278
DA:4337,382346
end_of_record
SF:/usr/include/c++/9/bits/cpp_type_traits.h
DA:428,348162000
end_of_record
SF:/usr/include/c++/9/thread
FN:117,_ZNSt6threadC2IRFviiiP8stages_tiEJRiS5_S5_RS2_S5_EvEEOT_DpOT0_
FNDA:1980,_ZNSt6threadC2IRFviiiP8stages_tiEJRiS5_S5_RS2_S5_EvEEOT_DpOT0_
FN:195,_ZNSt6thread11_State_implINS_8_InvokerISt5tupleIJPFviiiP8stages_tiEiiiS4_iEEEEE6_M_runEv
FNDA:1980,_ZNSt6thread11_State_implINS_8_InvokerISt5tupleIJPFviiiP8stages_tiEiiiS4_iEEEEE6_M_runEv
FN:203,_ZNSt6thread13_S_make_stateINS_8_InvokerISt5tupleIJPFviiiP8stages_tiEiiiS4_iEEEEEESt10unique_ptrINS_6_StateESt14default_deleteISA_EEOT_
FNDA:1980,_ZNSt6thread13_S_make_stateINS_8_InvokerISt5tupleIJPFviiiP8stages_tiEiiiS4_iEEEEEESt10unique_ptrINS_6_StateESt14default_deleteISA_EEOT_
DA:67,1980
DA:82,9900
DA:117,1980
DA:118,1980
DA:126,1980
DA:130,1980
DA:134,1980
DA:136,5940
DA:137,1980
DA:138,5940
DA:139,0
DA:144,3960
DA:145,3960
DA:158,3960
DA:159,3960
DA:162,5940
DA:163,5940
DA:191,1980
DA:195,3959
DA:203,1980
DA:206,1980
DA:230,1980
DA:243,1980
DA:244,1980
DA:247,1980
DA:251,1980
DA:263,1980
DA:267,1980
DA:276,5940
DA:282,5940
DA:353,1
DA:356,1
DA:358,6
end_of_record
SF:/workspace/vtr-verilog-to-routing/libs/EXTERNAL/libargparse/src/argparse_value.hpp
DA:50,17509
DA:53,4316440
DA:56,6016
end_of_record
SF:/usr/include/c++/9/bits/basic_string.tcc
FN:206,_ZNSt7__cxx1112basic_stringIcSt11char_traitsIcESaIcEE12_M_constructIPcEEvT_S7_St20forward_iterator_tag
FNDA:0,_ZNSt7__cxx1112basic_stringIcSt11char_traitsIcESaIcEE12_M_constructIPcEEvT_S7_St20forward_iterator_tag
FN:206,_ZNSt7__cxx1112basic_stringIcSt11char_traitsIcESaIcEE12_M_constructIPKcEEvT_S8_St20forward_iterator_tag
FNDA:2400430000,_ZNSt7__cxx1112basic_stringIcSt11char_traitsIcESaIcEE12_M_constructIPKcEEvT_S8_St20forward_iterator_tag
DA:206,0
DA:211,0
DA:212,0
DA:215,0
DA:217,0
DA:219,0
DA:220,0
DA:225,0
DA:232,0
DA:233,0
DA:206,2400430000
DA:211,2400430000
DA:212,0
DA:215,2400430000
DA:217,2400430000
DA:219,2179610000
DA:220,2179610000
DA:225,2400430000
DA:232,2400430000
DA:233,2400430000
end_of_record
SF:/usr/include/c++/9/bits/hashtable_policy.h
DA:84,17398300
DA:85,32300700
DA:92,0
DA:94,0
DA:161,17398300
DA:162,17398300
DA:166,13935900
DA:167,13935900
DA:218,13938900
DA:229,13935900
DA:236,27888500
DA:237,27888500
DA:240,14885600
DA:241,14885600
DA:244,16753
DA:245,16753
DA:248,14885600
DA:249,14885600
DA:269,0
DA:279,13935900
DA:282,14885600
DA:294,50159200
DA:295,0
DA:304,0
DA:311,16569300
DA:314,16569300
DA:340,50159200
DA:341,50536900
DA:384,0
DA:385,0
DA:391,0
DA:393,0
DA:400,0
DA:401,0
DA:431,48870000
DA:433,14885600
DA:449,3008
DA:450,3008
DA:476,13935900
DA:477,13935900
DA:484,0
DA:485,0
DA:805,17398300
DA:820,17398300
DA:822,17398300
DA:823,17398300
DA:824,17398300
DA:1002,0
DA:1004,0
DA:1005,0
DA:1093,6016
DA:1096,3008
DA:1104,48870000
DA:1108,59239500
DA:1288,33967600
DA:1292,33967600
DA:1296,33984400
DA:1297,33984400
DA:1300,14885600
DA:1304,14885600
DA:1307,13935900
DA:1323,14885600
DA:1326,17415100
DA:1329,33967600
DA:1335,48870000
DA:1380,0
DA:1384,0
DA:1388,0
DA:1390,0
DA:1393,0
DA:1396,0
DA:1399,0
DA:1400,0
DA:1415,0
DA:1418,0
DA:1421,0
DA:1427,0
DA:1448,0
DA:1450,0
DA:1829,0
DA:1834,0
DA:1846,0
DA:2017,6016
DA:2036,3008
DA:2046,41824400
DA:2047,27871800
DA:2079,13935900
DA:2081,13935900
DA:2082,13935900
DA:2085,13935900
DA:2086,13935900
DA:2100,13935900
DA:2102,0
DA:2103,13935900
DA:2104,13935900
DA:2108,13935900
DA:2111,13935900
DA:2112,13935900
DA:2113,13935900
DA:2118,767366
DA:2120,14703300
DA:2122,13935900
DA:2123,13935900
DA:2124,14703300
DA:2142,16753
DA:2146,16753
DA:2147,16753
DA:2148,16753
DA:2149,16753
end_of_record
SF:/usr/include/c++/9/bits/basic_string.h
FN:6097,_ZStplIcSt11char_traitsIcESaIcEENSt7__cxx1112basic_stringIT_T0_T1_EEOS8_S9_
FNDA:0,_ZStplIcSt11char_traitsIcESaIcEENSt7__cxx1112basic_stringIT_T0_T1_EEOS8_S9_
FN:6109,_ZStplIcSt11char_traitsIcESaIcEENSt7__cxx1112basic_stringIT_T0_T1_EEPKS5_OS8_
FNDA:0,_ZStplIcSt11char_traitsIcESaIcEENSt7__cxx1112basic_stringIT_T0_T1_EEPKS5_OS8_
FN:6121,_ZStplIcSt11char_traitsIcESaIcEENSt7__cxx1112basic_stringIT_T0_T1_EEOS8_PKS5_
FNDA:0,_ZStplIcSt11char_traitsIcESaIcEENSt7__cxx1112basic_stringIT_T0_T1_EEOS8_PKS5_
FN:6149,_ZSteqIcEN9__gnu_cxx11__enable_ifIXsrSt9__is_charIT_E7__valueEbE6__typeERKNSt7__cxx1112basic_stringIS3_St11char_traitsIS3_ESaIS3_EEESE_
FNDA:0,_ZSteqIcEN9__gnu_cxx11__enable_ifIXsrSt9__is_charIT_E7__valueEbE6__typeERKNSt7__cxx1112basic_stringIS3_St11char_traitsIS3_ESaIS3_EEESE_
DA:150,2400560000
DA:156,0
DA:157,0
DA:159,132250
DA:160,132250
DA:178,2179610000
DA:179,2179610000
DA:182,2400430000
DA:183,2400430000
DA:186,9381350000
DA:190,132250
DA:193,132250
DA:200,2400560000
DA:203,2400560000
DA:210,2179610000
DA:211,2179610000
DA:214,2400430000
DA:216,2400430000
DA:217,0
DA:221,2400560000
DA:222,2400560000
DA:229,2400560000
DA:231,2400560000
DA:232,4580160000
DA:236,2179610000
DA:237,2179610000
DA:243,132250
DA:247,132250
DA:263,132250
DA:266,0
DA:286,2179610000
DA:287,2179610000
DA:290,132250
DA:291,132250
DA:346,2400430000
DA:348,2400430000
DA:349,10224
DA:351,2400430000
DA:392,0
DA:393,0
DA:396,2400430000
DA:398,2400430000
DA:431,0
DA:433,0
DA:434,0
DA:448,132250
DA:450,132250
DA:451,132250
DA:552,0
DA:553,0
DA:555,0
DA:557,0
DA:562,0
DA:563,0
DA:569,0
DA:570,0
DA:571,0
DA:625,0
DA:627,0
DA:628,0
DA:657,2400560000
DA:658,2400560000
DA:665,0
DA:696,0
DA:826,109932
DA:827,109932
DA:842,109932
DA:843,109932
DA:930,109932
DA:936,132250
DA:993,0
DA:995,0
DA:1168,0
DA:1169,0
DA:1221,0
DA:1222,0
DA:1364,0
DA:1366,0
DA:1639,0
DA:1641,0
DA:2300,28222
DA:2301,28222
DA:2312,65272
DA:2313,65272
DA:2361,65272
DA:2363,65272
DA:6097,0
DA:6100,0
DA:6101,0
DA:6102,0
DA:6103,0
DA:6104,0
DA:6109,0
DA:6111,0
DA:6121,0
DA:6123,0
DA:6149,0
DA:6151,0
DA:6152,0
DA:6153,0
DA:6175,2399490000
DA:6177,2399490000
DA:6416,0
DA:6421,0
DA:6546,0
DA:6547,0
DA:6548,0
DA:6557,0
DA:6558,0
DA:6559,0
DA:6734,0
DA:6735,0
end_of_record
SF:/usr/include/c++/9/sstream
end_of_record
SF:/usr/include/c++/9/tuple
DA:76,1980
DA:113,0
DA:122,1980
DA:125,1980
DA:126,1980
DA:132,3960
DA:133,3960
DA:160,5940
DA:195,1980
DA:201,1980
DA:206,1980
DA:207,1980
DA:216,1980
DA:218,1980
DA:227,1980
DA:230,1980
DA:231,1980
DA:334,3960
DA:339,1980
DA:340,1980
DA:348,1980
DA:349,1980
DA:358,1980
DA:360,1980
DA:626,1980
DA:627,1980
DA:642,1980
DA:918,1980
DA:919,1980
DA:1309,5940
DA:1310,5940
DA:1320,5940
DA:1321,1980
DA:1332,1980
DA:1335,1980
end_of_record
SF:/workspace/vtr-verilog-to-routing/ODIN_II/SRC/include/odin_buffer.hpp
FN:20,_ZN16dynamic_buffer_t4pushEc
FNDA:0,_ZN16dynamic_buffer_t4pushEc
FN:82,_ZN17buffered_reader_tC2EP8_IO_FILEPKcS3_S3_
FNDA:0,_ZN17buffered_reader_tC2EP8_IO_FILEPKcS3_S3_
FN:110,_ZN17buffered_reader_t8get_lineEv
FNDA:0,_ZN17buffered_reader_t8get_lineEv
DA:20,0
DA:21,0
DA:22,0
DA:23,0
DA:26,0
DA:27,0
DA:28,0
DA:30,0
DA:31,0
DA:32,0
DA:33,0
DA:55,0
DA:56,0
DA:59,0
DA:60,0
DA:63,0
DA:64,0
DA:67,0
DA:68,0
DA:71,0
DA:72,0
DA:75,0
DA:76,0
DA:82,0
DA:83,0
DA:85,0
DA:86,0
DA:87,0
DA:90,0
DA:91,0
DA:92,0
DA:94,0
DA:95,0
DA:98,0
DA:99,0
DA:100,0
DA:101,0
DA:102,0
DA:110,0
DA:111,0
DA:113,0
DA:114,0
DA:116,0
DA:118,0
DA:119,0
DA:120,0
DA:122,0
DA:125,0
DA:126,0
DA:127,0
DA:128,0
DA:130,0
DA:131,0
DA:134,0
DA:136,0
DA:137,0
DA:139,0
DA:140,0
DA:141,0
DA:142,0
DA:143,0
DA:144,0
DA:146,0
DA:148,0
DA:150,0
DA:151,0
DA:152,0
DA:153,0
DA:154,0
DA:155,0
DA:156,0
DA:157,0
DA:161,0
DA:163,0
DA:165,0
DA:168,0
end_of_record
SF:/usr/include/c++/9/bits/unique_ptr.h
DA:75,0
DA:81,0
DA:82,0
DA:147,1980
DA:153,3960
DA:155,0
DA:211,1980
DA:212,1980
DA:286,1980
DA:290,1980
DA:291,1980
DA:292,1980
DA:365,0
DA:366,0
end_of_record
SF:/usr/include/c++/9/bits/allocator.h
DA:138,3263870000
DA:141,1625630000
DA:142,1625630000
DA:151,4600930
DA:153,5032130000
end_of_record
SF:/usr/include/c++/9/bits/unordered_set.h
DA:97,3008
DA:135,3008
DA:333,16569300
DA:334,16569300
DA:420,17398300
DA:421,17398300
DA:572,761350
DA:573,380675
DA:649,16569300
DA:650,33138600
end_of_record
SF:/usr/include/c++/9/bits/stl_algobase.h
DA:198,6613490
DA:222,19078
DA:227,12499
DA:228,660
DA:280,350306000
DA:289,4389300
DA:290,4389300
DA:295,350306000
DA:375,348162000
DA:384,348162000
DA:385,348162000
DA:386,348162000
DA:387,348162000
DA:393,348162000
DA:398,343769000
DA:404,348162000
DA:438,0
DA:440,8778600
DA:465,348162000
DA:474,352555000
DA:577,0
DA:586,0
DA:587,0
DA:588,0
DA:589,0
DA:595,0
DA:600,0
DA:606,0
DA:613,0
DA:615,0
DA:641,0
DA:652,0
DA:721,6533240
DA:723,6533240
DA:724,6533240
DA:725,6533240
DA:779,6533240
DA:781,13066500
DA:802,6533240
DA:808,6533240
end_of_record
SF:/workspace/vtr-verilog-to-routing/libs/librtlnumber/src/include/internal_bits.hpp
FN:454,_ZN8BitSpace11VerilogBitsC2Emh
FNDA:709609000,_ZN8BitSpace11VerilogBitsC2Emh
FN:595,_ZN8BitSpace11VerilogBits15twos_complementEh
FNDA:0,_ZN8BitSpace11VerilogBits15twos_complementEh
FN:674,_ZN7VNumberaSEOS_
FNDA:201807000,_ZN7VNumberaSEOS_
FN:680,_ZN7VNumberC2EN8BitSpace11VerilogBitsEbb
FNDA:0,_ZN7VNumberC2EN8BitSpace11VerilogBitsEbb
FN:742,_ZN7VNumberC2Emhbb
FNDA:354805000,_ZN7VNumberC2Emhbb
FN:1007,_ZN7VNumber16get_bit_from_msbEm
FNDA:889416,_ZN7VNumber16get_bit_from_msbEm
FN:1012,_ZN7VNumber16get_bit_from_lsbEm
FNDA:384393000,_ZN7VNumber16get_bit_from_lsbEm
FN:1070,_ZN7VNumber15twos_complementEh
FNDA:0,_ZN7VNumber15twos_complementEh
DA:376,379355000
DA:377,379355000
DA:378,379355000
DA:379,379355000
DA:384,719129000
DA:385,719129000
DA:390,379355000
DA:391,379355000
DA:392,379355000
DA:394,379355000
DA:398,0
DA:399,0
DA:401,0
DA:402,0
DA:404,0
DA:405,0
DA:406,0
DA:408,0
DA:409,0
DA:425,1088960000
DA:435,0
DA:440,379355000
DA:441,379355000
DA:454,709609000
DA:455,709609000
DA:456,709609000
DA:458,709609000
DA:460,1428740000
DA:461,1438260000
DA:463,709609000
DA:470,386172000
DA:471,386172000
DA:478,379355000
DA:486,379355000
DA:489,379355000
DA:497,379355000
DA:500,0
DA:507,0
DA:595,0
DA:596,0
DA:598,0
DA:599,0
DA:601,0
DA:602,0
DA:605,0
DA:674,1113220000
DA:680,0
DA:681,0
DA:682,0
DA:683,0
DA:684,0
DA:742,354805000
DA:743,709609000
DA:744,354805000
DA:745,354805000
DA:746,354805000
DA:1000,1778830
DA:1001,1778830
DA:1007,889416
DA:1008,889416
DA:1009,889416
DA:1012,384393000
DA:1013,384393000
DA:1014,378466000
DA:1016,390319000
DA:1030,384393000
DA:1031,384393000
DA:1034,5926620
DA:1035,889416
DA:1038,5926620
DA:1039,5926620
DA:1070,0
DA:1071,0
end_of_record
SF:/usr/include/c++/9/ext/atomicity.h
DA:48,0
DA:49,0
DA:65,0
DA:67,0
DA:68,0
DA:69,0
DA:78,0
DA:81,0
DA:82,0
DA:84,0
end_of_record
SF:/usr/include/c++/9/bits/hashtable.h
FN:1348,_ZNSt10_HashtableIP7nnode_tS1_SaIS1_ENSt8__detail9_IdentityESt8equal_toIS1_ESt4hashIS1_ENS3_18_Mod_range_hashingENS3_20_Default_ranged_hashENS3_20_Prime_rehash_policyENS3_17_Hashtable_traitsILb0ELb1ELb1EEEED2Ev
FNDA:6016,_ZNSt10_HashtableIP7nnode_tS1_SaIS1_ENSt8__detail9_IdentityESt8equal_toIS1_ESt4hashIS1_ENS3_18_Mod_range_hashingENS3_20_Default_ranged_hashENS3_20_Prime_rehash_policyENS3_17_Hashtable_traitsILb0ELb1ELb1EEEED2Ev
FN:1348,_ZNSt10_HashtableINSt7__cxx1112basic_stringIcSt11char_traitsIcESaIcEEESt4pairIKS5_S5_ESaIS8_ENSt8__detail10_Select1stESt8equal_toIS5_ESt4hashIS5_ENSA_18_Mod_range_hashingENSA_20_Default_ranged_hashENSA_20_Prime_rehash_policyENSA_17_Hashtable_traitsILb1ELb0ELb1EEEED2Ev
FNDA:0,_ZNSt10_HashtableINSt7__cxx1112basic_stringIcSt11char_traitsIcESaIcEEESt4pairIKS5_S5_ESaIS8_ENSt8__detail10_Select1stESt8equal_toIS5_ESt4hashIS5_ENSA_18_Mod_range_hashingENSA_20_Default_ranged_hashENSA_20_Prime_rehash_policyENSA_17_Hashtable_traitsILb1ELb0ELb1EEEED2Ev
FN:1348,_ZNSt10_HashtableIllSaIlENSt8__detail9_IdentityESt8equal_toIlESt4hashIlENS1_18_Mod_range_hashingENS1_20_Default_ranged_hashENS1_20_Prime_rehash_policyENS1_17_Hashtable_traitsILb0ELb1ELb1EEEED2Ev
FNDA:0,_ZNSt10_HashtableIllSaIlENSt8__detail9_IdentityESt8equal_toIlESt4hashIlENS1_18_Mod_range_hashingENS1_20_Default_ranged_hashENS1_20_Prime_rehash_policyENS1_17_Hashtable_traitsILb0ELb1ELb1EEEED2Ev
FN:1412,_ZNSt10_HashtableINSt7__cxx1112basic_stringIcSt11char_traitsIcESaIcEEESt4pairIKS5_S5_ESaIS8_ENSt8__detail10_Select1stESt8equal_toIS5_ESt4hashIS5_ENSA_18_Mod_range_hashingENSA_20_Default_ranged_hashENSA_20_Prime_rehash_policyENSA_17_Hashtable_traitsILb1ELb0ELb1EEEE4findERS7_
FNDA:0,_ZNSt10_HashtableINSt7__cxx1112basic_stringIcSt11char_traitsIcESaIcEEESt4pairIKS5_S5_ESaIS8_ENSt8__detail10_Select1stESt8equal_toIS5_ESt4hashIS5_ENSA_18_Mod_range_hashingENSA_20_Default_ranged_hashENSA_20_Prime_rehash_policyENSA_17_Hashtable_traitsILb1ELb0ELb1EEEE4findERS7_
FN:1532,_ZNKSt10_HashtableINSt7__cxx1112basic_stringIcSt11char_traitsIcESaIcEEESt4pairIKS5_S5_ESaIS8_ENSt8__detail10_Select1stESt8equal_toIS5_ESt4hashIS5_ENSA_18_Mod_range_hashingENSA_20_Default_ranged_hashENSA_20_Prime_rehash_policyENSA_17_Hashtable_traitsILb1ELb0ELb1EEEE19_M_find_before_nodeEmRS7_m
FNDA:0,_ZNKSt10_HashtableINSt7__cxx1112basic_stringIcSt11char_traitsIcESaIcEEESt4pairIKS5_S5_ESaIS8_ENSt8__detail10_Select1stESt8equal_toIS5_ESt4hashIS5_ENSA_18_Mod_range_hashingENSA_20_Default_ranged_hashENSA_20_Prime_rehash_policyENSA_17_Hashtable_traitsILb1ELb0ELb1EEEE19_M_find_before_nodeEmRS7_m
FN:1560,_ZNSt10_HashtableIllSaIlENSt8__detail9_IdentityESt8equal_toIlESt4hashIlENS1_18_Mod_range_hashingENS1_20_Default_ranged_hashENS1_20_Prime_rehash_policyENS1_17_Hashtable_traitsILb0ELb1ELb1EEEE22_M_insert_bucket_beginEmPNS1_10_Hash_nodeIlLb0EEE
FNDA:0,_ZNSt10_HashtableIllSaIlENSt8__detail9_IdentityESt8equal_toIlESt4hashIlENS1_18_Mod_range_hashingENS1_20_Default_ranged_hashENS1_20_Prime_rehash_policyENS1_17_Hashtable_traitsILb0ELb1ELb1EEEE22_M_insert_bucket_beginEmPNS1_10_Hash_nodeIlLb0EEE
FN:1560,_ZNSt10_HashtableINSt7__cxx1112basic_stringIcSt11char_traitsIcESaIcEEESt4pairIKS5_S5_ESaIS8_ENSt8__detail10_Select1stESt8equal_toIS5_ESt4hashIS5_ENSA_18_Mod_range_hashingENSA_20_Default_ranged_hashENSA_20_Prime_rehash_policyENSA_17_Hashtable_traitsILb1ELb0ELb1EEEE22_M_insert_bucket_beginEmPNSA_10_Hash_nodeIS8_Lb1EEE
FNDA:0,_ZNSt10_HashtableINSt7__cxx1112basic_stringIcSt11char_traitsIcESaIcEEESt4pairIKS5_S5_ESaIS8_ENSt8__detail10_Select1stESt8equal_toIS5_ESt4hashIS5_ENSA_18_Mod_range_hashingENSA_20_Default_ranged_hashENSA_20_Prime_rehash_policyENSA_17_Hashtable_traitsILb1ELb0ELb1EEEE22_M_insert_bucket_beginEmPNSA_10_Hash_nodeIS8_Lb1EEE
FN:1560,_ZNSt10_HashtableIP7nnode_tS1_SaIS1_ENSt8__detail9_IdentityESt8equal_toIS1_ESt4hashIS1_ENS3_18_Mod_range_hashingENS3_20_Default_ranged_hashENS3_20_Prime_rehash_policyENS3_17_Hashtable_traitsILb0ELb1ELb1EEEE22_M_insert_bucket_beginEmPNS3_10_Hash_nodeIS1_Lb0EEE
FNDA:13935900,_ZNSt10_HashtableIP7nnode_tS1_SaIS1_ENSt8__detail9_IdentityESt8equal_toIS1_ESt4hashIS1_ENS3_18_Mod_range_hashingENS3_20_Default_ranged_hashENS3_20_Prime_rehash_policyENS3_17_Hashtable_traitsILb0ELb1ELb1EEEE22_M_insert_bucket_beginEmPNS3_10_Hash_nodeIS1_Lb0EEE
FN:1632,_ZNSt10_HashtableINSt7__cxx1112basic_stringIcSt11char_traitsIcESaIcEEESt4pairIKS5_S5_ESaIS8_ENSt8__detail10_Select1stESt8equal_toIS5_ESt4hashIS5_ENSA_18_Mod_range_hashingENSA_20_Default_ranged_hashENSA_20_Prime_rehash_policyENSA_17_Hashtable_traitsILb1ELb0ELb1EEEE10_M_emplaceIJS8_EEES6_INSA_14_Node_iteratorIS8_Lb0ELb1EEEbESt17integral_constantIbLb1EEDpOT_
FNDA:0,_ZNSt10_HashtableINSt7__cxx1112basic_stringIcSt11char_traitsIcESaIcEEESt4pairIKS5_S5_ESaIS8_ENSt8__detail10_Select1stESt8equal_toIS5_ESt4hashIS5_ENSA_18_Mod_range_hashingENSA_20_Default_ranged_hashENSA_20_Prime_rehash_policyENSA_17_Hashtable_traitsILb1ELb0ELb1EEEE10_M_emplaceIJS8_EEES6_INSA_14_Node_iteratorIS8_Lb0ELb1EEEbESt17integral_constantIbLb1EEDpOT_
FN:1698,_ZNSt10_HashtableINSt7__cxx1112basic_stringIcSt11char_traitsIcESaIcEEESt4pairIKS5_S5_ESaIS8_ENSt8__detail10_Select1stESt8equal_toIS5_ESt4hashIS5_ENSA_18_Mod_range_hashingENSA_20_Default_ranged_hashENSA_20_Prime_rehash_policyENSA_17_Hashtable_traitsILb1ELb0ELb1EEEE21_M_insert_unique_nodeEmmPNSA_10_Hash_nodeIS8_Lb1EEEm
FNDA:0,_ZNSt10_HashtableINSt7__cxx1112basic_stringIcSt11char_traitsIcESaIcEEESt4pairIKS5_S5_ESaIS8_ENSt8__detail10_Select1stESt8equal_toIS5_ESt4hashIS5_ENSA_18_Mod_range_hashingENSA_20_Default_ranged_hashENSA_20_Prime_rehash_policyENSA_17_Hashtable_traitsILb1ELb0ELb1EEEE21_M_insert_unique_nodeEmmPNSA_10_Hash_nodeIS8_Lb1EEEm
FN:1698,_ZNSt10_HashtableIP7nnode_tS1_SaIS1_ENSt8__detail9_IdentityESt8equal_toIS1_ESt4hashIS1_ENS3_18_Mod_range_hashingENS3_20_Default_ranged_hashENS3_20_Prime_rehash_policyENS3_17_Hashtable_traitsILb0ELb1ELb1EEEE21_M_insert_unique_nodeEmmPNS3_10_Hash_nodeIS1_Lb0EEEm
FNDA:13935900,_ZNSt10_HashtableIP7nnode_tS1_SaIS1_ENSt8__detail9_IdentityESt8equal_toIS1_ESt4hashIS1_ENS3_18_Mod_range_hashingENS3_20_Default_ranged_hashENS3_20_Prime_rehash_policyENS3_17_Hashtable_traitsILb0ELb1ELb1EEEE21_M_insert_unique_nodeEmmPNS3_10_Hash_nodeIS1_Lb0EEEm
FN:1698,_ZNSt10_HashtableIllSaIlENSt8__detail9_IdentityESt8equal_toIlESt4hashIlENS1_18_Mod_range_hashingENS1_20_Default_ranged_hashENS1_20_Prime_rehash_policyENS1_17_Hashtable_traitsILb0ELb1ELb1EEEE21_M_insert_unique_nodeEmmPNS1_10_Hash_nodeIlLb0EEEm
FNDA:0,_ZNSt10_HashtableIllSaIlENSt8__detail9_IdentityESt8equal_toIlESt4hashIlENS1_18_Mod_range_hashingENS1_20_Default_ranged_hashENS1_20_Prime_rehash_policyENS1_17_Hashtable_traitsILb0ELb1ELb1EEEE21_M_insert_unique_nodeEmmPNS1_10_Hash_nodeIlLb0EEEm
FN:1803,_ZNSt10_HashtableIllSaIlENSt8__detail9_IdentityESt8equal_toIlESt4hashIlENS1_18_Mod_range_hashingENS1_20_Default_ranged_hashENS1_20_Prime_rehash_policyENS1_17_Hashtable_traitsILb0ELb1ELb1EEEE9_M_insertIRKlNS1_10_AllocNodeISaINS1_10_Hash_nodeIlLb0EEEEEEEESt4pairINS1_14_Node_iteratorIlLb1ELb0EEEbEOT_RKT0_St17integral_constantIbLb1EEm
FNDA:0,_ZNSt10_HashtableIllSaIlENSt8__detail9_IdentityESt8equal_toIlESt4hashIlENS1_18_Mod_range_hashingENS1_20_Default_ranged_hashENS1_20_Prime_rehash_policyENS1_17_Hashtable_traitsILb0ELb1ELb1EEEE9_M_insertIRKlNS1_10_AllocNodeISaINS1_10_Hash_nodeIlLb0EEEEEEEESt4pairINS1_14_Node_iteratorIlLb1ELb0EEEbEOT_RKT0_St17integral_constantIbLb1EEm
FN:1803,_ZNSt10_HashtableIP7nnode_tS1_SaIS1_ENSt8__detail9_IdentityESt8equal_toIS1_ESt4hashIS1_ENS3_18_Mod_range_hashingENS3_20_Default_ranged_hashENS3_20_Prime_rehash_policyENS3_17_Hashtable_traitsILb0ELb1ELb1EEEE9_M_insertIRKS1_NS3_10_AllocNodeISaINS3_10_Hash_nodeIS1_Lb0EEEEEEEESt4pairINS3_14_Node_iteratorIS1_Lb1ELb0EEEbEOT_RKT0_St17integral_constantIbLb1EEm
FNDA:17398300,_ZNSt10_HashtableIP7nnode_tS1_SaIS1_ENSt8__detail9_IdentityESt8equal_toIS1_ESt4hashIS1_ENS3_18_Mod_range_hashingENS3_20_Default_ranged_hashENS3_20_Prime_rehash_policyENS3_17_Hashtable_traitsILb0ELb1ELb1EEEE9_M_insertIRKS1_NS3_10_AllocNodeISaINS3_10_Hash_nodeIS1_Lb0EEEEEEEESt4pairINS3_14_Node_iteratorIS1_Lb1ELb0EEEbEOT_RKT0_St17integral_constantIbLb1EEm
FN:2024,_ZNSt10_HashtableIllSaIlENSt8__detail9_IdentityESt8equal_toIlESt4hashIlENS1_18_Mod_range_hashingENS1_20_Default_ranged_hashENS1_20_Prime_rehash_policyENS1_17_Hashtable_traitsILb0ELb1ELb1EEEE5clearEv
FNDA:0,_ZNSt10_HashtableIllSaIlENSt8__detail9_IdentityESt8equal_toIlESt4hashIlENS1_18_Mod_range_hashingENS1_20_Default_ranged_hashENS1_20_Prime_rehash_policyENS1_17_Hashtable_traitsILb0ELb1ELb1EEEE5clearEv
FN:2024,_ZNSt10_HashtableINSt7__cxx1112basic_stringIcSt11char_traitsIcESaIcEEESt4pairIKS5_S5_ESaIS8_ENSt8__detail10_Select1stESt8equal_toIS5_ESt4hashIS5_ENSA_18_Mod_range_hashingENSA_20_Default_ranged_hashENSA_20_Prime_rehash_policyENSA_17_Hashtable_traitsILb1ELb0ELb1EEEE5clearEv
FNDA:0,_ZNSt10_HashtableINSt7__cxx1112basic_stringIcSt11char_traitsIcESaIcEEESt4pairIKS5_S5_ESaIS8_ENSt8__detail10_Select1stESt8equal_toIS5_ESt4hashIS5_ENSA_18_Mod_range_hashingENSA_20_Default_ranged_hashENSA_20_Prime_rehash_policyENSA_17_Hashtable_traitsILb1ELb0ELb1EEEE5clearEv
FN:2024,_ZNSt10_HashtableIP7nnode_tS1_SaIS1_ENSt8__detail9_IdentityESt8equal_toIS1_ESt4hashIS1_ENS3_18_Mod_range_hashingENS3_20_Default_ranged_hashENS3_20_Prime_rehash_policyENS3_17_Hashtable_traitsILb0ELb1ELb1EEEE5clearEv
FNDA:767366,_ZNSt10_HashtableIP7nnode_tS1_SaIS1_ENSt8__detail9_IdentityESt8equal_toIS1_ESt4hashIS1_ENS3_18_Mod_range_hashingENS3_20_Default_ranged_hashENS3_20_Prime_rehash_policyENS3_17_Hashtable_traitsILb0ELb1ELb1EEEE5clearEv
FN:2061,_ZNSt10_HashtableIP7nnode_tS1_SaIS1_ENSt8__detail9_IdentityESt8equal_toIS1_ESt4hashIS1_ENS3_18_Mod_range_hashingENS3_20_Default_ranged_hashENS3_20_Prime_rehash_policyENS3_17_Hashtable_traitsILb0ELb1ELb1EEEE9_M_rehashEmRKm
FNDA:16753,_ZNSt10_HashtableIP7nnode_tS1_SaIS1_ENSt8__detail9_IdentityESt8equal_toIS1_ESt4hashIS1_ENS3_18_Mod_range_hashingENS3_20_Default_ranged_hashENS3_20_Prime_rehash_policyENS3_17_Hashtable_traitsILb0ELb1ELb1EEEE9_M_rehashEmRKm
FN:2061,_ZNSt10_HashtableINSt7__cxx1112basic_stringIcSt11char_traitsIcESaIcEEESt4pairIKS5_S5_ESaIS8_ENSt8__detail10_Select1stESt8equal_toIS5_ESt4hashIS5_ENSA_18_Mod_range_hashingENSA_20_Default_ranged_hashENSA_20_Prime_rehash_policyENSA_17_Hashtable_traitsILb1ELb0ELb1EEEE9_M_rehashEmRKm
FNDA:0,_ZNSt10_HashtableINSt7__cxx1112basic_stringIcSt11char_traitsIcESaIcEEESt4pairIKS5_S5_ESaIS8_ENSt8__detail10_Select1stESt8equal_toIS5_ESt4hashIS5_ENSA_18_Mod_range_hashingENSA_20_Default_ranged_hashENSA_20_Prime_rehash_policyENSA_17_Hashtable_traitsILb1ELb0ELb1EEEE9_M_rehashEmRKm
FN:2061,_ZNSt10_HashtableIllSaIlENSt8__detail9_IdentityESt8equal_toIlESt4hashIlENS1_18_Mod_range_hashingENS1_20_Default_ranged_hashENS1_20_Prime_rehash_policyENS1_17_Hashtable_traitsILb0ELb1ELb1EEEE9_M_rehashEmRKm
FNDA:0,_ZNSt10_HashtableIllSaIlENSt8__detail9_IdentityESt8equal_toIlESt4hashIlENS1_18_Mod_range_hashingENS1_20_Default_ranged_hashENS1_20_Prime_rehash_policyENS1_17_Hashtable_traitsILb0ELb1ELb1EEEE9_M_rehashEmRKm
FN:2084,_ZNSt10_HashtableIllSaIlENSt8__detail9_IdentityESt8equal_toIlESt4hashIlENS1_18_Mod_range_hashingENS1_20_Default_ranged_hashENS1_20_Prime_rehash_policyENS1_17_Hashtable_traitsILb0ELb1ELb1EEEE13_M_rehash_auxEmSt17integral_constantIbLb1EE
FNDA:0,_ZNSt10_HashtableIllSaIlENSt8__detail9_IdentityESt8equal_toIlESt4hashIlENS1_18_Mod_range_hashingENS1_20_Default_ranged_hashENS1_20_Prime_rehash_policyENS1_17_Hashtable_traitsILb0ELb1ELb1EEEE13_M_rehash_auxEmSt17integral_constantIbLb1EE
FN:2084,_ZNSt10_HashtableIP7nnode_tS1_SaIS1_ENSt8__detail9_IdentityESt8equal_toIS1_ESt4hashIS1_ENS3_18_Mod_range_hashingENS3_20_Default_ranged_hashENS3_20_Prime_rehash_policyENS3_17_Hashtable_traitsILb0ELb1ELb1EEEE13_M_rehash_auxEmSt17integral_constantIbLb1EE
FNDA:16753,_ZNSt10_HashtableIP7nnode_tS1_SaIS1_ENSt8__detail9_IdentityESt8equal_toIS1_ESt4hashIS1_ENS3_18_Mod_range_hashingENS3_20_Default_ranged_hashENS3_20_Prime_rehash_policyENS3_17_Hashtable_traitsILb0ELb1ELb1EEEE13_M_rehash_auxEmSt17integral_constantIbLb1EE
FN:2084,_ZNSt10_HashtableINSt7__cxx1112basic_stringIcSt11char_traitsIcESaIcEEESt4pairIKS5_S5_ESaIS8_ENSt8__detail10_Select1stESt8equal_toIS5_ESt4hashIS5_ENSA_18_Mod_range_hashingENSA_20_Default_ranged_hashENSA_20_Prime_rehash_policyENSA_17_Hashtable_traitsILb1ELb0ELb1EEEE13_M_rehash_auxEmSt17integral_constantIbLb1EE
FNDA:0,_ZNSt10_HashtableINSt7__cxx1112basic_stringIcSt11char_traitsIcESaIcEEESt4pairIKS5_S5_ESaIS8_ENSt8__detail10_Select1stESt8equal_toIS5_ESt4hashIS5_ENSA_18_Mod_range_hashingENSA_20_Default_ranged_hashENSA_20_Prime_rehash_policyENSA_17_Hashtable_traitsILb1ELb0ELb1EEEE13_M_rehash_auxEmSt17integral_constantIbLb1EE
DA:342,22769
DA:343,22769
DA:353,16753
DA:355,16753
DA:357,0
DA:358,0
DA:361,16753
DA:365,22769
DA:367,22769
DA:370,16753
DA:374,22769
DA:375,16753
DA:383,784119
DA:414,3008
DA:512,16569300
DA:513,32760900
DA:639,10667400
DA:640,10667400
DA:643,33984400
DA:644,16753
DA:652,0
DA:655,0
DA:656,0
DA:657,0
DA:1348,0
DA:1352,0
DA:1353,0
DA:1354,0
DA:1348,0
DA:1352,0
DA:1353,0
DA:1354,0
DA:1348,6016
DA:1352,6016
DA:1353,6016
DA:1354,6016
DA:1412,16569300
DA:1417,16569300
DA:1418,16569300
DA:1419,16569300
DA:1420,16569300
DA:1532,0
DA:1538,0
DA:1539,0
DA:1542,0
DA:1545,0
DA:1546,0
DA:1548,0
DA:1560,0
DA:1564,0
DA:1568,0
DA:1569,0
DA:1576,0
DA:1577,0
DA:1578,0
DA:1581,0
DA:1582,0
DA:1584,0
DA:1560,0
DA:1564,0
DA:1568,0
DA:1569,0
DA:1576,0
DA:1577,0
DA:1578,0
DA:1581,0
DA:1582,0
DA:1584,0
DA:1560,13935900
DA:1564,13935900
DA:1568,2509220
DA:1569,2509220
DA:1576,11426700
DA:1577,11426700
DA:1578,11426700
DA:1581,10667400
DA:1582,11426700
DA:1584,13935900
DA:1632,0
DA:1638,0
DA:1639,0
DA:1643,0
DA:1651,0
DA:1652,0
DA:1655,0
DA:1656,0
DA:1660,0
DA:1698,0
DA:1704,0
DA:1705,0
DA:1711,0
DA:1713,0
DA:1714,0
DA:1717,0
DA:1720,0
DA:1721,0
DA:1722,0
DA:1724,0
DA:1726,0
DA:1727,0
DA:1698,0
DA:1704,0
DA:1705,0
DA:1711,0
DA:1713,0
DA:1714,0
DA:1717,0
DA:1720,0
DA:1721,0
DA:1722,0
DA:1724,0
DA:1726,0
DA:1727,0
DA:1698,13935900
DA:1704,13935900
DA:1705,13935900
DA:1711,13935900
DA:1713,16753
DA:1714,16753
DA:1717,13935900
DA:1720,13935900
DA:1721,13935900
DA:1722,13935900
DA:1724,0
DA:1726,0
DA:1727,0
DA:1803,0
DA:1809,0
DA:1810,0
DA:1811,0
DA:1813,0
DA:1814,0
DA:1815,0
DA:1817,0
DA:1818,0
DA:1803,17398300
DA:1809,17398300
DA:1810,17398300
DA:1811,17398300
DA:1813,17398300
DA:1814,17398300
DA:1815,3462430
DA:1817,13935900
DA:1818,13935900
DA:2024,0
DA:2028,0
DA:2029,0
DA:2030,0
DA:2031,0
DA:2032,0
DA:2024,0
DA:2028,0
DA:2029,0
DA:2030,0
DA:2031,0
DA:2032,0
DA:2024,767366
DA:2028,767366
DA:2029,767366
DA:2030,767366
DA:2031,767366
DA:2032,767366
DA:2061,0
DA:2067,0
DA:2069,0
DA:2073,0
DA:2074,0
DA:2076,0
DA:2061,0
DA:2067,0
DA:2069,0
DA:2073,0
DA:2074,0
DA:2076,0
DA:2061,16753
DA:2067,16753
DA:2069,0
DA:2073,0
DA:2074,0
DA:2076,16753
DA:2084,0
DA:2088,0
DA:2089,0
DA:2090,0
DA:2091,0
DA:2092,0
DA:2094,0
DA:2095,0
DA:2096,0
DA:2098,0
DA:2099,0
DA:2100,0
DA:2101,0
DA:2102,0
DA:2107,0
DA:2108,0
DA:2113,0
DA:2114,0
DA:2115,0
DA:2116,0
DA:2084,0
DA:2088,0
DA:2089,0
DA:2090,0
DA:2091,0
DA:2092,0
DA:2094,0
DA:2095,0
DA:2096,0
DA:2098,0
DA:2099,0
DA:2100,0
DA:2101,0
DA:2102,0
DA:2107,0
DA:2108,0
DA:2113,0
DA:2114,0
DA:2115,0
DA:2116,0
DA:2084,16753
DA:2088,16753
DA:2089,16753
DA:2090,16753
DA:2091,16753
DA:2092,4235000
DA:2094,4218250
DA:2095,4218250
DA:2096,4218250
DA:2098,3365970
DA:2099,3365970
DA:2100,3365970
DA:2101,3365970
DA:2102,3355190
DA:2107,852281
DA:2108,852281
DA:2113,16753
DA:2114,16753
DA:2115,16753
DA:2116,16753
end_of_record
SF:/usr/include/c++/9/bits/allocated_ptr.h
DA:52,0
DA:53,4576290
DA:70,4576290
DA:73,0
DA:78,4576290
DA:80,4576290
DA:85,4576290
DA:95,4576290
DA:97,4576290
end_of_record
SF:/usr/include/c++/9/bits/stl_iterator.h
DA:806,1078060000
DA:807,142770000
DA:819,516576
DA:827,514822
DA:829,66978
DA:830,447844
DA:859,4389300
DA:860,4389300
DA:871,3960
DA:893,8345920
DA:896,8345920
DA:907,147781000
DA:910,147781000
DA:989,1980
DA:992,1980
DA:1010,352548000
DA:1012,352548000
end_of_record
SF:/usr/include/c++/9/atomic
DA:80,9152590
DA:81,9152590
DA:120,23308600000
DA:121,11654300000
end_of_record
SF:/workspace/vtr-verilog-to-routing/ODIN_II/SRC/include/AtomicBuffer.hpp
FN:28,_ZN12AtomicBuffer7lock_itEv
FNDA:11654300000,_ZN12AtomicBuffer7lock_itEv
FN:84,_ZN12AtomicBufferC2Ea
FNDA:4576290,_ZN12AtomicBufferC2Ea
FN:98,_ZN12AtomicBuffer15init_all_valuesEa
FNDA:4576290,_ZN12AtomicBuffer15init_all_valuesEa
FN:129,_ZN12AtomicBuffer9get_cycleEv
FNDA:3765470000,_ZN12AtomicBuffer9get_cycleEv
FN:142,_ZN12AtomicBuffer9get_valueEl
FNDA:6580530000,_ZN12AtomicBuffer9get_valueEl
FN:149,_ZN12AtomicBuffer12update_valueEal
FNDA:1308320000,_ZN12AtomicBuffer12update_valueEal
DA:28,11654300000
DA:29,11654300000
DA:30,11654300000
DA:31,1
DA:33,11654300000
DA:35,11654300000
DA:36,11654300000
DA:37,11654300000
DA:40,6580530000
DA:41,6580530000
DA:42,6580530000
DA:43,6580530000
DA:44,6580530000
DA:45,1653010000
DA:46,1653010000
DA:47,1642890000
DA:48,1642890000
DA:49,1639690000
DA:50,1639690000
DA:51,1644940000
DA:52,1644940000
DA:58,1363240000
DA:59,1363240000
DA:60,1363240000
DA:61,1363240000
DA:63,1363240000
DA:65,1363240000
DA:66,343828000
DA:67,343828000
DA:68,343828000
DA:69,340455000
DA:70,340455000
DA:71,340455000
DA:72,339595000
DA:73,339595000
DA:74,339595000
DA:75,339357000
DA:76,339357000
DA:77,339357000
DA:84,4576290
DA:85,4576290
DA:86,4576290
DA:87,4576290
DA:88,4576290
DA:98,4576290
DA:99,4576290
DA:100,59491800
DA:101,109831000
DA:102,4576290
DA:104,3765470000
DA:105,3765470000
DA:108,1308320000
DA:110,1308320000
DA:111,1308320000
DA:113,6580530000
DA:114,13161100000
DA:117,1308320000
DA:118,1308320000
DA:119,1308320000
DA:120,1308320000
DA:129,3765470000
DA:130,3765470000
DA:131,3765470000
DA:132,3765470000
DA:133,3765470000
DA:142,6580530000
DA:143,6580530000
DA:144,6580530000
DA:145,6580530000
DA:146,6580530000
DA:149,1308320000
DA:150,1308320000
DA:151,1308320000
DA:152,1308320000
DA:153,1308320000
end_of_record
SF:/usr/include/c++/9/ext/string_conversions.h
FN:99,_ZN9__gnu_cxx12__to_xstringINSt7__cxx1112basic_stringIcSt11char_traitsIcESaIcEEEcEET_PFiPT0_mPKS8_P13__va_list_tagEmSB_z
FNDA:0,_ZN9__gnu_cxx12__to_xstringINSt7__cxx1112basic_stringIcSt11char_traitsIcESaIcEEEcEET_PFiPT0_mPKS8_P13__va_list_tagEmSB_z
DA:99,0
DA:105,0
DA:109,0
DA:111,0
DA:113,0
DA:115,0
end_of_record
SF:/usr/include/x86_64-linux-gnu/bits/string_fortified.h
DA:59,0
DA:71,0
DA:88,19408
DA:90,19408
end_of_record
SF:/usr/include/c++/9/ext/aligned_buffer.h
DA:102,37041100
DA:104,32464800
DA:108,14885600
DA:110,14885600
DA:114,37041100
DA:115,32464800
DA:118,14885600
DA:119,14885600
end_of_record
SF:/usr/include/c++/9/ext/type_traits.h
DA:152,2400430000
end_of_record
SF:/usr/include/c++/9/bits/alloc_traits.h
DA:443,18584900
DA:444,18588900
DA:469,3188130000
DA:470,3188130000
DA:482,4221390
DA:484,24814200
DA:495,18223100
DA:497,18223100
DA:505,6613490
DA:506,6613490
DA:514,348156000
DA:515,348288000
DA:545,1266220000
DA:546,1266220000
DA:553,1266220000
DA:557,1266220000
end_of_record
SF:/usr/include/c++/9/new
DA:173,368716000
DA:174,368650000
end_of_record
SF:/usr/include/c++/9/bits/char_traits.h
DA:299,2400440000
DA:300,10224
DA:315,0
DA:317,0
DA:325,0
DA:329,0
DA:335,0
DA:361,2400420000
DA:363,2400420000
DA:365,2400420000
end_of_record
SF:/usr/include/c++/9/ext/alloc_traits.h
DA:97,348288000
DA:98,348288000
end_of_record
SF:/usr/include/c++/9/typeinfo
DA:120,0
DA:122,0
DA:123,0
DA:124,0
end_of_record
SF:/usr/include/c++/9/bits/deque.tcc
FN:479,_ZNSt5dequeIP7nnode_tSaIS1_EE16_M_push_back_auxIJRKS1_EEEvDpOT_
FNDA:65801,_ZNSt5dequeIP7nnode_tSaIS1_EE16_M_push_back_auxIJRKS1_EEEvDpOT_
FN:926,_ZNSt5dequeIP7nnode_tSaIS1_EE17_M_reallocate_mapEmb
FNDA:3646,_ZNSt5dequeIP7nnode_tSaIS1_EE17_M_reallocate_mapEmb
DA:479,65801
DA:487,65801
DA:488,0
DA:491,65801
DA:492,65801
DA:496,65801
DA:502,65801
DA:504,65801
DA:511,65801
DA:571,65801
DA:574,65801
DA:576,65801
DA:577,65801
DA:578,65801
DA:579,65801
DA:926,3646
DA:929,3646
DA:930,3646
DA:931,3646
DA:934,3646
DA:936,5428
DA:937,2714
DA:938,2714
DA:939,2714
DA:940,2714
DA:944,0
DA:950,932
DA:951,932
DA:954,932
DA:955,1864
DA:956,932
DA:957,1864
DA:958,932
DA:960,932
DA:962,932
DA:963,932
DA:966,3646
DA:967,3646
DA:968,3646
end_of_record
SF:/usr/include/c++/9/bits/unordered_map.h
DA:102,0
DA:141,0
DA:346,0
DA:347,0
DA:585,0
DA:586,0
DA:920,0
DA:921,0
end_of_record
SF:/usr/include/string.h
DA:213,0
DA:215,0
DA:219,0
DA:221,0
DA:317,0
DA:319,0
end_of_record
SF:/usr/include/c++/9/bits/stl_uninitialized.h
FN:76,_ZNSt20__uninitialized_copyILb0EE13__uninit_copyIN9__gnu_cxx17__normal_iteratorIPKNSt7__cxx1112basic_stringIcSt11char_traitsIcESaIcEEESt6vectorIS9_SaIS9_EEEEPS9_EET0_T_SI_SH_
FNDA:4387040,_ZNSt20__uninitialized_copyILb0EE13__uninit_copyIN9__gnu_cxx17__normal_iteratorIPKNSt7__cxx1112basic_stringIcSt11char_traitsIcESaIcEEESt6vectorIS9_SaIS9_EEEEPS9_EET0_T_SI_SH_
FN:215,_ZNSt22__uninitialized_fill_nILb0EE15__uninit_fill_nIPSt6vectorIhSaIhEEmS4_EET_S6_T0_RKT1_
FNDA:10491,_ZNSt22__uninitialized_fill_nILb0EE15__uninit_fill_nIPSt6vectorIhSaIhEEmS4_EET_S6_T0_RKT1_
DA:76,4387040
DA:79,4387040
DA:82,4454020
DA:83,133956
DA:84,4387040
DA:86,0
DA:88,0
DA:89,0
DA:99,343769000
DA:101,343769000
DA:115,348156000
DA:134,348156000
DA:140,348156000
DA:215,10491
DA:218,10491
DA:221,343780000
DA:222,343769000
DA:223,10491
DA:225,0
DA:227,0
DA:228,0
DA:238,6533240
DA:240,13066500
DA:256,6543730
DA:270,6543730
DA:273,13077000
DA:305,348156000
DA:307,4387040
DA:382,10491
DA:384,6543730
DA:905,1980
DA:912,1980
DA:913,1980
DA:949,1980
DA:950,1980
DA:964,3960
end_of_record
SF:/usr/include/c++/9/streambuf
end_of_record
SF:/usr/include/x86_64-linux-gnu/bits/stdio2.h
DA:64,0
DA:67,0
DA:98,9024
DA:100,9024
DA:105,23320
DA:107,20686
DA:255,1550180
DA:257,1550180
DA:259,0
DA:262,0
DA:263,0
DA:265,1550180
end_of_record
SF:/usr/include/c++/9/bits/stl_vector.h
FN:519,_ZNSt6vectorIS_IhSaIhEESaIS1_EEC2EmRKS1_RKS2_
FNDA:10491,_ZNSt6vectorIS_IhSaIhEESaIS1_EEC2EmRKS1_RKS2_
FN:519,_ZNSt6vectorIhSaIhEEC2EmRKhRKS0_
FNDA:6533240,_ZNSt6vectorIhSaIhEEC2EmRKhRKS0_
FN:550,_ZNSt6vectorIhSaIhEEC2ERKS1_
FNDA:343769000,_ZNSt6vectorIhSaIhEEC2ERKS1_
FN:550,_ZNSt6vectorINSt7__cxx1112basic_stringIcSt11char_traitsIcESaIcEEESaIS5_EEC2ERKS7_
FNDA:4387040,_ZNSt6vectorINSt7__cxx1112basic_stringIcSt11char_traitsIcESaIcEEESaIS5_EEC2ERKS7_
FN:550,_ZNSt6vectorIN8BitSpace9BitFieldsItEESaIS2_EEC2ERKS4_
FNDA:0,_ZNSt6vectorIN8BitSpace9BitFieldsItEESaIS2_EEC2ERKS4_
FN:675,_ZNSt6vectorINSt7__cxx1112basic_stringIcSt11char_traitsIcESaIcEEESaIS5_EED2Ev
FNDA:4387040,_ZNSt6vectorINSt7__cxx1112basic_stringIcSt11char_traitsIcESaIcEEESaIS5_EED2Ev
FN:675,_ZNSt6vectorIS_IhSaIhEESaIS1_EED2Ev
FNDA:20982,_ZNSt6vectorIS_IhSaIhEESaIS1_EED2Ev
FN:675,_ZNSt6vectorISt6threadSaIS0_EED2Ev
FNDA:142725000,_ZNSt6vectorISt6threadSaIS0_EED2Ev
FN:1753,_ZNKSt6vectorISt6threadSaIS0_EE12_M_check_lenEmPKc
FNDA:1980,_ZNKSt6vectorISt6threadSaIS0_EE12_M_check_lenEmPKc
FN:1753,_ZNKSt6vectorIN8BitSpace9BitFieldsItEESaIS2_EE12_M_check_lenEmPKc
FNDA:0,_ZNKSt6vectorIN8BitSpace9BitFieldsItEESaIS2_EE12_M_check_lenEmPKc
FN:1753,_ZNKSt6vectorINSt7__cxx1112basic_stringIcSt11char_traitsIcESaIcEEESaIS5_EE12_M_check_lenEmPKc
FNDA:0,_ZNKSt6vectorINSt7__cxx1112basic_stringIcSt11char_traitsIcESaIcEEESaIS5_EE12_M_check_lenEmPKc
DA:94,1763650000
DA:95,1763650000
DA:106,1266220000
DA:108,1266220000
DA:109,1266220000
DA:110,1266220000
DA:114,1266220000
DA:118,1266220000
DA:119,1266220000
DA:120,1266220000
DA:121,1266220000
DA:125,2407800000
DA:128,852334000
DA:130,852334000
DA:133,1620920000
DA:134,1620920000
DA:273,1980
DA:274,1980
DA:277,1614380000
DA:278,1614380000
DA:281,1266220000
DA:282,1266220000
DA:285,852334000
DA:290,1266220000
DA:291,1266220000
DA:300,354700000
DA:301,354700000
DA:302,354700000
DA:330,2407800000
DA:332,3598190000
DA:333,2407800000
DA:334,2407800000
DA:347,2407800000
DA:350,507804000
DA:351,1835950000
DA:356,354700000
DA:358,6543730
DA:359,354700000
DA:360,354700000
DA:453,9900
DA:462,3960
DA:466,3960
DA:484,852334000
DA:494,1266220000
DA:495,1266220000
DA:519,10491
DA:521,10491
DA:522,20982
DA:519,6533240
DA:521,6533240
DA:522,13066500
DA:550,343769000
DA:552,343769000
DA:554,343769000
DA:555,687538000
DA:557,343769000
DA:558,343769000
DA:550,4387040
DA:552,4387040
DA:554,4387040
DA:555,8774090
DA:557,4387040
DA:558,4387040
DA:550,0
DA:552,0
DA:554,0
DA:555,0
DA:557,0
DA:558,0
DA:675,4387040
DA:677,8774090
DA:678,4387040
DA:680,4387040
DA:675,20982
DA:677,41964
DA:678,20982
DA:680,20982
DA:675,142725000
DA:677,285450000
DA:678,142725000
DA:680,142725000
DA:675,2260670000
DA:677,2260670000
DA:678,2260670000
DA:680,2545510000
DA:706,1266230000
DA:708,1266230000
DA:711,10491
DA:808,147161000
DA:809,142772000
DA:817,360891000
DA:818,356502000
DA:826,864212000
DA:827,864212000
DA:835,360891000
DA:836,352545000
DA:915,0
DA:916,354740000
DA:920,3960
DA:921,5940
DA:995,4389300
DA:997,4389300
DA:1004,8345920
DA:1005,8345920
DA:1040,390361000
DA:1043,390361000
DA:1200,719131000
DA:1201,719131000
DA:1590,6543730
DA:1592,6543730
DA:1593,10491
DA:1594,6543730
DA:1753,1980
DA:1755,1980
DA:1756,0
DA:1758,1980
DA:1759,1980
DA:1753,0
DA:1755,0
DA:1756,0
DA:1758,0
DA:1759,0
DA:1753,0
DA:1755,0
DA:1756,0
DA:1758,0
DA:1759,0
DA:1764,6543730
DA:1766,6543730
DA:1767,0
DA:1773,6547690
DA:1780,6547690
DA:1781,6547690
DA:1812,1266220000
DA:1814,1621030000
DA:1815,1266220000
DA:1816,1266220000
DA:1817,1266220000
end_of_record
SF:/usr/include/c++/9/bits/atomic_base.h
DA:120,23308600000
DA:121,11654300000
DA:288,9152590
DA:290,9152590
DA:390,9152590
DA:392,9152590
DA:397,9152590
DA:433,23308600000
DA:436,11654300000
end_of_record
SF:/usr/include/c++/9/ext/new_allocator.h
DA:80,3268480000
DA:83,1625630000
DA:89,5031800000
DA:102,18584900
DA:104,18584900
DA:105,0
DA:114,3940
DA:119,3188130000
DA:128,3188130000
DA:132,25198400
DA:144,24880000
DA:147,24814200
DA:151,18223100
DA:153,1980
end_of_record
SF:/workspace/vtr-verilog-to-routing/ODIN_II/SRC/simulate_blif.cpp
FN:56,_ZL13get_edge_typeP6npin_ti
FNDA:378329000,_ZL13get_edge_typeP6npin_ti
FN:84,_ZL10ff_trigger11edge_type_eP6npin_ti
FNDA:378329000,_ZL10ff_trigger11edge_type_eP6npin_ti
FN:114,_ZL10compute_ffbP6npin_tS0_i
FNDA:374370000,_ZL10compute_ffbP6npin_tS0_i
FN:118,_ZL13is_clock_nodeP7nnode_t
FNDA:1200070000,_ZL13is_clock_nodeP7nnode_t
FN:209,_Z16simulate_netlistP9netlist_t
FNDA:3008,_Z16simulate_netlistP9netlist_t
FN:245,_Z15init_simulationP9netlist_t
FNDA:3008,_Z15init_simulationP9netlist_t
FN:343,_Z20terminate_simulationP10sim_data_t
FNDA:3008,_Z20terminate_simulationP10sim_data_t
FN:362,_Z14simulate_stepsP10sim_data_td
FNDA:3008,_Z14simulate_stepsP10sim_data_td
FN:423,_Z11single_stepP10sim_data_ti
FNDA:394963,_Z11single_stepP10sim_data_ti
FN:476,_ZL22compute_and_store_partiiiP8stages_ti
FNDA:142727000,_ZL22compute_and_store_partiiiP8stages_ti
FN:482,_ZL14simulate_cycleiP8stages_t
FNDA:391955,_ZL14simulate_cycleiP8stages_t
FN:525,_ZL26update_undriven_input_pinsP7nnode_ti
FNDA:16735600,_ZL26update_undriven_input_pinsP7nnode_ti
FN:551,_ZL13is_node_readyP7nnode_ti
FNDA:1212190000,_ZL13is_node_readyP7nnode_ti
FN:621,_ZL20simulate_first_cycleP9netlist_tiP7lines_t
FNDA:3008,_ZL20simulate_first_cycleP9netlist_tiP7lines_t
FN:683,_ZL19stage_ordered_nodesPP7nnode_ti
FNDA:3008,_ZL19stage_ordered_nodesPP7nnode_ti
FN:771,_ZL23compute_and_store_valueP7nnode_ti
FNDA:1199740000,_ZL23compute_and_store_valueP7nnode_ti
FN:1120,_ZL21get_num_covered_nodesP8stages_t
FNDA:3248,_ZL21get_num_covered_nodesP8stages_t
FN:1144,_Z15set_clock_ratioiP7nnode_t
FNDA:0,_Z15set_clock_ratioiP7nnode_t
FN:1155,_Z15get_clock_ratioP7nnode_t
FNDA:0,_Z15get_clock_ratioP7nnode_t
FN:1178,_Z15get_children_ofP7nnode_tPi
FNDA:8570430,_Z15get_children_ofP7nnode_tPi
FN:1264,_Z23get_children_of_nodepinP7nnode_tPii
FNDA:0,_Z23get_children_of_nodepinP7nnode_tPii
FN:1359,_ZL14initialize_pinP6npin_t
FNDA:6774920,_ZL14initialize_pinP6npin_t
FN:1390,_ZL16update_pin_valueP6npin_thi
FNDA:1308320000,_ZL16update_pin_valueP6npin_thi
FN:1399,_Z13get_pin_valueP6npin_ti
FNDA:6580530000,_Z13get_pin_valueP6npin_ti
FN:1408,_ZL13get_pin_cycleP6npin_t
FNDA:3765470000,_ZL13get_pin_cycleP6npin_t
FN:1417,_ZL21compute_flipflop_nodeP7nnode_ti
FNDA:374370000,_ZL21compute_flipflop_nodeP7nnode_ti
FN:1433,_ZL18compute_mux_2_nodeP7nnode_ti
FNDA:257874000,_ZL18compute_mux_2_nodeP7nnode_ti
FN:1499,_ZL19compute_smux_2_nodeP7nnode_ti
FNDA:1639750,_ZL19compute_smux_2_nodeP7nnode_ti
FN:1563,_ZL20compute_hard_ip_nodeP7nnode_ti
FNDA:0,_ZL20compute_hard_ip_nodeP7nnode_ti
FN:1621,_ZL20compute_generic_nodeP7nnode_ti
FNDA:0,_ZL20compute_generic_nodeP7nnode_ti
FN:1664,_ZL16compute_add_nodeP7nnode_ti
FNDA:75369800,_ZL16compute_add_nodeP7nnode_ti
FN:1713,_ZL22compute_unary_sub_nodeP7nnode_ti
FNDA:0,_ZL22compute_unary_sub_nodeP7nnode_ti
FN:1754,_ZL19compute_memory_nodeP7nnode_ti
FNDA:3958880,_ZL19compute_memory_nodeP7nnode_ti
FN:1780,_ZL20read_write_to_memoryP7nnode_tP13signal_list_tS2_S2_bP6npin_ti
FNDA:6522740,_ZL20read_write_to_memoryP7nnode_tP13signal_list_tS2_S2_bP6npin_ti
FN:1814,_ZL26compute_single_port_memoryP7nnode_ti
FNDA:1395010,_ZL26compute_single_port_memoryP7nnode_ti
FN:1830,_ZL24compute_dual_port_memoryP7nnode_ti
FNDA:2563870,_ZL24compute_dual_port_memoryP7nnode_ti
FN:1849,_ZL18instantiate_memoryP7nnode_tll
FNDA:10491,_ZL18instantiate_memoryP7nnode_tll
FN:1859,_ZL15parse_mif_radixNSt7__cxx1112basic_stringIcSt11char_traitsIcESaIcEEE
FNDA:0,_ZL15parse_mif_radixNSt7__cxx1112basic_stringIcSt11char_traitsIcESaIcEEE
FN:1863,_ZL27assign_memory_from_mif_fileP7nnode_tPKcil
FNDA:0,_ZL27assign_memory_from_mif_fileP7nnode_tPKcil
FN:2010,_ZL19assign_node_to_lineP7nnode_tP7lines_tii
FNDA:166846,_ZL19assign_node_to_lineP7nnode_tP7lines_tii
FN:2053,_ZL20insert_pin_into_lineP6npin_tiP6line_ti
FNDA:166846,_ZL20insert_pin_into_lineP6npin_tiP6line_ti
FN:2084,_ZL12create_linesP9netlist_ti
FNDA:6016,_ZL12create_linesP9netlist_ti
FN:2119,_ZL20write_vector_headersP8_IO_FILEP7lines_t
FNDA:6016,_ZL20write_vector_headersP8_IO_FILEP7lines_t
FN:2132,_ZL26verify_test_vector_headersP8_IO_FILEP7lines_t
FNDA:2640,_ZL26verify_test_vector_headersP8_IO_FILEP7lines_t
FN:2216,_ZL11create_linePc
FNDA:19408,_ZL11create_linePc
FN:2284,_ZL20compare_test_vectorsP11test_vectorS0_
FNDA:385955,_ZL20compare_test_vectorsP11test_vectorS0_
FN:2323,_ZL17parse_test_vectorPc
FNDA:1155280,_ZL17parse_test_vectorPc
FN:2385,_ZL25contains_a_substr_of_nameSt6vectorINSt7__cxx1112basic_stringIcSt11char_traitsIcESaIcEEESaIS5_EEPKc
FNDA:101828,_ZL25contains_a_substr_of_nameSt6vectorINSt7__cxx1112basic_stringIcSt11char_traitsIcESaIcEEESaIS5_EEPKc
FN:2481,_ZL19write_cycle_to_fileP7lines_tP8_IO_FILEi
FNDA:789926,_ZL19write_cycle_to_fileP7lines_tP8_IO_FILEi
FN:2612,_ZL21verify_output_vectorsPKci
FNDA:2634,_ZL21verify_output_vectorsPKci
FN:2708,_ZL29add_additional_items_to_linesP7nnode_tP7lines_t
FNDA:4285220,_ZL29add_additional_items_to_linesP7nnode_tP7lines_t
FN:2815,_Z18get_line_pin_valueP6line_tii
FNDA:0,_Z18get_line_pin_valueP6line_tii
FN:2822,_ZL18count_test_vectorsP8_IO_FILE
FNDA:2640,_ZL18count_test_vectorsP8_IO_FILE
FN:2841,_ZL24count_empty_test_vectorsP8_IO_FILE
FNDA:0,_ZL24count_empty_test_vectorsP8_IO_FILE
FN:2862,_ZL9is_vectorPc
FNDA:1544910,_ZL9is_vectorPc
FN:2881,_ZL15get_next_vectorP8_IO_FILEPc
FNDA:1549200,_ZL15get_next_vectorP8_IO_FILEPc
FN:2897,_ZL10free_linesP7lines_t
FNDA:6016,_ZL10free_linesP7lines_t
FN:2921,_ZL11free_stagesP8stages_t
FNDA:3008,_ZL11free_stagesP8stages_t
FN:2943,_ZL16free_test_vectorP11test_vector
FNDA:1166870,_ZL16free_test_vectorP11test_vector
FN:2996,_ZL14print_ancestryP7nnode_ti
FNDA:0,_ZL14print_ancestryP7nnode_ti
FN:3088,_ZL18print_update_traceP7nnode_ti
FNDA:0,_ZL18print_update_traceP7nnode_ti
DA:43,4586780
DA:45,4586780
DA:56,378329000
DA:57,378329000
DA:59,378329000
DA:60,378329000
DA:62,378329000
DA:63,377291000
DA:64,377291000
DA:67,377291000
DA:68,377291000
DA:70,188602000
DA:71,188602000
DA:74,378329000
DA:75,190381000
DA:77,94666400
DA:78,94666400
DA:84,378329000
DA:85,378329000
DA:87,378329000
DA:88,378329000
DA:89,378329000
DA:90,282614000
DA:91,282614000
DA:92,660943000
DA:95,374370000
DA:96,374370000
DA:99,374370000
DA:100,374370000
DA:103,374370000
DA:104,374370000
DA:114,374370000
DA:115,374370000
DA:118,1200070000
DA:119,3599890000
DA:120,3599980000
DA:209,3008
DA:210,3008
DA:211,3008
DA:212,3008
DA:214,3008
DA:215,3008
DA:216,6
DA:217,3002
DA:218,26
DA:221,3008
DA:223,3008
DA:224,3008
DA:226,3008
DA:228,3008
DA:229,2634
DA:230,2634
DA:232,0
DA:233,2634
DA:237,3008
DA:239,3008
DA:240,3008
DA:245,3008
DA:246,3008
DA:247,3008
DA:248,4
DA:250,3008
DA:252,3008
DA:254,3008
DA:255,3008
DA:256,3008
DA:259,3008
DA:260,3008
DA:261,3008
DA:262,3008
DA:263,0
DA:266,3008
DA:267,3008
DA:268,3008
DA:269,3008
DA:270,0
DA:273,3008
DA:274,3008
DA:275,3008
DA:276,3008
DA:277,0
DA:280,3008
DA:281,3008
DA:282,3008
DA:283,3008
DA:284,0
DA:287,3008
DA:288,3008
DA:289,0
DA:291,3008
DA:292,3008
DA:293,0
DA:295,3008
DA:300,3008
DA:301,2640
DA:302,2640
DA:303,0
DA:306,3008
DA:307,2640
DA:310,2640
DA:311,0
DA:313,2640
DA:314,2640
DA:318,368
DA:319,0
DA:321,368
DA:323,368
DA:324,368
DA:326,368
DA:330,3008
DA:331,3008
DA:333,3008
DA:335,3008
DA:336,0
DA:337,0
DA:340,3008
DA:343,3008
DA:344,3008
DA:346,3008
DA:348,3008
DA:349,3008
DA:351,3008
DA:352,3008
DA:353,3008
DA:354,2640
DA:356,3008
DA:357,3008
DA:358,3008
DA:359,3008
DA:362,3008
DA:363,3008
DA:365,3008
DA:366,3008
DA:368,3008
DA:370,3008
DA:371,3008
DA:372,397971
DA:373,394963
DA:376,394963
DA:377,10922
DA:378,240
DA:379,240
DA:380,234
DA:381,26
DA:382,26
DA:383,26
DA:384,208
DA:386,182
DA:387,182
DA:391,6
DA:392,0
DA:396,394963
DA:397,394963
DA:399,394963
DA:402,394963
DA:405,394963
DA:406,3008
DA:408,394963
DA:411,394963
DA:412,391955
DA:413,391955
DA:416,394963
DA:418,3008
DA:423,394963
DA:424,394963
DA:428,394963
DA:431,394963
DA:432,383369
DA:434,383369
DA:435,0
DA:437,383369
DA:439,11594
DA:442,394963
DA:443,394963
DA:444,394963
DA:445,394963
DA:447,394963
DA:450,3008
DA:453,3008
DA:454,0
DA:457,391955
DA:459,394963
DA:461,394963
DA:463,394963
DA:476,142727000
DA:477,1338180000
DA:478,1195450000
DA:479,1195450000
DA:480,142727000
DA:482,391955
DA:483,391955
DA:484,143117000
DA:485,142725000
DA:487,142725000
DA:488,142725000
DA:490,142725000
DA:491,142725000
DA:493,285452000
DA:494,142727000
DA:495,142727000
DA:497,142727000
DA:498,142727000
DA:500,142727000
DA:501,142727000
DA:502,3960
DA:504,142725000
DA:508,142727000
DA:509,1980
DA:511,142725000
DA:513,391955
DA:525,16735600
DA:526,16735600
DA:527,16735600
DA:528,0
DA:531,16735600
DA:532,0
DA:533,0
DA:535,0
DA:537,0
DA:546,16735600
DA:551,1212190000
DA:552,1212190000
DA:558,520493000
DA:559,503757000
DA:561,503757000
DA:562,1007510000
DA:563,503757000
DA:565,503757000
DA:568,0
DA:569,0
DA:570,0
DA:573,0
DA:574,0
DA:575,0
DA:577,0
DA:581,16735600
DA:584,1212190000
DA:585,376009000
DA:586,376009000
DA:589,376009000
DA:592,376009000
DA:593,0
DA:594,836180000
DA:596,120276000
DA:597,116305000
DA:599,116305000
DA:600,6551570
DA:603,109754000
DA:609,3716290000
DA:610,2891640000
DA:621,3008
DA:622,3008
DA:625,78779
DA:626,75771
DA:627,75771
DA:628,151542
DA:633,3008
DA:634,3008
DA:635,12032
DA:636,9024
DA:637,9024
DA:638,18048
DA:645,4288220
DA:646,4285220
DA:647,4285220
DA:648,4285220
DA:650,4285220
DA:653,4285220
DA:654,4285220
DA:656,17398300
DA:657,13113100
DA:659,13113100
DA:660,4200420
DA:661,17313500
DA:664,4285220
DA:666,4285220
DA:669,4285220
DA:670,4285220
DA:674,3008
DA:675,3008
DA:677,3008
DA:683,3008
DA:684,3008
DA:685,3008
DA:686,3008
DA:687,3008
DA:688,3008
DA:689,3008
DA:690,3008
DA:691,3008
DA:692,3008
DA:693,3008
DA:694,3008
DA:697,3008
DA:698,3008
DA:700,3008
DA:701,4288220
DA:702,4285220
DA:703,4285220
DA:706,4285220
DA:707,4285220
DA:710,8570430
DA:713,4285220
DA:714,4285220
DA:715,16191600
DA:716,24568100
DA:720,4285220
DA:721,377667
DA:722,377667
DA:723,377667
DA:724,377667
DA:725,377667
DA:726,377667
DA:727,377667
DA:729,377667
DA:730,377667
DA:734,4285220
DA:735,4285220
DA:738,4285220
DA:741,17398300
DA:743,13113100
DA:747,4285220
DA:749,4285220
DA:751,4285220
DA:753,3008
DA:754,3008
DA:755,6016
DA:771,1199740000
DA:773,1199740000
DA:774,1199740000
DA:775,1199050000
DA:776,257874000
DA:777,257874000
DA:778,257874000
DA:779,1639750
DA:780,1639750
DA:781,1639750
DA:782,374370000
DA:783,374370000
DA:784,374370000
DA:785,3958880
DA:786,3958880
DA:787,3958880
DA:788,1128840
DA:789,1128840
DA:790,1128840
DA:791,2257690
DA:792,2257690
DA:793,2257690
DA:794,32904900
DA:795,31776000
DA:797,1128840
DA:799,19308900
DA:800,19308900
DA:801,19308900
DA:802,19308900
DA:803,19308900
DA:804,19308900
DA:806,49450900
DA:807,49450900
DA:808,49450900
DA:809,98901900
DA:810,49450900
DA:811,49450900
DA:812,49450900
DA:814,27088300
DA:815,27088300
DA:816,54176500
DA:817,27088300
DA:818,27088300
DA:819,27088300
DA:821,14972
DA:822,14972
DA:823,29944
DA:824,14972
DA:825,14972
DA:826,14972
DA:828,55465200
DA:829,55465200
DA:830,55465200
DA:831,55465200
DA:832,110930000
DA:833,55465200
DA:834,55465200
DA:835,55465200
DA:837,0
DA:838,0
DA:839,0
DA:841,0
DA:842,0
DA:843,0
DA:845,0
DA:846,0
DA:847,0
DA:848,0
DA:850,0
DA:854,19970300
DA:855,19970300
DA:856,19970300
DA:858,19970300
DA:859,19970300
DA:860,19970300
DA:862,19970300
DA:863,3723430
DA:864,16246800
DA:865,339020
DA:867,15907800
DA:871,106998000
DA:872,106998000
DA:873,106998000
DA:875,106998000
DA:876,106998000
DA:877,106998000
DA:878,106998000
DA:880,106998000
DA:882,100970000
DA:883,100970000
DA:884,100970000
DA:886,100970000
DA:887,100970000
DA:888,100970000
DA:889,100970000
DA:891,100970000
DA:893,27961600
DA:894,27961600
DA:895,27961600
DA:896,27961600
DA:897,55923200
DA:898,27961600
DA:899,27961600
DA:900,27961600
DA:902,41826400
DA:903,41826400
DA:904,41826400
DA:905,41826400
DA:906,83652700
DA:907,41826400
DA:908,41826400
DA:909,41826400
DA:911,0
DA:912,0
DA:913,0
DA:914,0
DA:915,0
DA:917,0
DA:918,0
DA:919,0
DA:920,0
DA:921,0
DA:922,0
DA:923,0
DA:924,0
DA:926,0
DA:928,0
DA:929,0
DA:930,0
DA:931,0
DA:932,0
DA:933,0
DA:934,0
DA:935,0
DA:937,0
DA:939,0
DA:940,0
DA:941,0
DA:942,0
DA:943,0
DA:944,0
DA:945,0
DA:946,0
DA:948,0
DA:950,0
DA:951,0
DA:952,0
DA:953,0
DA:954,0
DA:955,0
DA:956,0
DA:957,0
DA:959,0
DA:961,0
DA:962,0
DA:963,0
DA:964,0
DA:965,0
DA:966,0
DA:967,0
DA:968,0
DA:970,0
DA:972,0
DA:973,0
DA:974,0
DA:975,0
DA:976,0
DA:977,0
DA:978,0
DA:979,0
DA:981,0
DA:983,0
DA:984,0
DA:985,0
DA:986,0
DA:987,0
DA:988,0
DA:989,0
DA:990,0
DA:992,0
DA:994,693826
DA:995,693826
DA:997,693826
DA:1000,693826
DA:1001,693826
DA:1002,0
DA:1003,0
DA:1004,0
DA:1007,0
DA:1008,0
DA:1009,0
DA:1011,0
DA:1012,0
DA:1014,0
DA:1015,0
DA:1016,0
DA:1019,0
DA:1020,0
DA:1024,0
DA:1026,0
DA:1027,0
DA:1028,0
DA:1030,0
DA:1031,0
DA:1032,0
DA:1034,0
DA:1039,394963
DA:1040,394963
DA:1041,394963
DA:1042,394963
DA:1043,394963
DA:1044,394963
DA:1045,394963
DA:1046,394963
DA:1047,394963
DA:1048,394963
DA:1050,394963
DA:1051,394963
DA:1054,19308700
DA:1055,19308700
DA:1057,19308700
DA:1058,19308700
DA:1059,0
DA:1060,0
DA:1061,0
DA:1062,0
DA:1063,0
DA:1064,0
DA:1065,75369800
DA:1066,75369800
DA:1067,75369800
DA:1068,0
DA:1069,0
DA:1070,0
DA:1072,0
DA:1075,0
DA:1076,0
DA:1077,0
DA:1078,0
DA:1079,0
DA:1080,0
DA:1081,0
DA:1082,0
DA:1083,0
DA:1084,0
DA:1085,0
DA:1086,0
DA:1087,0
DA:1088,0
DA:1092,1199740000
DA:1093,1199740000
DA:1096,2473100000
DA:1097,1290390000
DA:1098,1290390000
DA:1101,1290390000
DA:1102,89774700
DA:1103,89774700
DA:1104,1781860
DA:1109,1199740000
DA:1114,1199740000
DA:1120,3248
DA:1121,3248
DA:1122,385387
DA:1123,4683150
DA:1124,4325170
DA:1126,3248
DA:1144,4414
DA:1146,4414
DA:1149,4414
DA:1155,0
DA:1157,0
DA:1160,0
DA:1166,15654300
DA:1167,17853000
DA:1168,15654400
DA:1178,8570430
DA:1179,8570430
DA:1180,8570430
DA:1181,8570430
DA:1182,17723100
DA:1183,9152630
DA:1184,9152630
DA:1185,9152630
DA:1189,17941000
DA:1190,0
DA:1191,0
DA:1192,0
DA:1194,0
DA:1196,0
DA:1197,0
DA:1198,0
DA:1200,0
DA:1209,0
DA:1210,0
DA:1211,0
DA:1215,35196700
DA:1216,26226200
DA:1217,26226200
DA:1218,26226200
DA:1220,26226200
DA:1222,26226200
DA:1223,0
DA:1224,0
DA:1225,0
DA:1227,26226200
DA:1230,52452600
DA:1231,26226400
DA:1232,26226400
DA:1234,26226400
DA:1235,26226200
DA:1239,26226200
DA:1240,0
DA:1241,0
DA:1242,0
DA:1246,0
DA:1248,26226200
DA:1249,26226200
DA:1255,8570430
DA:1256,8570430
DA:1264,0
DA:1265,0
DA:1266,0
DA:1267,0
DA:1268,0
DA:1269,0
DA:1270,0
DA:1273,0
DA:1274,0
DA:1275,0
DA:1279,0
DA:1280,0
DA:1281,0
DA:1282,0
