TN:
SF:/usr/include/c++/9/bits/alloc_traits.h
FN:443,_ZNSt16allocator_traitsISaIlEE8allocateERS0_m
FN:469,_ZNSt16allocator_traitsISaIlEE10deallocateERS0_Plm
FN:469,_ZNSt16allocator_traitsISaINSt7__cxx1112basic_stringIcSt11char_traitsIcESaIcEEEEE10deallocateERS6_PS5_m
FN:469,_ZNSt16allocator_traitsISaIiEE10deallocateERS0_Pim
FN:469,_ZNSt16allocator_traitsISaI14s_wireconn_infEE10deallocateERS1_PS0_m
FN:469,_ZNSt16allocator_traitsISaI17s_switchblock_infEE10deallocateERS1_PS0_m
FN:469,_ZNSt16allocator_traitsISaISt13_Rb_tree_nodeISt4pairIK18SB_Side_ConnectionSt6vectorINSt7__cxx1112basic_stringIcSt11char_traitsIcESaIcEEESaISA_EEEEEE10deallocateERSF_PSE_m
FN:482,_ZNSt16allocator_traitsISaIlEE9constructIlJlEEEvRS0_PT_DpOT0_
FN:495,_ZNSt16allocator_traitsISaISt13_Rb_tree_nodeISt4pairIK18SB_Side_ConnectionSt6vectorINSt7__cxx1112basic_stringIcSt11char_traitsIcESaIcEEESaISA_EEEEEE7destroyISD_EEvRSF_PT_
FN:495,_ZNSt16allocator_traitsISaIlEE7destroyIlEEvRS0_PT_
FN:505,_ZNSt16allocator_traitsISaIlEE8max_sizeERKS0_
FN:514,_ZNSt16allocator_traitsISaIcEE37select_on_container_copy_constructionERKS0_
FN:545,_ZSt18__do_alloc_on_moveISaIlEEvRT_S2_St17integral_constantIbLb1EE
FN:553,_ZSt15__alloc_on_moveISaIlEEvRT_S2_
FNDA:0,_ZNSt16allocator_traitsISaI17s_switchblock_infEE10deallocateERS1_PS0_m
FNDA:0,_ZNSt16allocator_traitsISaISt13_Rb_tree_nodeISt4pairIK18SB_Side_ConnectionSt6vectorINSt7__cxx1112basic_stringIcSt11char_traitsIcESaIcEEESaISA_EEEEEE10deallocateERSF_PSE_m
FNDA:187,_ZNSt16allocator_traitsISaIlEE8allocateERS0_m
FNDA:17,_ZSt15__alloc_on_moveISaIlEEvRT_S2_
FNDA:0,_ZNSt16allocator_traitsISaIcEE37select_on_container_copy_constructionERKS0_
FNDA:0,_ZNSt16allocator_traitsISaI14s_wireconn_infEE10deallocateERS1_PS0_m
FNDA:17,_ZSt18__do_alloc_on_moveISaIlEEvRT_S2_St17integral_constantIbLb1EE
FNDA:0,_ZNSt16allocator_traitsISaIlEE7destroyIlEEvRS0_PT_
FNDA:0,_ZNSt16allocator_traitsISaISt13_Rb_tree_nodeISt4pairIK18SB_Side_ConnectionSt6vectorINSt7__cxx1112basic_stringIcSt11char_traitsIcESaIcEEESaISA_EEEEEE7destroyISD_EEvRSF_PT_
FNDA:0,_ZNSt16allocator_traitsISaIiEE10deallocateERS0_Pim
FNDA:204,_ZNSt16allocator_traitsISaINSt7__cxx1112basic_stringIcSt11char_traitsIcESaIcEEEEE10deallocateERS6_PS5_m
FNDA:187,_ZNSt16allocator_traitsISaIlEE10deallocateERS0_Plm
FNDA:13855,_ZNSt16allocator_traitsISaIlEE9constructIlJlEEEvRS0_PT_DpOT0_
FNDA:374,_ZNSt16allocator_traitsISaIlEE8max_sizeERKS0_
FNF:14
FNH:7
DA:443,187
DA:444,187
DA:469,391
DA:470,391
DA:482,13855
DA:484,13855
DA:495,0
DA:497,0
DA:505,374
DA:506,374
DA:514,0
DA:515,0
DA:545,17
DA:546,17
DA:553,17
DA:557,17
DA:558,17
LF:17
LH:13
end_of_record
TN:
SF:/usr/include/c++/9/bits/allocator.h
FN:138,_ZNSaI17s_switchblock_infEC2Ev
FN:138,_ZNSaIlEC2Ev
FN:141,_ZNSaIlEC2ERKS_
FN:153,_ZNSaI17s_switchblock_infED2Ev
FN:153,_ZNSaIlED2Ev
FN:153,_ZNSaISt13_Rb_tree_nodeISt4pairIK18SB_Side_ConnectionSt6vectorINSt7__cxx1112basic_stringIcSt11char_traitsIcESaIcEEESaIS9_EEEEED2Ev
FN:153,_ZNSaIiED2Ev
FN:153,_ZNSaI14s_wireconn_infED2Ev
FN:153,_ZNSaINSt7__cxx1112basic_stringIcSt11char_traitsIcESaIcEEEED2Ev
FNDA:52,_ZNSaI17s_switchblock_infED2Ev
FNDA:68,_ZNSaIlED2Ev
FNDA:0,_ZNSaISt13_Rb_tree_nodeISt4pairIK18SB_Side_ConnectionSt6vectorINSt7__cxx1112basic_stringIcSt11char_traitsIcESaIcEEESaIS9_EEEEED2Ev
FNDA:0,_ZNSaI14s_wireconn_infED2Ev
FNDA:0,_ZNSaIiED2Ev
FNDA:34,_ZNSaIlEC2ERKS_
FNDA:68,_ZNSaINSt7__cxx1112basic_stringIcSt11char_traitsIcESaIcEEEED2Ev
FNDA:18,_ZNSaI17s_switchblock_infEC2Ev
FNDA:34,_ZNSaIlEC2Ev
FNF:9
FNH:6
DA:138,52
DA:141,34
DA:142,34
DA:153,188
LF:4
LH:4
end_of_record
TN:
SF:/usr/include/c++/9/bits/basic_string.h
FN:243,_ZNSt7__cxx1112basic_stringIcSt11char_traitsIcESaIcEE16_M_construct_auxIPKcEEvT_S8_St12__false_type
FN:243,_ZNSt7__cxx1112basic_stringIcSt11char_traitsIcESaIcEE16_M_construct_auxIPcEEvT_S7_St12__false_type
FN:263,_ZNSt7__cxx1112basic_stringIcSt11char_traitsIcESaIcEE12_M_constructIPcEEvT_S7_
FN:263,_ZNSt7__cxx1112basic_stringIcSt11char_traitsIcESaIcEE12_M_constructIPKcEEvT_S8_
FN:6121,_ZStplIcSt11char_traitsIcESaIcEENSt7__cxx1112basic_stringIT_T0_T1_EEOS8_PKS5_
FNDA:0,_ZNSt7__cxx1112basic_stringIcSt11char_traitsIcESaIcEE16_M_construct_auxIPcEEvT_S7_St12__false_type
FNDA:0,_ZNSt7__cxx1112basic_stringIcSt11char_traitsIcESaIcEE16_M_construct_auxIPKcEEvT_S8_St12__false_type
FNDA:0,_ZStplIcSt11char_traitsIcESaIcEENSt7__cxx1112basic_stringIT_T0_T1_EEOS8_PKS5_
FNDA:0,_ZNSt7__cxx1112basic_stringIcSt11char_traitsIcESaIcEE12_M_constructIPKcEEvT_S8_
FNDA:0,_ZNSt7__cxx1112basic_stringIcSt11char_traitsIcESaIcEE12_M_constructIPcEEvT_S7_
FNF:5
FNH:0
DA:243,0
DA:247,0
DA:248,0
DA:263,0
DA:266,0
DA:267,0
DA:6121,0
DA:6123,0
LF:8
LH:0
end_of_record
TN:
SF:/usr/include/c++/9/bits/basic_string.tcc
FN:206,_ZNSt7__cxx1112basic_stringIcSt11char_traitsIcESaIcEE12_M_constructIPcEEvT_S7_St20forward_iterator_tag
FN:206,_ZNSt7__cxx1112basic_stringIcSt11char_traitsIcESaIcEE12_M_constructIPKcEEvT_S8_St20forward_iterator_tag
FN:1158,_ZStplIcSt11char_traitsIcESaIcEENSt7__cxx1112basic_stringIT_T0_T1_EEPKS5_RKS8_
FNDA:0,_ZStplIcSt11char_traitsIcESaIcEENSt7__cxx1112basic_stringIT_T0_T1_EEPKS5_RKS8_
FNDA:0,_ZNSt7__cxx1112basic_stringIcSt11char_traitsIcESaIcEE12_M_constructIPKcEEvT_S8_St20forward_iterator_tag
FNDA:0,_ZNSt7__cxx1112basic_stringIcSt11char_traitsIcESaIcEE12_M_constructIPcEEvT_S7_St20forward_iterator_tag
FNF:3
FNH:0
DA:206,0
DA:211,0
DA:212,0
DA:215,0
DA:217,0
DA:219,0
DA:220,0
DA:225,0
DA:226,0
DA:228,0
DA:229,0
DA:232,0
DA:233,0
DA:1158,0
DA:1164,0
DA:1165,0
DA:1166,0
DA:1167,0
DA:1168,0
DA:1169,0
LF:20
LH:0
end_of_record
TN:
SF:/usr/include/c++/9/bits/char_traits.h
FN:329,_ZNSt11char_traitsIcE6lengthEPKc
FN:361,_ZNSt11char_traitsIcE4copyEPcPKcm
FNDA:0,_ZNSt11char_traitsIcE4copyEPcPKcm
FNDA:0,_ZNSt11char_traitsIcE6lengthEPKc
FNF:2
FNH:0
DA:329,0
DA:335,0
DA:361,0
DA:363,0
DA:364,0
DA:365,0
LF:6
LH:0
end_of_record
TN:
SF:/usr/include/c++/9/bits/cpp_type_traits.h
FN:428,_ZSt12__miter_baseIPlET_S1_
FNDA:0,_ZSt12__miter_baseIPlET_S1_
FNF:1
FNH:0
DA:428,0
DA:429,0
LF:2
LH:0
end_of_record
TN:
SF:/usr/include/c++/9/bits/move.h
FN:47,_ZSt11__addressofINSt7__cxx1112basic_stringIcSt11char_traitsIcESaIcEEEEPT_RS6_
FN:47,_ZSt11__addressofI14s_wireconn_infEPT_RS1_
FN:47,_ZSt11__addressofI17s_switchblock_infEPT_RS1_
FN:74,_ZSt7forwardIlEOT_RNSt16remove_referenceIS0_E4typeE
FN:99,_ZSt4moveIRSt6vectorIlSaIlEEEONSt16remove_referenceIT_E4typeEOS5_
FN:99,_ZSt4moveIRSaIlEEONSt16remove_referenceIT_E4typeEOS3_
FN:99,_ZSt4moveIRSaIcEEONSt16remove_referenceIT_E4typeEOS3_
FN:99,_ZSt4moveIRNSt7__cxx1112basic_stringIcSt11char_traitsIcESaIcEEEEONSt16remove_referenceIT_E4typeEOS8_
FN:99,_ZSt4moveIRlEONSt16remove_referenceIT_E4typeEOS2_
FNDA:0,_ZSt11__addressofI14s_wireconn_infEPT_RS1_
FNDA:0,_ZSt4moveIRSaIcEEONSt16remove_referenceIT_E4typeEOS3_
FNDA:816,_ZSt11__addressofINSt7__cxx1112basic_stringIcSt11char_traitsIcESaIcEEEEPT_RS6_
FNDA:17,_ZSt4moveIRSt6vectorIlSaIlEEEONSt16remove_referenceIT_E4typeEOS5_
FNDA:17,_ZSt4moveIRSaIlEEONSt16remove_referenceIT_E4typeEOS3_
FNDA:41752,_ZSt7forwardIlEOT_RNSt16remove_referenceIS0_E4typeE
FNDA:13855,_ZSt4moveIRlEONSt16remove_referenceIT_E4typeEOS2_
FNDA:0,_ZSt11__addressofI17s_switchblock_infEPT_RS1_
FNDA:204,_ZSt4moveIRNSt7__cxx1112basic_stringIcSt11char_traitsIcESaIcEEEEONSt16remove_referenceIT_E4typeEOS8_
FNF:9
FNH:6
DA:47,816
DA:48,816
DA:74,41752
DA:75,41752
DA:99,14093
DA:100,14093
LF:6
LH:6
end_of_record
TN:
SF:/usr/include/c++/9/bits/predefined_ops.h
FN:64,_ZNK9__gnu_cxx5__ops14_Iter_less_valclINS_17__normal_iteratorIPKlSt6vectorIlSaIlEEEES4_EEbT_RT0_
FN:69,_ZN9__gnu_cxx5__ops15__iter_less_valEv
FNDA:2788,_ZN9__gnu_cxx5__ops15__iter_less_valEv
FNDA:27183,_ZNK9__gnu_cxx5__ops14_Iter_less_valclINS_17__normal_iteratorIPKlSt6vectorIlSaIlEEEES4_EEbT_RT0_
FNF:2
FNH:2
DA:64,27183
DA:65,27183
DA:69,2788
DA:70,2788
LF:4
LH:4
end_of_record
TN:
SF:/usr/include/c++/9/bits/std_abs.h
FN:61,_ZSt3absx
FNDA:3841,_ZSt3absx
FNF:1
FNH:1
DA:61,3841
LF:1
LH:1
end_of_record
TN:
SF:/usr/include/c++/9/bits/stl_algobase.h
FN:198,_ZSt3minImERKT_S2_S2_
FN:222,_ZSt3maxImERKT_S2_S2_
FN:280,_ZSt12__niter_baseIPlET_S1_
FN:295,_ZSt12__niter_wrapIPlET_RKS1_S1_
FN:375,_ZNSt11__copy_moveILb1ELb1ESt26random_access_iterator_tagE8__copy_mIlEEPT_PKS3_S6_S4_
FN:393,_ZSt13__copy_move_aILb1EPlS0_ET1_T0_S2_S1_
FN:438,_ZSt14__copy_move_a2ILb1EPlS0_ET1_T0_S2_S1_
FN:465,_ZSt4copyISt13move_iteratorIPlES1_ET0_T_S4_S3_
FN:966,_ZSt13__lower_boundIN9__gnu_cxx17__normal_iteratorIPKlSt6vectorIlSaIlEEEElNS0_5__ops14_Iter_less_valEET_SA_SA_RKT0_T1_
FN:1004,_ZSt11lower_boundIN9__gnu_cxx17__normal_iteratorIPKlSt6vectorIlSaIlEEEElET_S8_S8_RKT0_
FNDA:0,_ZSt14__copy_move_a2ILb1EPlS0_ET1_T0_S2_S1_
FNDA:1122,_ZSt12__niter_baseIPlET_S1_
FNDA:0,_ZSt13__copy_move_aILb1EPlS0_ET1_T0_S2_S1_
FNDA:0,_ZSt4copyISt13move_iteratorIPlES1_ET0_T_S4_S3_
FNDA:2788,_ZSt13__lower_boundIN9__gnu_cxx17__normal_iteratorIPKlSt6vectorIlSaIlEEEElNS0_5__ops14_Iter_less_valEET_SA_SA_RKT0_T1_
FNDA:0,_ZSt12__niter_wrapIPlET_RKS1_S1_
FNDA:391,_ZSt3maxImERKT_S2_S2_
FNDA:2788,_ZSt11lower_boundIN9__gnu_cxx17__normal_iteratorIPKlSt6vectorIlSaIlEEEElET_S8_S8_RKT0_
FNDA:782,_ZSt3minImERKT_S2_S2_
FNDA:0,_ZNSt11__copy_moveILb1ELb1ESt26random_access_iterator_tagE8__copy_mIlEEPT_PKS3_S6_S4_
FNF:10
FNH:5
DA:198,782
DA:203,782
DA:204,0
DA:205,782
DA:222,391
DA:227,391
DA:228,85
DA:229,306
DA:280,1122
DA:282,1122
DA:295,0
DA:296,0
DA:375,0
DA:384,0
DA:385,0
DA:386,0
DA:387,0
DA:393,0
DA:398,0
DA:404,0
DA:438,0
DA:440,0
DA:443,0
DA:465,0
DA:474,0
DA:966,2788
DA:972,2788
DA:974,29971
DA:976,27183
DA:977,27183
DA:978,27183
DA:979,27183
DA:981,13073
DA:982,13073
DA:983,13073
DA:986,14110
DA:988,2788
DA:1004,2788
DA:1013,2788
DA:1014,5576
LF:40
LH:24
end_of_record
TN:
SF:/usr/include/c++/9/bits/stl_construct.h
FN:97,_ZSt8_DestroyINSt7__cxx1112basic_stringIcSt11char_traitsIcESaIcEEEEvPT_
FN:97,_ZSt8_DestroyI14s_wireconn_infEvPT_
FN:97,_ZSt8_DestroyI17s_switchblock_infEvPT_
FN:105,_ZNSt12_Destroy_auxILb0EE9__destroyIPNSt7__cxx1112basic_stringIcSt11char_traitsIcESaIcEEEEEvT_S9_
FN:105,_ZNSt12_Destroy_auxILb0EE9__destroyIP17s_switchblock_infEEvT_S4_
FN:105,_ZNSt12_Destroy_auxILb0EE9__destroyIP14s_wireconn_infEEvT_S4_
FN:117,_ZNSt12_Destroy_auxILb1EE9__destroyIPiEEvT_S3_
FN:117,_ZNSt12_Destroy_auxILb1EE9__destroyIPlEEvT_S3_
FN:127,_ZSt8_DestroyIPiEvT_S1_
FN:127,_ZSt8_DestroyIP14s_wireconn_infEvT_S2_
FN:127,_ZSt8_DestroyIPNSt7__cxx1112basic_stringIcSt11char_traitsIcESaIcEEEEvT_S7_
FN:127,_ZSt8_DestroyIPlEvT_S1_
FN:127,_ZSt8_DestroyIP17s_switchblock_infEvT_S2_
FN:203,_ZSt8_DestroyIP14s_wireconn_infS0_EvT_S2_RSaIT0_E
FN:203,_ZSt8_DestroyIPNSt7__cxx1112basic_stringIcSt11char_traitsIcESaIcEEES5_EvT_S7_RSaIT0_E
FN:203,_ZSt8_DestroyIPiiEvT_S1_RSaIT0_E
FN:203,_ZSt8_DestroyIPllEvT_S1_RSaIT0_E
FN:203,_ZSt8_DestroyIP17s_switchblock_infS0_EvT_S2_RSaIT0_E
FNDA:51,_ZSt8_DestroyIPllEvT_S1_RSaIT0_E
FNDA:35,_ZSt8_DestroyIP17s_switchblock_infEvT_S2_
FNDA:0,_ZNSt12_Destroy_auxILb0EE9__destroyIP14s_wireconn_infEEvT_S4_
FNDA:0,_ZSt8_DestroyIPiiEvT_S1_RSaIT0_E
FNDA:0,_ZSt8_DestroyI17s_switchblock_infEvPT_
FNDA:35,_ZSt8_DestroyIP17s_switchblock_infS0_EvT_S2_RSaIT0_E
FNDA:204,_ZSt8_DestroyINSt7__cxx1112basic_stringIcSt11char_traitsIcESaIcEEEEvPT_
FNDA:0,_ZSt8_DestroyI14s_wireconn_infEvPT_
FNDA:0,_ZSt8_DestroyIP14s_wireconn_infEvT_S2_
FNDA:68,_ZSt8_DestroyIPNSt7__cxx1112basic_stringIcSt11char_traitsIcESaIcEEES5_EvT_S7_RSaIT0_E
FNDA:68,_ZNSt12_Destroy_auxILb0EE9__destroyIPNSt7__cxx1112basic_stringIcSt11char_traitsIcESaIcEEEEEvT_S9_
FNDA:0,_ZSt8_DestroyIPiEvT_S1_
FNDA:0,_ZSt8_DestroyIP14s_wireconn_infS0_EvT_S2_RSaIT0_E
FNDA:35,_ZNSt12_Destroy_auxILb0EE9__destroyIP17s_switchblock_infEEvT_S4_
FNDA:51,_ZNSt12_Destroy_auxILb1EE9__destroyIPlEEvT_S3_
FNDA:0,_ZNSt12_Destroy_auxILb1EE9__destroyIPiEEvT_S3_
FNDA:51,_ZSt8_DestroyIPlEvT_S1_
FNDA:68,_ZSt8_DestroyIPNSt7__cxx1112basic_stringIcSt11char_traitsIcESaIcEEEEvT_S7_
FNF:18
FNH:10
DA:97,204
DA:98,204
DA:105,307
DA:107,307
DA:108,204
DA:109,103
DA:117,51
DA:127,154
DA:137,154
DA:138,154
DA:203,154
DA:206,154
DA:207,154
LF:13
LH:13
end_of_record
TN:
SF:/usr/include/c++/9/bits/stl_iterator.h
FN:806,_ZN9__gnu_cxx17__normal_iteratorIPlSt6vectorIlSaIlEEEC2ERKS1_
FN:806,_ZN9__gnu_cxx17__normal_iteratorIPKlSt6vectorIlSaIlEEEC2ERKS2_
FN:819,_ZNK9__gnu_cxx17__normal_iteratorIPKlSt6vectorIlSaIlEEEdeEv
FN:827,_ZN9__gnu_cxx17__normal_iteratorIPKlSt6vectorIlSaIlEEEppEv
FN:855,_ZN9__gnu_cxx17__normal_iteratorIPKlSt6vectorIlSaIlEEEpLEl
FN:871,_ZNK9__gnu_cxx17__normal_iteratorIPKlSt6vectorIlSaIlEEE4baseEv
FN:871,_ZNK9__gnu_cxx17__normal_iteratorIPlSt6vectorIlSaIlEEE4baseEv
FN:989,_ZN9__gnu_cxxmiIPlSt6vectorIlSaIlEEEENS_17__normal_iteratorIT_T0_E15difference_typeERKS8_SB_
FN:989,_ZN9__gnu_cxxmiIPKlSt6vectorIlSaIlEEEENS_17__normal_iteratorIT_T0_E15difference_typeERKS9_SC_
FN:1057,_ZNSt13move_iteratorIPlEC2ES0_
FN:1066,_ZNKSt13move_iteratorIPlE4baseEv
FN:1242,_ZSt32__make_move_if_noexcept_iteratorIlSt13move_iteratorIPlEET0_PT_
FN:1262,_ZSt12__miter_baseIPlEDTcl12__miter_basecldtfp_4baseEEESt13move_iteratorIT_E
FNDA:27183,_ZN9__gnu_cxx17__normal_iteratorIPKlSt6vectorIlSaIlEEEpLEl
FNDA:5576,_ZN9__gnu_cxxmiIPKlSt6vectorIlSaIlEEEENS_17__normal_iteratorIT_T0_E15difference_typeERKS9_SC_
FNDA:748,_ZNK9__gnu_cxx17__normal_iteratorIPlSt6vectorIlSaIlEEE4baseEv
FNDA:8364,_ZN9__gnu_cxx17__normal_iteratorIPKlSt6vectorIlSaIlEEEC2ERKS2_
FNDA:0,_ZSt32__make_move_if_noexcept_iteratorIlSt13move_iteratorIPlEET0_PT_
FNDA:0,_ZNKSt13move_iteratorIPlE4baseEv
FNDA:11152,_ZNK9__gnu_cxx17__normal_iteratorIPKlSt6vectorIlSaIlEEE4baseEv
FNDA:27183,_ZNK9__gnu_cxx17__normal_iteratorIPKlSt6vectorIlSaIlEEEdeEv
FNDA:13073,_ZN9__gnu_cxx17__normal_iteratorIPKlSt6vectorIlSaIlEEEppEv
FNDA:0,_ZNSt13move_iteratorIPlEC2ES0_
FNDA:187,_ZN9__gnu_cxxmiIPlSt6vectorIlSaIlEEEENS_17__normal_iteratorIT_T0_E15difference_typeERKS8_SB_
FNDA:0,_ZSt12__miter_baseIPlEDTcl12__miter_basecldtfp_4baseEEESt13move_iteratorIT_E
FNDA:374,_ZN9__gnu_cxx17__normal_iteratorIPlSt6vectorIlSaIlEEEC2ERKS1_
FNF:13
FNH:9
DA:806,8738
DA:807,8738
DA:819,27183
DA:820,27183
DA:827,13073
DA:829,13073
DA:830,13073
DA:855,27183
DA:856,27183
DA:871,11900
DA:872,11900
DA:989,5763
DA:992,5763
DA:1057,0
DA:1058,0
DA:1066,0
DA:1067,0
DA:1242,0
DA:1243,0
DA:1262,0
DA:1264,0
LF:21
LH:13
end_of_record
TN:
SF:/usr/include/c++/9/bits/stl_iterator_base_funcs.h
FN:98,_ZSt10__distanceIPcENSt15iterator_traitsIT_E15difference_typeES2_S2_St26random_access_iterator_tag
FN:98,_ZSt10__distanceIPKcENSt15iterator_traitsIT_E15difference_typeES3_S3_St26random_access_iterator_tag
FN:98,_ZSt10__distanceIN9__gnu_cxx17__normal_iteratorIPKlSt6vectorIlSaIlEEEEENSt15iterator_traitsIT_E15difference_typeES9_S9_St26random_access_iterator_tag
FN:138,_ZSt8distanceIN9__gnu_cxx17__normal_iteratorIPKlSt6vectorIlSaIlEEEEENSt15iterator_traitsIT_E15difference_typeES9_S9_
FN:138,_ZSt8distanceIPcENSt15iterator_traitsIT_E15difference_typeES2_S2_
FN:138,_ZSt8distanceIPKcENSt15iterator_traitsIT_E15difference_typeES3_S3_
FN:174,_ZSt9__advanceIN9__gnu_cxx17__normal_iteratorIPKlSt6vectorIlSaIlEEEElEvRT_T0_St26random_access_iterator_tag
FN:202,_ZSt7advanceIN9__gnu_cxx17__normal_iteratorIPKlSt6vectorIlSaIlEEEElEvRT_T0_
FNDA:2788,_ZSt10__distanceIN9__gnu_cxx17__normal_iteratorIPKlSt6vectorIlSaIlEEEEENSt15iterator_traitsIT_E15difference_typeES9_S9_St26random_access_iterator_tag
FNDA:27183,_ZSt7advanceIN9__gnu_cxx17__normal_iteratorIPKlSt6vectorIlSaIlEEEElEvRT_T0_
FNDA:0,_ZSt8distanceIPKcENSt15iterator_traitsIT_E15difference_typeES3_S3_
FNDA:27183,_ZSt9__advanceIN9__gnu_cxx17__normal_iteratorIPKlSt6vectorIlSaIlEEEElEvRT_T0_St26random_access_iterator_tag
FNDA:0,_ZSt8distanceIPcENSt15iterator_traitsIT_E15difference_typeES2_S2_
FNDA:2788,_ZSt8distanceIN9__gnu_cxx17__normal_iteratorIPKlSt6vectorIlSaIlEEEEENSt15iterator_traitsIT_E15difference_typeES9_S9_
FNDA:0,_ZSt10__distanceIPcENSt15iterator_traitsIT_E15difference_typeES2_S2_St26random_access_iterator_tag
FNDA:0,_ZSt10__distanceIPKcENSt15iterator_traitsIT_E15difference_typeES3_S3_St26random_access_iterator_tag
FNF:8
FNH:4
DA:98,2788
DA:104,2788
DA:138,2788
DA:141,2788
DA:142,5576
DA:174,27183
DA:185,27183
DA:186,27183
DA:202,27183
DA:205,27183
DA:206,27183
DA:207,27183
LF:12
LH:12
end_of_record
TN:
SF:/usr/include/c++/9/bits/stl_iterator_base_types.h
FN:205,_ZSt19__iterator_categoryIPKcENSt15iterator_traitsIT_E17iterator_categoryERKS3_
FN:205,_ZSt19__iterator_categoryIN9__gnu_cxx17__normal_iteratorIPKlSt6vectorIlSaIlEEEEENSt15iterator_traitsIT_E17iterator_categoryERKS9_
FN:205,_ZSt19__iterator_categoryIPcENSt15iterator_traitsIT_E17iterator_categoryERKS2_
FNDA:0,_ZSt19__iterator_categoryIPcENSt15iterator_traitsIT_E17iterator_categoryERKS2_
FNDA:0,_ZSt19__iterator_categoryIPKcENSt15iterator_traitsIT_E17iterator_categoryERKS3_
FNDA:29971,_ZSt19__iterator_categoryIN9__gnu_cxx17__normal_iteratorIPKlSt6vectorIlSaIlEEEEENSt15iterator_traitsIT_E17iterator_categoryERKS9_
FNF:3
FNH:1
DA:205,29971
DA:206,29971
LF:2
LH:2
end_of_record
TN:
SF:/usr/include/c++/9/bits/stl_map.h
FN:300,_ZNSt3mapI18SB_Side_ConnectionSt6vectorINSt7__cxx1112basic_stringIcSt11char_traitsIcESaIcEEESaIS7_EESt4lessIS0_ESaISt4pairIKS0_S9_EEED2Ev
FNDA:0,_ZNSt3mapI18SB_Side_ConnectionSt6vectorINSt7__cxx1112basic_stringIcSt11char_traitsIcESaIcEEESaIS7_EESt4lessIS0_ESaISt4pairIKS0_S9_EEED2Ev
FNF:1
FNH:0
DA:300,0
LF:1
LH:0
end_of_record
TN:
SF:/usr/include/c++/9/bits/stl_tree.h
FN:234,_ZNSt13_Rb_tree_nodeISt4pairIK18SB_Side_ConnectionSt6vectorINSt7__cxx1112basic_stringIcSt11char_traitsIcESaIcEEESaIS9_EEEE9_M_valptrEv
FN:566,_ZNSt8_Rb_treeI18SB_Side_ConnectionSt4pairIKS0_St6vectorINSt7__cxx1112basic_stringIcSt11char_traitsIcESaIcEEESaIS9_EEESt10_Select1stISC_ESt4lessIS0_ESaISC_EE21_M_get_Node_allocatorEv
FN:583,_ZNSt8_Rb_treeI18SB_Side_ConnectionSt4pairIKS0_St6vectorINSt7__cxx1112basic_stringIcSt11char_traitsIcESaIcEEESaIS9_EEESt10_Select1stISC_ESt4lessIS0_ESaISC_EE11_M_put_nodeEPSt13_Rb_tree_nodeISC_E
FN:637,_ZNSt8_Rb_treeI18SB_Side_ConnectionSt4pairIKS0_St6vectorINSt7__cxx1112basic_stringIcSt11char_traitsIcESaIcEEESaIS9_EEESt10_Select1stISC_ESt4lessIS0_ESaISC_EE15_M_destroy_nodeEPSt13_Rb_tree_nodeISC_E
FN:648,_ZNSt8_Rb_treeI18SB_Side_ConnectionSt4pairIKS0_St6vectorINSt7__cxx1112basic_stringIcSt11char_traitsIcESaIcEEESaIS9_EEESt10_Select1stISC_ESt4lessIS0_ESaISC_EE12_M_drop_nodeEPSt13_Rb_tree_nodeISC_E
FN:744,_ZNSt8_Rb_treeI18SB_Side_ConnectionSt4pairIKS0_St6vectorINSt7__cxx1112basic_stringIcSt11char_traitsIcESaIcEEESaIS9_EEESt10_Select1stISC_ESt4lessIS0_ESaISC_EE8_M_beginEv
FN:789,_ZNSt8_Rb_treeI18SB_Side_ConnectionSt4pairIKS0_St6vectorINSt7__cxx1112basic_stringIcSt11char_traitsIcESaIcEEESaIS9_EEESt10_Select1stISC_ESt4lessIS0_ESaISC_EE7_S_leftEPSt18_Rb_tree_node_base
FN:797,_ZNSt8_Rb_treeI18SB_Side_ConnectionSt4pairIKS0_St6vectorINSt7__cxx1112basic_stringIcSt11char_traitsIcESaIcEEESaIS9_EEESt10_Select1stISC_ESt4lessIS0_ESaISC_EE8_S_rightEPSt18_Rb_tree_node_base
FN:994,_ZNSt8_Rb_treeI18SB_Side_ConnectionSt4pairIKS0_St6vectorINSt7__cxx1112basic_stringIcSt11char_traitsIcESaIcEEESaIS9_EEESt10_Select1stISC_ESt4lessIS0_ESaISC_EED2Ev
FN:1907,_ZNSt8_Rb_treeI18SB_Side_ConnectionSt4pairIKS0_St6vectorINSt7__cxx1112basic_stringIcSt11char_traitsIcESaIcEEESaIS9_EEESt10_Select1stISC_ESt4lessIS0_ESaISC_EE8_M_eraseEPSt13_Rb_tree_nodeISC_E
FNDA:0,_ZNSt8_Rb_treeI18SB_Side_ConnectionSt4pairIKS0_St6vectorINSt7__cxx1112basic_stringIcSt11char_traitsIcESaIcEEESaIS9_EEESt10_Select1stISC_ESt4lessIS0_ESaISC_EE21_M_get_Node_allocatorEv
FNDA:0,_ZNSt8_Rb_treeI18SB_Side_ConnectionSt4pairIKS0_St6vectorINSt7__cxx1112basic_stringIcSt11char_traitsIcESaIcEEESaIS9_EEESt10_Select1stISC_ESt4lessIS0_ESaISC_EE7_S_leftEPSt18_Rb_tree_node_base
FNDA:0,_ZNSt8_Rb_treeI18SB_Side_ConnectionSt4pairIKS0_St6vectorINSt7__cxx1112basic_stringIcSt11char_traitsIcESaIcEEESaIS9_EEESt10_Select1stISC_ESt4lessIS0_ESaISC_EE8_M_eraseEPSt13_Rb_tree_nodeISC_E
FNDA:0,_ZNSt13_Rb_tree_nodeISt4pairIK18SB_Side_ConnectionSt6vectorINSt7__cxx1112basic_stringIcSt11char_traitsIcESaIcEEESaIS9_EEEE9_M_valptrEv
FNDA:0,_ZNSt8_Rb_treeI18SB_Side_ConnectionSt4pairIKS0_St6vectorINSt7__cxx1112basic_stringIcSt11char_traitsIcESaIcEEESaIS9_EEESt10_Select1stISC_ESt4lessIS0_ESaISC_EE12_M_drop_nodeEPSt13_Rb_tree_nodeISC_E
FNDA:0,_ZNSt8_Rb_treeI18SB_Side_ConnectionSt4pairIKS0_St6vectorINSt7__cxx1112basic_stringIcSt11char_traitsIcESaIcEEESaIS9_EEESt10_Select1stISC_ESt4lessIS0_ESaISC_EE15_M_destroy_nodeEPSt13_Rb_tree_nodeISC_E
FNDA:0,_ZNSt8_Rb_treeI18SB_Side_ConnectionSt4pairIKS0_St6vectorINSt7__cxx1112basic_stringIcSt11char_traitsIcESaIcEEESaIS9_EEESt10_Select1stISC_ESt4lessIS0_ESaISC_EE8_M_beginEv
FNDA:0,_ZNSt8_Rb_treeI18SB_Side_ConnectionSt4pairIKS0_St6vectorINSt7__cxx1112basic_stringIcSt11char_traitsIcESaIcEEESaIS9_EEESt10_Select1stISC_ESt4lessIS0_ESaISC_EE11_M_put_nodeEPSt13_Rb_tree_nodeISC_E
FNDA:0,_ZNSt8_Rb_treeI18SB_Side_ConnectionSt4pairIKS0_St6vectorINSt7__cxx1112basic_stringIcSt11char_traitsIcESaIcEEESaIS9_EEESt10_Select1stISC_ESt4lessIS0_ESaISC_EED2Ev
FNDA:0,_ZNSt8_Rb_treeI18SB_Side_ConnectionSt4pairIKS0_St6vectorINSt7__cxx1112basic_stringIcSt11char_traitsIcESaIcEEESaIS9_EEESt10_Select1stISC_ESt4lessIS0_ESaISC_EE8_S_rightEPSt18_Rb_tree_node_base
FNF:10
FNH:0
DA:234,0
DA:235,0
DA:566,0
DA:567,0
DA:583,0
DA:584,0
DA:637,0
DA:642,0
DA:643,0
DA:645,0
DA:648,0
DA:650,0
DA:651,0
DA:652,0
DA:744,0
DA:745,0
DA:789,0
DA:790,0
DA:797,0
DA:798,0
DA:994,0
DA:995,0
DA:1907,0
DA:1911,0
DA:1913,0
DA:1914,0
DA:1915,0
DA:1916,0
DA:1918,0
LF:29
LH:0
end_of_record
TN:
SF:/usr/include/c++/9/bits/stl_uninitialized.h
FN:99,_ZNSt20__uninitialized_copyILb1EE13__uninit_copyISt13move_iteratorIPlES3_EET0_T_S6_S5_
FN:115,_ZSt18uninitialized_copyISt13move_iteratorIPlES1_ET0_T_S4_S3_
FN:305,_ZSt22__uninitialized_copy_aISt13move_iteratorIPlES1_lET0_T_S4_S3_RSaIT1_E
FN:323,_ZSt34__uninitialized_move_if_noexcept_aIPlS0_SaIlEET0_T_S3_S2_RT1_
FN:924,_ZSt14__relocate_a_1IllENSt9enable_ifIXsrSt24__is_bitwise_relocatableIT_vE5valueEPS2_E4typeES4_S4_S4_RSaIT0_E
FN:958,_ZSt12__relocate_aIPlS0_SaIlEET0_T_S3_S2_RT1_
FNDA:0,_ZSt18uninitialized_copyISt13move_iteratorIPlES1_ET0_T_S4_S3_
FNDA:374,_ZSt12__relocate_aIPlS0_SaIlEET0_T_S3_S2_RT1_
FNDA:0,_ZNSt20__uninitialized_copyILb1EE13__uninit_copyISt13move_iteratorIPlES3_EET0_T_S6_S5_
FNDA:374,_ZSt14__relocate_a_1IllENSt9enable_ifIXsrSt24__is_bitwise_relocatableIT_vE5valueEPS2_E4typeES4_S4_S4_RSaIT0_E
FNDA:0,_ZSt22__uninitialized_copy_aISt13move_iteratorIPlES1_lET0_T_S4_S3_RSaIT1_E
FNDA:0,_ZSt34__uninitialized_move_if_noexcept_aIPlS0_SaIlEET0_T_S3_S2_RT1_
FNF:6
FNH:2
DA:99,0
DA:101,0
DA:115,0
DA:134,0
DA:140,0
DA:305,0
DA:307,0
DA:323,0
DA:329,0
DA:330,0
DA:924,374
DA:927,374
DA:928,374
DA:929,170
DA:930,374
DA:958,374
DA:964,374
DA:966,374
LF:18
LH:8
end_of_record
TN:
SF:/usr/include/c++/9/bits/stl_vector.h
FN:94,_ZNSt12_Vector_baseIlSaIlEE17_Vector_impl_dataC2Ev
FN:94,_ZNSt12_Vector_baseI17s_switchblock_infSaIS0_EE17_Vector_impl_dataC2Ev
FN:106,_ZNSt12_Vector_baseIlSaIlEE17_Vector_impl_data12_M_copy_dataERKS2_
FN:114,_ZNSt12_Vector_baseIlSaIlEE17_Vector_impl_data12_M_swap_dataERS2_
FN:128,_ZNSt12_Vector_baseI17s_switchblock_infSaIS0_EE12_Vector_implC2Ev
FN:128,_ZNSt12_Vector_baseIlSaIlEE12_Vector_implC2Ev
FN:133,_ZNSt12_Vector_baseIlSaIlEE12_Vector_implC2ERKS0_
FN:273,_ZNSt12_Vector_baseIiSaIiEE19_M_get_Tp_allocatorEv
FN:273,_ZNSt12_Vector_baseINSt7__cxx1112basic_stringIcSt11char_traitsIcESaIcEEESaIS5_EE19_M_get_Tp_allocatorEv
FN:273,_ZNSt12_Vector_baseI17s_switchblock_infSaIS0_EE19_M_get_Tp_allocatorEv
FN:273,_ZNSt12_Vector_baseIlSaIlEE19_M_get_Tp_allocatorEv
FN:273,_ZNSt12_Vector_baseI14s_wireconn_infSaIS0_EE19_M_get_Tp_allocatorEv
FN:277,_ZNKSt12_Vector_baseIlSaIlEE19_M_get_Tp_allocatorEv
FN:281,_ZNKSt12_Vector_baseIlSaIlEE13get_allocatorEv
FN:285,_ZNSt12_Vector_baseI17s_switchblock_infSaIS0_EEC2Ev
FN:285,_ZNSt12_Vector_baseIlSaIlEEC2Ev
FN:290,_ZNSt12_Vector_baseIlSaIlEEC2ERKS0_
FN:330,_ZNSt12_Vector_baseI14s_wireconn_infSaIS0_EED2Ev
FN:330,_ZNSt12_Vector_baseIiSaIiEED2Ev
FN:330,_ZNSt12_Vector_baseINSt7__cxx1112basic_stringIcSt11char_traitsIcESaIcEEESaIS5_EED2Ev
FN:330,_ZNSt12_Vector_baseIlSaIlEED2Ev
FN:330,_ZNSt12_Vector_baseI17s_switchblock_infSaIS0_EED2Ev
FN:340,_ZNSt12_Vector_baseIlSaIlEE11_M_allocateEm
FN:347,_ZNSt12_Vector_baseI14s_wireconn_infSaIS0_EE13_M_deallocateEPS0_m
FN:347,_ZNSt12_Vector_baseINSt7__cxx1112basic_stringIcSt11char_traitsIcESaIcEEESaIS5_EE13_M_deallocateEPS5_m
FN:347,_ZNSt12_Vector_baseI17s_switchblock_infSaIS0_EE13_M_deallocateEPS0_m
FN:347,_ZNSt12_Vector_baseIlSaIlEE13_M_deallocateEPlm
FN:347,_ZNSt12_Vector_baseIiSaIiEE13_M_deallocateEPim
FN:428,_ZNSt6vectorIlSaIlEE19_S_nothrow_relocateESt17integral_constantIbLb1EE
FN:441,_ZNSt6vectorIlSaIlEE15_S_use_relocateEv
FN:450,_ZNSt6vectorIlSaIlEE14_S_do_relocateEPlS2_S2_RS0_St17integral_constantIbLb1EE
FN:462,_ZNSt6vectorIlSaIlEE11_S_relocateEPlS2_S2_RS0_
FN:484,_ZNSt6vectorI17s_switchblock_infSaIS0_EEC2Ev
FN:484,_ZNSt6vectorIlSaIlEEC2Ev
FN:494,_ZNSt6vectorIlSaIlEEC2ERKS0_
FN:675,_ZNSt6vectorIlSaIlEED2Ev
FN:675,_ZNSt6vectorI14s_wireconn_infSaIS0_EED2Ev
FN:675,_ZNSt6vectorIiSaIiEED2Ev
FN:675,_ZNSt6vectorINSt7__cxx1112basic_stringIcSt11char_traitsIcESaIcEEESaIS5_EED2Ev
FN:675,_ZNSt6vectorI17s_switchblock_infSaIS0_EED2Ev
FN:706,_ZNSt6vectorIlSaIlEEaSEOS1_
FN:808,_ZNSt6vectorIlSaIlEE5beginEv
FN:817,_ZNKSt6vectorIlSaIlEE5beginEv
FN:826,_ZNSt6vectorIlSaIlEE3endEv
FN:835,_ZNKSt6vectorIlSaIlEE3endEv
FN:915,_ZNKSt6vectorIlSaIlEE4sizeEv
FN:920,_ZNKSt6vectorIlSaIlEE8max_sizeEv
FN:1200,_ZNSt6vectorIlSaIlEE9push_backEOl
FN:1753,_ZNKSt6vectorIlSaIlEE12_M_check_lenEmPKc
FN:1773,_ZNSt6vectorIlSaIlEE11_S_max_sizeERKS0_
FN:1812,_ZNSt6vectorIlSaIlEE14_M_move_assignEOS1_St17integral_constantIbLb1EE
FNDA:51,_ZNSt6vectorIlSaIlEED2Ev
FNDA:85,_ZNSt12_Vector_baseIlSaIlEE17_Vector_impl_dataC2Ev
FNDA:5576,_ZNKSt6vectorIlSaIlEE5beginEv
FNDA:34,_ZNSt12_Vector_baseIlSaIlEE17_Vector_impl_data12_M_swap_dataERS2_
FNDA:0,_ZNSt12_Vector_baseI14s_wireconn_infSaIS0_EE13_M_deallocateEPS0_m
FNDA:17,_ZNKSt12_Vector_baseIlSaIlEE13get_allocatorEv
FNDA:18,_ZNSt12_Vector_baseI17s_switchblock_infSaIS0_EEC2Ev
FNDA:0,_ZNSt6vectorI14s_wireconn_infSaIS0_EED2Ev
FNDA:0,_ZNSt12_Vector_baseIiSaIiEE19_M_get_Tp_allocatorEv
FNDA:18,_ZNSt6vectorI17s_switchblock_infSaIS0_EEC2Ev
FNDA:187,_ZNSt6vectorIlSaIlEE5beginEv
FNDA:102,_ZNSt12_Vector_baseIlSaIlEE17_Vector_impl_data12_M_copy_dataERKS2_
FNDA:272,_ZNSt12_Vector_baseINSt7__cxx1112basic_stringIcSt11char_traitsIcESaIcEEESaIS5_EE13_M_deallocateEPS5_m
FNDA:187,_ZNSt12_Vector_baseIlSaIlEE11_M_allocateEm
FNDA:13855,_ZNSt6vectorIlSaIlEE9push_backEOl
FNDA:35,_ZNSt12_Vector_baseI17s_switchblock_infSaIS0_EE17_Vector_impl_dataC2Ev
FNDA:374,_ZNSt6vectorIlSaIlEE11_S_max_sizeERKS0_
FNDA:748,_ZNKSt6vectorIlSaIlEE4sizeEv
FNDA:0,_ZNSt6vectorIiSaIiEED2Ev
FNDA:35,_ZNSt12_Vector_baseI17s_switchblock_infSaIS0_EE13_M_deallocateEPS0_m
FNDA:0,_ZNSt12_Vector_baseI14s_wireconn_infSaIS0_EED2Ev
FNDA:476,_ZNSt12_Vector_baseINSt7__cxx1112basic_stringIcSt11char_traitsIcESaIcEEESaIS5_EE19_M_get_Tp_allocatorEv
FNDA:2788,_ZNKSt6vectorIlSaIlEE3endEv
FNDA:374,_ZNSt6vectorIlSaIlEE11_S_relocateEPlS2_S2_RS0_
FNDA:0,_ZNSt12_Vector_baseIiSaIiEED2Ev
FNDA:374,_ZNSt6vectorIlSaIlEE14_S_do_relocateEPlS2_S2_RS0_St17integral_constantIbLb1EE
FNDA:374,_ZNKSt6vectorIlSaIlEE8max_sizeEv
FNDA:391,_ZNKSt12_Vector_baseIlSaIlEE19_M_get_Tp_allocatorEv
FNDA:35,_ZNSt6vectorI17s_switchblock_infSaIS0_EED2Ev
FNDA:68,_ZNSt6vectorINSt7__cxx1112basic_stringIcSt11char_traitsIcESaIcEEESaIS5_EED2Ev
FNDA:52,_ZNSt12_Vector_baseI17s_switchblock_infSaIS0_EE19_M_get_Tp_allocatorEv
FNDA:238,_ZNSt12_Vector_baseIlSaIlEE13_M_deallocateEPlm
FNDA:34,_ZNSt12_Vector_baseIlSaIlEEC2Ev
FNDA:34,_ZNSt6vectorIlSaIlEEC2Ev
FNDA:17,_ZNSt6vectorIlSaIlEEC2ERKS0_
FNDA:18,_ZNSt12_Vector_baseI17s_switchblock_infSaIS0_EE12_Vector_implC2Ev
FNDA:187,_ZNSt6vectorIlSaIlEE3endEv
FNDA:187,_ZNKSt6vectorIlSaIlEE12_M_check_lenEmPKc
FNDA:17,_ZNSt12_Vector_baseIlSaIlEE12_Vector_implC2ERKS0_
FNDA:68,_ZNSt12_Vector_baseINSt7__cxx1112basic_stringIcSt11char_traitsIcESaIcEEESaIS5_EED2Ev
FNDA:51,_ZNSt12_Vector_baseIlSaIlEED2Ev
FNDA:374,_ZNSt6vectorIlSaIlEE15_S_use_relocateEv
FNDA:17,_ZNSt6vectorIlSaIlEEaSEOS1_
FNDA:459,_ZNSt12_Vector_baseIlSaIlEE19_M_get_Tp_allocatorEv
FNDA:17,_ZNSt12_Vector_baseIlSaIlEEC2ERKS0_
FNDA:374,_ZNSt6vectorIlSaIlEE19_S_nothrow_relocateESt17integral_constantIbLb1EE
FNDA:34,_ZNSt12_Vector_baseIlSaIlEE12_Vector_implC2Ev
FNDA:0,_ZNSt12_Vector_baseIiSaIiEE13_M_deallocateEPim
FNDA:35,_ZNSt12_Vector_baseI17s_switchblock_infSaIS0_EED2Ev
FNDA:17,_ZNSt6vectorIlSaIlEE14_M_move_assignEOS1_St17integral_constantIbLb1EE
FNDA:0,_ZNSt12_Vector_baseI14s_wireconn_infSaIS0_EE19_M_get_Tp_allocatorEv
FNF:51
FNH:43
DA:94,120
DA:95,120
DA:96,120
DA:106,102
DA:108,102
DA:109,102
DA:110,102
DA:111,102
DA:114,34
DA:118,34
DA:119,34
DA:120,34
DA:121,34
DA:122,34
DA:128,52
DA:130,52
DA:131,52
DA:133,17
DA:134,17
DA:135,17
DA:273,987
DA:274,987
DA:277,391
DA:278,391
DA:281,17
DA:282,17
DA:285,52
DA:290,17
DA:291,17
DA:330,154
DA:332,154
DA:333,154
DA:334,154
DA:340,187
DA:343,187
DA:347,545
DA:350,545
DA:351,391
DA:352,545
DA:428,374
DA:433,374
DA:441,374
DA:446,374
DA:450,374
DA:453,374
DA:462,374
DA:466,374
DA:484,52
DA:494,17
DA:495,17
DA:675,154
DA:677,154
DA:678,154
DA:680,154
DA:706,17
DA:708,17
DA:711,17
DA:712,17
DA:808,187
DA:809,187
DA:817,5576
DA:818,5576
DA:826,187
DA:827,187
DA:835,2788
DA:836,2788
DA:915,748
DA:916,748
DA:920,374
DA:921,374
DA:1200,13855
DA:1201,13855
DA:1753,187
DA:1755,187
DA:1756,0
DA:1758,187
DA:1759,187
DA:1773,374
DA:1778,374
DA:1780,374
DA:1781,374
DA:1812,17
DA:1814,34
DA:1815,17
DA:1816,17
DA:1817,17
DA:1818,17
LF:87
LH:86
end_of_record
TN:
SF:/usr/include/c++/9/bits/vector.tcc
FN:109,_ZNSt6vectorIlSaIlEE12emplace_backIJlEEEvDpOT_
FN:426,_ZNSt6vectorIlSaIlEE17_M_realloc_insertIJlEEEvN9__gnu_cxx17__normal_iteratorIPlS1_EEDpOT_
FNDA:187,_ZNSt6vectorIlSaIlEE17_M_realloc_insertIJlEEEvN9__gnu_cxx17__normal_iteratorIPlS1_EEDpOT_
FNDA:13855,_ZNSt6vectorIlSaIlEE12emplace_backIJlEEEvDpOT_
FNF:2
FNH:2
DA:109,13855
DA:112,13855
DA:115,13668
DA:117,13668
DA:121,187
DA:125,13855
DA:426,187
DA:435,187
DA:437,187
DA:438,187
DA:439,187
DA:440,187
DA:441,187
DA:449,187
DA:450,187
DA:456,187
DA:459,187
DA:461,187
DA:462,187
DA:464,187
DA:466,187
DA:467,187
DA:474,0
DA:475,0
DA:477,0
DA:481,0
DA:482,0
DA:485,0
DA:487,0
DA:488,0
DA:489,0
DA:491,0
DA:492,0
DA:493,0
DA:496,187
DA:498,0
DA:500,187
DA:501,187
DA:502,187
DA:503,187
DA:504,187
DA:505,187
LF:42
LH:29
end_of_record
TN:
SF:/usr/include/c++/9/cmath
FN:350,_ZSt3logIiEN9__gnu_cxx11__enable_ifIXsrSt12__is_integerIT_E7__valueEdE6__typeES3_
FN:350,_ZSt3logIxEN9__gnu_cxx11__enable_ifIXsrSt12__is_integerIT_E7__valueEdE6__typeES3_
FN:415,_ZSt3powIilEN9__gnu_cxx11__promote_2IT_T0_NS0_9__promoteIS2_XsrSt12__is_integerIS2_E7__valueEE6__typeENS4_IS3_XsrS5_IS3_E7__valueEE6__typeEE6__typeES2_S3_
FN:415,_ZSt3powIiiEN9__gnu_cxx11__promote_2IT_T0_NS0_9__promoteIS2_XsrSt12__is_integerIS2_E7__valueEE6__typeENS4_IS3_XsrS5_IS3_E7__valueEE6__typeEE6__typeES2_S3_
FNDA:7460,_ZSt3logIxEN9__gnu_cxx11__enable_ifIXsrSt12__is_integerIT_E7__valueEdE6__typeES3_
FNDA:0,_ZSt3powIilEN9__gnu_cxx11__promote_2IT_T0_NS0_9__promoteIS2_XsrSt12__is_integerIS2_E7__valueEE6__typeENS4_IS3_XsrS5_IS3_E7__valueEE6__typeEE6__typeES2_S3_
FNDA:8101,_ZSt3logIiEN9__gnu_cxx11__enable_ifIXsrSt12__is_integerIT_E7__valueEdE6__typeES3_
FNDA:0,_ZSt3powIiiEN9__gnu_cxx11__promote_2IT_T0_NS0_9__promoteIS2_XsrSt12__is_integerIS2_E7__valueEE6__typeENS4_IS3_XsrS5_IS3_E7__valueEE6__typeEE6__typeES2_S3_
FNF:4
FNH:2
DA:350,15561
DA:351,15561
DA:415,0
DA:418,0
LF:4
LH:2
end_of_record
TN:
SF:/usr/include/c++/9/ext/aligned_buffer.h
FN:64,_ZN9__gnu_cxx16__aligned_membufISt4pairIK18SB_Side_ConnectionSt6vectorINSt7__cxx1112basic_stringIcSt11char_traitsIcESaIcEEESaISA_EEEE7_M_addrEv
FN:72,_ZN9__gnu_cxx16__aligned_membufISt4pairIK18SB_Side_ConnectionSt6vectorINSt7__cxx1112basic_stringIcSt11char_traitsIcESaIcEEESaISA_EEEE6_M_ptrEv
FNDA:0,_ZN9__gnu_cxx16__aligned_membufISt4pairIK18SB_Side_ConnectionSt6vectorINSt7__cxx1112basic_stringIcSt11char_traitsIcESaIcEEESaISA_EEEE6_M_ptrEv
FNDA:0,_ZN9__gnu_cxx16__aligned_membufISt4pairIK18SB_Side_ConnectionSt6vectorINSt7__cxx1112basic_stringIcSt11char_traitsIcESaIcEEESaISA_EEEE7_M_addrEv
FNF:2
FNH:0
DA:64,0
DA:65,0
DA:72,0
DA:73,0
LF:4
LH:0
end_of_record
TN:
SF:/usr/include/c++/9/ext/alloc_traits.h
FN:97,_ZN9__gnu_cxx14__alloc_traitsISaIcEcE17_S_select_on_copyERKS1_
FNDA:0,_ZN9__gnu_cxx14__alloc_traitsISaIcEcE17_S_select_on_copyERKS1_
FNF:1
FNH:0
DA:97,0
DA:98,0
LF:2
LH:0
end_of_record
TN:
SF:/usr/include/c++/9/ext/new_allocator.h
FN:80,_ZN9__gnu_cxx13new_allocatorIlEC2Ev
FN:80,_ZN9__gnu_cxx13new_allocatorIcEC2Ev
FN:80,_ZN9__gnu_cxx13new_allocatorI17s_switchblock_infEC2Ev
FN:83,_ZN9__gnu_cxx13new_allocatorIlEC2ERKS1_
FN:83,_ZN9__gnu_cxx13new_allocatorIcEC2ERKS1_
FN:89,_ZN9__gnu_cxx13new_allocatorIlED2Ev
FN:89,_ZN9__gnu_cxx13new_allocatorISt13_Rb_tree_nodeISt4pairIK18SB_Side_ConnectionSt6vectorINSt7__cxx1112basic_stringIcSt11char_traitsIcESaIcEEESaISB_EEEEED2Ev
FN:89,_ZN9__gnu_cxx13new_allocatorINSt7__cxx1112basic_stringIcSt11char_traitsIcESaIcEEEED2Ev
FN:89,_ZN9__gnu_cxx13new_allocatorIcED2Ev
FN:89,_ZN9__gnu_cxx13new_allocatorI17s_switchblock_infED2Ev
FN:89,_ZN9__gnu_cxx13new_allocatorIiED2Ev
FN:89,_ZN9__gnu_cxx13new_allocatorI14s_wireconn_infED2Ev
FN:102,_ZN9__gnu_cxx13new_allocatorIlE8allocateEmPKv
FN:119,_ZN9__gnu_cxx13new_allocatorISt13_Rb_tree_nodeISt4pairIK18SB_Side_ConnectionSt6vectorINSt7__cxx1112basic_stringIcSt11char_traitsIcESaIcEEESaISB_EEEEE10deallocateEPSF_m
FN:119,_ZN9__gnu_cxx13new_allocatorIlE10deallocateEPlm
FN:119,_ZN9__gnu_cxx13new_allocatorI17s_switchblock_infE10deallocateEPS1_m
FN:119,_ZN9__gnu_cxx13new_allocatorINSt7__cxx1112basic_stringIcSt11char_traitsIcESaIcEEEE10deallocateEPS6_m
FN:119,_ZN9__gnu_cxx13new_allocatorIiE10deallocateEPim
FN:119,_ZN9__gnu_cxx13new_allocatorI14s_wireconn_infE10deallocateEPS1_m
FN:132,_ZNK9__gnu_cxx13new_allocatorIlE8max_sizeEv
FN:144,_ZN9__gnu_cxx13new_allocatorIlE9constructIlJlEEEvPT_DpOT0_
FN:151,_ZN9__gnu_cxx13new_allocatorISt13_Rb_tree_nodeISt4pairIK18SB_Side_ConnectionSt6vectorINSt7__cxx1112basic_stringIcSt11char_traitsIcESaIcEEESaISB_EEEEE7destroyISE_EEvPT_
FN:151,_ZN9__gnu_cxx13new_allocatorIlE7destroyIlEEvPT_
FNDA:0,_ZN9__gnu_cxx13new_allocatorIcED2Ev
FNDA:0,_ZN9__gnu_cxx13new_allocatorIlE7destroyIlEEvPT_
FNDA:52,_ZN9__gnu_cxx13new_allocatorI17s_switchblock_infED2Ev
FNDA:68,_ZN9__gnu_cxx13new_allocatorIlED2Ev
FNDA:0,_ZN9__gnu_cxx13new_allocatorISt13_Rb_tree_nodeISt4pairIK18SB_Side_ConnectionSt6vectorINSt7__cxx1112basic_stringIcSt11char_traitsIcESaIcEEESaISB_EEEEE7destroyISE_EEvPT_
FNDA:0,_ZN9__gnu_cxx13new_allocatorISt13_Rb_tree_nodeISt4pairIK18SB_Side_ConnectionSt6vectorINSt7__cxx1112basic_stringIcSt11char_traitsIcESaIcEEESaISB_EEEEED2Ev
FNDA:34,_ZN9__gnu_cxx13new_allocatorIlEC2Ev
FNDA:0,_ZN9__gnu_cxx13new_allocatorISt13_Rb_tree_nodeISt4pairIK18SB_Side_ConnectionSt6vectorINSt7__cxx1112basic_stringIcSt11char_traitsIcESaIcEEESaISB_EEEEE10deallocateEPSF_m
FNDA:68,_ZN9__gnu_cxx13new_allocatorINSt7__cxx1112basic_stringIcSt11char_traitsIcESaIcEEEED2Ev
FNDA:187,_ZN9__gnu_cxx13new_allocatorIlE10deallocateEPlm
FNDA:204,_ZN9__gnu_cxx13new_allocatorINSt7__cxx1112basic_stringIcSt11char_traitsIcESaIcEEEE10deallocateEPS6_m
FNDA:0,_ZN9__gnu_cxx13new_allocatorI14s_wireconn_infED2Ev
FNDA:0,_ZN9__gnu_cxx13new_allocatorIiE10deallocateEPim
FNDA:0,_ZN9__gnu_cxx13new_allocatorI14s_wireconn_infE10deallocateEPS1_m
FNDA:0,_ZN9__gnu_cxx13new_allocatorIcEC2ERKS1_
FNDA:187,_ZN9__gnu_cxx13new_allocatorIlE8allocateEmPKv
FNDA:561,_ZNK9__gnu_cxx13new_allocatorIlE8max_sizeEv
FNDA:0,_ZN9__gnu_cxx13new_allocatorIcEC2Ev
FNDA:0,_ZN9__gnu_cxx13new_allocatorIiED2Ev
FNDA:34,_ZN9__gnu_cxx13new_allocatorIlEC2ERKS1_
FNDA:0,_ZN9__gnu_cxx13new_allocatorI17s_switchblock_infE10deallocateEPS1_m
FNDA:18,_ZN9__gnu_cxx13new_allocatorI17s_switchblock_infEC2Ev
FNDA:13855,_ZN9__gnu_cxx13new_allocatorIlE9constructIlJlEEEvPT_DpOT0_
FNF:23
FNH:11
DA:80,52
DA:83,34
DA:89,188
DA:102,187
DA:104,187
DA:105,0
DA:114,187
DA:119,391
DA:128,391
DA:129,391
DA:132,561
DA:135,561
DA:144,13855
DA:147,13855
DA:151,0
DA:153,0
LF:16
LH:13
end_of_record
TN:
SF:/usr/include/c++/9/ext/type_traits.h
FN:152,_ZN9__gnu_cxx17__is_null_pointerIKcEEbPT_
FN:152,_ZN9__gnu_cxx17__is_null_pointerIcEEbPT_
FNDA:0,_ZN9__gnu_cxx17__is_null_pointerIKcEEbPT_
FNDA:0,_ZN9__gnu_cxx17__is_null_pointerIcEEbPT_
FNF:2
FNH:0
DA:152,0
DA:153,0
LF:2
LH:0
end_of_record
TN:
SF:/usr/include/c++/9/new
FN:173,_ZnwmPv
FNDA:49351,_ZnwmPv
FNF:1
FNH:1
DA:173,49351
DA:174,49351
LF:2
LH:2
end_of_record
TN:
SF:/workspace/vtr-verilog-to-routing/ODIN_II/SRC/ace.c
FN:101,_Z26alloc_and_init_ace_structsP11netlist_t_t
FN:163,_Z30alloc_and_init_ace_info_objectv
FN:184,_Z15calc_node_depthP9nnode_t_t
FN:203,_Z18calculate_activityP11netlist_t_tiP8_IO_FILE
FN:282,_Z28compute_switching_activitiesP11netlist_t_t
FN:343,_Z16prob_epsilon_fixPd
FN:359,_Z15output_ace_infoP11netlist_t_tP8_IO_FILE
FN:393,_Z20output_ace_info_nodePcP16ace_obj_info_t_tP8_IO_FILE
FN:423,_Z9set_clearPji
FN:435,_Z10node_errori
FN:463,_Z12ace_cube_dupP10ace_cube_t
FN:497,_Z15ace_cube_new_dci
FN:519,_Z13ace_cube_freeP10ace_cube_t
FN:533,_Z18build_bdd_for_nodeP9DdManagerP9nnode_t_t
FN:569,_Z19ace_bdd_count_pathsP9DdManagerP6DdNodePiS3_
FN:593,_Z27calc_cube_switch_prob_recurP9DdManagerP6DdNodeP10ace_cube_tP9nnode_t_tP8st_tablei
FN:659,_Z21calc_cube_switch_probP9DdManagerP6DdNodeP10ace_cube_tP9nnode_t_ti
FN:677,_Z22calc_switch_prob_recurP9DdManagerP6DdNodeS2_P10ace_cube_tP9nnode_t_tdi
FNDA:12055,_Z20output_ace_info_nodePcP16ace_obj_info_t_tP8_IO_FILE
FNDA:12103,_Z30alloc_and_init_ace_info_objectv
FNDA:0,_Z15ace_cube_new_dci
FNDA:0,_Z18build_bdd_for_nodeP9DdManagerP9nnode_t_t
FNDA:0,_Z27calc_cube_switch_prob_recurP9DdManagerP6DdNodeP10ace_cube_tP9nnode_t_tP8st_tablei
FNDA:0,_Z21calc_cube_switch_probP9DdManagerP6DdNodeP10ace_cube_tP9nnode_t_ti
FNDA:0,_Z10node_errori
FNDA:16,_Z28compute_switching_activitiesP11netlist_t_t
FNDA:0,_Z19ace_bdd_count_pathsP9DdManagerP6DdNodePiS3_
FNDA:0,_Z15calc_node_depthP9nnode_t_t
FNDA:16,_Z18calculate_activityP11netlist_t_tiP8_IO_FILE
FNDA:0,_Z22calc_switch_prob_recurP9DdManagerP6DdNodeS2_P10ace_cube_tP9nnode_t_tdi
FNDA:16,_Z15output_ace_infoP11netlist_t_tP8_IO_FILE
FNDA:0,_Z12ace_cube_dupP10ace_cube_t
FNDA:0,_Z13ace_cube_freeP10ace_cube_t
FNDA:0,_Z16prob_epsilon_fixPd
FNDA:0,_Z9set_clearPji
FNDA:16,_Z26alloc_and_init_ace_structsP11netlist_t_t
FNF:18
FNH:6
DA:101,16
DA:118,16
DA:121,16
DA:124,16
DA:127,1444
DA:128,2856
DA:129,1428
DA:134,10643
DA:135,21254
DA:136,10627
DA:141,16
DA:142,0
DA:143,0
DA:148,16
DA:149,0
DA:150,0
DA:154,16
DA:163,12103
DA:167,12103
DA:169,12103
DA:170,12103
DA:171,12103
DA:172,12103
DA:174,12103
DA:184,0
DA:186,0
DA:189,0
DA:190,0
DA:191,0
DA:193,0
DA:203,16
DA:214,1444
DA:215,1428
DA:218,1428
DA:221,1428
DA:224,1428
DA:225,13
DA:229,1428
DA:232,1428
DA:236,10643
DA:237,10627
DA:240,10627
DA:243,10627
DA:246,10627
DA:249,10627
DA:253,16
DA:254,0
DA:255,0
DA:258,0
DA:261,0
DA:264,0
DA:269,16
DA:272,16
DA:273,16
DA:282,16
DA:293,16
DA:296,16
DA:298,0
DA:299,0
DA:301,0
DA:302,0
DA:303,0
DA:304,0
DA:308,0
DA:309,0
DA:310,0
DA:311,0
DA:312,0
DA:315,0
DA:316,0
DA:318,0
DA:319,0
DA:321,0
DA:322,0
DA:325,0
DA:326,0
DA:330,0
DA:334,16
DA:343,0
DA:345,0
DA:346,0
DA:347,0
DA:348,0
DA:350,0
DA:359,16
DA:363,1444
DA:364,1428
DA:365,1428
DA:370,10643
DA:371,10627
DA:372,10627
DA:377,16
DA:378,0
DA:379,0
DA:380,0
DA:384,16
DA:393,12055
DA:406,12055
DA:412,12055
DA:423,0
DA:425,0
DA:426,0
DA:427,0
DA:435,0
DA:436,0
DA:437,0
DA:438,0
DA:440,0
DA:441,0
DA:443,0
DA:444,0
DA:446,0
DA:447,0
DA:449,0
DA:450,0
DA:452,0
DA:453,0
DA:463,0
DA:467,0
DA:468,0
DA:469,0
DA:470,0
DA:471,0
DA:472,0
DA:473,0
DA:474,0
DA:475,0
DA:476,0
DA:477,0
DA:478,0
DA:479,0
DA:480,0
DA:481,0
DA:482,0
DA:483,0
DA:484,0
DA:485,0
DA:486,0
DA:489,0
DA:497,0
DA:501,0
DA:502,0
DA:503,0
DA:504,0
DA:506,0
DA:507,0
DA:508,0
DA:511,0
DA:519,0
DA:520,0
DA:521,0
DA:522,0
DA:533,0
DA:538,0
DA:539,0
DA:542,0
DA:543,0
DA:544,0
DA:545,0
DA:546,0
DA:547,0
DA:548,0
DA:549,0
DA:551,0
DA:552,0
DA:553,0
DA:555,0
DA:556,0
DA:557,0
DA:558,0
DA:560,0
DA:561,0
DA:569,0
DA:573,0
DA:574,0
DA:575,0
DA:576,0
DA:577,0
DA:578,0
DA:581,0
DA:582,0
DA:584,0
DA:585,0
DA:593,0
DA:600,0
DA:601,0
DA:602,0
DA:603,0
DA:604,0
DA:605,0
DA:606,0
DA:607,0
DA:608,0
DA:609,0
DA:612,0
DA:613,0
DA:616,0
DA:618,0
DA:620,0
DA:621,0
DA:622,0
DA:624,0
DA:625,0
DA:628,0
DA:630,0
DA:631,0
DA:633,0
DA:634,0
DA:635,0
DA:636,0
DA:637,0
DA:638,0
DA:639,0
DA:640,0
DA:641,0
DA:642,0
DA:643,0
DA:644,0
DA:645,0
DA:646,0
DA:647,0
DA:649,0
DA:651,0
DA:659,0
DA:663,0
DA:665,0
DA:667,0
DA:669,0
DA:677,0
DA:686,0
DA:687,0
DA:688,0
DA:690,0
DA:691,0
DA:692,0
DA:695,0
DA:696,0
DA:697,0
DA:699,0
DA:700,0
DA:701,0
DA:705,0
DA:707,0
DA:709,0
DA:710,0
DA:711,0
DA:713,0
DA:714,0
DA:718,0
DA:719,0
DA:720,0
DA:721,0
DA:722,0
DA:723,0
DA:726,0
DA:727,0
DA:728,0
DA:729,0
DA:730,0
DA:731,0
DA:733,0
LF:261
LH:55
end_of_record
TN:
SF:/workspace/vtr-verilog-to-routing/ODIN_II/SRC/activity_estimation.c
FN:60,_Z19activity_estimationPcS_iP11netlist_t_tS1_
FN:87,_Z23calc_transition_densityP11netlist_t_t
FN:187,_Z24initialize_probabilitiesPcP11netlist_t_t
FN:274,_Z36calc_probabilities_and_init_act_dataP11netlist_t_t
FN:392,_Z18boolean_differenceP9nnode_t_ti
FN:443,_Z12calc_densityP9nnode_t_tiPs
FN:530,_Z44output_activation_file_ace_and_function_filePciP11netlist_t_tS1_
FN:851,_Z18cleanup_activationP11netlist_t_t
FNDA:0,_Z36calc_probabilities_and_init_act_dataP11netlist_t_t
FNDA:0,_Z23calc_transition_densityP11netlist_t_t
FNDA:0,_Z44output_activation_file_ace_and_function_filePciP11netlist_t_tS1_
FNDA:0,_Z12calc_densityP9nnode_t_tiPs
FNDA:0,_Z18boolean_differenceP9nnode_t_ti
FNDA:0,_Z24initialize_probabilitiesPcP11netlist_t_t
FNDA:0,_Z19activity_estimationPcS_iP11netlist_t_tS1_
FNDA:0,_Z18cleanup_activationP11netlist_t_t
FNF:8
FNH:0
DA:60,0
DA:63,0
DA:66,0
DA:69,0
DA:72,0
DA:75,0
DA:78,0
DA:82,0
DA:87,0
DA:93,0
DA:95,0
DA:98,0
DA:99,0
DA:102,0
DA:105,0
DA:107,0
DA:110,0
DA:111,0
DA:112,0
DA:113,0
DA:115,0
DA:117,0
DA:118,0
DA:120,0
DA:121,0
DA:123,0
DA:124,0
DA:126,0
DA:130,0
DA:133,0
DA:138,0
DA:141,0
DA:144,0
DA:147,0
DA:150,0
DA:152,0
DA:153,0
DA:154,0
DA:155,0
DA:158,0
DA:159,0
DA:161,0
DA:163,0
DA:164,0
DA:165,0
DA:166,0
DA:169,0
DA:170,0
DA:172,0
DA:174,0
DA:178,0
DA:182,0
DA:187,0
DA:192,0
DA:194,0
DA:197,0
DA:198,0
DA:200,0
DA:201,0
DA:202,0
DA:204,0
DA:206,0
DA:208,0
DA:211,0
DA:216,0
DA:221,0
DA:222,0
DA:223,0
DA:225,0
DA:226,0
DA:227,0
DA:230,0
DA:233,0
DA:234,0
DA:235,0
DA:237,0
DA:238,0
DA:239,0
DA:242,0
DA:245,0
DA:246,0
DA:247,0
DA:249,0
DA:250,0
DA:251,0
DA:254,0
DA:257,0
DA:258,0
DA:259,0
DA:261,0
DA:262,0
DA:263,0
DA:267,0
DA:274,0
DA:279,0
DA:282,0
DA:284,0
DA:287,0
DA:288,0
DA:291,0
DA:293,0
DA:294,0
DA:296,0
DA:299,0
DA:302,0
DA:304,0
DA:305,0
DA:307,0
DA:310,0
DA:312,0
DA:313,0
DA:314,0
DA:315,0
DA:317,0
DA:319,0
DA:323,0
DA:326,0
DA:329,0
DA:334,0
DA:336,0
DA:338,0
DA:341,0
DA:342,0
DA:343,0
DA:344,0
DA:346,0
DA:349,0
DA:351,0
DA:352,0
DA:353,0
DA:354,0
DA:356,0
DA:359,0
DA:362,0
DA:364,0
DA:366,0
DA:367,0
DA:371,0
DA:374,0
DA:377,0
DA:380,0
DA:382,0
DA:387,0
DA:392,0
DA:397,0
DA:400,0
DA:401,0
DA:402,0
DA:405,0
DA:407,0
DA:409,0
DA:411,0
DA:412,0
DA:413,0
DA:416,0
DA:419,0
DA:421,0
DA:424,0
DA:426,0
DA:429,0
DA:430,0
DA:434,0
DA:437,0
DA:443,0
DA:447,0
DA:448,0
DA:450,0
DA:452,0
DA:454,0
DA:455,0
DA:456,0
DA:457,0
DA:459,0
DA:463,0
DA:467,0
DA:469,0
DA:471,0
DA:472,0
DA:473,0
DA:475,0
DA:478,0
DA:485,0
DA:488,0
DA:492,0
DA:495,0
DA:496,0
DA:497,0
DA:498,0
DA:500,0
DA:502,0
DA:506,0
DA:509,0
DA:511,0
DA:515,0
DA:516,0
DA:517,0
DA:520,0
DA:530,0
DA:532,0
DA:533,0
DA:534,0
DA:543,0
DA:544,0
DA:545,0
DA:547,0
DA:548,0
DA:550,0
DA:552,0
DA:553,0
DA:555,0
DA:557,0
DA:558,0
DA:560,0
DA:564,0
DA:566,0
DA:569,0
DA:570,0
DA:572,0
DA:574,0
DA:576,0
DA:579,0
DA:585,0
DA:590,0
DA:595,0
DA:597,0
DA:598,0
DA:599,0
DA:603,0
DA:605,0
DA:607,0
DA:609,0
DA:613,0
DA:615,0
DA:616,0
DA:618,0
DA:619,0
DA:621,0
DA:622,0
DA:623,0
DA:627,0
DA:629,0
DA:632,0
DA:634,0
DA:635,0
DA:637,0
DA:638,0
DA:640,0
DA:641,0
DA:642,0
DA:646,0
DA:648,0
DA:649,0
DA:651,0
DA:654,0
DA:658,0
DA:660,0
DA:661,0
DA:662,0
DA:664,0
DA:670,0
DA:672,0
DA:674,0
DA:675,0
DA:678,0
DA:679,0
DA:682,0
DA:687,0
DA:689,0
DA:690,0
DA:692,0
DA:695,0
DA:696,0
DA:700,0
DA:702,0
DA:705,0
DA:706,0
DA:707,0
DA:709,0
DA:710,0
DA:713,0
DA:715,0
DA:717,0
DA:720,0
DA:722,0
DA:724,0
DA:725,0
DA:727,0
DA:730,0
DA:733,0
DA:734,0
DA:735,0
DA:739,0
DA:740,0
DA:745,0
DA:746,0
DA:748,0
DA:751,0
DA:756,0
DA:757,0
DA:761,0
DA:764,0
DA:765,0
DA:770,0
DA:772,0
DA:774,0
DA:775,0
DA:778,0
DA:782,0
DA:783,0
DA:784,0
DA:787,0
DA:788,0
DA:790,0
DA:792,0
DA:795,0
DA:797,0
DA:801,0
DA:802,0
DA:805,0
DA:806,0
DA:808,0
DA:810,0
DA:814,0
DA:817,0
DA:823,0
DA:824,0
DA:826,0
DA:828,0
DA:831,0
DA:835,0
DA:836,0
DA:839,0
DA:840,0
DA:844,0
DA:845,0
DA:846,0
DA:851,0
DA:855,0
DA:857,0
DA:860,0
DA:861,0
DA:862,0
DA:864,0
DA:865,0
DA:866,0
DA:867,0
DA:868,0
DA:869,0
DA:871,0
DA:872,0
DA:875,0
LF:351
LH:0
end_of_record
TN:
SF:/workspace/vtr-verilog-to-routing/ODIN_II/SRC/adders.c
FN:60,_Z21init_add_distributionv
FN:74,_Z23record_add_distributionP9nnode_t_t
FN:95,_Z23report_add_distributionv
FN:123,_Z16find_hard_addersv
FN:149,_Z18declare_hard_adderP9nnode_t_t
FN:187,_Z22instantiate_hard_adderP9nnode_t_tsP11netlist_t_t
FN:227,_Z25add_the_blackbox_for_addsP8_IO_FILE
FN:326,_Z19define_add_functionP9nnode_t_tsP8_IO_FILE
FN:410,_Z16init_split_adderP9nnode_t_tS0_iiiiiiiiP11netlist_t_t
FN:704,_Z11split_adderP9nnode_t_tiiiiiiiP11netlist_t_t
FN:908,_Z14iterate_addersP11netlist_t_t
FN:968,_Z12clean_addersv
FN:983,_Z17reduce_operationsP11netlist_t_t14operation_list
FN:1019,_Z13traverse_list14operation_listPN3vtr13s_linked_vptrE
FN:1031,_Z10match_nodePN3vtr13s_linked_vptrE14operation_list
FN:1076,_Z11match_portsP9nnode_t_tS0_14operation_list
FN:1139,_Z23traverse_operation_nodeP12ast_node_t_tPPc14operation_listPi
FN:1173,_Z11merge_nodesP9nnode_t_tS0_
FN:1185,_Z16remove_list_nodePN3vtr13s_linked_vptrES1_
FN:1198,_Z18remove_fanout_pinsP9nnode_t_t
FN:1223,_Z15reallocate_pinsP9nnode_t_tS0_
FN:1250,_Z13free_op_nodesP9nnode_t_t
FN:1272,_Z10match_pinsP9nnode_t_tS0_
FNDA:17,_Z16find_hard_addersv
FNDA:62,_Z11merge_nodesP9nnode_t_tS0_
FNDA:62,_Z15reallocate_pinsP9nnode_t_tS0_
FNDA:984,_Z22instantiate_hard_adderP9nnode_t_tsP11netlist_t_t
FNDA:51,_Z17reduce_operationsP11netlist_t_t14operation_list
FNDA:51,_Z13traverse_list14operation_listPN3vtr13s_linked_vptrE
FNDA:17,_Z14iterate_addersP11netlist_t_t
FNDA:62,_Z13free_op_nodesP9nnode_t_t
FNDA:218,_Z11split_adderP9nnode_t_tiiiiiiiP11netlist_t_t
FNDA:43157,_Z11match_portsP9nnode_t_tS0_14operation_list
FNDA:2895,_Z19define_add_functionP9nnode_t_tsP8_IO_FILE
FNDA:17,_Z23report_add_distributionv
FNDA:0,_Z23record_add_distributionP9nnode_t_t
FNDA:62,_Z18remove_fanout_pinsP9nnode_t_t
FNDA:1454,_Z10match_pinsP9nnode_t_tS0_
FNDA:17,_Z25add_the_blackbox_for_addsP8_IO_FILE
FNDA:984,_Z18declare_hard_adderP9nnode_t_t
FNDA:717,_Z10match_nodePN3vtr13s_linked_vptrE14operation_list
FNDA:984,_Z16init_split_adderP9nnode_t_tS0_iiiiiiiiP11netlist_t_t
FNDA:62,_Z16remove_list_nodePN3vtr13s_linked_vptrES1_
FNDA:16,_Z21init_add_distributionv
FNDA:17,_Z12clean_addersv
FNDA:85273,_Z23traverse_operation_nodeP12ast_node_t_tPPc14operation_listPi
FNF:23
FNH:22
DA:60,16
DA:63,16
DA:64,16
DA:65,16
DA:66,112
DA:67,96
DA:68,16
DA:74,0
DA:76,0
DA:77,0
DA:78,0
DA:79,0
DA:95,17
DA:97,17
DA:98,1
DA:100,16
DA:101,16
DA:102,16
DA:103,16
DA:105,16
DA:106,16
DA:108,16
DA:109,16
DA:111,16
DA:112,16
DA:114,16
DA:115,16
DA:117,16
DA:123,17
DA:125,17
DA:128,17
DA:130,17
DA:132,16
DA:134,16
DA:135,16
DA:139,0
DA:143,1
DA:149,984
DA:155,984
DA:157,0
DA:159,984
DA:160,984
DA:161,984
DA:162,984
DA:164,984
DA:166,976
DA:167,976
DA:169,0
DA:173,8
DA:174,8
DA:175,8
DA:176,8
DA:177,8
DA:178,8
DA:179,8
DA:180,8
DA:181,8
DA:187,984
DA:192,984
DA:195,984
DA:196,984
DA:197,984
DA:200,984
DA:201,0
DA:203,984
DA:205,984
DA:206,0
DA:209,5904
DA:211,4920
DA:213,4183
DA:214,4183
DA:215,4183
DA:216,4183
DA:220,984
DA:221,984
DA:227,17
DA:238,17
DA:239,3
DA:242,16
DA:243,16
DA:244,16
DA:245,16
DA:246,16
DA:247,16
DA:249,16
DA:250,16
DA:251,16
DA:252,16
DA:255,16
DA:256,16
DA:257,2
DA:260,28
DA:263,14
DA:264,0
DA:266,14
DA:269,14
DA:270,14
DA:271,140
DA:273,126
DA:275,56
DA:277,70
DA:279,56
DA:283,14
DA:285,126
DA:286,0
DA:288,126
DA:290,14
DA:293,14
DA:294,14
DA:295,84
DA:297,70
DA:299,14
DA:303,56
DA:306,70
DA:308,0
DA:309,0
DA:312,70
DA:314,14
DA:315,14
DA:316,14
DA:317,14
DA:319,14
DA:326,2895
DA:332,2895
DA:333,2895
DA:334,2895
DA:335,2895
DA:336,2895
DA:337,2895
DA:338,2895
DA:341,2895
DA:343,0
DA:347,2895
DA:351,28950
DA:353,26055
DA:355,26055
DA:357,11580
DA:358,11371
DA:360,209
DA:362,14475
DA:364,11580
DA:365,11287
DA:367,293
DA:371,2895
DA:372,641
DA:374,2254
DA:377,26055
DA:379,10677
DA:380,10677
DA:382,26055
DA:386,17370
DA:388,14475
DA:389,2895
DA:391,11580
DA:392,14475
DA:394,9419
DA:395,9419
DA:397,14475
DA:400,2895
DA:401,5790
DA:410,984
DA:413,984
DA:415,984
DA:418,984
DA:419,984
DA:420,984
DA:421,984
DA:422,984
DA:425,984
DA:427,984
DA:428,984
DA:429,984
DA:430,766
DA:431,218
DA:433,51
DA:434,51
DA:438,167
DA:439,167
DA:440,167
DA:443,984
DA:444,766
DA:445,218
DA:447,51
DA:448,51
DA:452,167
DA:453,167
DA:454,167
DA:459,0
DA:460,0
DA:462,0
DA:463,0
DA:464,0
DA:466,0
DA:471,984
DA:472,984
DA:473,984
DA:474,984
DA:475,984
DA:476,984
DA:477,984
DA:478,984
DA:481,984
DA:482,0
DA:484,984
DA:487,984
DA:488,984
DA:490,984
DA:492,255
DA:493,204
DA:495,933
DA:497,167
DA:499,2
DA:500,2
DA:501,6
DA:503,4
DA:504,4
DA:505,4
DA:507,4
DA:508,2
DA:513,512
DA:515,347
DA:516,347
DA:517,347
DA:519,478
DA:520,313
DA:525,766
DA:527,216
DA:529,216
DA:530,216
DA:532,864
DA:534,648
DA:535,648
DA:536,648
DA:542,0
DA:544,0
DA:545,0
DA:546,0
DA:552,550
DA:554,2750
DA:556,2200
DA:557,2200
DA:558,2200
DA:563,0
DA:564,0
DA:567,0
DA:568,0
DA:570,0
DA:571,0
DA:572,0
DA:580,984
DA:582,255
DA:583,204
DA:585,933
DA:587,167
DA:589,2
DA:590,2
DA:592,6
DA:594,4
DA:595,4
DA:596,4
DA:598,4
DA:599,2
DA:604,512
DA:606,347
DA:607,347
DA:608,347
DA:610,478
DA:611,313
DA:616,766
DA:618,216
DA:620,216
DA:621,216
DA:623,864
DA:625,648
DA:626,648
DA:627,648
DA:633,0
DA:635,0
DA:636,0
DA:637,0
DA:643,550
DA:645,2750
DA:647,2200
DA:648,2200
DA:649,2200
DA:654,0
DA:655,0
DA:658,0
DA:659,0
DA:661,0
DA:662,0
DA:663,0
DA:671,1968
DA:673,984
DA:678,984
DA:679,0
DA:681,984
DA:683,984
DA:684,984
DA:685,5904
DA:686,4920
DA:688,984
DA:704,218
DA:708,218
DA:709,218
DA:710,218
DA:713,218
DA:714,218
DA:716,218
DA:718,1202
DA:720,984
DA:721,984
DA:722,984
DA:723,984
DA:726,218
DA:727,0
DA:730,218
DA:732,2
DA:733,2
DA:737,216
DA:738,216
DA:741,218
DA:743,218
DA:744,218
DA:748,0
DA:749,0
DA:754,766
DA:757,984
DA:760,218
DA:762,218
DA:763,218
DA:765,0
DA:766,218
DA:767,218
DA:768,218
DA:770,218
DA:773,218
DA:774,218
DA:776,218
DA:777,218
DA:780,218
DA:783,218
DA:785,0
DA:788,0
DA:791,218
DA:793,51
DA:795,51
DA:796,51
DA:801,1202
DA:803,984
DA:804,8856
DA:806,7872
DA:807,936
DA:812,984
DA:813,766
DA:816,218
DA:818,2
DA:820,8
DA:822,6
DA:823,6
DA:826,0
DA:827,0
DA:830,6
DA:831,6
DA:836,0
DA:837,0
DA:838,0
DA:844,864
DA:845,648
DA:846,766
DA:848,2750
DA:849,2200
DA:852,216
DA:854,1080
DA:856,864
DA:857,563
DA:860,301
DA:862,301
DA:866,216
DA:868,216
DA:872,0
DA:874,0
DA:875,0
DA:876,0
DA:879,0
DA:881,0
DA:887,218
DA:888,218
DA:889,218
DA:892,218
DA:893,218
DA:894,218
DA:895,218
DA:896,218
DA:908,17
DA:913,17
DA:917,17
DA:918,1
DA:920,16
DA:921,16
DA:922,16
DA:924,16
DA:926,234
DA:928,218
DA:929,218
DA:931,218
DA:932,218
DA:933,0
DA:935,218
DA:937,218
DA:938,218
DA:939,218
DA:940,218
DA:941,218
DA:944,218
DA:946,218
DA:948,218
DA:949,218
DA:951,0
DA:952,218
DA:953,218
DA:957,0
DA:959,16
DA:968,18
DA:970,18
DA:971,1
DA:972,17
DA:983,51
DA:985,51
DA:987,51
DA:989,17
DA:990,17
DA:991,17
DA:992,17
DA:994,17
DA:995,17
DA:996,17
DA:997,17
DA:999,17
DA:1000,17
DA:1001,17
DA:1002,17
DA:1004,0
DA:1005,0
DA:1006,0
DA:1010,51
DA:1012,51
DA:1019,768
DA:1021,768
DA:1023,717
DA:1024,717
DA:1026,51
DA:1031,717
DA:1034,717
DA:1035,717
DA:1036,717
DA:1037,717
DA:1038,717
DA:1039,717
DA:1040,717
DA:1041,59053
DA:1043,58336
DA:1044,58336
DA:1045,58336
DA:1046,58336
DA:1048,58336
DA:1050,43157
DA:1051,43157
DA:1053,1454
DA:1054,1454
DA:1056,62
DA:1057,62
DA:1062,58336
DA:1063,62
DA:1066,58274
DA:1067,58274
DA:1071,717
DA:1076,43157
DA:1078,43157
DA:1079,43157
DA:1080,43157
DA:1081,43157
DA:1082,43157
DA:1084,43157
DA:1085,43157
DA:1086,43157
DA:1087,43157
DA:1088,43157
DA:1090,43157
DA:1091,43157
DA:1093,42116
DA:1094,42116
DA:1096,42116
DA:1098,3868
DA:1101,3868
DA:1102,3868
DA:1103,117
DA:1106,3751
DA:1107,3751
DA:1108,3751
DA:1110,3868
DA:1111,93
DA:1113,3868
DA:1115,38248
DA:1116,38248
DA:1117,38248
DA:1118,1361
DA:1119,38248
DA:1120,1361
DA:1121,38248
DA:1123,0
DA:1125,0
DA:1131,43157
DA:1139,85273
DA:1143,85273
DA:1144,0
DA:1146,85273
DA:1148,254434
DA:1150,170202
DA:1151,170202
DA:1153,1041
DA:1154,1041
DA:1158,169161
DA:1159,168283
DA:1161,878
DA:1162,878
DA:1173,62
DA:1176,62
DA:1177,62
DA:1178,62
DA:1180,62
DA:1185,62
DA:1187,62
DA:1188,60
DA:1190,2
DA:1191,62
DA:1193,62
DA:1198,62
DA:1201,1286
DA:1203,1224
DA:1204,303420
DA:1206,303420
DA:1207,1224
DA:1209,488962
DA:1211,487738
DA:1212,487738
DA:1214,1224
DA:1215,1224
DA:1218,62
DA:1223,62
DA:1227,62
DA:1228,62
DA:1229,62
DA:1230,724
DA:1232,1324
DA:1234,662
DA:1236,624
DA:1237,624
DA:1238,624
DA:1239,624
DA:1240,624
DA:1245,62
DA:1250,62
DA:1253,62
DA:1254,724
DA:1256,662
DA:1258,662
DA:1259,662
DA:1260,662
DA:1261,662
DA:1262,662
DA:1265,62
DA:1267,62
DA:1272,1454
DA:1277,17224
DA:1279,17162
DA:1280,17162
DA:1281,134493
DA:1283,134493
DA:1285,15770
DA:1286,15770
DA:1288,118723
DA:1290,1392
DA:1291,1392
DA:1294,17162
DA:1295,1392
DA:1298,1454
LF:587
LH:516
end_of_record
TN:
SF:/workspace/vtr-verilog-to-routing/ODIN_II/SRC/ast_elaborate.c
FN:57,_Z12simplify_astv
FN:77,_Z17optimize_for_treev
FN:161,_Z15search_for_nodeP12ast_node_t_tPS0_S1_
FN:190,_Z9copy_treeP12ast_node_t_tS0_
FN:263,_Z13complete_nodeP12ast_node_t_tS0_
FN:278,_Z17record_expressionP12ast_node_t_tPPc
FN:296,_Z11calculationPPc
FN:346,_Z20translate_expressionPPcS0_
FN:396,_Z17check_and_replaceP12ast_node_t_tPPc
FN:447,_Z17modify_expressionPPcS0_S_
FN:471,_Z15free_whole_treeP12ast_node_t_t
FN:510,_Z12initial_nodeP12ast_node_t_t3idsii
FN:533,_Z21change_to_number_nodeP12ast_node_t_tPc
FN:584,_Z15reallocate_nodeP12ast_node_t_ti
FN:599,_Z22find_most_unique_countv
FN:616,_Z15mark_node_writeP12ast_node_t_tPA20_c
FN:640,_Z14mark_node_readP12ast_node_t_tPA20_c
FN:663,_Z28remove_intermediate_variableP12ast_node_t_tPA20_c
FN:713,_Z18search_marked_nodeP12ast_node_t_tiPcPS0_
FN:741,_Z16free_single_nodeP12ast_node_t_t
FN:761,_Z28reduce_assignment_expressionv
FN:813,_Z16find_assign_nodeP12ast_node_t_tPS0_
FN:831,_Z19simplify_expressionPi
FN:844,_Z9find_tailP8exp_node
FN:858,_Z17reduce_enode_listv
FN:917,_Z14store_exp_listP12ast_node_t_t
FN:934,_Z16record_tree_infoP12ast_node_t_t
FN:963,_Z12create_enodeP12ast_node_t_t
FN:1034,_Z15adjoin_constantPi
FN:1098,_Z13replace_enodeiP8exp_nodei
FN:1143,_Z16combine_constantPi
FN:1220,_Z18construct_new_treeP8exp_nodeP12ast_node_t_tii
FN:1276,_Z14check_exp_listP8exp_node
FN:1293,_Z26delete_continuous_multiplyPi
FN:1355,_Z15create_ast_nodeP8exp_nodeP12ast_node_t_tii
FN:1388,_Z14create_op_nodeP12ast_node_t_tP8exp_nodeii
FN:1416,_Z13free_exp_listv
FN:1429,_Z17deal_with_bracketP12ast_node_t_t
FN:1456,_Z18check_mult_bracketPii
FN:1487,_Z14recursive_treeP12ast_node_t_tPiS1_
FN:1514,_Z14find_leaf_nodeP12ast_node_t_tPiS1_i
FN:1530,_Z14delete_bracketii
FN:1566,_Z19delete_bracket_headP8exp_nodeS0_
FN:1585,_Z15change_exp_listP8exp_nodeS0_S0_i
FN:1676,_Z15copy_enode_listP8exp_nodeS0_S0_
FN:1695,_Z10copy_enodeP8exp_nodeS0_
FN:1706,_Z19delete_bracket_tailP8exp_nodeS0_
FN:1721,_Z19delete_bracket_bodyP8exp_nodeS0_
FN:1745,_Z20check_tree_operationP12ast_node_t_tPi
FN:1766,_Z15check_operationP8exp_nodeS0_
FN:1791,_Z16reduce_parameterv
FN:1814,_Z14find_parameterP12ast_node_t_tPS0_Pi
FN:1839,_Z16remove_para_nodeP12ast_node_t_tPS0_i
FN:1875,_Z16change_para_nodeP12ast_node_t_tPci
FN:1896,_Z15change_ast_nodeP12ast_node_t_ti
FN:1910,_Z15shift_operationv
FN:1926,_Z24search_certain_operationP12ast_node_t_ti
FN:1951,_Z22check_binary_operationP12ast_node_t_ti
FN:1974,_Z17check_node_numberP12ast_node_t_tS0_ii
FN:2009,_Z15change_bit_sizeP12ast_node_t_tix
FN:2023,_Z23search_var_declare_listP12ast_node_t_tPcx
FN:2060,_Z27check_intermediate_variableP12ast_node_t_tPi
FN:2083,_Z15keep_all_branchP12ast_node_t_tS0_i
FN:2105,_Z11check_indexP12ast_node_t_tS0_
FNDA:0,_Z15mark_node_writeP12ast_node_t_tPA20_c
FNDA:0,_Z9copy_treeP12ast_node_t_tS0_
FNDA:72892,_Z24search_certain_operationP12ast_node_t_ti
FNDA:97601,_Z15search_for_nodeP12ast_node_t_tPS0_S1_
FNDA:17,_Z12simplify_astv
FNDA:34,_Z28reduce_assignment_expressionv
FNDA:0,_Z15reallocate_nodeP12ast_node_t_ti
FNDA:0,_Z11check_indexP12ast_node_t_tS0_
FNDA:0,_Z23search_var_declare_listP12ast_node_t_tPcx
FNDA:0,_Z15check_operationP8exp_nodeS0_
FNDA:18,_Z21change_to_number_nodeP12ast_node_t_tPc
FNDA:924,_Z17deal_with_bracketP12ast_node_t_t
FNDA:0,_Z10copy_enodeP8exp_nodeS0_
FNDA:3196,_Z12create_enodeP12ast_node_t_t
FNDA:924,_Z14store_exp_listP12ast_node_t_t
FNDA:0,_Z9find_tailP8exp_node
FNDA:0,_Z15change_bit_sizeP12ast_node_t_tix
FNDA:96,_Z22check_binary_operationP12ast_node_t_ti
FNDA:197264,_Z16find_assign_nodeP12ast_node_t_tPS0_
FNDA:41002,_Z20check_tree_operationP12ast_node_t_tPi
FNDA:0,_Z15change_exp_listP8exp_nodeS0_S0_i
FNDA:0,_Z17modify_expressionPPcS0_S_
FNDA:3374,_Z14recursive_treeP12ast_node_t_tPiS1_
FNDA:2,_Z16remove_para_nodeP12ast_node_t_tPS0_i
FNDA:17,_Z15shift_operationv
FNDA:0,_Z15free_whole_treeP12ast_node_t_t
FNDA:0,_Z14create_op_nodeP12ast_node_t_tP8exp_nodeii
FNDA:0,_Z19delete_bracket_tailP8exp_nodeS0_
FNDA:924,_Z18check_mult_bracketPii
FNDA:0,_Z20translate_expressionPPcS0_
FNDA:0,_Z16free_single_nodeP12ast_node_t_t
FNDA:3196,_Z16record_tree_infoP12ast_node_t_t
FNDA:0,_Z27check_intermediate_variableP12ast_node_t_tPi
FNDA:144356,_Z14find_parameterP12ast_node_t_tPS0_Pi
FNDA:4,_Z17check_node_numberP12ast_node_t_tS0_ii
FNDA:0,_Z19delete_bracket_bodyP8exp_nodeS0_
FNDA:17,_Z17optimize_for_treev
FNDA:0,_Z13replace_enodeiP8exp_nodei
FNDA:0,_Z14mark_node_readP12ast_node_t_tPA20_c
FNDA:0,_Z17check_and_replaceP12ast_node_t_tPPc
FNDA:0,_Z11calculationPPc
FNDA:0,_Z14check_exp_listP8exp_node
FNDA:0,_Z28remove_intermediate_variableP12ast_node_t_tPA20_c
FNDA:18,_Z15change_ast_nodeP12ast_node_t_ti
FNDA:0,_Z14find_leaf_nodeP12ast_node_t_tPiS1_i
FNDA:0,_Z12initial_nodeP12ast_node_t_t3idsii
FNDA:0,_Z18construct_new_treeP8exp_nodeP12ast_node_t_tii
FNDA:0,_Z18search_marked_nodeP12ast_node_t_tiPcPS0_
FNDA:0,_Z17record_expressionP12ast_node_t_tPPc
FNDA:7368,_Z16change_para_nodeP12ast_node_t_tPci
FNDA:0,_Z13complete_nodeP12ast_node_t_tS0_
FNDA:0,_Z15create_ast_nodeP8exp_nodeP12ast_node_t_tii
FNDA:0,_Z15keep_all_branchP12ast_node_t_tS0_i
FNDA:1848,_Z17reduce_enode_listv
FNDA:924,_Z13free_exp_listv
FNDA:924,_Z26delete_continuous_multiplyPi
FNDA:0,_Z14delete_bracketii
FNDA:924,_Z19simplify_expressionPi
FNDA:0,_Z15copy_enode_listP8exp_nodeS0_S0_
FNDA:924,_Z15adjoin_constantPi
FNDA:34,_Z16reduce_parameterv
FNDA:51,_Z22find_most_unique_countv
FNDA:924,_Z16combine_constantPi
FNDA:0,_Z19delete_bracket_headP8exp_nodeS0_
FNF:64
FNH:29
DA:57,17
DA:60,17
DA:62,17
DA:64,17
DA:66,17
DA:70,17
DA:77,17
DA:83,17
DA:84,17
DA:86,17
DA:89,70
DA:91,53
DA:93,53
DA:96,53
DA:105,0
DA:106,0
DA:107,0
DA:108,0
DA:109,0
DA:110,0
DA:111,0
DA:113,0
DA:114,0
DA:115,0
DA:117,0
DA:118,0
DA:119,0
DA:120,0
DA:121,0
DA:122,0
DA:123,0
DA:124,0
DA:125,0
DA:126,0
DA:128,0
DA:130,0
DA:131,0
DA:132,0
DA:133,0
DA:134,0
DA:135,0
DA:136,0
DA:137,0
DA:138,0
DA:139,0
DA:142,0
DA:143,0
DA:144,0
DA:147,0
DA:148,0
DA:150,0
DA:151,0
DA:152,0
DA:155,17
DA:161,97601
DA:164,97601
DA:165,64433
DA:167,130716
DA:168,97548
DA:170,130716
DA:172,97548
DA:173,24709
DA:176,72839
DA:178,0
DA:179,0
DA:180,0
DA:190,0
DA:193,0
DA:194,0
DA:195,0
DA:199,0
DA:200,0
DA:202,0
DA:203,0
DA:205,0
DA:206,0
DA:207,0
DA:208,0
DA:212,0
DA:213,0
DA:214,0
DA:215,0
DA:216,0
DA:218,0
DA:220,0
DA:221,0
DA:222,0
DA:223,0
DA:224,0
DA:225,0
DA:226,0
DA:227,0
DA:228,0
DA:229,0
DA:230,0
DA:232,0
DA:233,0
DA:234,0
DA:235,0
DA:236,0
DA:239,0
DA:240,0
DA:244,0
DA:245,0
DA:247,0
DA:249,0
DA:250,0
DA:253,0
DA:258,0
DA:263,0
DA:265,0
DA:266,0
DA:267,0
DA:268,0
DA:269,0
DA:270,0
DA:271,0
DA:272,0
DA:273,0
DA:278,0
DA:280,0
DA:281,0
DA:282,0
DA:284,0
DA:285,0
DA:287,0
DA:288,0
DA:289,0
DA:296,0
DA:304,0
DA:305,0
DA:307,0
DA:309,0
DA:311,0
DA:313,0
DA:314,0
DA:315,0
DA:316,0
DA:317,0
DA:318,0
DA:319,0
DA:320,0
DA:321,0
DA:322,0
DA:323,0
DA:324,0
DA:325,0
DA:326,0
DA:328,0
DA:329,0
DA:333,0
DA:334,0
DA:337,0
DA:339,0
DA:346,0
DA:354,0
DA:355,0
DA:357,0
DA:359,0
DA:361,0
DA:363,0
DA:365,0
DA:367,0
DA:369,0
DA:370,0
DA:373,0
DA:374,0
DA:376,0
DA:378,0
DA:379,0
DA:381,0
DA:382,0
DA:383,0
DA:387,0
DA:389,0
DA:391,0
DA:396,0
DA:399,0
DA:401,0
DA:402,0
DA:403,0
DA:405,0
DA:406,0
DA:407,0
DA:409,0
DA:410,0
DA:411,0
DA:413,0
DA:414,0
DA:415,0
DA:417,0
DA:418,0
DA:420,0
DA:421,0
DA:422,0
DA:423,0
DA:424,0
DA:425,0
DA:426,0
DA:427,0
DA:428,0
DA:429,0
DA:430,0
DA:431,0
DA:433,0
DA:434,0
DA:436,0
DA:438,0
DA:439,0
DA:442,0
DA:447,0
DA:450,0
DA:451,0
DA:453,0
DA:454,0
DA:456,0
DA:458,0
DA:459,0
DA:462,0
DA:466,0
DA:471,0
DA:475,0
DA:476,0
DA:478,0
DA:480,0
DA:481,0
DA:484,0
DA:485,0
DA:487,0
DA:489,0
DA:490,0
DA:491,0
DA:492,0
DA:493,0
DA:494,0
DA:495,0
DA:496,0
DA:497,0
DA:498,0
DA:499,0
DA:500,0
DA:503,0
DA:510,0
DA:512,0
DA:513,0
DA:514,0
DA:515,0
DA:516,0
DA:517,0
DA:518,0
DA:519,0
DA:520,0
DA:521,0
DA:522,0
DA:523,0
DA:524,0
DA:526,0
DA:533,18
DA:535,18
DA:536,18
DA:537,18
DA:538,18
DA:540,40
DA:542,22
DA:544,0
DA:546,22
DA:549,18
DA:550,18
DA:552,18
DA:553,18
DA:554,18
DA:555,18
DA:556,18
DA:559,18
DA:561,0
DA:566,18
DA:568,18
DA:572,0
DA:576,18
DA:577,18
DA:579,18
DA:584,0
DA:588,0
DA:590,0
DA:591,0
DA:592,0
DA:594,0
DA:599,51
DA:603,210
DA:605,159
DA:606,159
DA:607,53
DA:610,51
DA:616,0
DA:619,0
DA:620,0
DA:622,0
DA:623,0
DA:625,0
DA:626,0
DA:630,0
DA:631,0
DA:632,0
DA:640,0
DA:643,0
DA:644,0
DA:646,0
DA:648,0
DA:649,0
DA:650,0
DA:653,0
DA:654,0
DA:655,0
DA:663,0
DA:666,0
DA:667,0
DA:670,0
DA:672,0
DA:674,0
DA:676,0
DA:677,0
DA:678,0
DA:679,0
DA:680,0
DA:681,0
DA:682,0
DA:684,0
DA:685,0
DA:686,0
DA:690,0
DA:694,0
DA:695,0
DA:698,0
DA:699,0
DA:700,0
DA:702,0
DA:703,0
DA:705,0
DA:707,0
DA:713,0
DA:716,0
DA:717,0
DA:719,0
DA:721,0
DA:723,0
DA:725,0
DA:726,0
DA:730,0
DA:741,0
DA:743,0
DA:744,0
DA:746,0
DA:747,0
DA:749,0
DA:750,0
DA:751,0
DA:753,0
DA:761,34
DA:764,34
DA:766,34
DA:767,34
DA:768,34
DA:769,34
DA:771,34
DA:772,34
DA:773,34
DA:775,34
DA:776,140
DA:778,106
DA:779,106
DA:780,106
DA:781,10124
DA:783,10018
DA:784,10018
DA:785,10018
DA:787,924
DA:788,924
DA:789,924
DA:790,924
DA:791,0
DA:792,924
DA:793,924
DA:795,0
DA:796,0
DA:797,0
DA:798,0
DA:799,0
DA:800,0
DA:801,0
DA:803,924
DA:813,197264
DA:816,197264
DA:817,130326
DA:819,66938
DA:820,10186
DA:822,264094
DA:823,197156
DA:831,924
DA:833,924
DA:834,924
DA:835,924
DA:836,924
DA:837,924
DA:839,924
DA:844,0
DA:847,0
DA:848,0
DA:849,0
DA:850,0
DA:852,0
DA:858,1848
DA:863,1848
DA:864,0
DA:865,0
DA:866,0
DA:868,0
DA:869,0
DA:872,1848
DA:873,0
DA:876,1848
DA:877,6392
DA:879,4544
DA:881,60
DA:883,0
DA:884,0
DA:887,0
DA:888,0
DA:890,0
DA:892,0
DA:893,0
DA:894,0
DA:895,60
DA:897,0
DA:898,0
DA:900,0
DA:901,0
DA:902,0
DA:904,0
DA:906,60
DA:907,60
DA:909,4484
DA:917,924
DA:920,924
DA:921,924
DA:922,924
DA:923,924
DA:924,924
DA:925,924
DA:926,924
DA:927,924
DA:929,924
DA:934,3196
DA:936,3196
DA:937,0
DA:941,3196
DA:943,2050
DA:944,2050
DA:949,1146
DA:950,1146
DA:951,1146
DA:952,1126
DA:963,3196
DA:966,3196
DA:967,3196
DA:968,3196
DA:969,3196
DA:970,3196
DA:971,3196
DA:973,208
DA:974,208
DA:975,208
DA:976,208
DA:977,208
DA:979,1842
DA:980,1842
DA:981,1842
DA:982,1842
DA:983,1842
DA:985,988
DA:987,988
DA:989,432
DA:990,432
DA:991,432
DA:992,432
DA:993,432
DA:995,332
DA:996,332
DA:997,332
DA:998,332
DA:999,332
DA:1001,192
DA:1002,192
DA:1003,192
DA:1004,192
DA:1005,192
DA:1007,0
DA:1008,0
DA:1009,0
DA:1010,0
DA:1011,0
DA:1013,32
DA:1014,32
DA:1018,1146
DA:1024,3196
DA:1025,3196
DA:1026,3196
DA:1028,3196
DA:1034,924
DA:1037,924
DA:1039,3196
DA:1041,2272
DA:1042,2272
DA:1044,0
DA:1046,0
DA:1047,0
DA:1048,0
DA:1049,0
DA:1050,0
DA:1052,0
DA:1053,0
DA:1054,0
DA:1055,0
DA:1056,0
DA:1058,0
DA:1059,0
DA:1061,0
DA:1062,0
DA:1063,0
DA:1065,0
DA:1066,0
DA:1068,0
DA:1070,0
DA:1072,0
DA:1073,0
DA:1075,0
DA:1078,0
DA:1079,0
DA:1080,0
DA:1082,0
DA:1086,2272
DA:1087,2272
DA:1089,0
DA:1090,0
DA:1093,924
DA:1098,0
DA:1101,0
DA:1102,0
DA:1103,0
DA:1104,0
DA:1105,0
DA:1107,0
DA:1109,0
DA:1110,0
DA:1115,0
DA:1116,0
DA:1119,0
DA:1121,0
DA:1122,0
DA:1123,0
DA:1125,0
DA:1126,0
DA:1127,0
DA:1131,0
DA:1132,0
DA:1135,0
DA:1136,0
DA:1143,924
DA:1149,4120
DA:1151,3196
DA:1152,3196
DA:1154,8
DA:1156,24
DA:1158,16
DA:1160,0
DA:1161,0
DA:1162,0
DA:1163,0
DA:1164,0
DA:1166,0
DA:1167,0
DA:1169,0
DA:1173,0
DA:1174,0
DA:1176,0
DA:1178,0
DA:1179,0
DA:1181,0
DA:1182,0
DA:1186,0
DA:1187,0
DA:1190,0
DA:1191,0
DA:1192,0
DA:1194,0
DA:1195,0
DA:1198,0
DA:1199,0
DA:1201,0
DA:1206,3196
DA:1207,3196
DA:1209,0
DA:1210,0
DA:1212,0
DA:1215,924
DA:1220,0
DA:1222,0
DA:1223,0
DA:1225,0
DA:1226,0
DA:1228,0
DA:1229,0
DA:1231,0
DA:1232,0
DA:1234,0
DA:1235,0
DA:1236,0
DA:1237,0
DA:1238,0
DA:1239,0
DA:1244,0
DA:1246,0
DA:1247,0
DA:1249,0
DA:1250,0
DA:1251,0
DA:1252,0
DA:1253,0
DA:1254,0
DA:1258,0
DA:1259,0
DA:1261,0
DA:1263,0
DA:1264,0
DA:1265,0
DA:1266,0
DA:1267,0
DA:1270,0
DA:1276,0
DA:1279,0
DA:1280,0
DA:1281,0
DA:1283,0
DA:1284,0
DA:1285,0
DA:1287,0
DA:1293,924
DA:1298,4120
DA:1300,3196
DA:1301,3196
DA:1303,36
DA:1305,32
DA:1307,12
DA:1309,12
DA:1311,4
DA:1312,4
DA:1316,4
DA:1318,0
DA:1319,0
DA:1320,0
DA:1321,0
DA:1323,0
DA:1324,0
DA:1325,0
DA:1326,0
DA:1329,0
DA:1330,0
DA:1332,0
DA:1333,0
DA:1334,0
DA:1335,0
DA:1336,0
DA:1338,4
DA:1342,3196
DA:1343,3196
DA:1345,0
DA:1346,0
DA:1350,924
DA:1355,0
DA:1357,0
DA:1360,0
DA:1362,0
DA:1363,0
DA:1364,0
DA:1365,0
DA:1366,0
DA:1368,0
DA:1369,0
DA:1370,0
DA:1372,0
DA:1373,0
DA:1374,0
DA:1375,0
DA:1376,0
DA:1377,0
DA:1379,0
DA:1380,0
DA:1383,0
DA:1388,0
DA:1390,0
DA:1391,0
DA:1392,0
DA:1394,0
DA:1395,0
DA:1396,0
DA:1398,0
DA:1399,0
DA:1400,0
DA:1402,0
DA:1403,0
DA:1404,0
DA:1406,0
DA:1407,0
DA:1408,0
DA:1411,0
DA:1416,924
DA:1419,4120
DA:1421,3196
DA:1422,3196
DA:1424,924
DA:1429,924
DA:1432,924
DA:1433,924
DA:1434,924
DA:1435,924
DA:1436,924
DA:1437,924
DA:1438,924
DA:1439,0
DA:1442,924
DA:1444,0
DA:1445,0
DA:1446,0
DA:1448,924
DA:1456,924
DA:1458,924
DA:1461,924
DA:1463,0
DA:1464,0
DA:1465,0
DA:1466,0
DA:1468,0
DA:1470,0
DA:1471,0
DA:1472,0
DA:1474,0
DA:1476,0
DA:1477,0
DA:1479,924
DA:1487,3374
DA:1490,3374
DA:1491,0
DA:1493,3374
DA:1495,576
DA:1497,384
DA:1499,0
DA:1500,0
DA:1505,3374
DA:1506,3656
DA:1507,2450
DA:1514,0
DA:1516,0
DA:1517,0
DA:1519,0
DA:1520,0
DA:1522,0
DA:1523,0
DA:1530,0
DA:1532,0
DA:1533,0
DA:1534,0
DA:1536,0
DA:1538,0
DA:1539,0
DA:1540,0
DA:1542,0
DA:1543,0
DA:1544,0
DA:1547,0
DA:1548,0
DA:1551,0
DA:1552,0
DA:1554,0
DA:1555,0
DA:1557,0
DA:1558,0
DA:1559,0
DA:1561,0
DA:1566,0
DA:1569,0
DA:1571,0
DA:1573,0
DA:1574,0
DA:1576,0
DA:1577,0
DA:1579,0
DA:1580,0
DA:1585,0
DA:1587,0
DA:1589,0
DA:1591,0
DA:1593,0
DA:1595,0
DA:1596,0
DA:1598,0
DA:1600,0
DA:1601,0
DA:1603,0
DA:1605,0
DA:1606,0
DA:1607,0
DA:1610,0
DA:1612,0
DA:1613,0
DA:1614,0
DA:1615,0
DA:1616,0
DA:1617,0
DA:1618,0
DA:1619,0
DA:1621,0
DA:1622,0
DA:1624,0
DA:1627,0
DA:1629,0
DA:1630,0
DA:1632,0
DA:1633,0
DA:1635,0
DA:1637,0
DA:1638,0
DA:1640,0
DA:1642,0
DA:1643,0
DA:1645,0
DA:1647,0
DA:1648,0
DA:1649,0
DA:1652,0
DA:1654,0
DA:1655,0
DA:1656,0
DA:1657,0
DA:1658,0
DA:1659,0
DA:1660,0
DA:1661,0
DA:1664,0
DA:1665,0
DA:1667,0
DA:1671,0
DA:1676,0
DA:1679,0
DA:1680,0
DA:1682,0
DA:1683,0
DA:1684,0
DA:1685,0
DA:1686,0
DA:1689,0
DA:1695,0
DA:1697,0
DA:1698,0
DA:1699,0
DA:1700,0
DA:1701,0
DA:1706,0
DA:1708,0
DA:1709,0
DA:1710,0
DA:1712,0
DA:1713,0
DA:1715,0
DA:1716,0
DA:1721,0
DA:1724,0
DA:1725,0
DA:1726,0
DA:1727,0
DA:1728,0
DA:1730,0
DA:1731,0
DA:1732,0
DA:1734,0
DA:1735,0
DA:1737,0
DA:1740,0
DA:1745,41002
DA:1748,41002
DA:1749,0
DA:1751,41002
DA:1753,932
DA:1754,932
DA:1757,40070
DA:1758,44036
DA:1759,30984
DA:1766,0
DA:1769,0
DA:1771,0
DA:1773,0
DA:1775,0
DA:1777,0
DA:1778,0
DA:1780,0
DA:1785,0
DA:1791,34
DA:1795,34
DA:1796,34
DA:1798,140
DA:1800,106
DA:1801,106
DA:1802,106
DA:1803,106
DA:1804,106
DA:1805,2
DA:1809,34
DA:1814,144356
DA:1819,144356
DA:1820,0
DA:1822,288606
DA:1824,160132
DA:1825,160132
DA:1826,15882
DA:1828,144250
DA:1829,24
DA:1831,144250
DA:1839,2
DA:1843,2
DA:1848,2
DA:1849,2
DA:1850,2
DA:1852,26
DA:1854,24
DA:1856,24
DA:1857,24
DA:1859,24
DA:1860,24
DA:1862,2040
DA:1864,2016
DA:1865,2016
DA:1870,2
DA:1875,7368
DA:1879,7368
DA:1880,0
DA:1884,7368
DA:1885,18
DA:1887,7368
DA:1888,7944
DA:1889,5352
DA:1896,18
DA:1898,18
DA:1899,18
DA:1900,18
DA:1901,18
DA:1902,18
DA:1903,18
DA:1905,18
DA:1910,17
DA:1914,70
DA:1916,53
DA:1917,53
DA:1920,17
DA:1926,72892
DA:1931,72892
DA:1932,39724
DA:1934,130716
DA:1936,97548
DA:1937,97548
DA:1939,72839
DA:1940,96
DA:1941,72839
DA:1951,96
DA:1953,96
DA:1955,96
DA:1956,2
DA:1957,96
DA:1958,2
DA:1962,0
DA:1964,0
DA:1965,0
DA:1968,96
DA:1974,4
DA:1976,4
DA:1977,4
DA:1978,4
DA:1979,4
DA:1980,0
DA:1981,4
DA:1983,0
DA:1984,0
DA:1986,4
DA:1988,0
DA:1989,0
DA:1990,0
DA:1991,0
DA:1992,0
DA:1994,0
DA:1995,0
DA:1996,0
DA:1998,0
DA:1999,0
DA:2000,0
DA:2001,0
DA:2009,0
DA:2013,0
DA:2014,0
DA:2015,0
DA:2017,0
DA:2023,0
DA:2027,0
DA:2028,0
DA:2029,0
DA:2031,0
DA:2033,0
DA:2035,0
DA:2037,0
DA:2039,0
DA:2040,0
DA:2041,0
DA:2048,0
DA:2050,0
DA:2051,0
DA:2060,0
DA:2064,0
DA:2065,0
DA:2068,0
DA:2070,0
DA:2071,0
DA:2074,0
DA:2075,0
DA:2083,0
DA:2086,0
DA:2087,0
DA:2089,0
DA:2090,0
DA:2091,0
DA:2093,0
DA:2094,0
DA:2095,0
DA:2096,0
DA:2099,0
DA:2105,0
DA:2107,0
DA:2109,0
DA:2111,0
DA:2112,0
DA:2115,0
LF:1046
LH:307
end_of_record
TN:
SF:/workspace/vtr-verilog-to-routing/ODIN_II/SRC/ast_optimizations.c
FN:49,_Z20optimizations_on_ASTP12ast_node_t_t
FN:59,_Z23reduceAST_traverse_nodeP12ast_node_t_tS0_i
FN:116,_Z12constantFoldP12ast_node_t_t
FNDA:97618,_Z23reduceAST_traverse_nodeP12ast_node_t_tS0_i
FNDA:17,_Z20optimizations_on_ASTP12ast_node_t_t
FNDA:39735,_Z12constantFoldP12ast_node_t_t
FNF:3
FNH:3
DA:49,17
DA:52,17
DA:53,17
DA:54,17
DA:59,97618
DA:62,97618
DA:63,97618
DA:64,97618
DA:66,97618
DA:69,24709
DA:73,72909
DA:76,72909
DA:80,72909
DA:83,170510
DA:86,97601
DA:90,72909
DA:93,72909
DA:97,170510
DA:99,97601
DA:100,0
DA:102,72909
DA:103,72909
DA:105,72909
DA:107,0
DA:110,72909
DA:116,39735
DA:119,39735
DA:120,39735
DA:121,39735
DA:123,39735
DA:126,0
DA:130,39735
DA:132,9406
DA:136,9406
DA:137,9406
DA:140,9406
DA:142,6028
DA:143,6028
DA:145,6028
DA:146,6028
DA:148,6028
DA:149,0
DA:150,0
DA:152,0
DA:153,0
DA:155,0
DA:156,0
DA:157,0
DA:159,0
DA:160,0
DA:162,0
DA:163,3299
DA:164,3299
DA:166,3299
DA:167,3299
DA:169,3299
DA:170,79
DA:171,79
DA:172,79
DA:173,79
DA:176,9406
DA:179,9406
DA:180,9406
DA:184,0
DA:185,0
DA:187,9406
DA:188,30329
DA:189,30329
DA:193,39735
DA:196,75111
DA:199,35376
DA:203,39735
DA:205,255
DA:206,255
DA:207,0
DA:211,0
DA:216,0
DA:218,0
DA:219,0
DA:220,0
DA:221,0
DA:222,0
DA:223,0
DA:224,0
DA:225,0
DA:226,0
DA:227,0
DA:228,0
DA:231,0
DA:233,0
DA:235,0
DA:236,0
DA:239,0
DA:242,0
DA:245,0
DA:248,255
DA:249,11815
DA:250,11815
DA:251,192
DA:252,181
DA:253,181
DA:257,181
DA:262,181
DA:264,61
DA:265,61
DA:266,61
DA:267,120
DA:268,120
DA:269,120
DA:270,0
DA:271,0
DA:272,0
DA:273,0
DA:274,0
DA:275,0
DA:276,0
DA:277,0
DA:278,0
DA:279,0
DA:280,0
DA:281,0
DA:282,0
DA:283,0
DA:284,0
DA:285,0
DA:286,0
DA:287,0
DA:288,0
DA:289,0
DA:290,0
DA:291,0
DA:292,0
DA:293,0
DA:294,0
DA:295,0
DA:296,0
DA:297,0
DA:298,0
DA:299,0
DA:300,0
DA:301,0
DA:302,0
DA:303,0
DA:304,0
DA:307,181
DA:309,181
DA:311,181
DA:312,181
DA:315,181
DA:318,181
DA:321,181
DA:324,11815
DA:325,27665
DA:326,27665
DA:330,75111
DA:332,35376
DA:333,9406
DA:335,39735
DA:336,39735
DA:338,39735
DA:340,181
DA:343,39735
LF:162
LH:91
end_of_record
TN:
SF:/workspace/vtr-verilog-to-routing/ODIN_II/SRC/ast_util.c
FN:41,_Z18create_node_w_type3idsii
FN:68,_Z18free_child_in_treeP12ast_node_t_ti
FN:106,_Z13free_ast_nodeP12ast_node_t_t
FN:142,_Z18free_ast_node_onlyP12ast_node_t_t
FN:167,_Z19create_tree_node_idPcii
FN:178,_Z33create_tree_node_long_long_numberxiii
FN:204,_Z23create_tree_node_numberPcii
FN:340,_Z25allocate_children_to_nodeP12ast_node_t_tiz
FN:361,_Z17add_child_to_nodeP12ast_node_t_tS0_
FN:376,_Z38add_child_at_the_beginning_of_the_nodeP12ast_node_t_tS0_
FN:406,_Z9get_rangeP12ast_node_t_t
FN:435,_Z32make_concat_into_list_of_stringsP12ast_node_t_tPc
FN:550,_Z30get_name_of_var_declare_at_bitP12ast_node_t_ti
FN:578,_Z22get_name_of_pin_at_bitP12ast_node_t_tiPc
FN:682,_Z23get_name_of_pins_numberP12ast_node_t_tii
FN:715,_Z16get_name_of_pinsP12ast_node_t_tPc
FN:858,_Z28get_name_of_pins_with_prefixP12ast_node_t_tPc
FN:883,_Z12resolve_nodePcP12ast_node_t_t
FN:946,_Z22make_module_param_nameP12ast_node_t_tPc
FN:972,_Z9calculatells
FN:998,_Z13move_ast_nodeP12ast_node_t_tS0_S0_
FN:1022,_Z18ast_node_deep_copyP12ast_node_t_t
FNDA:15586,_Z30get_name_of_var_declare_at_bitP12ast_node_t_ti
FNDA:23444,_Z19create_tree_node_idPcii
FNDA:21829,_Z28get_name_of_pins_with_prefixP12ast_node_t_tPc
FNDA:0,_Z13move_ast_nodeP12ast_node_t_tS0_S0_
FNDA:0,_Z32make_concat_into_list_of_stringsP12ast_node_t_tPc
FNDA:15595,_Z22get_name_of_pin_at_bitP12ast_node_t_tiPc
FNDA:0,_Z9calculatells
FNDA:32508,_Z25allocate_children_to_nodeP12ast_node_t_tiz
FNDA:0,_Z18ast_node_deep_copyP12ast_node_t_t
FNDA:4030,_Z23get_name_of_pins_numberP12ast_node_t_tii
FNDA:5637,_Z9get_rangeP12ast_node_t_t
FNDA:44437,_Z12resolve_nodePcP12ast_node_t_t
FNDA:181,_Z33create_tree_node_long_long_numberxiii
FNDA:0,_Z38add_child_at_the_beginning_of_the_nodeP12ast_node_t_tS0_
FNDA:0,_Z18free_ast_node_onlyP12ast_node_t_t
FNDA:362,_Z18free_child_in_treeP12ast_node_t_ti
FNDA:21829,_Z16get_name_of_pinsP12ast_node_t_tPc
FNDA:13857,_Z17add_child_to_nodeP12ast_node_t_tS0_
FNDA:181,_Z13free_ast_nodeP12ast_node_t_t
FNDA:40,_Z22make_module_param_nameP12ast_node_t_tPc
FNDA:14705,_Z23create_tree_node_numberPcii
FNDA:71159,_Z18create_node_w_type3idsii
FNF:22
FNH:16
DA:41,71159
DA:47,71159
DA:48,71159
DA:49,71159
DA:51,71159
DA:52,71159
DA:54,71159
DA:55,71159
DA:56,71159
DA:58,71159
DA:59,71159
DA:61,71159
DA:68,362
DA:70,362
DA:73,362
DA:74,0
DA:77,362
DA:79,0
DA:82,362
DA:83,0
DA:85,362
DA:87,0
DA:88,0
DA:89,0
DA:90,0
DA:91,362
DA:92,362
DA:93,327
DA:94,362
DA:95,0
DA:96,0
DA:99,362
DA:100,362
DA:106,181
DA:110,181
DA:111,0
DA:114,543
DA:116,362
DA:119,181
DA:120,181
DA:122,181
DA:124,0
DA:125,0
DA:126,0
DA:127,0
DA:128,0
DA:129,0
DA:130,0
DA:131,0
DA:132,181
DA:133,181
DA:136,181
DA:142,0
DA:144,0
DA:145,0
DA:147,0
DA:149,0
DA:150,0
DA:151,0
DA:152,0
DA:153,0
DA:154,0
DA:155,0
DA:156,0
DA:157,0
DA:158,0
DA:161,0
DA:162,0
DA:167,23444
DA:169,23444
DA:170,23444
DA:172,23444
DA:178,181
DA:180,181
DA:181,181
DA:182,181
DA:183,181
DA:185,181
DA:187,0
DA:188,0
DA:191,181
DA:192,181
DA:194,181
DA:195,181
DA:196,0
DA:198,181
DA:204,14705
DA:206,14705
DA:207,14705
DA:208,14705
DA:210,14705
DA:213,34654
DA:215,23603
DA:217,3654
DA:219,19949
DA:222,14705
DA:224,11051
DA:226,11051
DA:228,11051
DA:231,11051
DA:233,11051
DA:238,3654
DA:240,0
DA:241,0
DA:242,0
DA:243,23
DA:244,23
DA:245,23
DA:246,1
DA:247,1
DA:248,1
DA:249,3630
DA:250,3630
DA:251,3630
DA:252,0
DA:253,0
DA:254,0
DA:258,3654
DA:259,3654
DA:260,3654
DA:262,3654
DA:263,3654
DA:266,0
DA:267,0
DA:271,3654
DA:274,3654
DA:278,14705
DA:281,3654
DA:286,11051
DA:288,7261
DA:292,3790
DA:296,14705
DA:298,11051
DA:300,11051
DA:301,11051
DA:302,11051
DA:303,23
DA:304,23
DA:305,23
DA:306,23
DA:308,23
DA:311,0
DA:313,23
DA:314,1
DA:315,1
DA:316,1
DA:318,1
DA:319,1
DA:320,3630
DA:322,3630
DA:324,3630
DA:328,3630
DA:330,3630
DA:333,14705
DA:340,32508
DA:346,32508
DA:347,32508
DA:350,32508
DA:352,111261
DA:354,78753
DA:356,32508
DA:361,13857
DA:364,13857
DA:365,0
DA:368,13857
DA:369,13857
DA:370,13857
DA:376,0
DA:381,0
DA:382,0
DA:387,0
DA:388,0
DA:390,0
DA:392,0
DA:393,0
DA:394,0
DA:395,0
DA:398,0
DA:406,5637
DA:410,5637
DA:415,3638
DA:418,0
DA:421,0
DA:422,0
DA:423,0
DA:426,3638
DA:428,1999
DA:435,0
DA:440,0
DA:441,0
DA:444,0
DA:446,0
DA:448,0
DA:452,0
DA:454,0
DA:456,0
DA:458,0
DA:460,0
DA:462,0
DA:464,0
DA:465,0
DA:466,0
DA:468,0
DA:471,0
DA:472,0
DA:473,0
DA:475,0
DA:477,0
DA:478,0
DA:479,0
DA:482,0
DA:484,0
DA:488,0
DA:491,0
DA:493,0
DA:494,0
DA:495,0
DA:497,0
DA:499,0
DA:500,0
DA:501,0
DA:502,0
DA:503,0
DA:507,0
DA:509,0
DA:510,0
DA:511,0
DA:512,0
DA:515,0
DA:517,0
DA:519,0
DA:523,0
DA:525,0
DA:526,0
DA:527,0
DA:530,0
DA:533,0
DA:535,0
DA:536,0
DA:537,0
DA:541,0
DA:544,0
DA:550,15586
DA:552,15586
DA:555,15586
DA:557,100
DA:558,100
DA:560,15486
DA:562,15486
DA:563,15486
DA:565,0
DA:568,0
DA:571,15586
DA:578,15595
DA:583,15595
DA:585,0
DA:586,0
DA:587,0
DA:589,15595
DA:591,118
DA:592,118
DA:593,118
DA:594,118
DA:595,118
DA:597,118
DA:599,15477
DA:601,101
DA:603,15376
DA:608,15376
DA:612,0
DA:613,0
DA:616,15376
DA:618,0
DA:620,15376
DA:622,15376
DA:623,15376
DA:626,0
DA:628,15376
DA:630,0
DA:632,0
DA:633,0
DA:635,0
DA:636,0
DA:638,0
DA:639,0
DA:641,0
DA:643,0
DA:644,0
DA:648,0
DA:649,0
DA:652,0
DA:654,0
DA:656,0
DA:657,0
DA:661,0
DA:664,0
DA:667,0
DA:668,0
DA:673,0
DA:675,0
DA:676,0
DA:679,15595
DA:682,4030
DA:685,4030
DA:687,4030
DA:689,28946
DA:692,24916
DA:694,24916
DA:695,24916
DA:697,6047
DA:698,18869
DA:699,0
DA:700,0
DA:705,0
DA:707,4030
DA:715,21829
DA:717,21829
DA:718,21829
DA:722,21829
DA:724,21829
DA:726,3599
DA:727,3599
DA:728,3599
DA:729,3599
DA:730,3599
DA:731,3599
DA:733,18230
DA:735,203
DA:736,203
DA:737,203
DA:738,203
DA:739,203
DA:740,203
DA:742,203
DA:743,6751
DA:744,6548
DA:748,0
DA:749,0
DA:752,18027
DA:759,14009
DA:761,14009
DA:763,13997
DA:765,13997
DA:767,0
DA:769,13997
DA:771,13997
DA:774,0
DA:776,13997
DA:778,13997
DA:780,5076
DA:781,5076
DA:782,5076
DA:784,8921
DA:786,8921
DA:787,8921
DA:788,8921
DA:789,8921
DA:790,8921
DA:791,8921
DA:792,146340
DA:794,274838
DA:795,137419
DA:796,137419
DA:799,0
DA:801,0
DA:811,12
DA:812,12
DA:813,12
DA:816,4018
DA:818,4018
DA:819,4018
DA:821,0
DA:823,0
DA:825,0
DA:829,0
DA:832,0
DA:835,0
DA:836,0
DA:837,0
DA:839,0
DA:840,0
DA:846,0
DA:849,21829
DA:850,21829
DA:852,21829
DA:858,21829
DA:864,21829
DA:866,199387
DA:868,177558
DA:871,21829
DA:883,44437
DA:885,44437
DA:893,44437
DA:894,44437
DA:895,44437
DA:897,44437
DA:899,0
DA:902,44437
DA:904,14212
DA:905,14212
DA:906,14212
DA:907,14212
DA:908,14212
DA:909,14212
DA:910,14212
DA:912,12
DA:913,12
DA:915,14212
DA:917,0
DA:918,0
DA:919,0
DA:920,0
DA:921,0
DA:923,0
DA:924,0
DA:925,0
DA:927,0
DA:929,30225
DA:930,30225
DA:933,44437
DA:934,44437
DA:936,44437
DA:946,40
DA:948,40
DA:949,40
DA:951,40
DA:954,0
DA:955,0
DA:956,0
DA:958,0
DA:960,0
DA:964,40
DA:972,0
DA:974,0
DA:975,0
DA:976,0
DA:977,0
DA:978,0
DA:979,0
DA:980,0
DA:981,0
DA:982,0
DA:983,0
DA:984,0
DA:985,0
DA:986,0
DA:987,0
DA:988,0
DA:989,0
DA:991,0
DA:998,0
DA:1002,0
DA:1003,0
DA:1005,0
DA:1007,0
DA:1008,0
DA:1009,0
DA:1011,0
DA:1015,0
DA:1016,0
DA:1022,0
DA:1026,0
DA:1027,0
DA:1031,0
DA:1032,0
DA:1035,0
DA:1036,0
DA:1040,0
DA:1041,0
DA:1044,0
LF:470
LH:248
end_of_record
TN:
SF:/workspace/vtr-verilog-to-routing/ODIN_II/SRC/errors.c
FN:35,_Z13error_messagesiiPKcz
FN:62,_Z15warning_messagesiiPKcz
FNDA:1,_Z13error_messagesiiPKcz
FNDA:1,_Z15warning_messagesiiPKcz
FNF:2
FNH:2
DA:35,1
DA:39,1
DA:41,1
DA:42,1
DA:43,0
DA:44,1
DA:45,0
DA:46,1
DA:48,1
DA:49,1
DA:50,1
DA:51,1
DA:54,1
DA:56,1
DA:62,1
DA:67,1
DA:69,1
DA:70,1
DA:71,1
DA:74,1
DA:75,1
DA:76,0
DA:77,1
DA:78,0
DA:79,1
DA:80,1
DA:82,1
DA:83,1
DA:84,1
DA:87,1
DA:88,1
LF:31
LH:27
end_of_record
TN:
SF:/workspace/vtr-verilog-to-routing/ODIN_II/SRC/hard_blocks.c
FN:38,_Z14get_model_portP13s_model_portsPKc
FN:47,_Z22cache_hard_block_namesv
FN:61,_Z20register_hard_blocksv
FN:110,_Z22deregister_hard_blocksv
FN:116,_Z15find_hard_blockPKc
FN:130,_Z17define_hard_blockP9nnode_t_tsP8_IO_FILE
FN:213,_Z18output_hard_blocksP8_IO_FILE
FN:282,_Z22instantiate_hard_blockP9nnode_t_tsP11netlist_t_t
FN:306,_Z20hard_block_port_sizeP7s_modelPc
FN:341,_Z25hard_block_port_directionP7s_modelPc
FNDA:8,_Z22instantiate_hard_blockP9nnode_t_tsP11netlist_t_t
FNDA:8,_Z17define_hard_blockP9nnode_t_tsP8_IO_FILE
FNDA:43,_Z15find_hard_blockPKc
FNDA:17,_Z20register_hard_blocksv
FNDA:0,_Z25hard_block_port_directionP7s_modelPc
FNDA:17,_Z22deregister_hard_blocksv
FNDA:17,_Z22cache_hard_block_namesv
FNDA:17,_Z18output_hard_blocksP8_IO_FILE
FNDA:168,_Z14get_model_portP13s_model_portsPKc
FNDA:0,_Z20hard_block_port_sizeP7s_modelPc
FNF:10
FNH:8
DA:38,576
DA:40,576
DA:41,408
DA:43,168
DA:47,17
DA:49,17
DA:51,17
DA:52,17
DA:53,97
DA:55,80
DA:56,80
DA:58,17
DA:61,17
DA:63,17
DA:64,17
DA:65,17
DA:67,17
DA:71,16
DA:73,0
DA:74,0
DA:76,0
DA:77,0
DA:80,16
DA:81,16
DA:82,16
DA:85,17
DA:89,16
DA:91,0
DA:92,0
DA:93,0
DA:94,0
DA:96,0
DA:97,0
DA:98,0
DA:99,0
DA:102,16
DA:103,16
DA:104,16
DA:105,16
DA:106,16
DA:108,17
DA:110,17
DA:112,17
DA:113,17
DA:116,43
DA:120,43
DA:121,150
DA:122,148
DA:123,41
DA:125,107
DA:127,2
DA:130,8
DA:138,8
DA:139,8
DA:142,8
DA:143,0
DA:145,8
DA:146,8
DA:147,8
DA:150,8
DA:151,144
DA:154,136
DA:156,0
DA:157,0
DA:160,136
DA:161,24
DA:164,112
DA:165,0
DA:167,112
DA:170,136
DA:172,72
DA:173,72
DA:175,136
DA:177,136
DA:178,136
DA:180,32
DA:181,32
DA:186,8
DA:187,16
DA:189,8
DA:190,0
DA:192,8
DA:194,8
DA:196,8
DA:197,8
DA:199,8
DA:201,8
DA:202,8
DA:204,8
DA:205,8
DA:209,8
DA:210,8
DA:213,17
DA:221,17
DA:222,17
DA:223,97
DA:225,80
DA:228,1
DA:230,0
DA:231,0
DA:234,1
DA:235,1
DA:236,1
DA:237,5
DA:239,21
DA:241,17
DA:242,3
DA:244,14
DA:246,17
DA:247,1
DA:249,16
DA:251,4
DA:254,1
DA:255,1
DA:256,2
DA:258,2
DA:260,1
DA:261,1
DA:263,0
DA:265,1
DA:266,0
DA:268,1
DA:270,1
DA:273,1
DA:275,80
DA:278,34
DA:282,8
DA:286,8
DA:288,16
DA:290,8
DA:291,0
DA:293,8
DA:294,8
DA:296,8
DA:297,8
DA:301,8
DA:302,8
DA:306,0
DA:310,0
DA:311,0
DA:317,0
DA:318,0
DA:320,0
DA:323,0
DA:324,0
DA:325,0
DA:326,0
DA:328,0
DA:330,0
DA:331,0
DA:332,0
DA:333,0
DA:335,0
DA:337,0
DA:341,0
DA:345,0
DA:346,0
DA:348,0
DA:349,0
DA:350,0
DA:351,0
DA:353,0
DA:355,0
DA:356,0
DA:357,0
DA:358,0
DA:360,0
DA:362,0
LF:168
LH:115
end_of_record
TN:
SF:/workspace/vtr-verilog-to-routing/ODIN_II/SRC/hashtable.c
FN:39,_Z16create_hashtablei
FN:64,_Z20___hashtable_destroyP13hashtable_t_t
FN:82,_Z31___hashtable_destroy_free_itemsP13hashtable_t_t
FN:101,_Z16___hashtable_addP13hashtable_t_tPvmS1_
FN:123,_Z19___hashtable_removeP13hashtable_t_tPvm
FN:148,_Z16___hashtable_getP13hashtable_t_tPvm
FN:163,_Z20___hashtable_get_allP13hashtable_t_t
FN:180,_Z21___hashtable_is_emptyP13hashtable_t_t
FN:185,_Z25___hashtable_compare_keysPvmS_m
FN:191,_Z17___hashtable_hashPvmi
FNDA:1946090,_Z25___hashtable_compare_keysPvmS_m
FNDA:458325,_Z16___hashtable_getP13hashtable_t_tPvm
FNDA:0,_Z19___hashtable_removeP13hashtable_t_tPvm
FNDA:17,_Z20___hashtable_get_allP13hashtable_t_t
FNDA:815036,_Z17___hashtable_hashPvmi
FNDA:1500,_Z16create_hashtablei
FNDA:356711,_Z16___hashtable_addP13hashtable_t_tPvmS1_
FNDA:55,_Z31___hashtable_destroy_free_itemsP13hashtable_t_t
FNDA:0,_Z21___hashtable_is_emptyP13hashtable_t_t
FNDA:1445,_Z20___hashtable_destroyP13hashtable_t_t
FNF:10
FNH:8
DA:39,1500
DA:41,1500
DA:43,0
DA:44,0
DA:47,1500
DA:49,1500
DA:50,1500
DA:51,1500
DA:53,1500
DA:54,1500
DA:55,1500
DA:56,1500
DA:57,1500
DA:58,1500
DA:59,1500
DA:61,1500
DA:64,1445
DA:67,294833
DA:70,650061
DA:72,356673
DA:73,356673
DA:74,356673
DA:75,356673
DA:78,1445
DA:79,1445
DA:80,1445
DA:82,55
DA:85,17169
DA:88,17152
DA:90,38
DA:91,38
DA:92,38
DA:93,38
DA:94,38
DA:97,55
DA:98,55
DA:99,55
DA:101,356711
DA:103,356711
DA:105,356711
DA:106,356711
DA:107,356711
DA:108,356711
DA:110,356711
DA:112,356711
DA:113,356711
DA:115,9981580
DA:116,9624870
DA:118,356711
DA:120,356711
DA:121,356711
DA:123,0
DA:125,0
DA:127,0
DA:128,0
DA:129,0
DA:131,0
DA:132,0
DA:135,0
DA:136,0
DA:138,0
DA:139,0
DA:140,0
DA:141,0
DA:142,0
DA:145,0
DA:148,458325
DA:150,458325
DA:152,458325
DA:153,2403680
DA:154,1945350
DA:156,458325
DA:157,458325
DA:158,734
DA:160,458325
DA:163,17
DA:164,17
DA:165,17
DA:168,17017
DA:170,17000
DA:171,17000
DA:173,0
DA:174,0
DA:177,17
DA:180,0
DA:182,0
DA:185,1946090
DA:187,1946090
DA:188,1946080
DA:191,815036
DA:193,815036
DA:195,145562000
DA:196,144747000
DA:198,815036
LF:94
LH:73
end_of_record
TN:
SF:/workspace/vtr-verilog-to-routing/ODIN_II/SRC/high_level_data.c
FN:24,_Z12add_tag_datav
FN:37,_Z11update_treeP12ast_node_t_t
FN:102,_Z10update_tagP12ast_node_t_tii
FN:121,_Z12generate_tagv
FN:133,_Z14get_linenumberP12ast_node_t_t
FNDA:0,_Z12add_tag_datav
FNDA:0,_Z14get_linenumberP12ast_node_t_t
FNDA:0,_Z10update_tagP12ast_node_t_tii
FNDA:0,_Z11update_treeP12ast_node_t_t
FNDA:0,_Z12generate_tagv
FNF:5
FNH:0
DA:24,0
DA:28,0
DA:30,0
DA:32,0
DA:37,0
DA:43,0
DA:44,0
DA:46,0
DA:48,0
DA:50,0
DA:51,0
DA:52,0
DA:53,0
DA:54,0
DA:56,0
DA:57,0
DA:59,0
DA:63,0
DA:65,0
DA:67,0
DA:68,0
DA:69,0
DA:70,0
DA:71,0
DA:73,0
DA:74,0
DA:76,0
DA:80,0
DA:82,0
DA:84,0
DA:85,0
DA:86,0
DA:87,0
DA:88,0
DA:90,0
DA:91,0
DA:93,0
DA:102,0
DA:105,0
DA:106,0
DA:108,0
DA:109,0
DA:111,0
DA:113,0
DA:121,0
DA:124,0
DA:125,0
DA:127,0
DA:133,0
DA:135,0
LF:50
LH:0
end_of_record
TN:
SF:/workspace/vtr-verilog-to-routing/ODIN_II/SRC/implicit_memory.c
FN:42,_Z22lookup_implicit_memoryPcS_
FN:51,_Z36lookup_implicit_memory_reference_astPcP12ast_node_t_t
FN:64,_Z38is_valid_implicit_memory_reference_astPcP12ast_node_t_t
FN:76,_Z28create_implicit_memory_blockixPcS_
FN:114,_Z33add_input_port_to_implicit_memoryP15implicit_memoryP15signal_list_t_tPKc
FN:124,_Z34add_output_port_to_implicit_memoryP15implicit_memoryP15signal_list_t_tPKc
FN:134,_Z28lookup_implicit_memory_inputPc
FN:143,_Z30register_implicit_memory_inputPcP15implicit_memory
FN:154,_Z26init_implicit_memory_indexv
FN:165,_Z48free_implicit_memory_index_and_finalize_memoriesv
FN:191,_Z39add_dummy_input_port_to_implicit_memoryP15implicit_memoryiPKc
FN:207,_Z40add_dummy_output_port_to_implicit_memoryP15implicit_memoryiPKc
FN:230,_Z24finalize_implicit_memoryP15implicit_memory
FN:327,_Z43collapse_implicit_memory_to_single_port_ramP15implicit_memory
FNDA:6574,_Z22lookup_implicit_memoryPcS_
FNDA:0,_Z28create_implicit_memory_blockixPcS_
FNDA:17,_Z26init_implicit_memory_indexv
FNDA:0,_Z34add_output_port_to_implicit_memoryP15implicit_memoryP15signal_list_t_tPKc
FNDA:0,_Z24finalize_implicit_memoryP15implicit_memory
FNDA:10410,_Z36lookup_implicit_memory_reference_astPcP12ast_node_t_t
FNDA:0,_Z33add_input_port_to_implicit_memoryP15implicit_memoryP15signal_list_t_tPKc
FNDA:0,_Z39add_dummy_input_port_to_implicit_memoryP15implicit_memoryiPKc
FNDA:0,_Z40add_dummy_output_port_to_implicit_memoryP15implicit_memoryiPKc
FNDA:0,_Z43collapse_implicit_memory_to_single_port_ramP15implicit_memory
FNDA:0,_Z38is_valid_implicit_memory_reference_astPcP12ast_node_t_t
FNDA:17,_Z48free_implicit_memory_index_and_finalize_memoriesv
FNDA:101619,_Z28lookup_implicit_memory_inputPc
FNDA:0,_Z30register_implicit_memory_inputPcP15implicit_memory
FNF:14
FNH:5
DA:42,6574
DA:44,6574
DA:45,6574
DA:51,10410
DA:53,10410
DA:54,364
DA:55,10046
DA:56,6210
DA:58,3836
DA:64,0
DA:66,0
DA:67,0
DA:68,0
DA:70,0
DA:76,0
DA:78,0
DA:79,0
DA:80,0
DA:81,0
DA:83,0
DA:84,0
DA:86,0
DA:87,0
DA:88,0
DA:91,0
DA:92,0
DA:93,0
DA:94,0
DA:96,0
DA:98,0
DA:99,0
DA:100,0
DA:101,0
DA:102,0
DA:103,0
DA:104,0
DA:106,0
DA:108,0
DA:114,0
DA:116,0
DA:118,0
DA:119,0
DA:124,0
DA:126,0
DA:128,0
DA:129,0
DA:134,101619
DA:136,101619
DA:143,0
DA:145,0
DA:146,0
DA:148,0
DA:149,0
DA:154,17
DA:156,17
DA:157,17
DA:158,17
DA:165,17
DA:167,17
DA:169,17
DA:170,17
DA:173,17
DA:175,17
DA:178,17
DA:179,0
DA:181,17
DA:182,17
DA:183,17
DA:185,17
DA:191,0
DA:193,0
DA:195,0
DA:196,0
DA:198,0
DA:200,0
DA:201,0
DA:207,0
DA:209,0
DA:212,0
DA:214,0
DA:216,0
DA:217,0
DA:220,0
DA:222,0
DA:223,0
DA:230,0
DA:232,0
DA:234,0
DA:235,0
DA:236,0
DA:237,0
DA:238,0
DA:239,0
DA:240,0
DA:241,0
DA:242,0
DA:246,0
DA:248,0
DA:249,0
DA:250,0
DA:251,0
DA:252,0
DA:253,0
DA:254,0
DA:255,0
DA:256,0
DA:257,0
DA:258,0
DA:259,0
DA:260,0
DA:261,0
DA:262,0
DA:266,0
DA:268,0
DA:269,0
DA:270,0
DA:271,0
DA:272,0
DA:275,0
DA:277,0
DA:278,0
DA:281,0
DA:282,0
DA:284,0
DA:286,0
DA:287,0
DA:288,0
DA:289,0
DA:292,0
DA:294,0
DA:295,0
DA:296,0
DA:297,0
DA:300,0
DA:301,0
DA:310,0
DA:311,0
DA:312,0
DA:313,0
DA:315,0
DA:316,0
DA:318,0
DA:327,0
DA:329,0
DA:334,0
DA:336,0
DA:337,0
DA:338,0
DA:343,0
DA:345,0
DA:346,0
DA:349,0
DA:350,0
DA:351,0
LF:154
LH:26
end_of_record
TN:
SF:/workspace/vtr-verilog-to-routing/ODIN_II/SRC/memories.c
FN:53,_Z16get_sp_ram_depthP9nnode_t_t
FN:61,_Z16get_dp_ram_depthP9nnode_t_t
FN:70,_Z16get_sp_ram_widthP9nnode_t_t
FN:78,_Z16get_dp_ram_widthP9nnode_t_t
FN:87,_Z20get_memory_port_sizePKc
FN:101,_Z25copy_input_port_to_memoryP9nnode_t_tP15signal_list_t_tPKc
FN:108,_Z26copy_output_port_to_memoryP9nnode_t_tP15signal_list_t_tPKc
FN:118,_Z26remap_input_port_to_memoryP9nnode_t_tP15signal_list_t_tPKc
FN:152,_Z24add_input_port_to_memoryP9nnode_t_tP15signal_list_t_tPKc
FN:189,_Z27remap_output_port_to_memoryP9nnode_t_tP15signal_list_t_tPc
FN:223,_Z25add_output_port_to_memoryP9nnode_t_tP15signal_list_t_tPKc
FN:257,_Z38check_memories_and_report_distributionv
FN:341,_Z21split_sp_memory_depthP9nnode_t_ti
FN:458,_Z21split_dp_memory_depthP9nnode_t_ti
FN:624,_Z21split_sp_memory_widthP9nnode_t_ti
FN:728,_Z21split_dp_memory_widthP9nnode_t_ti
FN:904,_Z22get_sp_ram_split_depthv
FN:926,_Z22get_dp_ram_split_depthv
FN:948,_Z22get_sp_ram_split_widthv
FN:967,_Z22get_dp_ram_split_widthv
FN:987,_Z36filter_memories_by_soft_logic_cutoffv
FN:1037,_Z16iterate_memoriesP11netlist_t_t
FN:1143,_Z17free_memory_listsv
FN:1154,_Z19pad_dp_memory_widthP9nnode_t_tP11netlist_t_t
FN:1171,_Z19pad_sp_memory_widthP9nnode_t_tP11netlist_t_t
FN:1186,_Z22pad_memory_output_portP9nnode_t_tP11netlist_t_tP7s_modelPKc
FN:1225,_Z21pad_memory_input_portP9nnode_t_tP11netlist_t_tP7s_modelPKc
FN:1265,_Z9is_sp_ramP9nnode_t_t
FN:1272,_Z9is_dp_ramP9nnode_t_t
FN:1279,_Z13is_ast_sp_ramP12ast_node_t_t
FN:1288,_Z13is_ast_dp_ramP12ast_node_t_t
FN:1297,_Z18get_sp_ram_signalsP9nnode_t_t
FN:1351,_Z19free_sp_ram_signalsP14sp_ram_signals
FN:1360,_Z18get_dp_ram_signalsP9nnode_t_t
FN:1431,_Z19free_dp_ram_signalsP14dp_ram_signals
FN:1446,_Z32instantiate_soft_single_port_ramP9nnode_t_tsP11netlist_t_t
FN:1535,_Z30instantiate_soft_dual_port_ramP9nnode_t_tsP11netlist_t_t
FN:1670,_Z14create_decoderP9nnode_t_tsP15signal_list_t_t
FNDA:32071,_Z13is_ast_sp_ramP12ast_node_t_t
FNDA:8,_Z22pad_memory_output_portP9nnode_t_tP11netlist_t_tP7s_modelPKc
FNDA:0,_Z19pad_dp_memory_widthP9nnode_t_tP11netlist_t_t
FNDA:17,_Z16iterate_memoriesP11netlist_t_t
FNDA:0,_Z25add_output_port_to_memoryP9nnode_t_tP15signal_list_t_tPKc
FNDA:26,_Z16get_sp_ram_widthP9nnode_t_t
FNDA:49,_Z36filter_memories_by_soft_logic_cutoffv
FNDA:0,_Z16get_dp_ram_depthP9nnode_t_t
FNDA:32,_Z22get_dp_ram_split_depthv
FNDA:0,_Z26remap_input_port_to_memoryP9nnode_t_tP15signal_list_t_tPKc
FNDA:17,_Z38check_memories_and_report_distributionv
FNDA:16053,_Z18get_sp_ram_signalsP9nnode_t_t
FNDA:0,_Z16get_dp_ram_widthP9nnode_t_t
FNDA:0,_Z9is_dp_ramP9nnode_t_t
FNDA:0,_Z25copy_input_port_to_memoryP9nnode_t_tP15signal_list_t_tPKc
FNDA:0,_Z26copy_output_port_to_memoryP9nnode_t_tP15signal_list_t_tPKc
FNDA:16,_Z22get_sp_ram_split_widthv
FNDA:0,_Z14create_decoderP9nnode_t_tsP15signal_list_t_t
FNDA:0,_Z21split_dp_memory_widthP9nnode_t_ti
FNDA:0,_Z27remap_output_port_to_memoryP9nnode_t_tP15signal_list_t_tPc
FNDA:1,_Z21split_sp_memory_widthP9nnode_t_ti
FNDA:0,_Z32instantiate_soft_single_port_ramP9nnode_t_tsP11netlist_t_t
FNDA:16053,_Z19free_sp_ram_signalsP14sp_ram_signals
FNDA:1,_Z20get_memory_port_sizePKc
FNDA:0,_Z21split_dp_memory_depthP9nnode_t_ti
FNDA:0,_Z19free_dp_ram_signalsP14dp_ram_signals
FNDA:8,_Z19pad_sp_memory_widthP9nnode_t_tP11netlist_t_t
FNDA:0,_Z18get_dp_ram_signalsP9nnode_t_t
FNDA:0,_Z30instantiate_soft_dual_port_ramP9nnode_t_tsP11netlist_t_t
FNDA:26,_Z16get_sp_ram_depthP9nnode_t_t
FNDA:32069,_Z9is_sp_ramP9nnode_t_t
FNDA:1,_Z21split_sp_memory_depthP9nnode_t_ti
FNDA:0,_Z24add_input_port_to_memoryP9nnode_t_tP15signal_list_t_tPKc
FNDA:16,_Z21pad_memory_input_portP9nnode_t_tP11netlist_t_tP7s_modelPKc
FNDA:32,_Z22get_sp_ram_split_depthv
FNDA:17,_Z17free_memory_listsv
FNDA:0,_Z13is_ast_dp_ramP12ast_node_t_t
FNDA:16,_Z22get_dp_ram_split_widthv
FNF:38
FNH:20
DA:53,26
DA:55,26
DA:56,26
DA:57,26
DA:58,26
DA:61,0
DA:63,0
DA:64,0
DA:65,0
DA:66,0
DA:67,0
DA:70,26
DA:72,26
DA:73,26
DA:74,26
DA:75,26
DA:78,0
DA:80,0
DA:81,0
DA:82,0
DA:83,0
DA:84,0
DA:87,1
DA:91,1
DA:92,1
DA:94,1
DA:95,1
DA:96,0
DA:98,0
DA:101,0
DA:103,0
DA:104,0
DA:105,0
DA:106,0
DA:108,0
DA:110,0
DA:111,0
DA:112,0
DA:113,0
DA:118,0
DA:121,0
DA:124,0
DA:126,0
DA:127,0
DA:129,0
DA:135,0
DA:136,0
DA:139,0
DA:141,0
DA:142,0
DA:143,0
DA:145,0
DA:152,0
DA:155,0
DA:158,0
DA:160,0
DA:161,0
DA:163,0
DA:169,0
DA:170,0
DA:173,0
DA:175,0
DA:178,0
DA:182,0
DA:184,0
DA:189,0
DA:192,0
DA:195,0
DA:197,0
DA:198,0
DA:200,0
DA:206,0
DA:207,0
DA:210,0
DA:212,0
DA:213,0
DA:214,0
DA:216,0
DA:223,0
DA:226,0
DA:229,0
DA:231,0
DA:232,0
DA:234,0
DA:240,0
DA:241,0
DA:244,0
DA:246,0
DA:247,0
DA:248,0
DA:250,0
DA:257,17
DA:259,17
DA:260,16
DA:262,1
DA:263,1
DA:266,1
DA:267,1
DA:268,1
DA:269,1
DA:271,1
DA:272,2
DA:274,1
DA:276,1
DA:277,1
DA:279,1
DA:280,0
DA:282,1
DA:284,1
DA:286,1
DA:288,1
DA:289,1
DA:291,1
DA:292,1
DA:295,1
DA:298,1
DA:299,1
DA:301,0
DA:303,0
DA:304,0
DA:306,0
DA:307,0
DA:309,0
DA:310,0
DA:312,0
DA:313,0
DA:314,0
DA:316,0
DA:317,0
DA:320,0
DA:323,1
DA:324,1
DA:325,1
DA:326,1
DA:327,1
DA:329,1
DA:341,1
DA:343,1
DA:345,1
DA:348,1
DA:350,1
DA:351,1
DA:352,1
DA:356,0
DA:357,0
DA:358,0
DA:361,0
DA:362,0
DA:365,0
DA:366,0
DA:369,0
DA:370,0
DA:371,0
DA:372,0
DA:373,0
DA:374,0
DA:377,0
DA:378,0
DA:379,0
DA:380,0
DA:383,0
DA:384,0
DA:389,0
DA:390,0
DA:391,0
DA:393,0
DA:394,0
DA:395,0
DA:397,0
DA:398,0
DA:399,0
DA:401,0
DA:403,0
DA:404,0
DA:405,0
DA:409,0
DA:410,0
DA:411,0
DA:414,0
DA:415,0
DA:417,0
DA:418,0
DA:421,0
DA:423,0
DA:424,0
DA:425,0
DA:426,0
DA:427,0
DA:429,0
DA:430,0
DA:431,0
DA:433,0
DA:435,0
DA:436,0
DA:438,0
DA:439,0
DA:442,0
DA:443,0
DA:445,0
DA:447,0
DA:448,0
DA:458,0
DA:460,0
DA:462,0
DA:465,0
DA:467,0
DA:468,0
DA:469,0
DA:472,0
DA:475,0
DA:476,0
DA:478,0
DA:479,0
DA:480,0
DA:483,0
DA:484,0
DA:487,0
DA:488,0
DA:491,0
DA:492,0
DA:493,0
DA:494,0
DA:495,0
DA:496,0
DA:499,0
DA:500,0
DA:501,0
DA:502,0
DA:503,0
DA:504,0
DA:507,0
DA:508,0
DA:509,0
DA:510,0
DA:515,0
DA:516,0
DA:517,0
DA:519,0
DA:520,0
DA:521,0
DA:523,0
DA:524,0
DA:525,0
DA:527,0
DA:528,0
DA:529,0
DA:531,0
DA:532,0
DA:533,0
DA:534,0
DA:536,0
DA:537,0
DA:538,0
DA:540,0
DA:541,0
DA:542,0
DA:544,0
DA:546,0
DA:547,0
DA:548,0
DA:552,0
DA:553,0
DA:554,0
DA:557,0
DA:558,0
DA:559,0
DA:561,0
DA:562,0
DA:563,0
DA:566,0
DA:568,0
DA:569,0
DA:570,0
DA:571,0
DA:572,0
DA:574,0
DA:575,0
DA:576,0
DA:578,0
DA:580,0
DA:581,0
DA:583,0
DA:584,0
DA:588,0
DA:590,0
DA:591,0
DA:592,0
DA:593,0
DA:594,0
DA:596,0
DA:598,0
DA:599,0
DA:600,0
DA:602,0
DA:604,0
DA:605,0
DA:607,0
DA:608,0
DA:611,0
DA:612,0
DA:613,0
DA:614,0
DA:616,0
DA:617,0
DA:624,1
DA:626,1
DA:627,1
DA:629,1
DA:631,1
DA:633,1
DA:635,1
DA:638,0
DA:643,1
DA:644,1
DA:645,9
DA:647,8
DA:648,8
DA:649,8
DA:652,8
DA:653,8
DA:654,8
DA:655,8
DA:658,40
DA:659,32
DA:661,8
DA:663,8
DA:664,8
DA:665,40
DA:668,32
DA:671,8
DA:673,16
DA:675,8
DA:676,8
DA:677,8
DA:678,8
DA:679,8
DA:680,8
DA:682,8
DA:684,8
DA:689,80
DA:691,56
DA:692,56
DA:694,56
DA:695,49
DA:697,7
DA:698,56
DA:699,56
DA:704,8
DA:705,8
DA:706,8
DA:709,16
DA:711,8
DA:712,8
DA:713,8
DA:714,8
DA:715,8
DA:716,8
DA:720,1
DA:722,1
DA:728,0
DA:730,0
DA:731,0
DA:732,0
DA:733,0
DA:735,0
DA:736,0
DA:738,0
DA:739,0
DA:741,0
DA:742,0
DA:743,0
DA:744,0
DA:746,0
DA:747,0
DA:749,0
DA:750,0
DA:752,0
DA:753,0
DA:754,0
DA:756,0
DA:758,0
DA:761,0
DA:766,0
DA:767,0
DA:768,0
DA:769,0
DA:770,0
DA:772,0
DA:773,0
DA:774,0
DA:777,0
DA:778,0
DA:779,0
DA:780,0
DA:783,0
DA:784,0
DA:786,0
DA:787,0
DA:788,0
DA:791,0
DA:794,0
DA:796,0
DA:798,0
DA:799,0
DA:800,0
DA:801,0
DA:802,0
DA:803,0
DA:805,0
DA:807,0
DA:809,0
DA:812,0
DA:814,0
DA:816,0
DA:817,0
DA:818,0
DA:819,0
DA:820,0
DA:821,0
DA:823,0
DA:825,0
DA:830,0
DA:832,0
DA:833,0
DA:835,0
DA:836,0
DA:838,0
DA:839,0
DA:840,0
DA:845,0
DA:846,0
DA:848,0
DA:849,0
DA:850,0
DA:853,0
DA:856,0
DA:858,0
DA:860,0
DA:861,0
DA:862,0
DA:863,0
DA:864,0
DA:865,0
DA:867,0
DA:869,0
DA:871,0
DA:874,0
DA:876,0
DA:878,0
DA:879,0
DA:880,0
DA:881,0
DA:882,0
DA:883,0
DA:885,0
DA:887,0
DA:891,0
DA:896,0
DA:898,0
DA:904,32
DA:906,32
DA:908,32
DA:909,0
DA:910,32
DA:911,0
DA:912,32
DA:913,0
DA:915,32
DA:917,32
DA:919,32
DA:926,32
DA:928,32
DA:930,32
DA:931,0
DA:932,32
DA:933,0
DA:934,32
DA:935,0
DA:937,32
DA:939,32
DA:941,32
DA:948,16
DA:950,16
DA:952,0
DA:956,16
DA:957,16
DA:958,16
DA:959,16
DA:967,16
DA:969,16
DA:971,0
DA:975,16
DA:976,16
DA:977,16
DA:978,16
DA:987,49
DA:989,49
DA:991,48
DA:992,48
DA:993,65
DA:995,17
DA:996,17
DA:997,17
DA:998,17
DA:1000,17
DA:1001,17
DA:1002,17
DA:1003,17
DA:1008,49
DA:1010,48
DA:1011,48
DA:1012,48
DA:1014,0
DA:1015,0
DA:1016,0
DA:1017,0
DA:1019,0
DA:1020,0
DA:1021,0
DA:1022,0
DA:1025,49
DA:1037,17
DA:1040,17
DA:1043,17
DA:1045,17
DA:1048,16
DA:1049,16
DA:1050,16
DA:1051,17
DA:1053,1
DA:1054,1
DA:1055,1
DA:1056,1
DA:1057,1
DA:1061,16
DA:1062,16
DA:1063,16
DA:1064,17
DA:1066,1
DA:1067,1
DA:1068,1
DA:1069,1
DA:1070,1
DA:1074,16
DA:1077,16
DA:1078,16
DA:1079,24
DA:1081,8
DA:1082,8
DA:1083,8
DA:1084,8
DA:1085,8
DA:1086,8
DA:1090,17
DA:1093,16
DA:1094,16
DA:1095,16
DA:1096,16
DA:1098,0
DA:1099,0
DA:1100,0
DA:1101,0
DA:1102,0
DA:1106,16
DA:1107,16
DA:1108,16
DA:1109,16
DA:1111,0
DA:1112,0
DA:1113,0
DA:1114,0
DA:1115,0
DA:1119,16
DA:1122,16
DA:1123,16
DA:1124,16
DA:1126,0
DA:1127,0
DA:1128,0
DA:1129,0
DA:1130,0
DA:1131,0
DA:1132,0
DA:1135,17
DA:1143,25
DA:1145,25
DA:1146,8
DA:1147,17
DA:1148,0
DA:1149,17
DA:1154,0
DA:1156,0
DA:1157,0
DA:1159,0
DA:1160,0
DA:1162,0
DA:1163,0
DA:1165,0
DA:1166,0
DA:1171,8
DA:1173,8
DA:1174,8
DA:1176,8
DA:1178,8
DA:1180,8
DA:1181,8
DA:1186,8
DA:1190,8
DA:1191,8
DA:1193,8
DA:1195,8
DA:1197,8
DA:1198,8
DA:1200,8
DA:1202,0
DA:1206,0
DA:1207,0
DA:1209,0
DA:1212,0
DA:1214,0
DA:1215,0
DA:1216,0
DA:1218,0
DA:1220,8
DA:1225,16
DA:1227,16
DA:1228,16
DA:1230,16
DA:1231,16
DA:1233,16
DA:1234,16
DA:1236,16
DA:1238,16
DA:1240,16
DA:1241,16
DA:1244,16
DA:1246,8
DA:1250,24
DA:1251,16
DA:1253,80
DA:1255,72
DA:1256,72
DA:1259,8
DA:1261,16
DA:1265,32069
DA:1267,32069
DA:1268,32069
DA:1269,32069
DA:1272,0
DA:1274,0
DA:1275,0
DA:1276,0
DA:1279,32071
DA:1281,32071
DA:1282,32071
DA:1283,32071
DA:1285,0
DA:1288,0
DA:1290,0
DA:1291,0
DA:1292,0
DA:1294,0
DA:1297,16053
DA:1299,16053
DA:1301,16053
DA:1302,16053
DA:1305,16053
DA:1306,16053
DA:1307,16053
DA:1308,16053
DA:1309,16053
DA:1312,288800
DA:1314,272747
DA:1315,272747
DA:1316,224553
DA:1317,48194
DA:1318,16088
DA:1319,32106
DA:1320,16053
DA:1321,16053
DA:1322,16053
DA:1324,0
DA:1329,16053
DA:1330,16053
DA:1331,16053
DA:1332,16053
DA:1333,16053
DA:1335,32141
DA:1337,16088
DA:1338,16088
DA:1339,16088
DA:1341,0
DA:1346,16053
DA:1348,16053
DA:1351,16053
DA:1353,16053
DA:1354,16053
DA:1355,16053
DA:1357,16053
DA:1358,16053
DA:1360,0
DA:1362,0
DA:1364,0
DA:1365,0
DA:1368,0
DA:1369,0
DA:1370,0
DA:1371,0
DA:1372,0
DA:1373,0
DA:1374,0
DA:1375,0
DA:1376,0
DA:1379,0
DA:1381,0
DA:1382,0
DA:1383,0
DA:1384,0
DA:1385,0
DA:1386,0
DA:1387,0
DA:1388,0
DA:1389,0
DA:1390,0
DA:1391,0
DA:1392,0
DA:1393,0
DA:1394,0
DA:1395,0
DA:1397,0
DA:1403,0
DA:1404,0
DA:1405,0
DA:1406,0
DA:1407,0
DA:1408,0
DA:1409,0
DA:1412,0
DA:1414,0
DA:1415,0
DA:1416,0
DA:1417,0
DA:1418,0
DA:1420,0
DA:1425,0
DA:1426,0
DA:1428,0
DA:1431,0
DA:1433,0
DA:1434,0
DA:1435,0
DA:1436,0
DA:1437,0
DA:1438,0
DA:1440,0
DA:1441,0
DA:1446,0
DA:1448,0
DA:1450,0
DA:1453,0
DA:1456,0
DA:1458,0
DA:1461,0
DA:1463,0
DA:1466,0
DA:1467,0
DA:1469,0
DA:1470,0
DA:1472,0
DA:1476,0
DA:1478,0
DA:1481,0
DA:1484,0
DA:1486,0
DA:1489,0
DA:1490,0
DA:1491,0
DA:1492,0
DA:1493,0
DA:1494,0
DA:1495,0
DA:1498,0
DA:1499,0
DA:1500,0
DA:1501,0
DA:1504,0
DA:1507,0
DA:1510,0
DA:1513,0
DA:1516,0
DA:1518,0
DA:1519,0
DA:1522,0
DA:1525,0
DA:1526,0
DA:1529,0
DA:1530,0
DA:1535,0
DA:1537,0
DA:1539,0
DA:1542,0
DA:1543,0
DA:1545,0
DA:1548,0
DA:1549,0
DA:1552,0
DA:1553,0
DA:1554,0
DA:1557,0
DA:1559,0
DA:1560,0
DA:1563,0
DA:1564,0
DA:1566,0
DA:1567,0
DA:1570,0
DA:1571,0
DA:1573,0
DA:1574,0
DA:1576,0
DA:1577,0
DA:1580,0
DA:1581,0
DA:1582,0
DA:1584,0
DA:1587,0
DA:1589,0
DA:1590,0
DA:1593,0
DA:1594,0
DA:1597,0
DA:1599,0
DA:1600,0
DA:1603,0
DA:1605,0
DA:1606,0
DA:1607,0
DA:1608,0
DA:1609,0
DA:1610,0
DA:1612,0
DA:1613,0
DA:1616,0
DA:1617,0
DA:1618,0
DA:1619,0
DA:1622,0
DA:1623,0
DA:1624,0
DA:1625,0
DA:1628,0
DA:1631,0
DA:1632,0
DA:1635,0
DA:1636,0
DA:1639,0
DA:1640,0
DA:1643,0
DA:1644,0
DA:1646,0
DA:1647,0
DA:1650,0
DA:1651,0
DA:1654,0
DA:1655,0
DA:1656,0
DA:1659,0
DA:1660,0
DA:1661,0
DA:1664,0
DA:1665,0
DA:1670,0
DA:1672,0
DA:1674,0
DA:1677,0
DA:1679,0
DA:1681,0
DA:1682,0
DA:1683,0
DA:1684,0
DA:1685,0
DA:1686,0
DA:1687,0
DA:1688,0
DA:1689,0
DA:1691,0
DA:1692,0
DA:1694,0
DA:1696,0
DA:1700,0
DA:1701,0
DA:1704,0
DA:1707,0
DA:1710,0
DA:1711,0
DA:1714,0
DA:1715,0
DA:1718,0
DA:1722,0
DA:1723,0
DA:1724,0
DA:1725,0
DA:1726,0
DA:1727,0
DA:1730,0
DA:1733,0
DA:1734,0
LF:907
LH:284
end_of_record
TN:
SF:/workspace/vtr-verilog-to-routing/ODIN_II/SRC/multipliers.c
FN:68,_Z34instantiate_simple_soft_multiplierP9nnode_t_tsP11netlist_t_t
FN:251,_Z22init_mult_distributionv
FN:266,_Z24record_mult_distributionP9nnode_t_t
FN:283,_Z24report_mult_distributionv
FN:312,_Z21find_hard_multipliersv
FN:335,_Z23declare_hard_multiplierP9nnode_t_t
FN:376,_Z27instantiate_hard_multiplierP9nnode_t_tsP11netlist_t_t
FN:419,_Z26add_the_blackbox_for_multsP8_IO_FILE
FN:500,_Z20define_mult_functionP9nnode_t_tsP8_IO_FILE
FN:595,_Z21init_split_multiplierP9nnode_t_tS0_iiii
FN:643,_Z18init_cascade_adderP9nnode_t_tS0_i
FN:707,_Z16split_multiplierP9nnode_t_tiiii
FN:813,_Z18split_multiplier_aP9nnode_t_tiii
FN:889,_Z18split_multiplier_bP9nnode_t_tiii
FN:956,_Z14pad_multiplierP9nnode_t_tP11netlist_t_t
FN:1072,_Z19iterate_multipliersP11netlist_t_t
FN:1158,_Z17clean_multipliersv
FNDA:17,_Z24report_mult_distributionv
FNDA:0,_Z34instantiate_simple_soft_multiplierP9nnode_t_tsP11netlist_t_t
FNDA:0,_Z18init_cascade_adderP9nnode_t_tS0_i
FNDA:0,_Z18split_multiplier_aP9nnode_t_tiii
FNDA:99,_Z27instantiate_hard_multiplierP9nnode_t_tsP11netlist_t_t
FNDA:0,_Z18split_multiplier_bP9nnode_t_tiii
FNDA:16,_Z22init_mult_distributionv
FNDA:17,_Z26add_the_blackbox_for_multsP8_IO_FILE
FNDA:17,_Z19iterate_multipliersP11netlist_t_t
FNDA:0,_Z21init_split_multiplierP9nnode_t_tS0_iiii
FNDA:17,_Z21find_hard_multipliersv
FNDA:17,_Z17clean_multipliersv
FNDA:0,_Z16split_multiplierP9nnode_t_tiiii
FNDA:99,_Z20define_mult_functionP9nnode_t_tsP8_IO_FILE
FNDA:0,_Z14pad_multiplierP9nnode_t_tP11netlist_t_t
FNDA:99,_Z23declare_hard_multiplierP9nnode_t_t
FNDA:99,_Z24record_mult_distributionP9nnode_t_t
FNF:17
FNH:10
DA:68,0
DA:85,0
DA:86,0
DA:87,0
DA:88,0
DA:89,0
DA:90,0
DA:91,0
DA:92,0
DA:93,0
DA:95,0
DA:96,0
DA:98,0
DA:101,0
DA:104,0
DA:107,0
DA:109,0
DA:111,0
DA:114,0
DA:117,0
DA:122,0
DA:124,0
DA:127,0
DA:130,0
DA:135,0
DA:139,0
DA:142,0
DA:147,0
DA:153,0
DA:155,0
DA:158,0
DA:161,0
DA:164,0
DA:169,0
DA:172,0
DA:175,0
DA:179,0
DA:182,0
DA:185,0
DA:189,0
DA:194,0
DA:196,0
DA:198,0
DA:201,0
DA:203,0
DA:206,0
DA:208,0
DA:211,0
DA:216,0
DA:217,0
DA:222,0
DA:224,0
DA:228,0
DA:230,0
DA:233,0
DA:236,0
DA:238,0
DA:241,0
DA:243,0
DA:245,0
DA:251,16
DA:255,16
DA:256,16
DA:257,608
DA:258,22496
DA:259,21904
DA:260,16
DA:266,99
DA:270,99
DA:271,99
DA:273,99
DA:274,99
DA:276,99
DA:277,99
DA:283,17
DA:286,17
DA:288,17
DA:289,1
DA:291,16
DA:292,16
DA:293,608
DA:295,21904
DA:297,21312
DA:299,17
DA:300,17
DA:304,16
DA:305,16
DA:306,16
DA:312,17
DA:314,17
DA:315,17
DA:316,81
DA:318,80
DA:320,16
DA:321,16
DA:325,64
DA:329,1
DA:335,99
DA:341,99
DA:343,0
DA:345,99
DA:346,99
DA:347,99
DA:348,99
DA:349,99
DA:351,26
DA:352,26
DA:353,26
DA:355,117
DA:357,100
DA:358,82
DA:360,18
DA:364,17
DA:365,17
DA:366,17
DA:367,17
DA:368,17
DA:369,17
DA:370,17
DA:376,99
DA:381,99
DA:384,99
DA:385,99
DA:386,99
DA:389,99
DA:390,4
DA:392,95
DA:394,99
DA:395,0
DA:398,3380
DA:400,3281
DA:402,0
DA:404,3281
DA:405,3281
DA:406,3281
DA:407,3281
DA:409,99
DA:410,99
DA:411,99
DA:412,99
DA:419,17
DA:430,17
DA:431,8
DA:434,16
DA:435,16
DA:436,16
DA:437,16
DA:438,16
DA:441,16
DA:442,16
DA:443,7
DA:446,26
DA:449,17
DA:450,0
DA:452,17
DA:455,17
DA:456,17
DA:457,672
DA:459,655
DA:461,382
DA:465,273
DA:468,655
DA:469,45
DA:471,610
DA:473,17
DA:476,17
DA:477,672
DA:479,655
DA:480,655
DA:482,60
DA:483,60
DA:486,595
DA:488,17
DA:489,17
DA:490,17
DA:491,17
DA:493,17
DA:500,99
DA:506,99
DA:507,99
DA:508,99
DA:509,99
DA:510,99
DA:512,99
DA:514,99
DA:516,0
DA:520,99
DA:522,8
DA:523,4
DA:525,4
DA:529,190
DA:530,95
DA:532,95
DA:536,3380
DA:538,3281
DA:540,1729
DA:541,1729
DA:542,132
DA:544,1729
DA:545,1560
DA:547,169
DA:551,1552
DA:552,1552
DA:553,68
DA:555,1552
DA:556,1552
DA:557,68
DA:559,1552
DA:560,1520
DA:562,32
DA:565,3281
DA:567,1262
DA:568,1262
DA:570,3281
DA:574,3380
DA:576,3281
DA:577,3281
DA:579,2494
DA:580,2494
DA:582,3281
DA:585,99
DA:586,198
DA:595,0
DA:600,0
DA:601,0
DA:602,0
DA:603,0
DA:606,0
DA:607,0
DA:608,0
DA:609,0
DA:610,0
DA:611,0
DA:612,0
DA:615,0
DA:616,0
DA:617,0
DA:619,0
DA:620,0
DA:622,0
DA:624,0
DA:625,0
DA:629,0
DA:630,0
DA:631,0
DA:632,0
DA:634,0
DA:643,0
DA:647,0
DA:648,0
DA:649,0
DA:650,0
DA:653,0
DA:654,0
DA:657,0
DA:658,0
DA:659,0
DA:660,0
DA:661,0
DA:662,0
DA:663,0
DA:666,0
DA:667,0
DA:668,0
DA:669,0
DA:670,0
DA:673,0
DA:674,0
DA:675,0
DA:676,0
DA:678,0
DA:679,0
DA:707,0
DA:713,0
DA:714,0
DA:717,0
DA:718,0
DA:719,0
DA:720,0
DA:721,0
DA:722,0
DA:725,0
DA:726,0
DA:727,0
DA:728,0
DA:729,0
DA:730,0
DA:733,0
DA:734,0
DA:735,0
DA:736,0
DA:737,0
DA:738,0
DA:741,0
DA:742,0
DA:743,0
DA:744,0
DA:745,0
DA:746,0
DA:749,0
DA:750,0
DA:751,0
DA:752,0
DA:753,0
DA:756,0
DA:757,0
DA:758,0
DA:759,0
DA:760,0
DA:761,0
DA:764,0
DA:765,0
DA:766,0
DA:767,0
DA:770,0
DA:771,0
DA:772,0
DA:773,0
DA:774,0
DA:775,0
DA:776,0
DA:777,0
DA:780,0
DA:781,0
DA:784,0
DA:785,0
DA:786,0
DA:789,0
DA:790,0
DA:791,0
DA:793,0
DA:813,0
DA:819,0
DA:820,0
DA:823,0
DA:824,0
DA:825,0
DA:826,0
DA:827,0
DA:828,0
DA:831,0
DA:832,0
DA:833,0
DA:834,0
DA:835,0
DA:836,0
DA:839,0
DA:840,0
DA:841,0
DA:842,0
DA:843,0
DA:846,0
DA:847,0
DA:848,0
DA:849,0
DA:850,0
DA:851,0
DA:854,0
DA:855,0
DA:857,0
DA:858,0
DA:861,0
DA:862,0
DA:863,0
DA:866,0
DA:867,0
DA:868,0
DA:869,0
DA:889,0
DA:895,0
DA:896,0
DA:899,0
DA:900,0
DA:901,0
DA:902,0
DA:903,0
DA:904,0
DA:907,0
DA:908,0
DA:909,0
DA:910,0
DA:911,0
DA:912,0
DA:915,0
DA:916,0
DA:917,0
DA:918,0
DA:919,0
DA:922,0
DA:923,0
DA:924,0
DA:925,0
DA:926,0
DA:927,0
DA:930,0
DA:931,0
DA:933,0
DA:934,0
DA:937,0
DA:938,0
DA:939,0
DA:942,0
DA:943,0
DA:944,0
DA:945,0
DA:956,0
DA:966,0
DA:967,0
DA:969,0
DA:970,0
DA:971,0
DA:972,0
DA:975,0
DA:976,0
DA:977,0
DA:979,0
DA:980,0
DA:982,0
DA:983,0
DA:984,0
DA:986,0
DA:988,0
DA:989,0
DA:991,0
DA:992,0
DA:993,0
DA:994,0
DA:995,0
DA:996,0
DA:998,0
DA:999,0
DA:1000,0
DA:1006,0
DA:1008,0
DA:1011,0
DA:1013,0
DA:1015,0
DA:1019,0
DA:1021,0
DA:1022,0
DA:1024,0
DA:1027,0
DA:1030,0
DA:1033,0
DA:1035,0
DA:1036,0
DA:1038,0
DA:1041,0
DA:1046,0
DA:1048,0
DA:1049,0
DA:1052,0
DA:1054,0
DA:1055,0
DA:1057,0
DA:1060,0
DA:1072,17
DA:1080,17
DA:1081,1
DA:1083,16
DA:1084,16
DA:1085,16
DA:1087,0
DA:1088,0
DA:1089,0
DA:1092,115
DA:1094,99
DA:1095,99
DA:1097,99
DA:1099,99
DA:1100,0
DA:1102,99
DA:1104,99
DA:1105,99
DA:1106,99
DA:1108,26
DA:1109,26
DA:1110,26
DA:1114,99
DA:1116,0
DA:1117,0
DA:1118,0
DA:1119,0
DA:1120,0
DA:1122,99
DA:1124,0
DA:1125,0
DA:1126,0
DA:1128,99
DA:1130,0
DA:1131,0
DA:1132,0
DA:1134,99
DA:1137,99
DA:1138,0
DA:1145,99
DA:1149,16
DA:1158,17
DA:1160,17
DA:1161,0
DA:1162,17
LF:501
LH:185
end_of_record
TN:
SF:/workspace/vtr-verilog-to-routing/ODIN_II/SRC/netlist_check.c
FN:52,_Z13check_netlistP11netlist_t_t
FN:66,_Z54levelize_and_check_for_combinational_loop_and_livenesssP11netlist_t_t
FN:89,_Z24sequential_levelized_dfssP11netlist_t_t
FN:165,_Z44depth_first_traverse_until_next_ff_or_outputP9nnode_t_tS0_iiP11netlist_t_t
FN:243,_Z46depth_first_traversal_check_if_forward_leveledsP11netlist_t_t
FN:265,_Z45depth_first_traverse_check_if_forward_leveledP9nnode_t_ti
FN:314,_Z17levelize_forwardsP11netlist_t_t
FN:475,_Z60levelize_forwards_clean_checking_for_combo_loop_and_livenesssP11netlist_t_t
FN:576,_Z18levelize_backwardsP11netlist_t_t
FN:708,_Z46levelize_backwards_clean_checking_for_livenesssP11netlist_t_t
FN:792,_Z30find_node_at_top_of_combo_loopP9nnode_t_t
FNDA:18,_Z13check_netlistP11netlist_t_t
FNDA:0,_Z30find_node_at_top_of_combo_loopP9nnode_t_t
FNDA:0,_Z17levelize_forwardsP11netlist_t_t
FNDA:0,_Z45depth_first_traverse_check_if_forward_leveledP9nnode_t_ti
FNDA:0,_Z18levelize_backwardsP11netlist_t_t
FNDA:0,_Z24sequential_levelized_dfssP11netlist_t_t
FNDA:0,_Z44depth_first_traverse_until_next_ff_or_outputP9nnode_t_tS0_iiP11netlist_t_t
FNDA:0,_Z54levelize_and_check_for_combinational_loop_and_livenesssP11netlist_t_t
FNDA:0,_Z46levelize_backwards_clean_checking_for_livenesssP11netlist_t_t
FNDA:0,_Z46depth_first_traversal_check_if_forward_leveledsP11netlist_t_t
FNDA:0,_Z60levelize_forwards_clean_checking_for_combo_loop_and_livenesssP11netlist_t_t
FNF:11
FNH:1
DA:52,18
DA:55,18
DA:58,0
DA:60,18
DA:66,0
DA:69,0
DA:72,0
DA:75,0
DA:78,0
DA:80,0
DA:83,0
DA:84,0
DA:89,0
DA:93,0
DA:94,0
DA:95,0
DA:96,0
DA:97,0
DA:98,0
DA:101,0
DA:104,0
DA:106,0
DA:108,0
DA:109,0
DA:111,0
DA:116,0
DA:118,0
DA:119,0
DA:121,0
DA:123,0
DA:125,0
DA:126,0
DA:128,0
DA:131,0
DA:137,0
DA:138,0
DA:139,0
DA:140,0
DA:141,0
DA:144,0
DA:145,0
DA:146,0
DA:147,0
DA:148,0
DA:151,0
DA:153,0
DA:157,0
DA:160,0
DA:165,0
DA:172,0
DA:175,0
DA:178,0
DA:179,0
DA:180,0
DA:182,0
DA:186,0
DA:189,0
DA:191,0
DA:194,0
DA:196,0
DA:200,0
DA:201,0
DA:204,0
DA:205,0
DA:206,0
DA:208,0
DA:215,0
DA:216,0
DA:218,0
DA:220,0
DA:221,0
DA:223,0
DA:224,0
DA:226,0
DA:227,0
DA:229,0
DA:230,0
DA:231,0
DA:234,0
DA:243,0
DA:248,0
DA:250,0
DA:252,0
DA:256,0
DA:257,0
DA:258,0
DA:259,0
DA:260,0
DA:265,0
DA:271,0
DA:273,0
DA:280,0
DA:282,0
DA:284,0
DA:285,0
DA:287,0
DA:288,0
DA:290,0
DA:291,0
DA:293,0
DA:294,0
DA:295,0
DA:297,0
DA:299,0
DA:300,0
DA:304,0
DA:314,0
DA:318,0
DA:319,0
DA:322,0
DA:323,0
DA:324,0
DA:325,0
DA:326,0
DA:327,0
DA:328,0
DA:330,0
DA:333,0
DA:334,0
DA:335,0
DA:336,0
DA:338,0
DA:341,0
DA:342,0
DA:343,0
DA:344,0
DA:346,0
DA:349,0
DA:350,0
DA:351,0
DA:352,0
DA:354,0
DA:356,0
DA:358,0
DA:360,0
DA:361,0
DA:362,0
DA:363,0
DA:366,0
DA:368,0
DA:370,0
DA:371,0
DA:372,0
DA:373,0
DA:377,0
DA:380,0
DA:381,0
DA:382,0
DA:383,0
DA:384,0
DA:387,0
DA:389,0
DA:390,0
DA:391,0
DA:394,0
DA:397,0
DA:398,0
DA:400,0
DA:404,0
DA:405,0
DA:407,0
DA:409,0
DA:410,0
DA:412,0
DA:415,0
DA:417,0
DA:419,0
DA:422,0
DA:423,0
DA:428,0
DA:429,0
DA:433,0
DA:436,0
DA:437,0
DA:439,0
DA:441,0
DA:442,0
DA:446,0
DA:449,0
DA:450,0
DA:451,0
DA:453,0
DA:460,0
DA:463,0
DA:468,0
DA:471,0
DA:475,0
DA:479,0
DA:480,0
DA:482,0
DA:484,0
DA:487,0
DA:489,0
DA:490,0
DA:491,0
DA:494,0
DA:497,0
DA:498,0
DA:500,0
DA:502,0
DA:503,0
DA:506,0
DA:508,0
DA:509,0
DA:511,0
DA:513,0
DA:519,0
DA:520,0
DA:521,0
DA:524,0
DA:525,0
DA:527,0
DA:529,0
DA:530,0
DA:534,0
DA:537,0
DA:538,0
DA:540,0
DA:543,0
DA:544,0
DA:547,0
DA:549,0
DA:550,0
DA:552,0
DA:559,0
DA:562,0
DA:567,0
DA:570,0
DA:576,0
DA:580,0
DA:581,0
DA:584,0
DA:585,0
DA:586,0
DA:587,0
DA:588,0
DA:589,0
DA:590,0
DA:592,0
DA:594,0
DA:595,0
DA:596,0
DA:597,0
DA:600,0
DA:602,0
DA:604,0
DA:605,0
DA:606,0
DA:607,0
DA:611,0
DA:614,0
DA:615,0
DA:616,0
DA:617,0
DA:618,0
DA:621,0
DA:623,0
DA:624,0
DA:625,0
DA:628,0
DA:631,0
DA:632,0
DA:635,0
DA:637,0
DA:641,0
DA:643,0
DA:645,0
DA:648,0
DA:649,0
DA:654,0
DA:655,0
DA:659,0
DA:661,0
DA:665,0
DA:666,0
DA:668,0
DA:670,0
DA:671,0
DA:675,0
DA:678,0
DA:681,0
DA:682,0
DA:683,0
DA:686,0
DA:692,0
DA:695,0
DA:700,0
DA:703,0
DA:708,0
DA:712,0
DA:713,0
DA:715,0
DA:717,0
DA:720,0
DA:722,0
DA:723,0
DA:724,0
DA:727,0
DA:730,0
DA:731,0
DA:734,0
DA:736,0
DA:739,0
DA:744,0
DA:745,0
DA:746,0
DA:749,0
DA:750,0
DA:752,0
DA:754,0
DA:755,0
DA:759,0
DA:762,0
DA:763,0
DA:765,0
DA:769,0
DA:770,0
DA:776,0
DA:779,0
DA:784,0
DA:787,0
DA:792,0
DA:796,0
DA:802,0
DA:803,0
DA:804,0
DA:807,0
DA:808,0
DA:810,0
DA:812,0
DA:813,0
DA:814,0
DA:818,0
DA:820,0
DA:823,0
DA:825,0
DA:829,0
LF:337
LH:3
end_of_record
TN:
SF:/workspace/vtr-verilog-to-routing/ODIN_II/SRC/netlist_cleanup.c
FN:46,_Z16insert_node_listP13node_list_t_tP9nnode_t_t
FN:61,_Z17traverse_backwardP9nnode_t_t
FN:79,_Z16traverse_forwardP9nnode_t_tii
FN:124,_Z24mark_output_dependenciesP11netlist_t_t
FN:133,_Z21identify_unused_nodesP11netlist_t_t
FN:152,_Z19remove_unused_nodesP13node_list_t_t
FN:179,_Z27calculate_addsub_statisticsP13node_list_t_t
FN:219,_Z19remove_unused_logicP11netlist_t_t
FNDA:17,_Z19remove_unused_logicP11netlist_t_t
FNDA:17,_Z27calculate_addsub_statisticsP13node_list_t_t
FNDA:4332,_Z16insert_node_listP13node_list_t_tP9nnode_t_t
FNDA:17,_Z24mark_output_dependenciesP11netlist_t_t
FNDA:17,_Z21identify_unused_nodesP11netlist_t_t
FNDA:283187,_Z17traverse_backwardP9nnode_t_t
FNDA:77908,_Z16traverse_forwardP9nnode_t_tii
FNDA:17,_Z19remove_unused_nodesP13node_list_t_t
FNF:8
FNH:8
DA:46,4332
DA:47,4332
DA:48,4332
DA:49,4332
DA:61,283187
DA:62,283187
DA:63,74117
DA:65,356572
DA:66,282455
DA:67,282455
DA:79,77908
DA:80,77908
DA:81,77908
DA:85,77908
DA:88,77908
DA:90,77908
DA:92,3682
DA:95,77908
DA:97,2991
DA:98,650
DA:104,170230
DA:105,92322
DA:106,449305
DA:107,358876
DA:108,338737
DA:109,338737
DA:111,316322
DA:112,76423
DA:124,17
DA:126,749
DA:127,732
DA:129,17
DA:133,17
DA:135,17
DA:136,17
DA:138,17
DA:139,17
DA:141,17
DA:142,17
DA:143,17
DA:145,1451
DA:146,1434
DA:148,17
DA:152,3699
DA:153,3699
DA:155,37549
DA:156,33867
DA:157,33867
DA:159,3682
DA:160,3682
DA:162,17
DA:179,667
DA:180,667
DA:181,650
DA:182,650
DA:183,650
DA:184,3545
DA:185,2904
DA:186,9
DA:187,9
DA:189,2895
DA:192,2895
DA:193,2895
DA:194,2254
DA:196,650
DA:197,641
DA:198,209
DA:199,209
DA:200,209
DA:202,432
DA:203,432
DA:204,432
DA:205,432
DA:208,641
DA:209,641
DA:212,650
DA:215,17
DA:216,17
DA:219,17
DA:220,17
DA:221,17
DA:222,17
DA:223,17
DA:224,17
LF:84
LH:84
end_of_record
TN:
SF:/workspace/vtr-verilog-to-routing/ODIN_II/SRC/netlist_create_from_ast.c
FN:150,_Z29create_param_table_for_moduleP12ast_node_t_tS0_Pc
FN:314,_Z14create_netlistv
FN:395,_Z15look_for_clocksP11netlist_t_t
FN:413,_Z15find_top_modulev
FN:475,_Z44convert_ast_to_netlist_recursing_via_modulesP12ast_node_t_tPci
FN:613,_Z28netlist_expand_ast_of_moduleP12ast_node_t_tPc
FN:975,_Z24concatenate_signal_listsPP15signal_list_t_ti
FN:1004,_Z37create_all_driver_nets_in_this_modulePc
FN:1042,_Z39create_all_driver_nets_in_this_functionPc
FN:1080,_Z22create_top_driver_netsP12ast_node_t_tPc
FN:1190,_Z23create_top_output_nodesP12ast_node_t_tPc
FN:1311,_Z23define_nets_with_driverP12ast_node_t_tPc
FN:1438,_Z33define_nodes_and_nets_with_driverP12ast_node_t_tPc
FN:1548,_Z30create_symbol_table_for_moduleP12ast_node_t_tPc
FN:1697,_Z32create_symbol_table_for_functionP12ast_node_t_tPc
FN:1815,_Z27check_for_initial_reg_valueP12ast_node_t_tPx
FN:1835,_Z24connect_memory_and_aliasP12ast_node_t_tPc
FN:1972,_Z28connect_hard_block_and_aliasP12ast_node_t_tPci
FN:2125,_Z38connect_module_instantiation_and_aliassP12ast_node_t_tPc
FN:2420,_Z40connect_function_instantiation_and_aliassP12ast_node_t_tPc
FN:2755,_Z11create_pinsP12ast_node_t_tPcS1_
FN:2854,_Z17create_output_pinP12ast_node_t_tPc
FN:2877,_Z16assignment_aliasP12ast_node_t_tPc
FN:3146,_Z52define_latchs_initial_value_inside_initial_statementP12ast_node_t_tPc
FN:3182,_Z31terminate_registered_assignmentP12ast_node_t_tP15signal_list_t_tS2_Pc
FN:3399,_Z31terminate_continuous_assignmentP12ast_node_t_tP15signal_list_t_tPc
FN:3482,_Z34alias_output_assign_pins_to_inputsP13char_list_t_tP15signal_list_t_tP12ast_node_t_t
FN:3529,_Z11create_gateP12ast_node_t_tPc
FN:3637,_Z21create_operation_nodeP12ast_node_t_tPP15signal_list_t_tiPc
FN:3862,_Z25evaluate_sensitivity_listP12ast_node_t_tPc
FN:3929,_Z22create_if_for_questionP12ast_node_t_tPc
FN:3953,_Z34create_if_question_mux_expressionsP12ast_node_t_tP9nnode_t_tPc
FN:3985,_Z9create_ifP12ast_node_t_tPc
FN:4009,_Z25create_if_control_signalsP12ast_node_t_tP9nnode_t_tPc
FN:4069,_Z24create_if_mux_statementsP12ast_node_t_tP9nnode_t_tPc
FN:4103,_Z11create_caseP12ast_node_t_tPc
FN:4135,_Z27create_case_control_signalsP12ast_node_t_tS0_P9nnode_t_tPc
FN:4203,_Z26create_case_mux_statementsP12ast_node_t_tP9nnode_t_tPc
FN:4242,_Z21create_mux_statementsPP15signal_list_t_tP9nnode_t_tiPc
FN:4356,_Z22create_mux_expressionsPP15signal_list_t_tP9nnode_t_tiPc
FN:4431,_Z27find_smallest_non_numericalP12ast_node_t_tPP15signal_list_t_ti
FN:4494,_Z14pad_with_zerosP12ast_node_t_tP15signal_list_t_tiPc
FN:4522,_Z26create_dual_port_ram_blockP12ast_node_t_tPcP7s_model
FN:4697,_Z28create_single_port_ram_blockP12ast_node_t_tPcP7s_model
FN:4885,_Z33create_soft_single_port_ram_blockP12ast_node_t_tPc
FN:5035,_Z31create_soft_dual_port_ram_blockP12ast_node_t_tPc
FN:5193,_Z17create_hard_blockP12ast_node_t_tPc
FNDA:57,_Z29create_param_table_for_moduleP12ast_node_t_tS0_Pc
FNDA:4718,_Z27check_for_initial_reg_valueP12ast_node_t_tPx
FNDA:0,_Z28connect_hard_block_and_aliasP12ast_node_t_tPci
FNDA:17,_Z22create_top_driver_netsP12ast_node_t_tPc
FNDA:515,_Z34create_if_question_mux_expressionsP12ast_node_t_tP9nnode_t_tPc
FNDA:15,_Z11create_caseP12ast_node_t_tPc
FNDA:0,_Z39create_all_driver_nets_in_this_functionPc
FNDA:0,_Z40connect_function_instantiation_and_aliassP12ast_node_t_tPc
FNDA:547,_Z31terminate_registered_assignmentP12ast_node_t_tP15signal_list_t_tS2_Pc
FNDA:17,_Z23create_top_output_nodesP12ast_node_t_tPc
FNDA:57,_Z37create_all_driver_nets_in_this_modulePc
FNDA:5205,_Z34alias_output_assign_pins_to_inputsP13char_list_t_tP15signal_list_t_tP12ast_node_t_t
FNDA:67152,_Z11create_pinsP12ast_node_t_tPcS1_
FNDA:0,_Z31create_soft_dual_port_ram_blockP12ast_node_t_tPc
FNDA:0,_Z17create_output_pinP12ast_node_t_tPc
FNDA:272,_Z27find_smallest_non_numericalP12ast_node_t_tPP15signal_list_t_ti
FNDA:544,_Z14pad_with_zerosP12ast_node_t_tP15signal_list_t_tiPc
FNDA:0,_Z11create_gateP12ast_node_t_tPc
FNDA:0,_Z33create_soft_single_port_ram_blockP12ast_node_t_tPc
FNDA:1,_Z24connect_memory_and_aliasP12ast_node_t_tPc
FNDA:57,_Z44convert_ast_to_netlist_recursing_via_modulesP12ast_node_t_tPci
FNDA:1515,_Z9create_ifP12ast_node_t_tPc
FNDA:1,_Z17create_hard_blockP12ast_node_t_tPc
FNDA:15,_Z26create_case_mux_statementsP12ast_node_t_tP9nnode_t_tPc
FNDA:110,_Z33define_nodes_and_nets_with_driverP12ast_node_t_tPc
FNDA:2030,_Z25create_if_control_signalsP12ast_node_t_tP9nnode_t_tPc
FNDA:1322,_Z24concatenate_signal_listsPP15signal_list_t_ti
FNDA:551,_Z25evaluate_sensitivity_listP12ast_node_t_tPc
FNDA:17,_Z15look_for_clocksP11netlist_t_t
FNDA:15,_Z27create_case_control_signalsP12ast_node_t_tS0_P9nnode_t_tPc
FNDA:4047,_Z23define_nets_with_driverP12ast_node_t_tPc
FNDA:17,_Z15find_top_modulev
FNDA:1515,_Z24create_if_mux_statementsP12ast_node_t_tP9nnode_t_tPc
FNDA:515,_Z22create_if_for_questionP12ast_node_t_tPc
FNDA:0,_Z26create_dual_port_ram_blockP12ast_node_t_tPcP7s_model
FNDA:515,_Z22create_mux_expressionsPP15signal_list_t_tP9nnode_t_tiPc
FNDA:57,_Z30create_symbol_table_for_moduleP12ast_node_t_tPc
FNDA:1530,_Z21create_mux_statementsPP15signal_list_t_tP9nnode_t_tiPc
FNDA:4581,_Z21create_operation_nodeP12ast_node_t_tPP15signal_list_t_tiPc
FNDA:0,_Z32create_symbol_table_for_functionP12ast_node_t_tPc
FNDA:37276,_Z28netlist_expand_ast_of_moduleP12ast_node_t_tPc
FNDA:1,_Z28create_single_port_ram_blockP12ast_node_t_tPcP7s_model
FNDA:2713,_Z31terminate_continuous_assignmentP12ast_node_t_tP15signal_list_t_tPc
FNDA:80,_Z38connect_module_instantiation_and_aliassP12ast_node_t_tPc
FNDA:5205,_Z16assignment_aliasP12ast_node_t_tPc
FNDA:17,_Z14create_netlistv
FNDA:0,_Z52define_latchs_initial_value_inside_initial_statementP12ast_node_t_tPc
FNF:47
FNH:37
DA:150,57
DA:156,57
DA:157,57
DA:158,57
DA:161,57
DA:162,57
DA:163,0
DA:164,57
DA:165,57
DA:168,57
DA:170,7911
DA:172,7854
DA:175,9283
DA:177,4730
DA:179,4730
DA:180,4094
DA:181,3818
DA:182,2724
DA:183,4730
DA:185,12
DA:186,12
DA:188,12
DA:190,12
DA:192,12
DA:194,12
DA:195,12
DA:196,12
DA:197,12
DA:199,12
DA:205,57
DA:208,0
DA:210,0
DA:212,0
DA:213,0
DA:214,0
DA:215,0
DA:216,0
DA:220,0
DA:223,0
DA:225,0
DA:227,0
DA:228,0
DA:229,0
DA:230,0
DA:231,0
DA:236,0
DA:237,0
DA:238,0
DA:241,0
DA:243,0
DA:245,0
DA:247,0
DA:248,0
DA:249,0
DA:250,0
DA:252,0
DA:253,0
DA:255,0
DA:258,0
DA:260,0
DA:263,0
DA:265,0
DA:266,0
DA:267,0
DA:268,0
DA:269,0
DA:273,0
DA:274,0
DA:275,0
DA:276,0
DA:279,0
DA:283,0
DA:285,0
DA:294,57
DA:296,0
DA:300,57
DA:302,0
DA:314,17
DA:321,17
DA:324,70
DA:326,53
DA:329,0
DA:330,0
DA:331,0
DA:333,0
DA:334,0
DA:335,0
DA:336,0
DA:337,0
DA:338,0
DA:340,0
DA:341,0
DA:342,0
DA:344,0
DA:345,0
DA:346,0
DA:347,0
DA:348,0
DA:349,0
DA:350,0
DA:352,0
DA:353,0
DA:355,53
DA:359,17
DA:360,17
DA:363,17
DA:373,17
DA:374,17
DA:376,17
DA:379,17
DA:382,17
DA:383,17
DA:384,17
DA:385,17
DA:386,17
DA:389,17
DA:390,17
DA:395,17
DA:399,10644
DA:401,10627
DA:403,13
DA:406,17
DA:413,17
DA:417,17
DA:420,70
DA:422,93
DA:427,40
DA:431,80
DA:432,40
DA:434,0
DA:435,0
DA:436,0
DA:438,0
DA:442,40
DA:448,70
DA:450,53
DA:452,17
DA:454,36
DA:456,0
DA:462,17
DA:464,0
DA:467,17
DA:475,57
DA:477,57
DA:480,57
DA:481,29
DA:483,29
DA:490,112
DA:492,84
DA:494,1629
DA:496,1601
DA:499,0
DA:500,0
DA:502,0
DA:504,0
DA:505,0
DA:508,0
DA:510,0
DA:514,0
DA:515,0
DA:516,0
DA:518,0
DA:519,0
DA:523,0
DA:525,0
DA:526,0
DA:533,68
DA:539,80
DA:540,40
DA:541,40
DA:546,40
DA:548,0
DA:549,0
DA:552,40
DA:554,40
DA:556,40
DA:560,40
DA:563,40
DA:565,28
DA:571,0
DA:572,0
DA:573,0
DA:578,0
DA:580,0
DA:581,0
DA:584,0
DA:587,0
DA:589,0
DA:594,0
DA:597,0
DA:601,28
DA:604,57
DA:605,57
DA:613,37276
DA:617,37276
DA:618,37276
DA:619,37276
DA:620,37276
DA:622,37276
DA:630,37276
DA:632,24718
DA:633,24718
DA:638,37276
DA:640,0
DA:641,0
DA:642,0
DA:643,57
DA:645,57
DA:646,57
DA:647,57
DA:648,0
DA:650,0
DA:651,0
DA:652,0
DA:654,57
DA:658,57
DA:659,57
DA:660,57
DA:661,57
DA:662,57
DA:665,7911
DA:667,7854
DA:669,0
DA:674,57
DA:677,57
DA:679,7911
DA:685,7854
DA:690,80
DA:693,40
DA:697,40
DA:699,7814
DA:701,0
DA:706,57
DA:707,4553
DA:708,9283
DA:709,4730
DA:710,4730
DA:713,4553
DA:714,0
DA:715,0
DA:716,0
DA:718,0
DA:719,0
DA:720,0
DA:723,0
DA:724,0
DA:725,0
DA:726,0
DA:727,0
DA:730,0
DA:733,0
DA:735,0
DA:738,0
DA:741,0
DA:745,0
DA:746,0
DA:749,0
DA:750,0
DA:751,0
DA:752,0
DA:753,0
DA:754,0
DA:755,0
DA:757,0
DA:759,0
DA:760,0
DA:763,3410
DA:765,3410
DA:766,3410
DA:767,3410
DA:769,8540
DA:771,8540
DA:772,8540
DA:774,4118
DA:777,4118
DA:780,4118
DA:783,2709
DA:785,2709
DA:786,2709
DA:787,3102
DA:793,3102
DA:794,3102
DA:795,3102
DA:797,2103
DA:803,2103
DA:804,2103
DA:805,2103
DA:807,551
DA:809,551
DA:810,551
DA:811,551
DA:812,15
DA:813,15
DA:814,15
DA:815,15
DA:816,1515
DA:817,1515
DA:818,1515
DA:819,1515
DA:820,515
DA:821,515
DA:822,515
DA:823,515
DA:825,1
DA:827,1
DA:828,1
DA:829,1
DA:830,1
DA:832,6030
DA:833,6030
DA:837,37276
DA:840,57843
DA:842,31227
DA:845,25790
DA:852,37276
DA:854,0
DA:855,0
DA:857,0
DA:858,1322
DA:859,1322
DA:860,1322
DA:861,57
DA:863,57
DA:865,7911
DA:867,7854
DA:869,80
DA:872,40
DA:879,57
DA:880,57
DA:882,57
DA:884,0
DA:890,0
DA:891,0
DA:892,0
DA:896,0
DA:897,0
DA:898,0
DA:899,0
DA:900,2709
DA:903,5418
DA:904,2709
DA:906,2709
DA:907,4553
DA:908,9283
DA:909,4730
DA:910,0
DA:913,4553
DA:914,551
DA:916,551
DA:919,4
DA:921,547
DA:923,547
DA:927,0
DA:928,0
DA:930,551
DA:931,4032
DA:932,4032
DA:933,4032
DA:934,4032
DA:935,229
DA:936,229
DA:937,229
DA:938,229
DA:939,447
DA:940,447
DA:941,447
DA:943,1
DA:944,1
DA:945,1
DA:946,0
DA:947,0
DA:948,0
DA:950,23375
DA:952,23375
DA:958,37276
DA:960,24718
DA:962,37276
DA:964,24718
DA:967,37276
DA:975,1322
DA:977,1322
DA:980,5990
DA:983,4668
DA:984,0
DA:987,19285
DA:989,14617
DA:990,14617
DA:992,4668
DA:995,1322
DA:1004,57
DA:1010,4740
DA:1012,4683
DA:1013,4683
DA:1015,4683
DA:1017,3589
DA:1018,3589
DA:1019,2712
DA:1022,877
DA:1023,877
DA:1024,241
DA:1025,241
DA:1030,4047
DA:1034,57
DA:1042,0
DA:1048,0
DA:1050,0
DA:1051,0
DA:1053,0
DA:1055,0
DA:1056,0
DA:1057,0
DA:1060,0
DA:1061,0
DA:1062,0
DA:1063,0
DA:1068,0
DA:1072,0
DA:1080,17
DA:1085,17
DA:1088,17
DA:1091,17
DA:1093,5909
DA:1095,5892
DA:1098,6243
DA:1100,3178
DA:1102,110
DA:1110,0
DA:1114,17
DA:1115,17
DA:1116,17
DA:1117,17
DA:1118,17
DA:1119,17
DA:1120,17
DA:1121,17
DA:1123,17
DA:1124,17
DA:1125,17
DA:1126,17
DA:1127,17
DA:1128,17
DA:1129,17
DA:1130,17
DA:1132,17
DA:1133,17
DA:1134,17
DA:1135,17
DA:1136,17
DA:1137,17
DA:1138,17
DA:1139,17
DA:1142,17
DA:1143,17
DA:1144,17
DA:1146,17
DA:1147,17
DA:1149,0
DA:1152,17
DA:1153,17
DA:1156,17
DA:1157,17
DA:1158,17
DA:1160,17
DA:1161,17
DA:1163,0
DA:1166,17
DA:1167,17
DA:1170,17
DA:1171,17
DA:1172,17
DA:1174,17
DA:1175,17
DA:1177,0
DA:1180,17
DA:1181,17
DA:1182,17
DA:1190,17
DA:1195,17
DA:1198,17
DA:1201,17
DA:1203,5909
DA:1205,5892
DA:1208,6243
DA:1210,3178
DA:1213,54
DA:1217,54
DA:1221,8
DA:1224,8
DA:1226,0
DA:1230,8
DA:1232,8
DA:1235,8
DA:1236,8
DA:1237,8
DA:1238,8
DA:1240,8
DA:1241,8
DA:1244,8
DA:1247,8
DA:1248,8
DA:1249,8
DA:1251,46
DA:1253,46
DA:1254,46
DA:1255,46
DA:1257,770
DA:1260,724
DA:1263,724
DA:1265,0
DA:1268,724
DA:1270,724
DA:1273,724
DA:1274,724
DA:1275,724
DA:1276,724
DA:1278,724
DA:1279,724
DA:1282,724
DA:1285,724
DA:1286,724
DA:1287,724
DA:1293,0
DA:1303,0
DA:1305,17
DA:1311,4047
DA:1316,4047
DA:1320,4047
DA:1325,806
DA:1328,806
DA:1331,806
DA:1332,806
DA:1334,0
DA:1338,806
DA:1339,806
DA:1342,806
DA:1343,0
DA:1345,0
DA:1348,3241
DA:1350,3241
DA:1351,3241
DA:1354,3241
DA:1357,3241
DA:1358,3241
DA:1359,0
DA:1364,63600
DA:1367,60359
DA:1370,60359
DA:1372,60359
DA:1373,60359
DA:1375,0
DA:1379,60359
DA:1380,60359
DA:1383,60359
DA:1384,0
DA:1386,0
DA:1388,0
DA:1393,0
DA:1395,0
DA:1396,0
DA:1398,0
DA:1399,0
DA:1401,0
DA:1402,0
DA:1404,0
DA:1406,0
DA:1407,0
DA:1409,0
DA:1410,0
DA:1413,0
DA:1415,0
DA:1416,0
DA:1418,0
DA:1419,0
DA:1422,0
DA:1424,0
DA:1425,0
DA:1427,0
DA:1430,4047
DA:1438,110
DA:1443,110
DA:1447,110
DA:1452,44
DA:1454,44
DA:1456,44
DA:1457,44
DA:1459,0
DA:1463,44
DA:1464,44
DA:1467,44
DA:1468,44
DA:1469,44
DA:1471,44
DA:1472,44
DA:1474,44
DA:1475,44
DA:1478,44
DA:1479,44
DA:1482,44
DA:1483,44
DA:1484,44
DA:1486,66
DA:1489,66
DA:1490,66
DA:1491,66
DA:1494,1456
DA:1497,1390
DA:1500,1390
DA:1502,1390
DA:1503,1390
DA:1505,0
DA:1509,1390
DA:1510,1390
DA:1513,1390
DA:1514,1390
DA:1516,1390
DA:1517,1390
DA:1518,1390
DA:1520,1390
DA:1521,1390
DA:1524,1390
DA:1525,1390
DA:1528,1390
DA:1529,1390
DA:1530,1390
DA:1533,0
DA:1536,0
DA:1537,0
DA:1540,110
DA:1548,57
DA:1554,57
DA:1557,57
DA:1559,7911
DA:1561,7854
DA:1564,9283
DA:1566,4730
DA:1569,4730
DA:1570,12
DA:1572,4718
DA:1573,4718
DA:1580,4718
DA:1582,4718
DA:1583,4718
DA:1589,35
DA:1590,0
DA:1591,0
DA:1592,0
DA:1596,0
DA:1600,35
DA:1603,0
DA:1607,0
DA:1608,0
DA:1609,0
DA:1612,35
DA:1615,35
DA:1616,35
DA:1618,35
DA:1621,35
DA:1622,0
DA:1623,0
DA:1624,35
DA:1626,0
DA:1628,0
DA:1634,4683
DA:1637,4683
DA:1638,4683
DA:1639,4683
DA:1643,4683
DA:1644,0
DA:1645,0
DA:1648,4718
DA:1651,7854
DA:1653,2709
DA:1655,2709
DA:1656,2670
DA:1658,2670
DA:1659,2670
DA:1661,0
DA:1664,0
DA:1667,0
DA:1668,0
DA:1669,0
DA:1673,0
DA:1674,0
DA:1676,0
DA:1677,0
DA:1688,0
DA:1690,57
DA:1697,0
DA:1703,0
DA:1706,0
DA:1708,0
DA:1710,0
DA:1713,0
DA:1715,0
DA:1718,0
DA:1719,0
DA:1721,0
DA:1722,0
DA:1728,0
DA:1730,0
DA:1732,0
DA:1738,0
DA:1739,0
DA:1740,0
DA:1741,0
DA:1745,0
DA:1749,0
DA:1752,0
DA:1756,0
DA:1757,0
DA:1758,0
DA:1761,0
DA:1764,0
DA:1765,0
DA:1767,0
DA:1771,0
DA:1772,0
DA:1773,0
DA:1774,0
DA:1778,0
DA:1784,0
DA:1787,0
DA:1788,0
DA:1789,0
DA:1793,0
DA:1794,0
DA:1795,0
DA:1798,0
DA:1805,0
DA:1807,0
DA:1815,4718
DA:1816,4718
DA:1818,4718
DA:1819,0
DA:1820,0
DA:1822,4718
DA:1835,1
DA:1843,1
DA:1844,6
DA:1848,5
DA:1849,5
DA:1850,5
DA:1855,4
DA:1856,9
DA:1857,5
DA:1863,1
DA:1864,1
DA:1865,1
DA:1866,2
DA:1867,1
DA:1868,1
DA:1869,1
DA:1872,1
DA:1873,1
DA:1874,1
DA:1876,9
DA:1883,8
DA:1885,8
DA:1886,8
DA:1887,8
DA:1889,8
DA:1890,8
DA:1891,8
DA:1892,8
DA:1896,0
DA:1897,0
DA:1898,0
DA:1899,0
DA:1901,0
DA:1902,0
DA:1903,0
DA:1904,0
DA:1908,8
DA:1911,8
DA:1915,0
DA:1919,0
DA:1921,0
DA:1926,0
DA:1933,8
DA:1934,8
DA:1938,8
DA:1939,8
DA:1943,8
DA:1944,8
DA:1948,8
DA:1950,8
DA:1953,8
DA:1954,8
DA:1959,1
DA:1972,0
DA:1981,0
DA:1982,0
DA:1983,0
DA:1985,0
DA:1989,0
DA:1990,0
DA:1993,0
DA:1995,0
DA:1996,0
DA:1999,0
DA:2000,0
DA:2002,0
DA:2003,0
DA:2004,0
DA:2006,0
DA:2008,0
DA:2009,0
DA:2010,0
DA:2011,0
DA:2014,0
DA:2025,0
DA:2027,0
DA:2028,0
DA:2029,0
DA:2031,0
DA:2032,0
DA:2033,0
DA:2034,0
DA:2038,0
DA:2039,0
DA:2040,0
DA:2041,0
DA:2043,0
DA:2044,0
DA:2045,0
DA:2046,0
DA:2050,0
DA:2053,0
DA:2057,0
DA:2061,0
DA:2063,0
DA:2068,0
DA:2075,0
DA:2076,0
DA:2081,0
DA:2083,0
DA:2084,0
DA:2089,0
DA:2090,0
DA:2094,0
DA:2096,0
DA:2100,0
DA:2101,0
DA:2106,0
DA:2125,80
DA:2130,80
DA:2136,80
DA:2139,80
DA:2141,0
DA:2145,80
DA:2146,0
DA:2148,80
DA:2149,80
DA:2151,80
DA:2153,0
DA:2155,0
DA:2158,1576
DA:2160,1496
DA:2162,1496
DA:2164,1496
DA:2166,1496
DA:2168,748
DA:2170,970
DA:2173,748
DA:2177,748
DA:2179,100
DA:2181,648
DA:2183,1296
DA:2185,648
DA:2187,648
DA:2189,648
DA:2190,648
DA:2191,648
DA:2192,648
DA:2194,648
DA:2195,648
DA:2197,0
DA:2200,0
DA:2201,0
DA:2203,16334
DA:2206,15586
DA:2217,9368
DA:2220,9269
DA:2221,9269
DA:2222,9269
DA:2225,9269
DA:2226,18538
DA:2227,9269
DA:2228,9269
DA:2231,9269
DA:2235,99
DA:2238,99
DA:2239,99
DA:2240,99
DA:2242,99
DA:2243,198
DA:2244,99
DA:2245,99
DA:2248,99
DA:2255,9368
DA:2258,0
DA:2259,0
DA:2263,9368
DA:2265,0
DA:2266,0
DA:2268,9368
DA:2270,0
DA:2271,0
DA:2274,9368
DA:2277,6403
DA:2280,6325
DA:2283,6325
DA:2288,78
DA:2294,2965
DA:2295,2965
DA:2297,2965
DA:2300,308
DA:2302,308
DA:2304,2657
DA:2307,2657
DA:2309,2657
DA:2314,9368
DA:2316,300
DA:2317,300
DA:2320,0
DA:2322,0
DA:2323,0
DA:2328,9368
DA:2329,9368
DA:2331,6218
DA:2341,6218
DA:2344,6217
DA:2345,6217
DA:2346,6217
DA:2348,6217
DA:2349,12434
DA:2350,6217
DA:2351,6217
DA:2352,6217
DA:2356,1
DA:2358,1
DA:2359,1
DA:2360,1
DA:2362,1
DA:2363,2
DA:2364,1
DA:2365,1
DA:2366,1
DA:2371,6218
DA:2373,0
DA:2382,6218
DA:2388,6218
DA:2389,6218
DA:2390,6218
DA:2391,6218
DA:2392,0
DA:2393,0
DA:2398,6218
DA:2401,6218
DA:2403,383
DA:2405,0
DA:2407,0
DA:2408,0
DA:2413,6218
DA:2414,6218
DA:2418,80
DA:2420,0
DA:2422,0
DA:2428,0
DA:2434,0
DA:2437,0
DA:2439,0
DA:2443,0
DA:2444,0
DA:2446,0
DA:2447,0
DA:2449,0
DA:2451,0
DA:2453,0
DA:2456,0
DA:2459,0
DA:2461,0
DA:2465,0
DA:2467,0
DA:2469,0
DA:2471,0
DA:2474,0
DA:2478,0
DA:2480,0
DA:2482,0
DA:2484,0
DA:2486,0
DA:2488,0
DA:2491,0
DA:2492,0
DA:2493,0
DA:2494,0
DA:2496,0
DA:2497,0
DA:2500,0
DA:2503,0
DA:2504,0
DA:2506,0
DA:2508,0
DA:2519,0
DA:2522,0
DA:2523,0
DA:2524,0
DA:2527,0
DA:2528,0
DA:2529,0
DA:2530,0
DA:2533,0
DA:2537,0
DA:2540,0
DA:2543,0
DA:2544,0
DA:2546,0
DA:2547,0
DA:2548,0
DA:2549,0
DA:2552,0
DA:2556,0
DA:2561,0
DA:2562,0
DA:2563,0
DA:2569,0
DA:2571,0
DA:2572,0
DA:2574,0
DA:2576,0
DA:2577,0
DA:2580,0
DA:2583,0
DA:2586,0
DA:2589,0
DA:2594,0
DA:2600,0
DA:2601,0
DA:2603,0
DA:2606,0
DA:2608,0
DA:2610,0
DA:2613,0
DA:2615,0
DA:2621,0
DA:2623,0
DA:2624,0
DA:2627,0
DA:2629,0
DA:2630,0
DA:2635,0
DA:2636,0
DA:2638,0
DA:2648,0
DA:2654,0
DA:2659,0
DA:2661,0
DA:2662,0
DA:2663,0
DA:2665,0
DA:2676,0
DA:2680,0
DA:2682,0
DA:2683,0
DA:2684,0
DA:2686,0
DA:2690,0
DA:2692,0
DA:2697,0
DA:2706,0
DA:2707,0
DA:2708,0
DA:2709,0
DA:2710,0
DA:2712,0
DA:2713,0
DA:2714,0
DA:2715,0
DA:2720,0
DA:2723,0
DA:2725,0
DA:2727,0
DA:2729,0
DA:2730,0
DA:2736,0
DA:2737,0
DA:2742,0
DA:2755,67152
DA:2758,67152
DA:2763,67152
DA:2765,67152
DA:2768,16624
DA:2770,50528
DA:2773,50528
DA:2774,50528
DA:2775,50528
DA:2776,50528
DA:2780,0
DA:2784,227158
DA:2786,160006
DA:2787,160006
DA:2790,160006
DA:2792,6047
DA:2793,6047
DA:2794,6047
DA:2796,153959
DA:2798,18869
DA:2799,18869
DA:2800,18869
DA:2806,135090
DA:2808,52124
DA:2810,52124
DA:2811,52124
DA:2815,135090
DA:2817,135090
DA:2820,131615
DA:2822,131615
DA:2825,0
DA:2827,0
DA:2829,131615
DA:2833,49081
DA:2835,49081
DA:2841,160006
DA:2844,67152
DA:2845,67152
DA:2854,0
DA:2858,0
DA:2862,0
DA:2863,0
DA:2864,0
DA:2866,0
DA:2867,0
DA:2869,0
DA:2871,0
DA:2877,5205
DA:2881,5205
DA:2882,0
DA:2883,0
DA:2886,0
DA:2890,5205
DA:2891,5205
DA:2894,5205
DA:2895,5205
DA:2897,5205
DA:2899,5205
DA:2900,5205
DA:2904,5205
DA:2906,0
DA:2907,0
DA:2910,0
DA:2913,0
DA:2914,0
DA:2915,0
DA:2918,0
DA:2921,0
DA:2922,0
DA:2923,0
DA:2926,0
DA:2928,0
DA:2929,0
DA:2930,0
DA:2934,0
DA:2935,0
DA:2936,0
DA:2938,0
DA:2939,0
DA:2940,0
DA:2945,0
DA:2946,0
DA:2947,0
DA:2949,0
DA:2950,0
DA:2951,0
DA:2952,0
DA:2953,0
DA:2954,0
DA:2955,0
DA:2957,0
DA:2959,0
DA:2960,0
DA:2962,0
DA:2963,0
DA:2964,0
DA:2968,5205
DA:2969,5205
DA:2974,5205
DA:2976,0
DA:2977,0
DA:2981,0
DA:2983,0
DA:2984,0
DA:2990,0
DA:2994,0
DA:2995,0
DA:2996,0
DA:2999,0
DA:3002,0
DA:3003,0
DA:3005,0
DA:3009,0
DA:3010,0
DA:3011,0
DA:3014,0
DA:3016,0
DA:3017,0
DA:3018,0
DA:3020,0
DA:3021,0
DA:3023,0
DA:3024,0
DA:3026,0
DA:3027,0
DA:3028,0
DA:3030,0
DA:3032,0
DA:3034,0
DA:3035,0
DA:3036,0
DA:3038,0
DA:3040,0
DA:3042,0
DA:3043,0
DA:3044,0
DA:3046,0
DA:3048,0
DA:3053,5205
DA:3060,5205
DA:3062,5205
DA:3064,5205
DA:3066,5205
DA:3069,0
DA:3072,0
DA:3073,0
DA:3074,0
DA:3076,0
DA:3080,5205
DA:3084,4714
DA:3085,4432
DA:3087,282
DA:3091,4923
DA:3095,5205
DA:3096,5205
DA:3100,0
DA:3104,0
DA:3106,0
DA:3107,0
DA:3109,0
DA:3112,0
DA:3114,0
DA:3115,0
DA:3117,0
DA:3118,0
DA:3120,0
DA:3121,0
DA:3122,0
DA:3128,0
DA:3132,0
DA:3134,0
DA:3135,0
DA:3137,0
DA:3141,5205
DA:3146,0
DA:3150,0
DA:3154,0
DA:3155,0
DA:3158,0
DA:3161,0
DA:3164,0
DA:3165,0
DA:3167,0
DA:3171,0
DA:3172,0
DA:3177,0
DA:3182,547
DA:3184,547
DA:3186,547
DA:3187,547
DA:3189,547
DA:3192,82
DA:3196,42
DA:3197,42
DA:3199,33
DA:3200,33
DA:3202,0
DA:3203,0
DA:3205,33
DA:3209,9
DA:3213,42
DA:3214,39
DA:3216,0
DA:3220,0
DA:3222,42
DA:3225,0
DA:3226,0
DA:3228,42
DA:3231,39
DA:3232,39
DA:3238,547
DA:3240,547
DA:3243,11174
DA:3245,10627
DA:3246,10627
DA:3247,10627
DA:3249,0
DA:3254,10627
DA:3255,10627
DA:3257,0
DA:3260,10627
DA:3262,10627
DA:3263,10627
DA:3266,10627
DA:3267,10627
DA:3269,10627
DA:3273,10627
DA:3274,10627
DA:3275,10627
DA:3276,10627
DA:3279,10627
DA:3280,10627
DA:3281,10627
DA:3283,10627
DA:3284,10627
DA:3286,0
DA:3287,0
DA:3288,0
DA:3293,10627
DA:3294,10627
DA:3296,10627
DA:3297,10627
DA:3302,10627
DA:3303,10627
DA:3304,10627
DA:3305,10627
DA:3311,10627
DA:3312,10627
DA:3313,10627
DA:3316,10627
DA:3319,10627
DA:3320,10627
DA:3322,10627
DA:3324,0
DA:3327,10627
DA:3329,10627
DA:3330,10627
DA:3331,10627
DA:3335,11174
DA:3337,10627
DA:3338,10627
DA:3340,10627
DA:3341,10627
DA:3343,1043080
DA:3345,1032450
DA:3346,1032450
DA:3347,0
DA:3350,0
DA:3351,0
DA:3355,10627
DA:3356,0
DA:3360,547
DA:3361,547
DA:3362,547
DA:3364,0
DA:3365,0
DA:3366,0
DA:3369,0
DA:3371,0
DA:3372,0
DA:3374,0
DA:3375,0
DA:3376,0
DA:3380,0
DA:3382,0
DA:3383,0
DA:3384,0
DA:3385,0
DA:3386,0
DA:3387,0
DA:3388,0
DA:3391,547
DA:3393,547
DA:3394,547
DA:3399,2713
DA:3401,2713
DA:3403,43177
DA:3405,40464
DA:3406,40464
DA:3407,40464
DA:3409,0
DA:3414,40464
DA:3415,40464
DA:3417,0
DA:3421,40464
DA:3423,40464
DA:3424,13397
DA:3426,40464
DA:3427,40464
DA:3429,40464
DA:3431,40464
DA:3433,40464
DA:3434,40464
DA:3435,40464
DA:3436,40464
DA:3438,40464
DA:3439,40464
DA:3442,40464
DA:3443,40464
DA:3445,40464
DA:3447,0
DA:3451,40464
DA:3455,2713
DA:3457,0
DA:3458,0
DA:3459,0
DA:3462,0
DA:3464,0
DA:3465,0
DA:3467,0
DA:3468,0
DA:3469,0
DA:3473,2713
DA:3475,2713
DA:3476,2713
DA:3482,5205
DA:3486,5205
DA:3488,67904
DA:3490,62981
DA:3491,62981
DA:3492,62981
DA:3494,5590
DA:3496,667
DA:3497,0
DA:3498,0
DA:3500,667
DA:3501,667
DA:3502,667
DA:3503,667
DA:3506,4923
DA:3510,4714
DA:3512,4432
DA:3513,4432
DA:3514,4432
DA:3517,282
DA:3518,0
DA:3520,282
DA:3529,0
DA:3538,0
DA:3540,0
DA:3542,0
DA:3547,0
DA:3549,0
DA:3550,0
DA:3553,0
DA:3555,0
DA:3556,0
DA:3557,0
DA:3558,0
DA:3560,0
DA:3561,0
DA:3562,0
DA:3563,0
DA:3566,0
DA:3568,0
DA:3570,0
DA:3578,0
DA:3579,0
DA:3580,0
DA:3584,0
DA:3586,0
DA:3587,0
DA:3590,0
DA:3593,0
DA:3595,0
DA:3596,0
DA:3598,0
DA:3600,0
DA:3603,0
DA:3604,0
DA:3605,0
DA:3608,0
DA:3609,0
DA:3612,0
DA:3613,0
DA:3617,0
DA:3619,0
DA:3620,0
DA:3623,0
DA:3629,0
DA:3637,4581
DA:3640,4581
DA:3642,4581
DA:3643,4581
DA:3644,4581
DA:3648,4581
DA:3650,4581
DA:3651,4581
DA:3652,4581
DA:3654,4581
DA:3657,13514
DA:3659,8933
DA:3661,4621
DA:3665,4581
DA:3667,158
DA:3669,158
DA:3670,158
DA:3671,158
DA:3672,269
DA:3674,269
DA:3675,269
DA:3676,269
DA:3678,269
DA:3679,269
DA:3680,444
DA:3682,444
DA:3683,444
DA:3684,444
DA:3686,444
DA:3687,99
DA:3689,99
DA:3690,99
DA:3693,99
DA:3694,99
DA:3695,733
DA:3702,733
DA:3704,725
DA:3705,725
DA:3709,8
DA:3711,8
DA:3712,8
DA:3714,733
DA:3715,64
DA:3718,64
DA:3719,64
DA:3720,64
DA:3721,299
DA:3725,299
DA:3726,299
DA:3727,299
DA:3728,2515
DA:3735,2515
DA:3748,272
DA:3750,272
DA:3753,272
DA:3754,272
DA:3758,2243
DA:3760,2515
DA:3761,2515
DA:3763,0
DA:3764,0
DA:3765,0
DA:3766,0
DA:3767,0
DA:3768,0
DA:3769,0
DA:3770,0
DA:3771,0
DA:3774,4581
DA:3775,4581
DA:3777,13514
DA:3779,8933
DA:3782,128
DA:3783,128
DA:3784,0
DA:3785,128
DA:3788,128
DA:3791,64
DA:3793,64
DA:3795,64
DA:3796,128
DA:3798,8805
DA:3802,8607
DA:3804,8607
DA:3807,8607
DA:3808,8607
DA:3814,198
DA:3816,198
DA:3819,198
DA:3821,198
DA:3827,4581
DA:3828,4581
DA:3831,25788
DA:3836,21207
DA:3837,21207
DA:3838,21207
DA:3839,21207
DA:3841,21207
DA:3843,21207
DA:3845,21207
DA:3848,21207
DA:3851,13514
DA:3853,8933
DA:3856,4581
DA:3862,551
DA:3865,551
DA:3866,551
DA:3869,551
DA:3872,0
DA:3873,0
DA:3874,0
DA:3876,0
DA:3879,551
DA:3881,1112
DA:3883,561
DA:3884,552
DA:3885,5
DA:3887,552
DA:3889,552
DA:3890,552
DA:3892,552
DA:3893,552
DA:3895,9
DA:3898,9
DA:3902,0
DA:3908,551
DA:3910,0
DA:3912,551
DA:3914,4
DA:3915,4
DA:3916,4
DA:3918,547
DA:3920,547
DA:3923,551
DA:3929,515
DA:3935,515
DA:3937,515
DA:3938,515
DA:3939,515
DA:3942,515
DA:3945,515
DA:3947,515
DA:3953,515
DA:3960,515
DA:3963,1545
DA:3965,1030
DA:3968,1030
DA:3972,0
DA:3977,515
DA:3979,515
DA:3985,1515
DA:3991,1515
DA:3993,1515
DA:3994,1515
DA:3995,1515
DA:3998,1515
DA:4001,1515
DA:4003,1515
DA:4009,2030
DA:4018,2030
DA:4020,2030
DA:4023,2030
DA:4024,2030
DA:4026,2030
DA:4031,1
DA:4032,1
DA:4035,1
DA:4037,1
DA:4042,2029
DA:4043,2029
DA:4047,2030
DA:4050,2030
DA:4053,2030
DA:4054,2030
DA:4058,2030
DA:4061,2030
DA:4063,2030
DA:4064,2030
DA:4069,1515
DA:4076,1515
DA:4079,4545
DA:4081,3030
DA:4084,2203
DA:4085,2203
DA:4090,827
DA:4095,1515
DA:4097,1515
DA:4103,15
DA:4111,15
DA:4113,15
DA:4114,15
DA:4115,15
DA:4118,15
DA:4121,15
DA:4124,15
DA:4127,15
DA:4129,15
DA:4135,15
DA:4138,15
DA:4141,15
DA:4143,15
DA:4146,336
DA:4148,321
DA:4152,320
DA:4153,320
DA:4154,320
DA:4157,320
DA:4158,320
DA:4161,320
DA:4162,320
DA:4165,320
DA:4168,320
DA:4171,320
DA:4173,320
DA:4175,1
DA:4181,1
DA:4184,1
DA:4185,1
DA:4188,1
DA:4191,1
DA:4195,0
DA:4198,15
DA:4203,15
DA:4210,15
DA:4213,336
DA:4215,321
DA:4218,320
DA:4219,320
DA:4221,1
DA:4223,1
DA:4224,1
DA:4225,1
DA:4229,0
DA:4234,15
DA:4236,15
DA:4242,1530
DA:4247,1530
DA:4248,1530
DA:4249,1530
DA:4252,1530
DA:4255,1530
DA:4256,1530
DA:4258,29365
DA:4260,27835
DA:4264,27835
DA:4265,27835
DA:4266,27835
DA:4269,27835
DA:4271,27835
DA:4274,27835
DA:4275,27835
DA:4277,27835
DA:4279,27835
DA:4281,27835
DA:4283,27835
DA:4286,123187
DA:4288,95352
DA:4291,95352
DA:4292,95352
DA:4293,79365
DA:4297,44824
DA:4299,44824
DA:4300,44824
DA:4305,50528
DA:4308,50528
DA:4310,50528
DA:4313,0
DA:4318,50528
DA:4319,50528
DA:4321,50528
DA:4323,50528
DA:4326,0
DA:4329,0
DA:4331,0
DA:4334,0
DA:4338,27835
DA:4339,27835
DA:4340,27835
DA:4344,4881
DA:4346,3351
DA:4348,1530
DA:4350,1530
DA:4356,515
DA:4359,515
DA:4360,515
DA:4363,1545
DA:4365,1030
DA:4367,524
DA:4371,3648
DA:4376,3133
DA:4377,3133
DA:4378,3133
DA:4381,3133
DA:4383,3133
DA:4386,3133
DA:4387,3133
DA:4389,3133
DA:4391,3133
DA:4393,3133
DA:4395,3133
DA:4398,9399
DA:4400,6266
DA:4403,6266
DA:4406,6021
DA:4414,245
DA:4420,1545
DA:4422,1030
DA:4425,515
DA:4431,272
DA:4436,272
DA:4437,272
DA:4439,786
DA:4441,514
DA:4442,514
DA:4445,1542
DA:4447,1028
DA:4450,242
DA:4452,786
DA:4454,774
DA:4455,774
DA:4459,514
DA:4461,0
DA:4466,514
DA:4469,1716
DA:4471,1474
DA:4474,240
DA:4475,240
DA:4477,1234
DA:4478,754
DA:4481,32
DA:4482,32
DA:4488,272
DA:4494,544
DA:4498,544
DA:4500,1699
DA:4502,1457
DA:4503,0
DA:4505,1457
DA:4508,302
DA:4510,30
DA:4511,0
DA:4514,544
DA:4522,0
DA:4524,0
DA:4525,0
DA:4527,0
DA:4529,0
DA:4530,0
DA:4534,0
DA:4536,0
DA:4537,0
DA:4538,0
DA:4541,0
DA:4546,0
DA:4548,0
DA:4549,0
DA:4550,0
DA:4552,0
DA:4553,0
DA:4555,0
DA:4557,0
DA:4558,0
DA:4559,0
DA:4562,0
DA:4563,0
DA:4566,0
DA:4569,0
DA:4570,0
DA:4571,0
DA:4572,0
DA:4573,0
DA:4578,0
DA:4579,0
DA:4580,0
DA:4581,0
DA:4582,0
DA:4584,0
DA:4587,0
DA:4588,0
DA:4589,0
DA:4590,0
DA:4591,0
DA:4592,0
DA:4595,0
DA:4596,0
DA:4599,0
DA:4601,0
DA:4604,0
DA:4607,0
DA:4608,0
DA:4609,0
DA:4613,0
DA:4614,0
DA:4616,0
DA:4617,0
DA:4618,0
DA:4620,0
DA:4621,0
DA:4622,0
DA:4625,0
DA:4626,0
DA:4628,0
DA:4630,0
DA:4632,0
DA:4633,0
DA:4635,0
DA:4637,0
DA:4638,0
DA:4641,0
DA:4642,0
DA:4643,0
DA:4644,0
DA:4648,0
DA:4650,0
DA:4652,0
DA:4653,0
DA:4659,0
DA:4660,0
DA:4661,0
DA:4662,0
DA:4663,0
DA:4664,0
DA:4666,0
DA:4668,0
DA:4670,0
DA:4673,0
DA:4676,0
DA:4677,0
DA:4679,0
DA:4683,0
DA:4684,0
DA:4686,0
DA:4687,0
DA:4689,0
DA:4697,1
DA:4699,1
DA:4700,0
DA:4703,1
DA:4704,1
DA:4705,1
DA:4708,1
DA:4710,1
DA:4711,1
DA:4712,1
DA:4713,1
DA:4714,2
DA:4716,1
DA:4717,1
DA:4721,1
DA:4725,1
DA:4728,6
DA:4730,5
DA:4731,5
DA:4732,5
DA:4734,15
DA:4735,10
DA:4737,5
DA:4739,1
DA:4740,1
DA:4741,0
DA:4744,5
DA:4745,0
DA:4748,5
DA:4752,1
DA:4753,1
DA:4754,5
DA:4756,4
DA:4757,4
DA:4760,1
DA:4761,2
DA:4763,1
DA:4764,1
DA:4767,1
DA:4768,0
DA:4770,1
DA:4771,1
DA:4772,6
DA:4777,5
DA:4778,5
DA:4779,5
DA:4780,5
DA:4781,5
DA:4783,5
DA:4786,4
DA:4787,4
DA:4788,4
DA:4789,1
DA:4792,19
DA:4793,15
DA:4796,4
DA:4798,4
DA:4801,4
DA:4804,4
DA:4805,0
DA:4806,4
DA:4810,1
DA:4811,6
DA:4813,5
DA:4814,5
DA:4815,5
DA:4817,5
DA:4819,1
DA:4820,1
DA:4822,2
DA:4824,1
DA:4825,1
DA:4828,1
DA:4829,1
DA:4830,1
DA:4831,1
DA:4835,9
DA:4837,8
DA:4838,8
DA:4839,8
DA:4844,8
DA:4845,8
DA:4846,8
DA:4847,8
DA:4849,8
DA:4850,8
DA:4852,8
DA:4854,8
DA:4856,8
DA:4859,8
DA:4862,8
DA:4863,8
DA:4865,1
DA:4869,6
DA:4871,5
DA:4874,1
DA:4875,1
DA:4876,1
DA:4878,1
DA:4885,0
DA:4887,0
DA:4889,0
DA:4890,0
DA:4892,0
DA:4895,0
DA:4897,0
DA:4898,0
DA:4899,0
DA:4900,0
DA:4901,0
DA:4904,0
DA:4908,0
DA:4909,0
DA:4910,0
DA:4911,0
DA:4913,0
DA:4914,0
DA:4915,0
DA:4917,0
DA:4919,0
DA:4922,0
DA:4923,0
DA:4924,0
DA:4925,0
DA:4928,0
DA:4929,0
DA:4932,0
DA:4935,0
DA:4938,0
DA:4941,0
DA:4942,0
DA:4943,0
DA:4947,0
DA:4948,0
DA:4949,0
DA:4951,0
DA:4952,0
DA:4954,0
DA:4956,0
DA:4957,0
DA:4959,0
DA:4962,0
DA:4963,0
DA:4965,0
DA:4966,0
DA:4967,0
DA:4968,0
DA:4972,0
DA:4975,0
DA:4977,0
DA:4979,0
DA:4980,0
DA:4985,0
DA:4988,0
DA:4989,0
DA:4993,0
DA:4994,0
DA:4995,0
DA:4997,0
DA:4999,0
DA:5000,0
DA:5003,0
DA:5005,0
DA:5007,0
DA:5010,0
DA:5013,0
DA:5014,0
DA:5016,0
DA:5020,0
DA:5021,0
DA:5023,0
DA:5025,0
DA:5026,0
DA:5028,0
DA:5035,0
DA:5037,0
DA:5038,0
DA:5040,0
DA:5041,0
DA:5043,0
DA:5046,0
DA:5048,0
DA:5049,0
DA:5050,0
DA:5051,0
DA:5052,0
DA:5055,0
DA:5059,0
DA:5060,0
DA:5061,0
DA:5062,0
DA:5063,0
DA:5065,0
DA:5066,0
DA:5067,0
DA:5069,0
DA:5071,0
DA:5073,0
DA:5076,0
DA:5077,0
DA:5079,0
DA:5080,0
DA:5081,0
DA:5082,0
DA:5085,0
DA:5086,0
DA:5089,0
DA:5092,0
DA:5095,0
DA:5098,0
DA:5099,0
DA:5101,0
DA:5105,0
DA:5107,0
DA:5108,0
DA:5109,0
DA:5111,0
DA:5112,0
DA:5114,0
DA:5115,0
DA:5116,0
DA:5118,0
DA:5120,0
DA:5126,0
DA:5128,0
DA:5129,0
DA:5131,0
DA:5132,0
DA:5133,0
DA:5134,0
DA:5138,0
DA:5140,0
DA:5148,0
DA:5149,0
DA:5150,0
DA:5152,0
DA:5154,0
DA:5155,0
DA:5158,0
DA:5160,0
DA:5162,0
DA:5165,0
DA:5168,0
DA:5169,0
DA:5171,0
DA:5175,0
DA:5176,0
DA:5178,0
DA:5180,0
DA:5181,0
DA:5184,0
DA:5193,1
DA:5197,1
DA:5198,1
DA:5201,1
DA:5203,1
DA:5204,1
DA:5205,1
DA:5206,1
DA:5208,1
DA:5211,1
DA:5215,1
DA:5217,1
DA:5218,1
DA:5220,0
DA:5224,0
DA:5226,0
DA:5227,0
DA:5229,0
DA:5232,0
DA:5234,0
DA:5239,0
DA:5241,0
DA:5243,0
DA:5245,0
DA:5248,0
DA:5249,0
DA:5250,0
DA:5253,0
DA:5255,0
DA:5256,0
DA:5257,0
DA:5260,0
DA:5261,0
DA:5265,0
DA:5268,0
DA:5270,0
DA:5271,0
DA:5272,0
DA:5273,0
DA:5274,0
DA:5275,0
DA:5277,0
DA:5278,0
DA:5279,0
DA:5282,0
DA:5284,0
DA:5285,0
DA:5286,0
DA:5290,0
DA:5293,0
DA:5294,0
DA:5299,0
DA:5300,0
DA:5301,0
DA:5302,0
DA:5303,0
DA:5305,0
DA:5310,0
DA:5313,0
DA:5314,0
DA:5315,0
DA:5317,0
DA:5320,0
DA:5322,0
DA:5323,0
DA:5324,0
DA:5328,0
DA:5330,0
DA:5331,0
DA:5332,0
DA:5334,0
DA:5338,0
DA:5339,0
DA:5342,0
DA:5344,0
DA:5347,0
DA:5350,0
DA:5351,0
DA:5352,0
DA:5358,0
DA:5360,0
DA:5361,0
DA:5364,0
DA:5372,0
DA:5373,0
DA:5375,0
DA:5377,0
DA:5378,0
DA:5380,0
DA:5381,0
DA:5382,0
DA:5383,0
DA:5385,0
DA:5387,0
DA:5389,0
DA:5392,0
DA:5395,0
DA:5396,0
DA:5398,0
DA:5405,0
DA:5407,0
DA:5408,0
DA:5411,0
DA:5419,0
DA:5420,0
DA:5422,0
DA:5424,0
DA:5425,0
DA:5426,0
DA:5428,0
DA:5430,0
DA:5431,0
DA:5432,0
DA:5434,0
DA:5436,0
DA:5438,0
DA:5441,0
DA:5444,0
DA:5445,0
DA:5447,0
DA:5450,0
DA:5453,0
DA:5454,0
DA:5457,0
DA:5465,0
DA:5466,0
DA:5467,0
DA:5469,0
DA:5471,0
DA:5473,0
DA:5474,0
DA:5478,0
DA:5479,0
DA:5481,0
DA:5486,0
DA:5487,0
DA:5488,0
DA:5492,0
DA:5494,0
DA:5496,0
DA:5499,0
DA:5502,0
DA:5503,0
DA:5505,0
DA:5508,0
DA:5510,0
DA:5514,0
DA:5515,0
DA:5517,0
DA:5518,0
DA:5520,0
LF:2324
LH:1202
end_of_record
TN:
SF:/workspace/vtr-verilog-to-routing/ODIN_II/SRC/netlist_optimizations.c
FN:41,_Z25netlist_optimizations_topP11netlist_t_t
FNDA:17,_Z25netlist_optimizations_topP11netlist_t_t
FNF:1
FNH:1
DA:41,17
DA:45,17
DA:46,17
DA:47,17
DA:50,17
DA:51,17
DA:54,17
DA:55,17
DA:56,17
DA:59,17
DA:60,17
DA:61,17
DA:63,17
LF:13
LH:13
end_of_record
TN:
SF:/workspace/vtr-verilog-to-routing/ODIN_II/SRC/netlist_stats.c
FN:39,_Z13netlist_statsP11netlist_t_tPcS1_
FN:80,_Z22display_per_node_statsP8_IO_FILEP11netlist_t_t
FN:143,_Z18display_node_statsP8_IO_FILEP9nnode_t_t
FN:152,_Z20calculate_avg_fanoutP11netlist_t_t
FN:230,_Z19calculate_avg_faninP11netlist_t_t
FN:281,_Z30calculate_combinational_shapesP11netlist_t_t
FN:307,_Z26depth_first_traverse_statsP8_IO_FILEsP11netlist_t_t
FN:329,_Z39depth_first_traversal_graphcrunch_statsP9nnode_t_tP8_IO_FILEi
FN:396,_Z25num_fanouts_on_output_pinP9nnode_t_ti
FN:423,_Z19add_to_distributionPPiS_i
FNDA:0,_Z18display_node_statsP8_IO_FILEP9nnode_t_t
FNDA:0,_Z13netlist_statsP11netlist_t_tPcS1_
FNDA:0,_Z30calculate_combinational_shapesP11netlist_t_t
FNDA:0,_Z19calculate_avg_faninP11netlist_t_t
FNDA:0,_Z22display_per_node_statsP8_IO_FILEP11netlist_t_t
FNDA:0,_Z20calculate_avg_fanoutP11netlist_t_t
FNDA:0,_Z39depth_first_traversal_graphcrunch_statsP9nnode_t_tP8_IO_FILEi
FNDA:0,_Z19add_to_distributionPPiS_i
FNDA:0,_Z26depth_first_traverse_statsP8_IO_FILEsP11netlist_t_t
FNDA:0,_Z25num_fanouts_on_output_pinP9nnode_t_ti
FNF:10
FNH:0
DA:39,0
DA:45,0
DA:46,0
DA:49,0
DA:50,0
DA:51,0
DA:52,0
DA:53,0
DA:56,0
DA:57,0
DA:58,0
DA:59,0
DA:60,0
DA:63,0
DA:65,0
DA:67,0
DA:70,0
DA:72,0
DA:74,0
DA:75,0
DA:80,0
DA:85,0
DA:86,0
DA:87,0
DA:90,0
DA:91,0
DA:92,0
DA:96,0
DA:97,0
DA:98,0
DA:100,0
DA:105,0
DA:106,0
DA:107,0
DA:109,0
DA:114,0
DA:115,0
DA:116,0
DA:118,0
DA:123,0
DA:124,0
DA:125,0
DA:127,0
DA:132,0
DA:133,0
DA:134,0
DA:136,0
DA:138,0
DA:143,0
DA:145,0
DA:146,0
DA:147,0
DA:152,0
DA:155,0
DA:157,0
DA:165,0
DA:167,0
DA:168,0
DA:170,0
DA:172,0
DA:173,0
DA:175,0
DA:176,0
DA:177,0
DA:187,0
DA:189,0
DA:191,0
DA:192,0
DA:194,0
DA:195,0
DA:196,0
DA:203,0
DA:205,0
DA:207,0
DA:208,0
DA:210,0
DA:211,0
DA:212,0
DA:221,0
DA:222,0
DA:223,0
DA:224,0
DA:225,0
DA:230,0
DA:233,0
DA:244,0
DA:245,0
DA:247,0
DA:252,0
DA:253,0
DA:255,0
DA:260,0
DA:262,0
DA:264,0
DA:271,0
DA:272,0
DA:273,0
DA:281,0
DA:285,0
DA:286,0
DA:289,0
DA:291,0
DA:292,0
DA:297,0
DA:300,0
DA:302,0
DA:307,0
DA:312,0
DA:314,0
DA:316,0
DA:320,0
DA:321,0
DA:322,0
DA:323,0
DA:324,0
DA:329,0
DA:335,0
DA:337,0
DA:346,0
DA:348,0
DA:350,0
DA:351,0
DA:353,0
DA:354,0
DA:356,0
DA:357,0
DA:359,0
DA:360,0
DA:361,0
DA:365,0
DA:366,0
DA:368,0
DA:371,0
DA:372,0
DA:374,0
DA:377,0
DA:378,0
DA:381,0
DA:383,0
DA:384,0
DA:387,0
DA:396,0
DA:399,0
DA:402,0
DA:403,0
DA:405,0
DA:406,0
DA:408,0
DA:409,0
DA:411,0
DA:412,0
DA:414,0
DA:417,0
DA:423,0
DA:425,0
DA:428,0
DA:432,0
DA:433,0
DA:434,0
DA:436,0
LF:160
LH:0
end_of_record
TN:
SF:/workspace/vtr-verilog-to-routing/ODIN_II/SRC/netlist_utils.c
FN:39,_Z14allocate_nnodev
FN:95,_Z10free_nnodeP9nnode_t_t
FN:148,_Z24allocate_more_input_pinsP9nnode_t_ti
FN:170,_Z25allocate_more_output_pinsP9nnode_t_ti
FN:191,_Z27add_output_port_informationP9nnode_t_ti
FN:201,_Z26add_input_port_informationP9nnode_t_ti
FN:211,_Z13allocate_npinv
FN:240,_Z16copy_output_npinP8npin_t_t
FN:257,_Z15copy_input_npinP8npin_t_t
FN:278,_Z9free_npinP8npin_t_t
FN:288,_Z13allocate_nnetv
FN:313,_Z9free_nnetP8nnet_t_t
FN:324,_Z15move_output_pinP9nnode_t_tii
FN:344,_Z14move_input_pinP9nnode_t_tii
FN:364,_Z21add_input_pin_to_nodeP9nnode_t_tP8npin_t_ti
FN:380,_Z21add_fanout_pin_to_netP8nnet_t_tP8npin_t_t
FN:398,_Z22add_output_pin_to_nodeP9nnode_t_tP8npin_t_ti
FN:414,_Z21add_driver_pin_to_netP8nnet_t_tP8npin_t_t
FN:432,_Z12combine_netsP8nnet_t_tS0_P11netlist_t_t
FN:468,_Z9join_netsP8nnet_t_tS0_
FN:496,_Z20remap_pin_to_new_netP8npin_t_tP8nnet_t_t
FN:517,_Z21remap_pin_to_new_nodeP8npin_t_tP9nnode_t_ti
FN:537,_Z13connect_nodesP9nnode_t_tiS0_i
FN:577,_Z16init_signal_listv
FN:594,_Z22add_pin_to_signal_listP15signal_list_t_tP8npin_t_t
FN:604,_Z13combine_listsPP15signal_list_t_ti
FN:622,_Z39combine_lists_without_freeing_originalsPP15signal_list_t_ti
FN:640,_Z18copy_input_signalsP15signal_list_t_t
FN:654,_Z19copy_output_signalsP15signal_list_t_t
FN:672,_ZL20compare_npin_t_namesPKvS0_
FN:679,_Z31sort_signal_list_alphabeticallyP15signal_list_t_t
FN:690,_Z34make_output_pins_for_existing_nodeP9nnode_t_ti
FN:723,_Z16free_signal_listP15signal_list_t_t
FN:740,_Z34hookup_input_pins_from_signal_listP9nnode_t_tiP15signal_list_t_tiiP11netlist_t_t
FN:769,_Z37hookup_hb_input_pins_from_signal_listP9nnode_t_tiP15signal_list_t_tiiP11netlist_t_t
FN:795,_Z35hookup_output_pins_from_signal_listP9nnode_t_tiP15signal_list_t_tii
FN:824,_Z22count_nodes_in_netlistP11netlist_t_t
FN:847,_Z20depth_traverse_countP9nnode_t_tPii
FN:889,_Z16allocate_netlistv
FN:938,_Z12free_netlistP11netlist_t_t
FN:948,_Z19add_node_to_netlistP11netlist_t_tP9nnode_t_ts
FN:1001,_Z15mark_clock_nodeP11netlist_t_tPc
FN:1030,_Z33get_output_pin_index_from_mappingP9nnode_t_tPKc
FN:1047,_Z34get_output_port_index_from_mappingP9nnode_t_tPKc
FN:1067,_Z32get_input_pin_index_from_mappingP9nnode_t_tPKc
FN:1084,_Z33get_input_port_index_from_mappingP9nnode_t_tPKc
FN:1101,_Z19allocate_chain_infov
FN:1113,_Z27remove_fanout_pins_from_netP8nnet_t_tP8npin_t_ti
FNDA:26,_Z27remove_fanout_pins_from_netP8nnet_t_tP8npin_t_ti
FNDA:16,_Z32get_input_pin_index_from_mappingP9nnode_t_tPKc
FNDA:0,_Z15mark_clock_nodeP11netlist_t_tPc
FNDA:0,_Z22count_nodes_in_netlistP11netlist_t_t
FNDA:0,_Z16copy_output_npinP8npin_t_t
FNDA:89,_Z10free_nnodeP9nnode_t_t
FNDA:51824,_Z9free_nnetP8nnet_t_t
FNDA:214974,_Z24allocate_more_input_pinsP9nnode_t_ti
FNDA:136680,_Z16init_signal_listv
FNDA:2032,_Z34make_output_pins_for_existing_nodeP9nnode_t_ti
FNDA:650,_Z19allocate_chain_infov
FNDA:17,_Z33get_input_port_index_from_mappingP9nnode_t_tPKc
FNDA:1912,_Z9free_npinP8npin_t_t
FNDA:0,_Z12free_netlistP11netlist_t_t
FNDA:128863,_Z16free_signal_listP15signal_list_t_t
FNDA:8,_Z33get_output_pin_index_from_mappingP9nnode_t_tPKc
FNDA:0,_Z19copy_output_signalsP15signal_list_t_t
FNDA:0,_Z20depth_traverse_countP9nnode_t_tPii
FNDA:4054,_Z31sort_signal_list_alphabeticallyP15signal_list_t_t
FNDA:18,_Z16allocate_netlistv
FNDA:4,_Z37hookup_hb_input_pins_from_signal_listP9nnode_t_tiP15signal_list_t_tiiP11netlist_t_t
FNDA:162190,_Z21add_driver_pin_to_netP8nnet_t_tP8npin_t_t
FNDA:16,_Z14move_input_pinP9nnode_t_tii
FNDA:1530,_Z39combine_lists_without_freeing_originalsPP15signal_list_t_ti
FNDA:0,_Z18copy_input_signalsP15signal_list_t_t
FNDA:520252,_Z13allocate_npinv
FNDA:8,_Z34get_output_port_index_from_mappingP9nnode_t_tPKc
FNDA:518312,_Z21add_input_pin_to_nodeP9nnode_t_tP8npin_t_ti
FNDA:0,_Z15move_output_pinP9nnode_t_tii
FNDA:447,_Z13combine_listsPP15signal_list_t_ti
FNDA:0,_Z19add_node_to_netlistP11netlist_t_tP9nnode_t_ts
FNDA:196511,_Z13allocate_nnetv
FNDA:0,_Z20remap_pin_to_new_netP8npin_t_tP8nnet_t_t
FNDA:556801,_Z22add_pin_to_signal_listP15signal_list_t_tP8npin_t_t
FNDA:112832,_Z27add_output_port_informationP9nnode_t_ti
FNDA:203491,_Z14allocate_nnodev
FNDA:34691,_Z13connect_nodesP9nnode_t_tiS0_i
FNDA:298598,_ZL20compare_npin_t_namesPKvS0_
FNDA:119399,_Z15copy_input_npinP8npin_t_t
FNDA:0,_Z35hookup_output_pins_from_signal_listP9nnode_t_tiP15signal_list_t_tii
FNDA:95340,_Z9join_netsP8nnet_t_tS0_
FNDA:51824,_Z12combine_netsP8nnet_t_tS0_P11netlist_t_t
FNDA:205433,_Z26add_input_port_informationP9nnode_t_ti
FNDA:547392,_Z21add_fanout_pin_to_netP8nnet_t_tP8npin_t_t
FNDA:154034,_Z25allocate_more_output_pinsP9nnode_t_ti
FNDA:208045,_Z21remap_pin_to_new_nodeP8npin_t_tP9nnode_t_ti
FNDA:192939,_Z22add_output_pin_to_nodeP9nnode_t_tP8npin_t_ti
FNDA:8869,_Z34hookup_input_pins_from_signal_listP9nnode_t_tiP15signal_list_t_tiiP11netlist_t_t
FNF:48
FNH:37
DA:39,203491
DA:42,203491
DA:44,203491
DA:45,203491
DA:46,203491
DA:47,203491
DA:48,203491
DA:50,203491
DA:51,203491
DA:52,203491
DA:53,203491
DA:55,203491
DA:56,203491
DA:57,203491
DA:58,203491
DA:60,203491
DA:61,203491
DA:63,203491
DA:64,203491
DA:65,203491
DA:66,203491
DA:68,203491
DA:70,203491
DA:72,203491
DA:73,203491
DA:75,203491
DA:76,203491
DA:78,203491
DA:80,203491
DA:81,203491
DA:83,203491
DA:85,203491
DA:86,203491
DA:89,203491
DA:95,89
DA:99,89
DA:103,1354
DA:105,1265
DA:107,1250
DA:108,1250
DA:111,89
DA:113,89
DA:114,89
DA:117,785
DA:119,696
DA:121,662
DA:122,662
DA:125,89
DA:127,89
DA:128,89
DA:131,89
DA:132,63
DA:133,89
DA:134,63
DA:136,89
DA:137,0
DA:140,89
DA:142,89
DA:148,214974
DA:152,214974
DA:154,0
DA:155,0
DA:158,214974
DA:159,720011
DA:161,505037
DA:163,214974
DA:170,154034
DA:174,154034
DA:176,0
DA:177,0
DA:180,154034
DA:181,333938
DA:183,179904
DA:185,154034
DA:191,112832
DA:193,112832
DA:194,112832
DA:195,112832
DA:196,112832
DA:201,205433
DA:203,205433
DA:204,205433
DA:205,205433
DA:206,205433
DA:211,520252
DA:214,520252
DA:216,520252
DA:217,520252
DA:218,520252
DA:219,520252
DA:220,520252
DA:221,520252
DA:222,520252
DA:224,520252
DA:225,520252
DA:227,520252
DA:229,520252
DA:230,520252
DA:232,520252
DA:234,520252
DA:240,0
DA:242,0
DA:243,0
DA:245,0
DA:246,0
DA:247,0
DA:248,0
DA:249,0
DA:250,0
DA:257,119399
DA:259,119399
DA:260,119399
DA:262,119399
DA:263,119399
DA:264,119399
DA:265,119399
DA:266,119399
DA:268,119399
DA:271,119399
DA:278,1912
DA:280,1912
DA:281,1912
DA:283,1912
DA:288,196511
DA:292,196511
DA:294,196511
DA:295,196511
DA:296,196511
DA:297,196511
DA:298,196511
DA:300,196511
DA:301,196511
DA:303,196511
DA:304,196511
DA:306,196511
DA:313,51824
DA:315,51824
DA:317,51824
DA:319,51824
DA:324,0
DA:328,0
DA:329,0
DA:330,0
DA:332,0
DA:333,0
DA:334,0
DA:336,0
DA:337,0
DA:338,0
DA:339,0
DA:344,16
DA:348,16
DA:349,16
DA:350,16
DA:352,16
DA:353,16
DA:354,16
DA:356,16
DA:357,16
DA:358,16
DA:359,16
DA:364,518312
DA:366,518312
DA:367,518312
DA:368,518312
DA:370,518312
DA:372,518312
DA:373,518312
DA:374,518312
DA:375,518312
DA:380,547392
DA:382,547392
DA:383,547392
DA:384,547392
DA:386,547392
DA:387,547392
DA:388,547392
DA:390,547392
DA:391,547392
DA:392,547392
DA:393,547392
DA:398,192939
DA:400,192939
DA:401,192939
DA:402,192939
DA:404,192939
DA:406,192939
DA:407,192939
DA:408,192939
DA:409,192939
DA:414,162190
DA:416,162190
DA:417,162190
DA:418,162190
DA:420,162190
DA:422,162190
DA:423,162190
DA:424,162190
DA:432,51824
DA:436,51824
DA:439,27877
DA:442,51824
DA:444,51824
DA:447,51824
DA:448,51824
DA:451,51824
DA:453,0
DA:455,51824
DA:457,0
DA:461,51824
DA:462,51824
DA:468,95340
DA:470,95340
DA:472,0
DA:473,0
DA:475,0
DA:476,0
DA:477,0
DA:479,0
DA:484,281931
DA:486,186591
DA:488,163458
DA:491,95340
DA:496,0
DA:498,0
DA:501,0
DA:503,0
DA:505,0
DA:508,0
DA:510,0
DA:512,0
DA:517,208045
DA:519,208045
DA:521,150151
DA:523,150151
DA:525,57894
DA:527,57894
DA:529,57894
DA:531,208045
DA:537,34691
DA:541,34691
DA:542,34691
DA:544,34691
DA:547,34691
DA:549,34691
DA:554,27508
DA:555,27508
DA:558,27508
DA:560,27508
DA:562,27508
DA:568,7183
DA:570,34691
DA:577,136680
DA:580,136680
DA:582,136680
DA:583,136680
DA:584,136680
DA:585,136680
DA:587,136680
DA:594,556801
DA:596,556801
DA:597,556801
DA:598,556801
DA:599,556801
DA:604,447
DA:607,1398
DA:610,19933
DA:611,18982
DA:613,951
DA:616,447
DA:622,1530
DA:624,1530
DA:627,4881
DA:630,3351
DA:631,48175
DA:632,44824
DA:635,1530
DA:640,0
DA:642,0
DA:644,0
DA:646,0
DA:647,0
DA:648,0
DA:650,0
DA:654,0
DA:656,0
DA:658,0
DA:660,0
DA:661,0
DA:663,0
DA:672,298598
DA:674,298598
DA:675,298598
DA:676,298598
DA:679,4054
DA:681,4054
DA:682,4054
DA:683,4054
DA:690,2032
DA:692,2032
DA:695,2032
DA:697,4064
DA:702,2032
DA:703,2032
DA:704,2032
DA:705,2032
DA:707,2032
DA:709,2032
DA:711,2032
DA:714,2032
DA:717,2032
DA:723,128863
DA:725,128863
DA:726,1
DA:728,128862
DA:729,124771
DA:731,128862
DA:733,128862
DA:740,8869
DA:744,57186
DA:746,48317
DA:748,47953
DA:749,47953
DA:750,47953
DA:756,364
DA:758,364
DA:759,0
DA:762,8869
DA:769,4
DA:773,19
DA:775,15
DA:777,15
DA:778,15
DA:783,0
DA:785,0
DA:786,0
DA:789,4
DA:795,0
DA:800,0
DA:802,0
DA:805,0
DA:807,0
DA:810,0
DA:814,0
DA:818,0
DA:824,0
DA:827,0
DA:830,0
DA:831,0
DA:832,0
DA:835,0
DA:836,0
DA:837,0
DA:841,0
DA:847,0
DA:853,0
DA:855,0
DA:860,0
DA:863,0
DA:865,0
DA:867,0
DA:868,0
DA:870,0
DA:871,0
DA:873,0
DA:874,0
DA:875,0
DA:876,0
DA:877,0
DA:880,0
DA:889,18
DA:893,18
DA:895,18
DA:896,18
DA:897,18
DA:898,18
DA:899,18
DA:900,18
DA:901,18
DA:902,18
DA:903,18
DA:904,18
DA:905,18
DA:906,18
DA:907,18
DA:908,18
DA:909,18
DA:910,18
DA:912,18
DA:913,18
DA:914,18
DA:915,18
DA:916,18
DA:917,18
DA:918,18
DA:919,18
DA:920,18
DA:921,18
DA:922,18
DA:923,18
DA:926,18
DA:927,18
DA:928,18
DA:930,18
DA:932,18
DA:938,0
DA:940,0
DA:941,0
DA:942,0
DA:943,0
DA:948,0
DA:955,0
DA:956,0
DA:957,0
DA:959,0
DA:962,0
DA:966,0
DA:967,0
DA:968,0
DA:970,0
DA:973,0
DA:974,0
DA:975,0
DA:977,0
DA:979,0
DA:980,0
DA:981,0
DA:983,0
DA:985,0
DA:986,0
DA:987,0
DA:991,0
DA:992,0
DA:993,0
DA:995,0
DA:1001,0
DA:1011,0
DA:1013,0
DA:1015,0
DA:1016,0
DA:1018,0
DA:1019,0
DA:1020,0
DA:1023,0
DA:1024,0
DA:1030,8
DA:1033,8
DA:1035,8
DA:1036,8
DA:1037,8
DA:1040,0
DA:1047,8
DA:1050,8
DA:1051,8
DA:1054,8
DA:1056,8
DA:1057,8
DA:1058,8
DA:1061,0
DA:1067,16
DA:1070,80
DA:1072,80
DA:1073,80
DA:1074,16
DA:1077,0
DA:1084,17
DA:1087,17
DA:1088,52
DA:1091,123
DA:1093,88
DA:1094,88
DA:1095,17
DA:1098,0
DA:1101,650
DA:1105,650
DA:1107,650
DA:1108,650
DA:1110,650
DA:1113,26
DA:1117,44169
DA:1119,44143
DA:1120,44143
DA:1121,44143
DA:1123,26
DA:1124,26
DA:1125,26
LF:486
LH:351
end_of_record
TN:
SF:/workspace/vtr-verilog-to-routing/ODIN_II/SRC/netlist_visualizer.c
FN:42,_Z21graphVizOutputNetlistPcPKcsP11netlist_t_t
FN:64,_Z35depth_first_traversal_graph_displayP8_IO_FILEsP11netlist_t_t
FN:86,_Z30depth_first_traverse_visualizeP9nnode_t_tP8_IO_FILEi
FN:180,_Z30graphVizOutputCombinationalNetPcPKcsP9nnode_t_t
FN:203,_Z35forward_traversal_net_graph_displayP8_IO_FILEsP9nnode_t_t
FN:305,_Z36backward_traversal_net_graph_displayP8_IO_FILEsP9nnode_t_t
FNDA:0,_Z35depth_first_traversal_graph_displayP8_IO_FILEsP11netlist_t_t
FNDA:0,_Z36backward_traversal_net_graph_displayP8_IO_FILEsP9nnode_t_t
FNDA:0,_Z21graphVizOutputNetlistPcPKcsP11netlist_t_t
FNDA:0,_Z30depth_first_traverse_visualizeP9nnode_t_tP8_IO_FILEi
FNDA:0,_Z35forward_traversal_net_graph_displayP8_IO_FILEsP9nnode_t_t
FNDA:0,_Z30graphVizOutputCombinationalNetPcPKcsP9nnode_t_t
FNF:6
FNH:0
DA:42,0
DA:48,0
DA:49,0
DA:52,0
DA:54,0
DA:57,0
DA:58,0
DA:59,0
DA:64,0
DA:69,0
DA:71,0
DA:73,0
DA:77,0
DA:78,0
DA:79,0
DA:80,0
DA:81,0
DA:86,0
DA:92,0
DA:94,0
DA:103,0
DA:105,0
DA:106,0
DA:108,0
DA:110,0
DA:112,0
DA:114,0
DA:116,0
DA:118,0
DA:120,0
DA:124,0
DA:126,0
DA:128,0
DA:130,0
DA:131,0
DA:134,0
DA:135,0
DA:137,0
DA:138,0
DA:139,0
DA:146,0
DA:147,0
DA:149,0
DA:152,0
DA:153,0
DA:155,0
DA:158,0
DA:159,0
DA:162,0
DA:163,0
DA:164,0
DA:165,0
DA:167,0
DA:168,0
DA:171,0
DA:180,0
DA:186,0
DA:187,0
DA:190,0
DA:192,0
DA:193,0
DA:196,0
DA:197,0
DA:198,0
DA:203,0
DA:207,0
DA:208,0
DA:212,0
DA:213,0
DA:215,0
DA:217,0
DA:220,0
DA:223,0
DA:224,0
DA:226,0
DA:228,0
DA:230,0
DA:232,0
DA:234,0
DA:236,0
DA:238,0
DA:240,0
DA:242,0
DA:246,0
DA:248,0
DA:251,0
DA:253,0
DA:254,0
DA:256,0
DA:258,0
DA:259,0
DA:262,0
DA:264,0
DA:265,0
DA:267,0
DA:268,0
DA:269,0
DA:272,0
DA:273,0
DA:275,0
DA:278,0
DA:279,0
DA:282,0
DA:284,0
DA:285,0
DA:287,0
DA:290,0
DA:291,0
DA:292,0
DA:298,0
DA:300,0
DA:305,0
DA:311,0
DA:312,0
DA:314,0
DA:315,0
DA:317,0
DA:319,0
DA:322,0
DA:325,0
DA:326,0
DA:328,0
DA:330,0
DA:332,0
DA:334,0
DA:336,0
DA:338,0
DA:340,0
DA:342,0
DA:346,0
DA:349,0
DA:352,0
DA:354,0
DA:355,0
DA:357,0
DA:358,0
DA:361,0
DA:363,0
DA:364,0
DA:366,0
DA:367,0
DA:369,0
DA:371,0
DA:372,0
DA:374,0
DA:377,0
DA:378,0
DA:379,0
DA:384,0
DA:386,0
LF:150
LH:0
end_of_record
TN:
SF:/workspace/vtr-verilog-to-routing/ODIN_II/SRC/node_creation_library.c
FN:39,_Z11get_pad_pinP11netlist_t_t
FN:51,_Z12get_zero_pinP11netlist_t_t
FN:63,_Z11get_one_pinP11netlist_t_t
FN:76,_Z24make_not_gate_with_inputP8npin_t_tP9nnode_t_ts
FN:93,_Z13make_not_gateP9nnode_t_ts
FN:114,_Z15make_1port_gate14operation_listiiP9nnode_t_ts
FN:137,_Z21make_1port_logic_gate14operation_listiP9nnode_t_ts
FN:148,_Z33make_1port_logic_gate_with_inputs14operation_listiP15signal_list_t_tP9nnode_t_ts
FN:168,_Z15make_3port_gate14operation_listiiiiP9nnode_t_ts
FN:195,_Z15make_2port_gate14operation_listiiiP9nnode_t_ts
FN:219,_Z15make_nport_gate14operation_listiiiP9nnode_t_ts
FN:289,_Z21node_name_based_on_opP9nnode_t_t
FN:433,_Z14hard_node_nameP9nnode_t_tPcS1_S1_
FN:449,_Z9node_nameP9nnode_t_tPc
FN:467,_Z15make_mult_blockP9nnode_t_ts
FNDA:9503,_Z13make_not_gateP9nnode_t_ts
FNDA:72,_Z11get_pad_pinP11netlist_t_t
FNDA:3908,_Z15make_1port_gate14operation_listiiP9nnode_t_ts
FNDA:3555,_Z12get_zero_pinP11netlist_t_t
FNDA:0,_Z11get_one_pinP11netlist_t_t
FNDA:3842,_Z21make_1port_logic_gate14operation_listiP9nnode_t_ts
FNDA:4283,_Z15make_3port_gate14operation_listiiiiP9nnode_t_ts
FNDA:9925,_Z15make_nport_gate14operation_listiiiP9nnode_t_ts
FNDA:0,_Z15make_mult_blockP9nnode_t_ts
FNDA:1,_Z14hard_node_nameP9nnode_t_tPcS1_S1_
FNDA:112248,_Z21node_name_based_on_opP9nnode_t_t
FNDA:112248,_Z9node_nameP9nnode_t_tPc
FNDA:9334,_Z24make_not_gate_with_inputP8npin_t_tP9nnode_t_ts
FNDA:2,_Z33make_1port_logic_gate_with_inputs14operation_listiP15signal_list_t_tP9nnode_t_ts
FNDA:37539,_Z15make_2port_gate14operation_listiiiP9nnode_t_ts
FNF:15
FNH:13
DA:39,72
DA:41,72
DA:42,72
DA:43,72
DA:44,72
DA:51,3555
DA:53,3555
DA:54,3555
DA:55,3555
DA:56,3555
DA:63,0
DA:65,0
DA:66,0
DA:67,0
DA:68,0
DA:76,9334
DA:80,9334
DA:83,9334
DA:85,9334
DA:93,9503
DA:97,9503
DA:98,9503
DA:99,9503
DA:100,9503
DA:101,9503
DA:103,9503
DA:104,9503
DA:106,9503
DA:114,3908
DA:118,3908
DA:119,3908
DA:120,3908
DA:121,3908
DA:122,3908
DA:125,3908
DA:126,3908
DA:128,3908
DA:129,3908
DA:131,3908
DA:137,3842
DA:139,3842
DA:141,3842
DA:148,2
DA:153,2
DA:156,28
DA:158,26
DA:161,2
DA:168,4283
DA:170,4283
DA:171,4283
DA:172,4283
DA:173,4283
DA:174,4283
DA:177,4283
DA:178,4283
DA:179,4283
DA:180,4283
DA:181,4283
DA:182,4283
DA:184,4283
DA:185,4283
DA:187,4283
DA:195,37539
DA:197,37539
DA:198,37539
DA:199,37539
DA:200,37539
DA:201,37539
DA:204,37539
DA:205,37539
DA:206,37539
DA:207,37539
DA:209,37539
DA:210,37539
DA:212,37539
DA:219,9925
DA:222,9925
DA:223,9925
DA:224,9925
DA:225,9925
DA:226,9925
DA:229,29775
DA:230,19850
DA:231,19850
DA:236,9925
DA:237,9925
DA:239,9925
DA:289,112248
DA:293,112248
DA:295,2045
DA:296,2045
DA:297,2045
DA:298,0
DA:299,0
DA:300,0
DA:301,40528
DA:302,40528
DA:303,40528
DA:304,0
DA:305,0
DA:306,0
DA:307,0
DA:308,0
DA:309,0
DA:310,0
DA:311,0
DA:312,0
DA:313,0
DA:314,0
DA:315,0
DA:316,0
DA:317,0
DA:318,0
DA:319,269
DA:320,269
DA:321,269
DA:322,444
DA:323,444
DA:324,444
DA:325,158
DA:326,158
DA:327,158
DA:328,121
DA:329,121
DA:330,121
DA:331,536
DA:332,536
DA:333,536
DA:334,1
DA:335,1
DA:336,1
DA:337,2
DA:338,2
DA:339,2
DA:340,1
DA:341,1
DA:342,1
DA:343,558
DA:344,558
DA:345,558
DA:346,9559
DA:347,9559
DA:348,9559
DA:349,5324
DA:350,5324
DA:351,5324
DA:352,2407
DA:353,2407
DA:354,2407
DA:355,6
DA:356,6
DA:357,6
DA:358,4
DA:359,4
DA:360,4
DA:361,4843
DA:362,4843
DA:363,4843
DA:364,7409
DA:365,7409
DA:366,7409
DA:367,99
DA:368,99
DA:369,99
DA:370,0
DA:371,0
DA:372,0
DA:373,0
DA:374,0
DA:375,0
DA:376,326
DA:377,326
DA:378,326
DA:379,4328
DA:380,4328
DA:381,4328
DA:382,2189
DA:383,2189
DA:384,2189
DA:385,1
DA:386,1
DA:387,1
DA:388,39
DA:389,39
DA:390,39
DA:391,13
DA:392,13
DA:393,13
DA:394,64
DA:395,64
DA:396,64
DA:397,0
DA:398,0
DA:399,0
DA:400,0
DA:401,0
DA:402,0
DA:403,0
DA:404,0
DA:405,0
DA:406,3
DA:407,3
DA:408,3
DA:409,3
DA:410,3
DA:411,3
DA:412,30968
DA:413,30968
DA:414,30968
DA:415,0
DA:416,0
DA:417,0
DA:418,0
DA:419,0
DA:420,0
DA:421,0
DA:422,0
DA:423,0
DA:424,0
DA:426,112248
DA:433,1
DA:438,1
DA:440,1
DA:442,1
DA:449,112248
DA:454,112248
DA:458,112248
DA:460,112248
DA:467,0
DA:471,0
DA:472,0
DA:473,0
DA:474,0
DA:475,0
DA:476,0
DA:477,0
DA:478,0
DA:479,0
DA:481,0
DA:482,0
DA:484,0
LF:241
LH:180
end_of_record
TN:
SF:/workspace/vtr-verilog-to-routing/ODIN_II/SRC/odin_ii.c
FN:71,main
FN:149,_Z11print_usagev
FN:204,_Z11get_optionsiPPc
FNDA:0,_Z11print_usagev
FNDA:18,main
FNDA:18,_Z11get_optionsiPPc
FNF:3
FNH:2
DA:71,18
DA:76,18
DA:77,18
DA:78,18
DA:81,18
DA:82,18
DA:83,18
DA:86,18
DA:89,18
DA:91,0
DA:92,0
DA:96,18
DA:98,17
DA:106,17
DA:107,0
DA:108,0
DA:121,18
DA:124,17
DA:128,1
DA:132,18
DA:136,17
DA:137,17
DA:138,17
DA:139,17
DA:142,17
DA:149,0
DA:152,0
DA:198,0
DA:199,0
DA:204,18
DA:207,18
DA:211,18
DA:212,18
DA:213,106
DA:215,88
DA:218,17
DA:219,17
DA:220,17
DA:221,17
DA:223,0
DA:224,0
DA:225,0
DA:226,17
DA:227,17
DA:228,17
DA:229,1
DA:230,1
DA:231,1
DA:240,1
DA:241,1
DA:242,1
DA:243,0
DA:248,0
DA:250,0
DA:251,0
DA:252,0
DA:253,0
DA:255,0
DA:256,0
DA:257,0
DA:258,0
DA:259,0
DA:260,0
DA:261,0
DA:262,0
DA:263,0
DA:264,0
DA:265,0
DA:266,0
DA:267,17
DA:268,17
DA:269,17
DA:270,17
DA:271,17
DA:272,17
DA:273,0
DA:274,0
DA:275,0
DA:276,0
DA:277,0
DA:279,0
DA:280,0
DA:281,0
DA:282,0
DA:283,0
DA:284,0
DA:285,0
DA:286,0
DA:287,0
DA:288,0
DA:289,0
DA:290,0
DA:291,0
DA:292,18
DA:293,18
DA:294,18
DA:295,0
DA:296,0
DA:297,0
DA:298,0
DA:299,0
DA:300,0
DA:301,0
DA:303,88
DA:306,18
DA:307,18
DA:308,18
DA:309,17
DA:310,0
DA:312,0
DA:313,0
DA:319,18
DA:321,0
DA:323,18
LF:114
LH:56
end_of_record
TN:
SF:/workspace/vtr-verilog-to-routing/ODIN_II/SRC/odin_ii_func.c
FN:57,_Z19set_default_optionsv
FN:108,_Z23do_high_level_synthesisv
FN:192,_Z24do_simulation_of_netlistv
FNDA:18,_Z24do_simulation_of_netlistv
FNDA:17,_Z23do_high_level_synthesisv
FNDA:18,_Z19set_default_optionsv
FNF:3
FNH:3
DA:57,18
DA:60,18
DA:61,18
DA:62,18
DA:63,18
DA:64,18
DA:65,18
DA:66,18
DA:67,18
DA:68,18
DA:69,18
DA:70,18
DA:71,18
DA:72,18
DA:73,18
DA:74,18
DA:75,18
DA:76,18
DA:77,18
DA:78,18
DA:81,18
DA:82,18
DA:83,18
DA:84,18
DA:85,18
DA:86,18
DA:87,18
DA:88,18
DA:89,18
DA:91,18
DA:92,18
DA:94,18
DA:95,18
DA:101,18
DA:102,18
DA:103,18
DA:108,17
DA:110,17
DA:112,17
DA:113,17
DA:116,17
DA:117,17
DA:119,17
DA:121,17
DA:124,17
DA:126,17
DA:131,17
DA:133,0
DA:137,17
DA:141,17
DA:143,17
DA:146,17
DA:149,17
DA:150,17
DA:152,17
DA:155,0
DA:161,17
DA:162,17
DA:165,17
DA:175,17
DA:176,17
DA:178,17
DA:180,17
DA:181,17
DA:182,17
DA:183,17
DA:186,17
DA:187,17
DA:192,18
DA:194,18
DA:195,1
DA:197,17
DA:198,17
DA:200,16
LF:74
LH:72
end_of_record
TN:
SF:/workspace/vtr-verilog-to-routing/ODIN_II/SRC/odin_util.c
FN:41,_Z16make_signal_namePci
FN:61,_Z18make_full_ref_namePKcPcS1_S0_l
FN:115,_Z15twos_complementPc
FN:143,_Z37convert_string_of_radix_to_bit_stringPcii
FN:172,_Z31convert_long_long_to_bit_stringxi
FN:193,_Z39convert_dec_string_of_size_to_long_longPci
FN:206,_Z36convert_string_of_radix_to_long_longPci
FN:224,_Z18is_string_of_radixPci
FN:242,_Z40convert_hex_string_of_size_to_bit_stringsPci
FN:348,_Z40convert_oct_string_of_size_to_bit_stringPci
FN:401,_Z43convert_binary_string_of_size_to_bit_stringsPci
FN:436,_Z13is_hex_stringPc
FN:449,_Z19is_dont_care_stringPc
FN:462,_Z17is_decimal_stringPc
FN:475,_Z15is_octal_stringPc
FN:488,_Z16is_binary_stringPc
FN:504,_Z12get_pin_namePc
FN:517,_Z13get_port_namePc
FN:534,_Z14get_pin_numberPc
FN:552,_Z8my_powerxx
FN:568,_Z23make_string_based_on_idP9nnode_t_t
FN:580,_Z16make_simple_namePcPKcc
FN:610,_Z16my_malloc_structm
FN:636,_Z4pow2i
FN:652,_Z15string_to_upperPc
FN:667,_Z15string_to_lowerPc
FN:686,_Z13append_stringPKcS0_z
FN:707,_Z14reverse_stringPci
FNDA:0,_Z23make_string_based_on_idP9nnode_t_t
FNDA:0,_Z18is_string_of_radixPci
FNDA:0,_Z36convert_string_of_radix_to_long_longPci
FNDA:30384,_Z31convert_long_long_to_bit_stringxi
FNDA:1905,_Z13append_stringPKcS0_z
FNDA:18348,_Z17is_decimal_stringPc
FNDA:2151,_Z14get_pin_numberPc
FNDA:6479,_Z12get_pin_namePc
FNDA:0,_Z37convert_string_of_radix_to_bit_stringPcii
FNDA:596882,_Z18make_full_ref_namePKcPcS1_S0_l
FNDA:23,_Z13is_hex_stringPc
FNDA:269964,_Z14reverse_stringPci
FNDA:0,_Z15string_to_lowerPc
FNDA:3630,_Z43convert_binary_string_of_size_to_bit_stringsPci
FNDA:0,_Z16make_simple_namePcPKcc
FNDA:0,_Z15string_to_upperPc
FNDA:23,_Z40convert_hex_string_of_size_to_bit_stringsPci
FNDA:18348,_Z39convert_dec_string_of_size_to_long_longPci
FNDA:0,_Z15twos_complementPc
FNDA:933025,_Z16my_malloc_structm
FNDA:1,_Z40convert_oct_string_of_size_to_bit_stringPci
FNDA:23,_Z19is_dont_care_stringPc
FNDA:0,_Z4pow2i
FNDA:1,_Z15is_octal_stringPc
FNDA:772498,_Z8my_powerxx
FNDA:8,_Z16make_signal_namePci
FNDA:3630,_Z16is_binary_stringPc
FNDA:4291,_Z13get_port_namePc
FNF:28
FNH:19
DA:41,8
DA:45,8
DA:46,8
DA:47,8
DA:49,0
DA:50,0
DA:51,0
DA:52,0
DA:61,596882
DA:65,596882
DA:67,384358
DA:71,212524
DA:72,212524
DA:75,596882
DA:77,16293
DA:79,16293
DA:81,16293
DA:83,16293
DA:87,16293
DA:89,596882
DA:91,383660
DA:92,383660
DA:93,383660
DA:95,213222
DA:97,212524
DA:98,212524
DA:100,596882
DA:102,353283
DA:103,353283
DA:104,353283
DA:107,596882
DA:108,596882
DA:115,0
DA:117,0
DA:119,0
DA:121,0
DA:123,0
DA:124,0
DA:126,0
DA:127,0
DA:129,0
DA:143,0
DA:145,0
DA:147,0
DA:149,0
DA:151,0
DA:152,0
DA:154,0
DA:156,0
DA:158,0
DA:160,0
DA:164,0
DA:172,30384
DA:175,30384
DA:176,30384
DA:178,125307
DA:180,94923
DA:181,56785
DA:182,94923
DA:184,30384
DA:186,30384
DA:193,18348
DA:195,18348
DA:196,0
DA:198,18348
DA:199,18348
DA:200,18348
DA:201,0
DA:203,18348
DA:206,0
DA:208,0
DA:209,0
DA:212,0
DA:213,0
DA:214,0
DA:221,0
DA:224,0
DA:226,0
DA:227,0
DA:228,0
DA:229,0
DA:230,0
DA:231,0
DA:232,0
DA:233,0
DA:235,0
DA:242,23
DA:244,23
DA:245,23
DA:246,23
DA:247,0
DA:249,23
DA:250,23
DA:251,23
DA:254,23
DA:256,23
DA:258,81
DA:260,58
DA:262,58
DA:264,290
DA:266,232
DA:267,232
DA:268,232
DA:269,232
DA:270,232
DA:273,23
DA:276,683
DA:278,660
DA:279,660
DA:280,660
DA:284,23
DA:286,23
DA:288,23
DA:289,23
DA:292,0
DA:293,0
DA:294,0
DA:295,0
DA:296,0
DA:298,0
DA:304,0
DA:308,0
DA:309,0
DA:310,0
DA:314,0
DA:316,0
DA:318,0
DA:319,0
DA:320,0
DA:323,0
DA:325,0
DA:327,0
DA:328,0
DA:341,23
DA:348,1
DA:350,1
DA:351,0
DA:353,1
DA:354,1
DA:355,1
DA:358,1
DA:360,1
DA:362,7
DA:364,6
DA:366,6
DA:368,24
DA:370,18
DA:371,18
DA:372,18
DA:373,18
DA:374,18
DA:377,1
DA:380,37
DA:382,36
DA:383,36
DA:384,36
DA:388,1
DA:390,1
DA:392,1
DA:393,1
DA:394,1
DA:401,3630
DA:403,3630
DA:404,0
DA:406,3630
DA:407,3630
DA:410,3630
DA:413,3630
DA:416,3681
DA:418,51
DA:419,51
DA:420,51
DA:424,3630
DA:426,3630
DA:428,3630
DA:429,3630
DA:430,3630
DA:436,23
DA:439,81
DA:440,58
DA:441,0
DA:443,23
DA:449,23
DA:452,23
DA:453,23
DA:457,0
DA:462,18348
DA:465,45940
DA:466,27592
DA:467,0
DA:469,18348
DA:475,1
DA:478,7
DA:479,6
DA:480,0
DA:482,1
DA:488,3630
DA:491,22959
DA:492,19329
DA:493,0
DA:495,3630
DA:504,6479
DA:506,6479
DA:507,6479
DA:509,0
DA:517,4291
DA:520,4291
DA:522,4291
DA:523,4291
DA:524,4228
DA:525,4291
DA:534,2151
DA:537,2151
DA:538,2151
DA:541,2151
DA:542,37
DA:544,2151
DA:545,2151
DA:552,772498
DA:554,772498
DA:555,192696
DA:557,579802
DA:559,1137940
DA:560,558140
DA:562,579802
DA:568,0
DA:570,0
DA:572,0
DA:574,0
DA:580,0
DA:584,0
DA:585,0
DA:587,0
DA:589,0
DA:591,0
DA:592,0
DA:594,0
DA:596,0
DA:597,0
DA:602,0
DA:604,0
DA:610,933025
DA:612,933025
DA:618,933025
DA:619,933025
DA:621,0
DA:622,0
DA:626,933025
DA:628,933025
DA:630,933025
DA:636,0
DA:639,0
DA:641,0
DA:643,0
DA:646,0
DA:652,0
DA:654,0
DA:657,0
DA:659,0
DA:662,0
DA:667,0
DA:669,0
DA:672,0
DA:674,0
DA:677,0
DA:686,1905
DA:692,1905
DA:693,1905
DA:694,1905
DA:697,1905
DA:698,1905
DA:699,1905
DA:700,1905
DA:707,269964
DA:709,269964
DA:710,269964
DA:711,672835
DA:713,402871
DA:714,402871
DA:715,402871
DA:717,269964
LF:281
LH:177
end_of_record
TN:
SF:/workspace/vtr-verilog-to-routing/ODIN_II/SRC/output_blif.c
FN:52,_Z11output_blifPcP11netlist_t_t
FN:230,_Z31depth_first_traversal_to_outputsP8_IO_FILEP11netlist_t_t
FN:255,_Z26depth_traverse_output_blifP9nnode_t_tiP8_IO_FILE
FN:301,_Z11output_nodeP9nnode_t_tsP8_IO_FILE
FN:414,_Z23define_logical_functionP9nnode_t_tsP8_IO_FILE
FN:587,_Z33define_set_input_logical_functionP9nnode_t_tPKcP8_IO_FILE
FN:675,_Z9define_ffP9nnode_t_tP8_IO_FILE
FN:715,_Z18define_decoded_muxP9nnode_t_tP8_IO_FILE
FN:815,_Z23output_blif_pin_connectP9nnode_t_tP8_IO_FILE
FNDA:74226,_Z11output_nodeP9nnode_t_tsP8_IO_FILE
FNDA:17,_Z11output_blifPcP11netlist_t_t
FNDA:26190,_Z23define_logical_functionP9nnode_t_tsP8_IO_FILE
FNDA:28842,_Z18define_decoded_muxP9nnode_t_tP8_IO_FILE
FNDA:4280,_Z33define_set_input_logical_functionP9nnode_t_tPKcP8_IO_FILE
FNDA:0,_Z23output_blif_pin_connectP9nnode_t_tP8_IO_FILE
FNDA:17,_Z31depth_first_traversal_to_outputsP8_IO_FILEP11netlist_t_t
FNDA:283940,_Z26depth_traverse_output_blifP9nnode_t_tiP8_IO_FILE
FNDA:9695,_Z9define_ffP9nnode_t_tP8_IO_FILE
FNF:9
FNH:8
DA:52,17
DA:55,17
DA:56,17
DA:57,17
DA:62,17
DA:64,0
DA:65,0
DA:66,0
DA:70,17
DA:73,17
DA:75,0
DA:78,17
DA:81,1451
DA:83,1434
DA:85,17
DA:86,17
DA:89,1434
DA:91,1428
DA:93,0
DA:94,0
DA:98,0
DA:99,0
DA:104,1428
DA:106,1179
DA:111,249
DA:112,249
DA:117,17
DA:119,17
DA:120,749
DA:122,732
DA:124,0
DA:128,732
DA:130,17
DA:131,17
DA:134,732
DA:136,0
DA:137,0
DA:141,0
DA:142,0
DA:147,732
DA:148,557
DA:152,175
DA:153,175
DA:158,17
DA:161,17
DA:162,17
DA:165,17
DA:167,17
DA:171,0
DA:175,749
DA:178,732
DA:179,732
DA:181,732
DA:183,0
DA:184,0
DA:185,0
DA:186,0
DA:188,0
DA:189,0
DA:200,732
DA:201,732
DA:202,732
DA:203,716
DA:206,732
DA:210,732
DA:214,17
DA:215,17
DA:219,17
DA:220,17
DA:221,17
DA:224,17
DA:225,17
DA:230,17
DA:234,17
DA:235,17
DA:236,17
DA:238,17
DA:239,17
DA:240,17
DA:243,1451
DA:245,1434
DA:247,1434
DA:250,17
DA:255,283940
DA:261,283940
DA:263,209714
DA:270,74226
DA:273,74226
DA:275,162482
DA:277,88256
DA:278,1695
DA:280,86561
DA:281,426529
DA:283,339968
DA:284,37150
DA:286,302818
DA:287,302818
DA:288,20363
DA:291,282455
DA:301,74226
DA:303,74226
DA:305,4277
DA:306,4277
DA:307,4277
DA:308,4277
DA:309,4277
DA:310,0
DA:311,0
DA:312,0
DA:313,0
DA:314,0
DA:315,2
DA:316,2
DA:317,2
DA:318,1
DA:319,1
DA:320,1
DA:321,0
DA:322,0
DA:323,0
DA:325,26190
DA:334,26190
DA:335,26190
DA:337,28842
DA:338,28842
DA:339,28842
DA:341,9695
DA:342,9695
DA:343,9695
DA:345,99
DA:346,99
DA:347,0
DA:349,99
DA:351,99
DA:354,925
DA:355,925
DA:356,0
DA:358,925
DA:360,925
DA:362,1970
DA:363,1970
DA:364,0
DA:366,1970
DA:367,1970
DA:369,1970
DA:371,8
DA:374,8
DA:376,8
DA:377,2217
DA:384,2217
DA:386,0
DA:406,0
DA:407,0
DA:409,74226
DA:414,26190
DA:418,26190
DA:420,26190
DA:423,26190
DA:426,0
DA:429,0
DA:430,0
DA:432,0
DA:435,0
DA:436,0
DA:438,0
DA:443,73423
DA:447,47233
DA:448,47233
DA:450,47233
DA:452,3430
DA:453,3234
DA:454,3234
DA:455,3234
DA:456,2454
DA:458,3430
DA:462,0
DA:467,43803
DA:472,0
DA:473,0
DA:475,0
DA:479,26190
DA:481,26190
DA:483,26190
DA:486,26190
DA:488,2241
DA:491,7682
DA:493,5441
DA:495,2241
DA:496,2241
DA:498,5088
DA:501,18435
DA:503,85564
DA:505,72217
DA:506,13347
DA:508,58870
DA:510,13347
DA:512,5088
DA:514,4
DA:517,12
DA:519,24
DA:521,16
DA:522,8
DA:524,8
DA:526,8
DA:528,4
DA:530,9290
DA:534,18593
DA:536,9303
DA:538,9290
DA:539,9290
DA:541,4465
DA:544,4465
DA:546,22325
DA:548,17860
DA:550,8930
DA:551,8930
DA:552,8930
DA:553,8930
DA:556,4465
DA:558,5102
DA:561,5102
DA:562,25510
DA:564,20408
DA:566,10204
DA:567,10204
DA:568,10204
DA:569,10204
DA:572,5102
DA:574,0
DA:575,0
DA:576,0
DA:579,26190
DA:580,26190
DA:581,0
DA:582,26190
DA:587,4280
DA:590,4280
DA:592,4280
DA:594,4280
DA:595,4280
DA:598,4280
DA:601,0
DA:604,0
DA:605,0
DA:607,0
DA:611,0
DA:612,0
DA:614,0
DA:615,0
DA:618,0
DA:620,0
DA:622,0
DA:627,17120
DA:629,12840
DA:631,12840
DA:635,3048
DA:636,3048
DA:637,3048
DA:638,3048
DA:639,2640
DA:641,3048
DA:645,0
DA:650,9792
DA:656,4280
DA:657,4280
DA:660,4280
DA:662,4280
DA:664,4280
DA:667,4280
DA:668,0
DA:669,4280
DA:675,9695
DA:677,9695
DA:678,9695
DA:682,9695
DA:685,9695
DA:686,9695
DA:689,9695
DA:690,0
DA:694,9695
DA:695,0
DA:698,9695
DA:699,9695
DA:701,0
DA:703,9695
DA:704,9695
DA:706,0
DA:709,9695
DA:710,9695
DA:715,28842
DA:719,28842
DA:721,28842
DA:723,28842
DA:726,0
DA:729,0
DA:731,0
DA:735,0
DA:739,0
DA:740,0
DA:742,0
DA:747,201630
DA:751,172788
DA:753,172788
DA:756,0
DA:757,0
DA:759,0
DA:763,172788
DA:765,8843
DA:766,7424
DA:767,7424
DA:768,7416
DA:769,4373
DA:771,8843
DA:775,0
DA:780,163945
DA:786,28842
DA:788,28842
DA:790,28842
DA:793,115236
DA:795,2337010
DA:797,2250620
DA:798,86394
DA:799,2164220
DA:800,86394
DA:801,2077830
DA:802,0
DA:804,2077830
DA:806,86394
DA:809,28842
DA:810,28842
DA:815,0
DA:820,0
DA:823,0
DA:824,0
DA:827,0
LF:335
LH:252
end_of_record
TN:
SF:/workspace/vtr-verilog-to-routing/ODIN_II/SRC/output_graphcrunch_format.c
FN:39,_Z18graphcrunch_outputPcS_sP11netlist_t_t
FN:57,_Z32depth_first_traverse_graphcrunchP8_IO_FILEsP11netlist_t_t
FN:79,_Z41depth_first_traversal_graphcrunch_displayP9nnode_t_tP8_IO_FILEi
FNDA:0,_Z18graphcrunch_outputPcS_sP11netlist_t_t
FNDA:0,_Z41depth_first_traversal_graphcrunch_displayP9nnode_t_tP8_IO_FILEi
FNDA:0,_Z32depth_first_traverse_graphcrunchP8_IO_FILEsP11netlist_t_t
FNF:3
FNH:0
DA:39,0
DA:45,0
DA:46,0
DA:48,0
DA:51,0
DA:52,0
DA:57,0
DA:62,0
DA:64,0
DA:66,0
DA:70,0
DA:71,0
DA:72,0
DA:73,0
DA:74,0
DA:79,0
DA:85,0
DA:87,0
DA:96,0
DA:98,0
DA:100,0
DA:101,0
DA:103,0
DA:104,0
DA:106,0
DA:107,0
DA:109,0
DA:110,0
DA:111,0
DA:115,0
DA:116,0
DA:118,0
DA:121,0
DA:122,0
DA:124,0
DA:127,0
DA:128,0
DA:131,0
DA:133,0
DA:134,0
DA:137,0
LF:41
LH:0
end_of_record
TN:
SF:/workspace/vtr-verilog-to-routing/ODIN_II/SRC/outputs.c
FN:41,_Z10output_topP11netlist_t_t
FNDA:17,_Z10output_topP11netlist_t_t
FNF:1
FNH:1
DA:41,17
DA:43,17
DA:49,17
LF:3
LH:3
end_of_record
TN:
SF:/workspace/vtr-verilog-to-routing/ODIN_II/SRC/parse_making_ast.c
FN:76,_Z21graphVizOutputPreprocP8_IO_FILEPcS1_
FN:105,_Z12parse_to_astv
FN:211,_Z19cleanup_hard_blocksv
FN:235,_Z11init_parserv
FN:267,_Z14cleanup_parserv
FN:286,_Z20init_parser_for_filev
FN:302,_Z24clean_up_parser_for_filev
FN:311,_Z24next_parsed_verilog_fileP12ast_node_t_t
FN:337,_Z13newSymbolNodePci
FN:374,_Z13newNumberNodePci
FN:383,_Z7newList3idsP12ast_node_t_t
FN:393,_Z15newfunctionList3idsP12ast_node_t_t
FN:407,_Z13newList_entryP12ast_node_t_tS0_
FN:421,_Z16newListReplicateP12ast_node_t_tS0_
FN:439,_Z28markAndProcessSymbolListWith3idsS_P12ast_node_t_t
FN:834,_Z11newArrayRefPcP12ast_node_t_ti
FN:849,_Z11newRangeRefPcP12ast_node_t_tS1_i
FN:866,_Z18newBinaryOperation14operation_listP12ast_node_t_tS1_i
FN:887,_Z14newExpandPower14operation_listP12ast_node_t_tS1_i
FN:938,_Z17newUnaryOperation14operation_listP12ast_node_t_ti
FN:962,_Z16newNegedgeSymbolPci
FN:977,_Z16newPosedgeSymbolPci
FN:992,_Z11newCaseItemP12ast_node_t_tS0_i
FN:1005,_Z14newDefaultCaseP12ast_node_t_ti
FN:1018,_Z21newParallelConnectionP12ast_node_t_tS0_i
FN:1030,_Z14newNonBlockingP12ast_node_t_tS0_i
FN:1043,_Z10newInitialP12ast_node_t_ti
FN:1055,_Z11newBlockingP12ast_node_t_tS0_i
FN:1067,_Z20newFunctionAssigningP12ast_node_t_tS0_i
FN:1092,_Z6newForP12ast_node_t_tS0_S0_S0_i
FN:1105,_Z8newWhileP12ast_node_t_tS0_i
FN:1122,_Z5newIfP12ast_node_t_tS0_S0_i
FN:1135,_Z13newIfQuestionP12ast_node_t_tS0_S0_i
FN:1147,_Z7newCaseP12ast_node_t_tS0_i
FN:1160,_Z9newAlwaysP12ast_node_t_tS0_i
FN:1173,_Z19newModuleConnectionPcP12ast_node_t_ti
FN:1196,_Z18newModuleParameterPcP12ast_node_t_ti
FN:1229,_Z22newModuleNamedInstancePcP12ast_node_t_tS1_i
FN:1244,_Z24newFunctionNamedInstanceP12ast_node_t_tS0_i
FN:1267,_Z20newHardBlockInstancePcP12ast_node_t_ti
FN:1287,_Z17newModuleInstancePcP12ast_node_t_ti
FN:1349,_Z19newFunctionInstancePcP12ast_node_t_ti
FN:1385,_Z15newGateInstancePcP12ast_node_t_tS1_S1_i
FN:1416,_Z29newMultipleInputsGateInstancePcP12ast_node_t_tS1_S1_i
FN:1462,_Z7newGate14operation_listP12ast_node_t_ti
FN:1479,_Z13newVarDeclarePcP12ast_node_t_tS1_S1_S1_S1_i
FN:1496,_Z24newIntegerTypeVarDeclarePcP12ast_node_t_tS1_S1_S1_S1_i
FN:1523,_Z9newModulePcP12ast_node_t_tS1_i
FN:1578,_Z11newFunctionP12ast_node_t_tS0_i
FN:1661,_Z13next_functionv
FN:1684,_Z11next_modulev
FN:1713,_Z11newDefparam3idsP12ast_node_t_ti
FN:1781,_Z11newConstantPcS_i
FN:1810,_Z17graphVizOutputAstPcP12ast_node_t_t
FN:1835,_Z31graphVizOutputAst_traverse_nodeP8_IO_FILEP12ast_node_t_tS2_i
FN:2153,_Z19calculate_operationP12ast_node_t_t
FNDA:0,_Z21graphVizOutputPreprocP8_IO_FILEPcS1_
FNDA:0,_Z13next_functionv
FNDA:0,_Z18newModuleParameterPcP12ast_node_t_ti
FNDA:15,_Z7newCaseP12ast_node_t_tS0_i
FNDA:0,_Z20newFunctionAssigningP12ast_node_t_tS0_i
FNDA:4481,_Z28markAndProcessSymbolListWith3idsS_P12ast_node_t_t
FNDA:0,_Z31graphVizOutputAst_traverse_nodeP8_IO_FILEP12ast_node_t_tS2_i
FNDA:17,_Z24clean_up_parser_for_filev
FNDA:0,_Z10newInitialP12ast_node_t_ti
FNDA:0,_Z21newParallelConnectionP12ast_node_t_tS0_i
FNDA:753,_Z19newModuleConnectionPcP12ast_node_t_ti
FNDA:4157,_Z18newBinaryOperation14operation_listP12ast_node_t_tS1_i
FNDA:17,_Z20init_parser_for_filev
FNDA:0,_Z16newListReplicateP12ast_node_t_tS0_
FNDA:550,_Z9newAlwaysP12ast_node_t_tS0_i
FNDA:0,_Z19newFunctionInstancePcP12ast_node_t_ti
FNDA:164,_Z11newRangeRefPcP12ast_node_t_tS1_i
FNDA:0,_Z24newIntegerTypeVarDeclarePcP12ast_node_t_tS1_S1_S1_S1_i
FNDA:1,_Z20newHardBlockInstancePcP12ast_node_t_ti
FNDA:2103,_Z14newNonBlockingP12ast_node_t_tS0_i
FNDA:1,_Z14newDefaultCaseP12ast_node_t_ti
FNDA:2,_Z16newNegedgeSymbolPci
FNDA:41,_Z17newModuleInstancePcP12ast_node_t_ti
FNDA:17,_Z12parse_to_astv
FNDA:17,_Z24next_parsed_verilog_fileP12ast_node_t_t
FNDA:17,_Z11init_parserv
FNDA:0,_Z11newFunctionP12ast_node_t_tS0_i
FNDA:17,_Z14cleanup_parserv
FNDA:14705,_Z13newNumberNodePci
FNDA:3518,_Z11newArrayRefPcP12ast_node_t_ti
FNDA:0,_Z14newExpandPower14operation_listP12ast_node_t_tS1_i
FNDA:0,_Z6newForP12ast_node_t_tS0_S0_S0_i
FNDA:0,_Z11newConstantPcS_i
FNDA:17,_Z19cleanup_hard_blocksv
FNDA:0,_Z8newWhileP12ast_node_t_tS0_i
FNDA:515,_Z13newIfQuestionP12ast_node_t_tS0_S0_i
FNDA:5472,_Z13newVarDeclarePcP12ast_node_t_tS1_S1_S1_S1_i
FNDA:53,_Z9newModulePcP12ast_node_t_tS1_i
FNDA:550,_Z16newPosedgeSymbolPci
FNDA:0,_Z11newDefparam3idsP12ast_node_t_ti
FNDA:1488,_Z5newIfP12ast_node_t_tS0_S0_i
FNDA:0,_Z17graphVizOutputAstPcP12ast_node_t_t
FNDA:0,_Z15newfunctionList3idsP12ast_node_t_t
FNDA:0,_Z19calculate_operationP12ast_node_t_t
FNDA:53,_Z11next_modulev
FNDA:0,_Z15newGateInstancePcP12ast_node_t_tS1_S1_i
FNDA:2906,_Z11newBlockingP12ast_node_t_tS0_i
FNDA:202,_Z17newUnaryOperation14operation_listP12ast_node_t_ti
FNDA:320,_Z11newCaseItemP12ast_node_t_tS0_i
FNDA:0,_Z29newMultipleInputsGateInstancePcP12ast_node_t_tS1_S1_i
FNDA:0,_Z24newFunctionNamedInstanceP12ast_node_t_tS0_i
FNDA:0,_Z7newGate14operation_listP12ast_node_t_ti
FNDA:41,_Z22newModuleNamedInstancePcP12ast_node_t_tS1_i
FNDA:23444,_Z13newSymbolNodePci
FNDA:9617,_Z7newList3idsP12ast_node_t_t
FNDA:13857,_Z13newList_entryP12ast_node_t_tS0_
FNF:56
FNH:33
DA:76,0
DA:83,0
DA:84,0
DA:85,0
DA:86,0
DA:89,0
DA:90,0
DA:92,0
DA:93,0
DA:94,0
DA:95,0
DA:96,0
DA:97,0
DA:98,0
DA:99,0
DA:105,17
DA:112,17
DA:115,17
DA:118,17
DA:121,17
DA:122,17
DA:123,17
DA:125,17
DA:126,17
DA:128,0
DA:132,17
DA:133,17
DA:134,17
DA:137,17
DA:138,0
DA:141,17
DA:144,17
DA:146,17
DA:148,17
DA:150,17
DA:152,0
DA:155,0
DA:157,0
DA:158,0
DA:160,0
DA:164,0
DA:165,0
DA:166,0
DA:169,0
DA:170,0
DA:173,0
DA:176,0
DA:179,0
DA:181,0
DA:183,0
DA:185,0
DA:190,17
DA:193,17
DA:194,17
DA:211,17
DA:216,18
DA:218,1
DA:219,1
DA:220,1
DA:221,1
DA:222,1
DA:224,6
DA:226,5
DA:229,17
DA:235,17
DA:237,17
DA:239,17
DA:241,17
DA:243,17
DA:244,17
DA:245,17
DA:246,17
DA:247,17
DA:248,17
DA:249,17
DA:250,17
DA:251,17
DA:252,17
DA:253,17
DA:254,17
DA:255,17
DA:256,17
DA:257,17
DA:260,17
DA:261,17
DA:262,17
DA:267,17
DA:272,17
DA:274,70
DA:276,53
DA:279,17
DA:281,17
DA:286,17
DA:289,17
DA:290,17
DA:293,17
DA:294,17
DA:295,17
DA:296,17
DA:297,17
DA:302,17
DA:305,17
DA:306,17
DA:311,17
DA:315,17
DA:316,17
DA:318,17
DA:321,0
DA:323,0
DA:324,0
DA:329,17
DA:330,17
DA:331,17
DA:332,17
DA:337,23444
DA:342,23444
DA:343,23444
DA:349,0
DA:351,0
DA:355,0
DA:360,23444
DA:364,0
DA:367,23444
DA:374,14705
DA:376,14705
DA:377,14705
DA:383,9617
DA:386,9617
DA:388,9617
DA:390,9617
DA:393,0
DA:396,0
DA:398,0
DA:400,0
DA:402,0
DA:407,13857
DA:410,13857
DA:412,13857
DA:421,0
DA:424,0
DA:426,0
DA:429,0
DA:432,0
DA:434,0
DA:437,0
DA:439,4481
DA:443,4481
DA:444,4481
DA:445,4481
DA:446,4481
DA:447,4481
DA:449,9953
DA:453,5472
DA:455,5472
DA:457,5472
DA:458,3474
DA:459,3474
DA:466,3474
DA:468,0
DA:470,0
DA:471,0
DA:473,0
DA:474,0
DA:477,0
DA:478,0
DA:481,0
DA:482,0
DA:484,3474
DA:486,3474
DA:487,3474
DA:489,0
DA:491,0
DA:492,0
DA:495,3474
DA:497,0
DA:499,0
DA:500,0
DA:502,0
DA:503,0
DA:506,0
DA:507,0
DA:510,0
DA:511,0
DA:513,3474
DA:515,3474
DA:516,3474
DA:518,0
DA:520,0
DA:521,0
DA:524,3474
DA:525,0
DA:527,3474
DA:528,0
DA:532,5472
DA:534,1998
DA:535,1998
DA:538,5472
DA:540,899
DA:542,899
DA:544,899
DA:547,899
DA:549,628
DA:550,628
DA:551,628
DA:553,899
DA:555,271
DA:556,271
DA:557,271
DA:560,899
DA:562,0
DA:564,899
DA:566,12
DA:568,12
DA:569,12
DA:571,1
DA:575,12
DA:578,0
DA:579,0
DA:580,0
DA:582,0
DA:586,0
DA:591,12
DA:593,0
DA:594,0
DA:595,0
DA:597,12
DA:598,12
DA:600,12
DA:602,12
DA:603,12
DA:605,628
DA:606,628
DA:608,628
DA:610,0
DA:613,628
DA:614,628
DA:615,271
DA:616,271
DA:618,271
DA:620,0
DA:623,271
DA:624,271
DA:625,0
DA:626,0
DA:627,0
DA:628,0
DA:629,2684
DA:630,2684
DA:631,2684
DA:632,978
DA:633,978
DA:634,978
DA:635,0
DA:636,0
DA:637,0
DA:638,0
DA:639,0
DA:642,0
DA:644,0
DA:645,0
DA:646,0
DA:649,0
DA:651,0
DA:653,0
DA:654,0
DA:656,0
DA:657,0
DA:660,0
DA:661,0
DA:664,0
DA:665,0
DA:667,0
DA:669,0
DA:670,0
DA:672,0
DA:674,0
DA:675,0
DA:678,0
DA:680,0
DA:682,0
DA:683,0
DA:685,0
DA:686,0
DA:689,0
DA:690,0
DA:693,0
DA:694,0
DA:696,0
DA:698,0
DA:699,0
DA:701,0
DA:703,0
DA:704,0
DA:707,0
DA:708,0
DA:710,0
DA:711,0
DA:715,0
DA:717,0
DA:718,0
DA:721,0
DA:723,0
DA:725,0
DA:727,0
DA:730,0
DA:732,0
DA:733,0
DA:734,0
DA:737,0
DA:739,0
DA:740,0
DA:741,0
DA:744,0
DA:746,0
DA:748,0
DA:750,0
DA:752,0
DA:753,0
DA:755,0
DA:759,0
DA:762,0
DA:763,0
DA:764,0
DA:766,0
DA:770,0
DA:775,0
DA:777,0
DA:778,0
DA:779,0
DA:781,0
DA:782,0
DA:784,0
DA:786,0
DA:787,0
DA:789,0
DA:790,0
DA:792,0
DA:794,0
DA:797,0
DA:798,0
DA:799,0
DA:800,0
DA:802,0
DA:804,0
DA:807,0
DA:808,0
DA:809,0
DA:810,0
DA:811,0
DA:812,0
DA:813,0
DA:814,0
DA:815,0
DA:816,0
DA:817,0
DA:818,0
DA:819,0
DA:820,0
DA:821,0
DA:822,0
DA:823,0
DA:829,4481
DA:834,3518
DA:837,3518
DA:839,3518
DA:841,3518
DA:843,3518
DA:849,164
DA:852,164
DA:854,164
DA:856,164
DA:858,164
DA:860,164
DA:866,4157
DA:868,4157
DA:870,4157
DA:872,4157
DA:874,4157
DA:877,4157
DA:878,4157
DA:880,181
DA:881,181
DA:884,4157
DA:887,0
DA:889,0
DA:897,0
DA:898,0
DA:899,0
DA:900,0
DA:901,0
DA:902,0
DA:903,0
DA:905,0
DA:906,0
DA:908,0
DA:909,0
DA:910,0
DA:911,0
DA:913,0
DA:915,0
DA:916,0
DA:923,0
DA:926,0
DA:927,0
DA:929,0
DA:930,0
DA:933,0
DA:938,202
DA:940,202
DA:942,202
DA:944,202
DA:946,202
DA:949,202
DA:950,202
DA:952,0
DA:953,0
DA:956,202
DA:962,2
DA:965,2
DA:967,2
DA:969,2
DA:971,2
DA:977,550
DA:980,550
DA:982,550
DA:984,550
DA:986,550
DA:992,320
DA:995,320
DA:997,320
DA:999,320
DA:1005,1
DA:1008,1
DA:1010,1
DA:1012,1
DA:1018,0
DA:1021,0
DA:1023,0
DA:1025,0
DA:1030,2103
DA:1033,2103
DA:1035,2103
DA:1037,2103
DA:1043,0
DA:1046,0
DA:1048,0
DA:1050,0
DA:1055,2906
DA:1058,2906
DA:1060,2906
DA:1062,2906
DA:1067,0
DA:1072,0
DA:1074,0
DA:1076,0
DA:1078,0
DA:1081,0
DA:1084,0
DA:1086,0
DA:1092,0
DA:1095,0
DA:1097,0
DA:1099,0
DA:1105,0
DA:1108,0
DA:1110,0
DA:1113,0
DA:1114,0
DA:1116,0
DA:1122,1488
DA:1125,1488
DA:1127,1488
DA:1129,1488
DA:1135,515
DA:1138,515
DA:1140,515
DA:1142,515
DA:1147,15
DA:1150,15
DA:1152,15
DA:1154,15
DA:1160,550
DA:1163,550
DA:1165,550
DA:1167,550
DA:1173,753
DA:1177,753
DA:1178,753
DA:1180,51
DA:1184,702
DA:1188,753
DA:1190,753
DA:1196,0
DA:1200,0
DA:1201,0
DA:1203,0
DA:1207,0
DA:1210,0
DA:1212,0
DA:1218,0
DA:1221,0
DA:1223,0
DA:1229,41
DA:1231,41
DA:1234,41
DA:1236,41
DA:1238,41
DA:1244,0
DA:1247,0
DA:1249,0
DA:1250,0
DA:1251,0
DA:1252,0
DA:1253,0
DA:1255,0
DA:1258,0
DA:1260,0
DA:1262,0
DA:1267,1
DA:1269,1
DA:1272,1
DA:1274,1
DA:1277,1
DA:1278,1
DA:1279,1
DA:1281,1
DA:1287,41
DA:1291,41
DA:1292,81
DA:1294,41
DA:1296,41
DA:1297,40
DA:1298,81
DA:1301,1
DA:1306,40
DA:1307,40
DA:1308,40
DA:1311,40
DA:1315,0
DA:1320,0
DA:1321,0
DA:1322,0
DA:1323,0
DA:1324,0
DA:1325,0
DA:1326,0
DA:1331,40
DA:1333,40
DA:1334,40
DA:1335,0
DA:1338,40
DA:1339,40
DA:1340,40
DA:1343,40
DA:1344,40
DA:1349,0
DA:1352,0
DA:1354,0
DA:1355,0
DA:1356,0
DA:1359,0
DA:1364,0
DA:1366,0
DA:1367,0
DA:1370,0
DA:1372,0
DA:1375,0
DA:1376,0
DA:1377,0
DA:1379,0
DA:1385,0
DA:1388,0
DA:1389,0
DA:1391,0
DA:1393,0
DA:1397,0
DA:1398,0
DA:1399,0
DA:1400,0
DA:1401,0
DA:1402,0
DA:1403,0
DA:1406,0
DA:1408,0
DA:1409,0
DA:1411,0
DA:1413,0
DA:1416,0
DA:1420,0
DA:1422,0
DA:1424,0
DA:1426,0
DA:1431,0
DA:1433,0
DA:1435,0
DA:1437,0
DA:1439,0
DA:1441,0
DA:1442,0
DA:1445,0
DA:1448,0
DA:1450,0
DA:1452,0
DA:1455,0
DA:1457,0
DA:1462,0
DA:1465,0
DA:1467,0
DA:1469,0
DA:1471,0
DA:1479,5472
DA:1481,5472
DA:1484,5472
DA:1487,5472
DA:1489,5472
DA:1496,0
DA:1499,0
DA:1500,0
DA:1502,0
DA:1503,0
DA:1505,0
DA:1507,0
DA:1509,0
DA:1512,0
DA:1515,0
DA:1517,0
DA:1523,53
DA:1527,53
DA:1530,53
DA:1532,53
DA:1534,53
DA:1537,53
DA:1538,53
DA:1539,53
DA:1540,53
DA:1542,53
DA:1543,53
DA:1544,53
DA:1545,53
DA:1547,53
DA:1548,53
DA:1549,53
DA:1550,0
DA:1551,0
DA:1552,0
DA:1553,0
DA:1554,0
DA:1558,0
DA:1561,53
DA:1563,0
DA:1566,53
DA:1569,53
DA:1571,53
DA:1578,0
DA:1589,0
DA:1590,0
DA:1592,0
DA:1594,0
DA:1596,0
DA:1598,0
DA:1600,0
DA:1602,0
DA:1604,0
DA:1606,0
DA:1608,0
DA:1610,0
DA:1613,0
DA:1614,0
DA:1615,0
DA:1616,0
DA:1617,0
DA:1618,0
DA:1619,0
DA:1620,0
DA:1626,0
DA:1629,0
DA:1632,0
DA:1635,0
DA:1638,0
DA:1639,0
DA:1640,0
DA:1643,0
DA:1644,0
DA:1646,0
DA:1648,0
DA:1651,0
DA:1654,0
DA:1656,0
DA:1661,0
DA:1663,0
DA:1667,0
DA:1668,0
DA:1671,0
DA:1672,0
DA:1675,0
DA:1676,0
DA:1678,0
DA:1679,0
DA:1680,0
DA:1684,53
DA:1686,53
DA:1687,53
DA:1690,53
DA:1691,53
DA:1694,53
DA:1695,53
DA:1697,53
DA:1698,53
DA:1700,53
DA:1701,53
DA:1703,53
DA:1704,53
DA:1706,53
DA:1707,53
DA:1708,53
DA:1713,0
DA:1715,0
DA:1717,0
DA:1718,0
DA:1721,0
DA:1723,0
DA:1725,0
DA:1727,0
DA:1728,0
DA:1729,0
DA:1730,0
DA:1731,0
DA:1734,0
DA:1735,0
DA:1738,0
DA:1739,0
DA:1740,0
DA:1741,0
DA:1742,0
DA:1743,0
DA:1744,0
DA:1748,0
DA:1749,0
DA:1751,0
DA:1753,0
DA:1754,0
DA:1756,0
DA:1757,0
DA:1760,0
DA:1761,0
DA:1762,0
DA:1764,0
DA:1769,0
DA:1771,0
DA:1772,0
DA:1775,0
DA:1781,0
DA:1784,0
DA:1788,0
DA:1790,0
DA:1793,0
DA:1795,0
DA:1796,0
DA:1810,0
DA:1817,0
DA:1818,0
DA:1819,0
DA:1822,0
DA:1823,0
DA:1825,0
DA:1828,0
DA:1829,0
DA:1830,0
DA:1835,0
DA:1838,0
DA:1841,0
DA:1843,0
DA:1849,0
DA:1851,0
DA:1852,0
DA:1853,0
DA:1854,0
DA:1855,0
DA:1856,0
DA:1857,0
DA:1858,0
DA:1859,0
DA:1860,0
DA:1862,0
DA:1863,0
DA:1865,0
DA:1867,0
DA:1869,0
DA:1871,0
DA:1873,0
DA:1875,0
DA:1877,0
DA:1879,0
DA:1881,0
DA:1883,0
DA:1885,0
DA:1887,0
DA:1889,0
DA:1891,0
DA:1893,0
DA:1894,0
DA:1895,0
DA:1896,0
DA:1897,0
DA:1898,0
DA:1899,0
DA:1900,0
DA:1901,0
DA:1902,0
DA:1903,0
DA:1904,0
DA:1905,0
DA:1906,0
DA:1907,0
DA:1908,0
DA:1909,0
DA:1910,0
DA:1911,0
DA:1912,0
DA:1913,0
DA:1914,0
DA:1915,0
DA:1916,0
DA:1917,0
DA:1918,0
DA:1919,0
DA:1920,0
DA:1921,0
DA:1922,0
DA:1923,0
DA:1924,0
DA:1925,0
DA:1926,0
DA:1927,0
DA:1928,0
DA:1929,0
DA:1930,0
DA:1931,0
DA:1932,0
DA:1933,0
DA:1934,0
DA:1935,0
DA:1936,0
DA:1937,0
DA:1938,0
DA:1939,0
DA:1940,0
DA:1941,0
DA:1942,0
DA:1943,0
DA:1944,0
DA:1945,0
DA:1946,0
DA:1947,0
DA:1948,0
DA:1949,0
DA:1950,0
DA:1951,0
DA:1952,0
DA:1953,0
DA:1954,0
DA:1955,0
DA:1956,0
DA:1957,0
DA:1958,0
DA:1959,0
DA:1960,0
DA:1961,0
DA:1962,0
DA:1963,0
DA:1964,0
DA:1965,0
DA:1966,0
DA:1967,0
DA:1968,0
DA:1969,0
DA:1970,0
DA:1971,0
DA:1972,0
DA:1973,0
DA:1974,0
DA:1975,0
DA:1976,0
DA:1977,0
DA:1978,0
DA:1979,0
DA:1980,0
DA:1981,0
DA:1982,0
DA:1983,0
DA:1984,0
DA:1985,0
DA:1987,0
DA:1988,0
DA:1989,0
DA:1990,0
DA:1991,0
DA:1992,0
DA:1993,0
DA:1994,0
DA:1995,0
DA:1996,0
DA:1997,0
DA:1998,0
DA:1999,0
DA:2000,0
DA:2001,0
DA:2002,0
DA:2003,0
DA:2004,0
DA:2005,0
DA:2006,0
DA:2007,0
DA:2008,0
DA:2009,0
DA:2010,0
DA:2011,0
DA:2012,0
DA:2013,0
DA:2014,0
DA:2015,0
DA:2016,0
DA:2017,0
DA:2018,0
DA:2019,0
DA:2020,0
DA:2021,0
DA:2022,0
DA:2023,0
DA:2024,0
DA:2025,0
DA:2026,0
DA:2027,0
DA:2028,0
DA:2029,0
DA:2030,0
DA:2031,0
DA:2032,0
DA:2033,0
DA:2034,0
DA:2035,0
DA:2036,0
DA:2037,0
DA:2038,0
DA:2039,0
DA:2040,0
DA:2041,0
DA:2042,0
DA:2043,0
DA:2044,0
DA:2045,0
DA:2046,0
DA:2047,0
DA:2048,0
DA:2049,0
DA:2050,0
DA:2051,0
DA:2052,0
DA:2053,0
DA:2054,0
DA:2055,0
DA:2056,0
DA:2057,0
DA:2058,0
DA:2059,0
DA:2060,0
DA:2061,0
DA:2062,0
DA:2063,0
DA:2065,0
DA:2066,0
DA:2067,0
DA:2069,0
DA:2070,0
DA:2071,0
DA:2072,0
DA:2073,0
DA:2074,0
DA:2075,0
DA:2076,0
DA:2077,0
DA:2078,0
DA:2079,0
DA:2080,0
DA:2081,0
DA:2082,0
DA:2083,0
DA:2084,0
DA:2085,0
DA:2086,0
DA:2087,0
DA:2088,0
DA:2089,0
DA:2090,0
DA:2091,0
DA:2092,0
DA:2093,0
DA:2094,0
DA:2095,0
DA:2096,0
DA:2097,0
DA:2098,0
DA:2099,0
DA:2100,0
DA:2102,0
DA:2103,0
DA:2104,0
DA:2105,0
DA:2106,0
DA:2107,0
DA:2108,0
DA:2109,0
DA:2110,0
DA:2111,0
DA:2112,0
DA:2113,0
DA:2114,0
DA:2115,0
DA:2116,0
DA:2118,0
DA:2119,0
DA:2120,0
DA:2121,0
DA:2122,0
DA:2123,0
DA:2124,0
DA:2125,0
DA:2126,0
DA:2127,0
DA:2128,0
DA:2129,0
DA:2130,0
DA:2131,0
DA:2132,0
DA:2134,0
DA:2135,0
DA:2136,0
DA:2140,0
DA:2143,0
DA:2144,0
DA:2146,0
DA:2148,0
DA:2151,0
DA:2153,0
DA:2155,0
DA:2156,0
DA:2159,0
DA:2161,0
DA:2164,0
DA:2166,0
DA:2168,0
DA:2169,0
DA:2171,0
DA:2174,0
DA:2175,0
DA:2178,0
DA:2179,0
DA:2181,0
DA:2182,0
DA:2183,0
DA:2184,0
DA:2187,0
DA:2189,0
DA:2191,0
DA:2192,0
DA:2194,0
DA:2197,0
DA:2198,0
DA:2201,0
DA:2202,0
DA:2204,0
DA:2205,0
DA:2206,0
DA:2207,0
DA:2209,0
DA:2210,0
DA:2212,0
DA:2215,0
DA:2218,0
DA:2221,0
LF:1080
LH:312
end_of_record
TN:
SF:/workspace/vtr-verilog-to-routing/ODIN_II/SRC/partial_map.c
FN:66,_Z15partial_map_topP11netlist_t_t
FN:79,_Z36depth_first_traversal_to_partial_mapsP11netlist_t_t
FN:100,_Z32depth_first_traverse_parital_mapP9nnode_t_tiP11netlist_t_t
FN:145,_Z16partial_map_nodeP9nnode_t_tsP11netlist_t_t
FN:329,_Z26instantiate_soft_logic_ramP9nnode_t_tsP11netlist_t_t
FN:344,_Z26instantiate_multi_port_muxP9nnode_t_tsP11netlist_t_t
FN:393,_Z21instantiate_not_logicP9nnode_t_tsP11netlist_t_t
FN:421,_Z18instantiate_bufferP9nnode_t_tsP11netlist_t_t
FN:442,_Z25instantiate_logical_logicP9nnode_t_t14operation_listsP11netlist_t_t
FN:505,_Z29instantiate_bitwise_reductionP9nnode_t_t14operation_listsP11netlist_t_t
FN:574,_Z25instantiate_bitwise_logicP9nnode_t_t14operation_listsP11netlist_t_t
FN:662,_Z23instantiate_add_w_carryP9nnode_t_tsP11netlist_t_t
FN:785,_Z23instantiate_sub_w_carryP9nnode_t_tsP11netlist_t_t
FN:916,_Z21instantiate_unary_subP9nnode_t_tsP11netlist_t_t
FN:1026,_Z17instantiate_EQUALP9nnode_t_tssP11netlist_t_t
FN:1112,_Z14instantiate_GTP9nnode_t_tssP11netlist_t_t
FN:1262,_Z14instantiate_GEP9nnode_t_tssP11netlist_t_t
FN:1343,_Z31instantiate_shift_left_or_rightP9nnode_t_tssP11netlist_t_t
FNDA:3292,_Z25instantiate_bitwise_logicP9nnode_t_t14operation_listsP11netlist_t_t
FNDA:494,_Z29instantiate_bitwise_reductionP9nnode_t_t14operation_listsP11netlist_t_t
FNDA:71531,_Z16partial_map_nodeP9nnode_t_tsP11netlist_t_t
FNDA:1,_Z23instantiate_add_w_carryP9nnode_t_tsP11netlist_t_t
FNDA:17,_Z36depth_first_traversal_to_partial_mapsP11netlist_t_t
FNDA:2045,_Z26instantiate_multi_port_muxP9nnode_t_tsP11netlist_t_t
FNDA:422415,_Z32depth_first_traverse_parital_mapP9nnode_t_tiP11netlist_t_t
FNDA:40528,_Z18instantiate_bufferP9nnode_t_tsP11netlist_t_t
FNDA:377,_Z14instantiate_GTP9nnode_t_tssP11netlist_t_t
FNDA:2190,_Z17instantiate_EQUALP9nnode_t_tssP11netlist_t_t
FNDA:158,_Z21instantiate_not_logicP9nnode_t_tsP11netlist_t_t
FNDA:17,_Z15partial_map_topP11netlist_t_t
FNDA:64,_Z31instantiate_shift_left_or_rightP9nnode_t_tssP11netlist_t_t
FNDA:0,_Z21instantiate_unary_subP9nnode_t_tsP11netlist_t_t
FNDA:243,_Z25instantiate_logical_logicP9nnode_t_t14operation_listsP11netlist_t_t
FNDA:0,_Z26instantiate_soft_logic_ramP9nnode_t_tsP11netlist_t_t
FNDA:52,_Z14instantiate_GEP9nnode_t_tssP11netlist_t_t
FNDA:0,_Z23instantiate_sub_w_carryP9nnode_t_tsP11netlist_t_t
FNF:18
FNH:15
DA:66,17
DA:69,17
DA:72,17
DA:74,17
DA:79,17
DA:84,1451
DA:86,1434
DA:88,1434
DA:92,17
DA:93,17
DA:94,17
DA:95,17
DA:100,422415
DA:106,422415
DA:108,350884
DA:115,71531
DA:117,189172
DA:119,117641
DA:120,1893
DA:122,115748
DA:123,595541
DA:125,479793
DA:126,2744
DA:128,477049
DA:129,477049
DA:130,56119
DA:133,420930
DA:138,71531
DA:145,71531
DA:147,71531
DA:149,158
DA:150,158
DA:151,158
DA:152,40464
DA:153,40464
DA:154,40464
DA:156,733
DA:162,733
DA:164,725
DA:166,8
DA:168,8
DA:171,0
DA:172,733
DA:174,245
DA:180,245
DA:182,243
DA:184,245
DA:186,9364
DA:188,9364
DA:190,985
DA:192,985
DA:195,984
DA:196,984
DA:198,0
DA:202,1
DA:203,985
DA:204,2007
DA:206,2007
DA:208,2007
DA:210,2007
DA:211,2007
DA:212,2007
DA:214,0
DA:216,0
DA:218,0
DA:220,0
DA:222,0
DA:225,0
DA:230,0
DA:232,0
DA:234,0
DA:236,0
DA:239,0
DA:242,2007
DA:243,2138
DA:245,2138
DA:246,2138
DA:247,52
DA:249,52
DA:250,52
DA:251,325
DA:253,325
DA:254,325
DA:255,64
DA:257,64
DA:258,64
DA:259,2045
DA:260,2045
DA:261,2045
DA:262,99
DA:264,99
DA:266,99
DA:267,99
DA:271,0
DA:272,99
DA:274,8
DA:277,8
DA:278,8
DA:279,8
DA:281,8
DA:282,8
DA:285,8
DA:287,8
DA:291,0
DA:292,0
DA:297,0
DA:300,8
DA:302,0
DA:304,0
DA:306,0
DA:307,12844
DA:318,12844
DA:319,0
DA:324,0
DA:325,0
DA:327,71531
DA:329,0
DA:331,0
DA:332,0
DA:333,0
DA:334,0
DA:336,0
DA:337,0
DA:344,2045
DA:353,2045
DA:354,2045
DA:355,2045
DA:357,2045
DA:358,33013
DA:360,30968
DA:363,33013
DA:365,30968
DA:367,6426
DA:370,4381
DA:372,4381
DA:377,126160
DA:380,97237
DA:382,97237
DA:386,30968
DA:388,2045
DA:393,158
DA:395,158
DA:399,158
DA:401,327
DA:403,169
DA:407,327
DA:410,169
DA:411,169
DA:414,158
DA:415,158
DA:421,40528
DA:423,40528
DA:427,83736
DA:429,43208
DA:432,43208
DA:435,43208
DA:437,40528
DA:442,243
DA:452,243
DA:453,243
DA:454,243
DA:456,243
DA:457,243
DA:458,243
DA:461,243
DA:462,243
DA:463,243
DA:466,486
DA:469,243
DA:471,243
DA:476,0
DA:479,486
DA:482,243
DA:484,243
DA:489,0
DA:493,243
DA:494,243
DA:496,243
DA:497,243
DA:499,243
DA:500,243
DA:505,494
DA:512,494
DA:513,494
DA:514,494
DA:516,494
DA:518,494
DA:520,1
DA:522,1
DA:523,1
DA:524,492
DA:526,492
DA:527,492
DA:528,0
DA:530,0
DA:531,0
DA:532,1
DA:534,1
DA:535,1
DA:536,0
DA:538,0
DA:539,0
DA:540,0
DA:542,0
DA:543,0
DA:544,0
DA:545,0
DA:546,0
DA:547,0
DA:550,494
DA:553,1116
DA:556,622
DA:558,622
DA:563,0
DA:567,494
DA:568,494
DA:574,3292
DA:584,3292
DA:585,3292
DA:586,3292
DA:588,3292
DA:589,9876
DA:590,6584
DA:592,3292
DA:594,3292
DA:596,120
DA:597,120
DA:598,120
DA:599,44
DA:600,44
DA:601,44
DA:602,1
DA:603,1
DA:604,1
DA:605,1
DA:606,1
DA:607,1
DA:608,2190
DA:609,2190
DA:610,2190
DA:611,936
DA:612,936
DA:613,936
DA:614,0
DA:615,0
DA:616,0
DA:617,0
DA:619,3292
DA:620,13217
DA:623,9925
DA:627,13217
DA:630,29775
DA:631,19850
DA:632,19850
DA:633,59550
DA:634,39700
DA:635,19850
DA:636,0
DA:640,19850
DA:642,19850
DA:645,0
DA:650,9925
DA:653,3292
DA:654,3292
DA:662,1
DA:671,1
DA:673,1
DA:674,1
DA:676,0
DA:677,1
DA:678,1
DA:680,1
DA:681,1
DA:684,4
DA:686,3
DA:688,3
DA:693,1
DA:695,1
DA:696,1
DA:698,1
DA:703,0
DA:704,0
DA:706,0
DA:712,4
DA:714,3
DA:717,2
DA:718,2
DA:719,2
DA:723,1
DA:724,1
DA:725,0
DA:728,3
DA:731,2
DA:732,2
DA:733,2
DA:737,1
DA:738,1
DA:739,0
DA:743,3
DA:744,3
DA:747,0
DA:749,0
DA:750,0
DA:753,0
DA:754,0
DA:758,0
DA:759,0
DA:762,0
DA:763,0
DA:769,3
DA:771,2
DA:772,2
DA:773,1
DA:776,1
DA:777,1
DA:778,1
DA:785,0
DA:795,0
DA:796,0
DA:797,0
DA:798,0
DA:799,0
DA:801,0
DA:802,0
DA:803,0
DA:806,0
DA:808,0
DA:809,0
DA:810,0
DA:812,0
DA:817,0
DA:818,0
DA:820,0
DA:824,0
DA:826,0
DA:829,0
DA:830,0
DA:831,0
DA:835,0
DA:836,0
DA:837,0
DA:840,0
DA:843,0
DA:847,0
DA:853,0
DA:855,0
DA:856,0
DA:858,0
DA:859,0
DA:863,0
DA:865,0
DA:866,0
DA:868,0
DA:869,0
DA:873,0
DA:875,0
DA:879,0
DA:881,0
DA:882,0
DA:883,0
DA:885,0
DA:887,0
DA:888,0
DA:889,0
DA:892,0
DA:896,0
DA:900,0
DA:902,0
DA:903,0
DA:904,0
DA:907,0
DA:908,0
DA:909,0
DA:910,0
DA:916,0
DA:924,0
DA:925,0
DA:926,0
DA:928,0
DA:929,0
DA:930,0
DA:933,0
DA:935,0
DA:936,0
DA:937,0
DA:939,0
DA:944,0
DA:945,0
DA:947,0
DA:951,0
DA:954,0
DA:957,0
DA:959,0
DA:960,0
DA:962,0
DA:963,0
DA:967,0
DA:969,0
DA:970,0
DA:972,0
DA:973,0
DA:977,0
DA:980,0
DA:984,0
DA:986,0
DA:987,0
DA:988,0
DA:990,0
DA:992,0
DA:993,0
DA:994,0
DA:997,0
DA:1000,0
DA:1001,0
DA:1002,0
DA:1005,0
DA:1009,0
DA:1011,0
DA:1012,0
DA:1013,0
DA:1016,0
DA:1017,0
DA:1018,0
DA:1019,0
DA:1026,2190
DA:1036,2190
DA:1037,2190
DA:1038,2190
DA:1039,2190
DA:1040,2190
DA:1041,2190
DA:1042,2190
DA:1045,2190
DA:1047,2189
DA:1048,2189
DA:1052,1
DA:1053,1
DA:1059,7410
DA:1062,5220
DA:1064,5220
DA:1067,5220
DA:1072,0
DA:1076,5220
DA:1078,5220
DA:1082,5220
DA:1087,0
DA:1092,5220
DA:1096,2190
DA:1098,2190
DA:1099,2189
DA:1101,1
DA:1104,2190
DA:1105,2190
DA:1112,377
DA:1122,377
DA:1128,377
DA:1129,377
DA:1130,377
DA:1131,377
DA:1132,377
DA:1133,377
DA:1134,377
DA:1137,377
DA:1139,51
DA:1140,51
DA:1141,51
DA:1142,51
DA:1144,326
DA:1146,326
DA:1147,326
DA:1148,326
DA:1149,326
DA:1153,0
DA:1154,0
DA:1155,0
DA:1156,0
DA:1157,0
DA:1161,377
DA:1163,377
DA:1165,377
DA:1167,377
DA:1169,4654
DA:1171,4277
DA:1172,4277
DA:1174,3900
DA:1179,4654
DA:1182,4277
DA:1185,4277
DA:1186,4277
DA:1187,3900
DA:1192,0
DA:1193,0
DA:1194,0
DA:1197,4277
DA:1201,4277
DA:1202,4277
DA:1203,3900
DA:1208,0
DA:1209,0
DA:1210,0
DA:1213,4277
DA:1216,3900
DA:1219,3523
DA:1224,377
DA:1228,3900
DA:1229,3900
DA:1235,377
DA:1239,4277
DA:1241,4277
DA:1243,3900
DA:1248,377
DA:1249,377
DA:1251,377
DA:1252,377
DA:1253,377
DA:1254,377
DA:1255,377
DA:1262,52
DA:1274,52
DA:1275,52
DA:1276,52
DA:1277,52
DA:1278,52
DA:1279,52
DA:1280,52
DA:1281,52
DA:1283,52
DA:1284,52
DA:1287,52
DA:1289,52
DA:1290,39
DA:1292,52
DA:1295,718
DA:1298,666
DA:1301,666
DA:1302,666
DA:1307,0
DA:1308,0
DA:1311,666
DA:1315,666
DA:1316,666
DA:1321,0
DA:1322,0
DA:1325,52
DA:1326,52
DA:1329,52
DA:1330,52
DA:1333,52
DA:1335,52
DA:1336,39
DA:1337,52
DA:1343,64
DA:1351,64
DA:1353,64
DA:1356,64
DA:1360,0
DA:1361,0
DA:1364,64
DA:1366,64
DA:1371,0
DA:1374,0
DA:1378,0
DA:1381,0
DA:1384,0
DA:1387,0
DA:1388,0
DA:1396,2744
DA:1399,2680
DA:1403,128
DA:1406,64
DA:1408,128
DA:1411,64
DA:1412,64
DA:1416,2808
DA:1418,2744
DA:1421,64
DA:1422,64
LF:577
LH:376
end_of_record
TN:
SF:/workspace/vtr-verilog-to-routing/ODIN_II/SRC/print_netlist.c
FN:37,_Z26print_netlist_for_checkingP11netlist_t_tPc
FN:298,_Z34function_to_print_node_and_its_pinP8npin_t_t
FNDA:0,_Z26print_netlist_for_checkingP11netlist_t_tPc
FNDA:0,_Z34function_to_print_node_and_its_pinP8npin_t_t
FNF:2
FNH:0
DA:37,0
DA:45,0
DA:47,0
DA:48,0
DA:49,0
DA:50,0
DA:51,0
DA:52,0
DA:54,0
DA:56,0
DA:58,0
DA:59,0
DA:60,0
DA:63,0
DA:64,0
DA:66,0
DA:68,0
DA:70,0
DA:71,0
DA:72,0
DA:75,0
DA:76,0
DA:77,0
DA:78,0
DA:80,0
DA:85,0
DA:86,0
DA:87,0
DA:88,0
DA:89,0
DA:90,0
DA:92,0
DA:94,0
DA:96,0
DA:97,0
DA:98,0
DA:100,0
DA:101,0
DA:103,0
DA:105,0
DA:107,0
DA:108,0
DA:109,0
DA:112,0
DA:113,0
DA:114,0
DA:115,0
DA:117,0
DA:121,0
DA:122,0
DA:123,0
DA:124,0
DA:125,0
DA:126,0
DA:128,0
DA:130,0
DA:132,0
DA:133,0
DA:134,0
DA:136,0
DA:137,0
DA:139,0
DA:141,0
DA:143,0
DA:144,0
DA:145,0
DA:148,0
DA:149,0
DA:150,0
DA:151,0
DA:153,0
DA:157,0
DA:158,0
DA:159,0
DA:161,0
DA:162,0
DA:163,0
DA:164,0
DA:165,0
DA:167,0
DA:169,0
DA:171,0
DA:172,0
DA:173,0
DA:175,0
DA:176,0
DA:178,0
DA:180,0
DA:182,0
DA:183,0
DA:184,0
DA:190,0
DA:191,0
DA:192,0
DA:194,0
DA:195,0
DA:196,0
DA:197,0
DA:198,0
DA:200,0
DA:202,0
DA:204,0
DA:205,0
DA:206,0
DA:207,0
DA:208,0
DA:209,0
DA:210,0
DA:211,0
DA:213,0
DA:215,0
DA:217,0
DA:218,0
DA:220,0
DA:222,0
DA:224,0
DA:225,0
DA:226,0
DA:233,0
DA:234,0
DA:235,0
DA:237,0
DA:238,0
DA:239,0
DA:240,0
DA:241,0
DA:243,0
DA:245,0
DA:247,0
DA:248,0
DA:249,0
DA:251,0
DA:252,0
DA:254,0
DA:256,0
DA:258,0
DA:259,0
DA:260,0
DA:265,0
DA:266,0
DA:267,0
DA:269,0
DA:270,0
DA:271,0
DA:272,0
DA:273,0
DA:275,0
DA:277,0
DA:279,0
DA:280,0
DA:281,0
DA:283,0
DA:284,0
DA:286,0
DA:288,0
DA:290,0
DA:291,0
DA:292,0
DA:295,0
DA:298,0
DA:304,0
DA:305,0
DA:307,0
DA:308,0
DA:309,0
DA:311,0
DA:313,0
DA:315,0
DA:316,0
DA:317,0
DA:319,0
DA:320,0
DA:322,0
DA:324,0
DA:326,0
DA:327,0
DA:328,0
DA:331,0
LF:178
LH:0
end_of_record
TN:
SF:/workspace/vtr-verilog-to-routing/ODIN_II/SRC/queue.c
FN:35,_Z12create_queuev
FN:52,_Z16___queue_destroyP9queue_t_t
FN:58,_Z12___queue_addP9queue_t_tPv
FN:76,_Z15___queue_removeP9queue_t_t
FN:96,_Z19___queue_remove_allP9queue_t_t
FN:110,_Z17___queue_is_emptyP9queue_t_t
FNDA:74246,_Z15___queue_removeP9queue_t_t
FNDA:74214,_Z12___queue_addP9queue_t_tPv
FNDA:0,_Z19___queue_remove_allP9queue_t_t
FNDA:74246,_Z17___queue_is_emptyP9queue_t_t
FNDA:16,_Z16___queue_destroyP9queue_t_t
FNDA:16,_Z12create_queuev
FNF:6
FNH:5
DA:35,16
DA:37,16
DA:39,16
DA:40,16
DA:41,16
DA:43,16
DA:44,16
DA:45,16
DA:46,16
DA:47,16
DA:49,16
DA:52,16
DA:54,16
DA:55,16
DA:56,16
DA:58,74214
DA:60,74214
DA:62,74214
DA:63,74214
DA:65,74214
DA:66,74186
DA:68,74214
DA:70,74214
DA:71,28
DA:73,74214
DA:74,74214
DA:76,74246
DA:78,74246
DA:79,74246
DA:81,74214
DA:82,74214
DA:83,74214
DA:84,74214
DA:85,74214
DA:87,74214
DA:89,28
DA:90,28
DA:93,74246
DA:96,0
DA:98,0
DA:99,0
DA:101,0
DA:102,0
DA:104,0
DA:105,0
DA:107,0
DA:110,74246
DA:112,74246
LF:48
LH:40
end_of_record
TN:
SF:/workspace/vtr-verilog-to-routing/ODIN_II/SRC/read_blif.c
FN:137,_Z9read_blifPc
FN:190,_Z11read_tokensPcP17hard_block_modelsP8_IO_FILEP13hashtable_t_t
FN:248,_Z31assign_node_type_from_node_namePc
FN:318,_Z28create_latch_node_and_driverP8_IO_FILEP13hashtable_t_t
FN:429,_Z17search_clock_nameP8_IO_FILE
FN:497,_Z23create_hard_block_nodesP17hard_block_modelsP8_IO_FILEP13hashtable_t_t
FN:649,_Z31create_internal_node_and_driverP8_IO_FILEP13hashtable_t_t
FN:780,_Z30read_bit_map_find_unknown_gateiP9nnode_t_tP8_IO_FILE
FN:1010,_Z19add_top_input_nodesP8_IO_FILEP13hashtable_t_t
FN:1062,_Z26rb_create_top_output_nodesP8_IO_FILE
FN:1103,_Z18rb_look_for_clocksv
FN:1125,_Z25rb_create_top_driver_netsPKcP13hashtable_t_t
FN:1189,_ZL9dum_parsePcP8_IO_FILE
FN:1201,_Z12hook_up_netsP13hashtable_t_t
FN:1224,_Z12hook_up_nodeP9nnode_t_tP13hashtable_t_t
FN:1245,_Z21read_hard_block_modelPcP16hard_block_portsP8_IO_FILE
FN:1345,_ZL28compare_hard_block_pin_namesPKvS0_
FN:1373,_Z11index_namesPPci
FN:1389,_Z15associate_namesPPcS0_i
FN:1405,_Z20get_hard_block_portsPPci
FN:1442,_Z37verify_hard_block_ports_against_modelP16hard_block_portsP16hard_block_model
FN:1497,_Z35generate_hard_block_ports_signatureP16hard_block_ports
FN:1522,_Z24get_hard_block_port_namePc
FN:1539,_Z25get_hard_block_pin_numberPc
FN:1561,_Z20add_hard_block_modelP16hard_block_modelP16hard_block_portsP17hard_block_models
FN:1576,_Z20get_hard_block_modelPcP16hard_block_portsP17hard_block_models
FN:1588,_Z24create_hard_block_modelsv
FN:1602,_Z16count_blif_linesP8_IO_FILE
FN:1620,_Z22free_hard_block_modelsP17hard_block_models
FN:1635,_Z21free_hard_block_modelP16hard_block_model
FN:1649,_Z20free_hard_block_pinsP15hard_block_pins
FN:1663,_Z21free_hard_block_portsP16hard_block_ports
FNDA:1,_Z26rb_create_top_output_nodesP8_IO_FILE
FNDA:1,_Z15associate_namesPPcS0_i
FNDA:1,_Z23create_hard_block_nodesP17hard_block_modelsP8_IO_FILEP13hashtable_t_t
FNDA:5,_Z11index_namesPPci
FNDA:43,_ZL28compare_hard_block_pin_namesPKvS0_
FNDA:0,_Z28create_latch_node_and_driverP8_IO_FILEP13hashtable_t_t
FNDA:3,_Z20get_hard_block_portsPPci
FNDA:1,_Z16count_blif_linesP8_IO_FILE
FNDA:1,_Z12hook_up_netsP13hashtable_t_t
FNDA:128,_Z24get_hard_block_port_namePc
FNDA:1,_Z22free_hard_block_modelsP17hard_block_models
FNDA:1,_Z21free_hard_block_modelP16hard_block_model
FNDA:2,_Z31assign_node_type_from_node_namePc
FNDA:0,_Z17search_clock_nameP8_IO_FILE
FNDA:1,_Z24create_hard_block_modelsv
FNDA:1,_Z20add_hard_block_modelP16hard_block_modelP16hard_block_portsP17hard_block_models
FNDA:1,_Z9read_blifPc
FNDA:2,_Z30read_bit_map_find_unknown_gateiP9nnode_t_tP8_IO_FILE
FNDA:5,_Z31create_internal_node_and_driverP8_IO_FILEP13hashtable_t_t
FNDA:1,_Z18rb_look_for_clocksv
FNDA:1,_Z21read_hard_block_modelPcP16hard_block_portsP8_IO_FILE
FNDA:1,_Z20get_hard_block_modelPcP16hard_block_portsP17hard_block_models
FNDA:2,_Z20free_hard_block_pinsP15hard_block_pins
FNDA:3,_Z21free_hard_block_portsP16hard_block_ports
FNDA:1,_ZL9dum_parsePcP8_IO_FILE
FNDA:3,_Z35generate_hard_block_ports_signatureP16hard_block_ports
FNDA:50,_Z25get_hard_block_pin_numberPc
FNDA:1,_Z19add_top_input_nodesP8_IO_FILEP13hashtable_t_t
FNDA:19,_Z11read_tokensPcP17hard_block_modelsP8_IO_FILEP13hashtable_t_t
FNDA:1,_Z37verify_hard_block_ports_against_modelP16hard_block_portsP16hard_block_model
FNDA:5,_Z12hook_up_nodeP9nnode_t_tP13hashtable_t_t
FNDA:1,_Z25rb_create_top_driver_netsPKcP13hashtable_t_t
FNF:32
FNH:30
DA:137,1
DA:140,1
DA:142,1
DA:144,1
DA:146,1
DA:148,1
DA:150,1
DA:152,1
DA:155,1
DA:157,1
DA:158,1
DA:159,1
DA:160,1
DA:162,1
DA:163,1
DA:165,19
DA:167,18
DA:169,1
DA:171,1
DA:173,1
DA:174,1
DA:177,1
DA:178,1
DA:179,1
DA:180,1
DA:190,19
DA:194,19
DA:196,19
DA:198,13
DA:200,0
DA:204,13
DA:205,13
DA:207,1
DA:209,12
DA:211,1
DA:213,11
DA:215,5
DA:217,6
DA:219,0
DA:221,6
DA:223,1
DA:225,5
DA:229,1
DA:230,1
DA:232,4
DA:235,1
DA:239,18
DA:248,2
DA:252,2
DA:253,12
DA:254,4
DA:256,2
DA:259,2
DA:261,8
DA:263,6
DA:266,2
DA:268,2
DA:269,2
DA:270,2
DA:271,2
DA:272,2
DA:273,2
DA:274,2
DA:275,2
DA:276,2
DA:277,2
DA:278,2
DA:279,2
DA:280,2
DA:281,2
DA:282,2
DA:283,2
DA:284,2
DA:285,2
DA:286,2
DA:287,2
DA:288,2
DA:289,2
DA:290,2
DA:291,2
DA:292,2
DA:293,2
DA:294,2
DA:295,2
DA:296,2
DA:297,2
DA:298,2
DA:299,2
DA:300,2
DA:301,2
DA:302,2
DA:303,2
DA:304,2
DA:305,2
DA:306,2
DA:307,2
DA:308,2
DA:309,2
DA:310,2
DA:318,0
DA:321,0
DA:322,0
DA:326,0
DA:328,0
DA:329,0
DA:331,0
DA:332,0
DA:336,0
DA:339,0
DA:341,0
DA:342,0
DA:343,0
DA:345,0
DA:346,0
DA:348,0
DA:349,0
DA:353,0
DA:357,0
DA:358,0
DA:359,0
DA:369,0
DA:370,0
DA:371,0
DA:372,0
DA:376,0
DA:377,0
DA:380,0
DA:384,0
DA:386,0
DA:390,0
DA:391,0
DA:392,0
DA:393,0
DA:395,0
DA:396,0
DA:397,0
DA:398,0
DA:401,0
DA:404,0
DA:405,0
DA:408,0
DA:409,0
DA:411,0
DA:412,0
DA:413,0
DA:414,0
DA:415,0
DA:417,0
DA:420,0
DA:421,0
DA:422,0
DA:429,0
DA:432,0
DA:433,0
DA:434,0
DA:436,0
DA:437,0
DA:438,0
DA:439,0
DA:442,0
DA:445,0
DA:446,0
DA:449,0
DA:451,0
DA:452,0
DA:454,0
DA:457,0
DA:459,0
DA:460,0
DA:463,0
DA:465,0
DA:468,0
DA:470,0
DA:472,0
DA:473,0
DA:476,0
DA:478,0
DA:480,0
DA:484,0
DA:485,0
DA:487,0
DA:488,0
DA:497,1
DA:500,1
DA:504,1
DA:506,1
DA:507,15
DA:509,14
DA:510,14
DA:514,1
DA:515,1
DA:516,1
DA:517,15
DA:519,14
DA:520,14
DA:524,1
DA:527,1
DA:529,15
DA:530,14
DA:532,1
DA:535,1
DA:539,1
DA:542,1
DA:544,1
DA:547,1
DA:551,1
DA:552,1
DA:555,1
DA:556,1
DA:557,1
DA:558,0
DA:559,1
DA:560,1
DA:561,0
DA:562,0
DA:564,0
DA:565,1
DA:570,1
DA:571,4
DA:572,3
DA:574,1
DA:575,3
DA:576,2
DA:580,1
DA:581,1
DA:582,1
DA:583,1
DA:586,10
DA:588,9
DA:589,9
DA:591,9
DA:592,0
DA:594,9
DA:595,9
DA:596,9
DA:597,9
DA:599,9
DA:603,6
DA:605,5
DA:606,5
DA:608,5
DA:610,5
DA:611,5
DA:612,5
DA:613,5
DA:615,5
DA:617,5
DA:618,5
DA:620,5
DA:623,5
DA:627,1
DA:628,1
DA:629,1
DA:630,1
DA:633,1
DA:634,1
DA:636,1
DA:637,1
DA:638,1
DA:639,1
DA:642,1
DA:649,5
DA:653,5
DA:654,5
DA:656,12
DA:658,7
DA:659,7
DA:663,5
DA:664,5
DA:667,5
DA:668,5
DA:669,4
DA:670,3
DA:673,3
DA:678,2
DA:680,2
DA:682,0
DA:683,0
DA:686,2
DA:688,2
DA:689,2
DA:693,2
DA:695,2
DA:698,2
DA:700,0
DA:701,0
DA:706,4
DA:707,2
DA:713,4
DA:715,2
DA:716,2
DA:717,2
DA:718,2
DA:722,2
DA:724,0
DA:725,0
DA:727,0
DA:728,0
DA:729,0
DA:730,0
DA:733,2
DA:735,0
DA:736,0
DA:738,0
DA:739,0
DA:740,0
DA:741,0
DA:745,2
DA:746,2
DA:749,2
DA:752,2
DA:753,2
DA:757,2
DA:758,2
DA:759,2
DA:761,2
DA:763,2
DA:764,2
DA:766,2
DA:768,2
DA:771,2
DA:773,5
DA:780,2
DA:783,2
DA:784,2
DA:785,2
DA:786,2
DA:788,2
DA:791,0
DA:793,0
DA:794,0
DA:796,0
DA:797,0
DA:798,0
DA:799,0
DA:800,0
DA:803,2
DA:804,2
DA:805,2
DA:809,4
DA:810,4
DA:811,2
DA:813,2
DA:814,2
DA:815,2
DA:816,2
DA:819,2
DA:821,2
DA:822,2
DA:826,0
DA:827,0
DA:830,2
DA:831,2
DA:834,2
DA:837,2
DA:838,0
DA:841,2
DA:842,0
DA:846,4
DA:848,2
DA:850,2
DA:851,2
DA:852,0
DA:853,0
DA:857,0
DA:858,0
DA:861,0
DA:862,0
DA:864,0
DA:865,0
DA:866,0
DA:867,0
DA:871,0
DA:874,0
DA:876,0
DA:878,0
DA:881,0
DA:882,0
DA:883,0
DA:884,0
DA:885,0
DA:887,0
DA:889,0
DA:890,0
DA:891,0
DA:892,0
DA:893,0
DA:895,0
DA:897,0
DA:898,0
DA:899,0
DA:900,0
DA:901,0
DA:903,0
DA:905,0
DA:906,0
DA:907,0
DA:908,0
DA:909,0
DA:911,0
DA:915,0
DA:919,0
DA:921,0
DA:924,0
DA:925,0
DA:926,0
DA:928,0
DA:929,0
DA:933,0
DA:937,0
DA:938,0
DA:941,0
DA:943,0
DA:946,0
DA:947,0
DA:948,0
DA:950,0
DA:954,0
DA:958,0
DA:959,0
DA:963,0
DA:966,0
DA:968,0
DA:969,0
DA:970,0
DA:974,0
DA:976,0
DA:977,0
DA:978,0
DA:985,0
DA:986,0
DA:994,0
DA:995,0
DA:1000,0
DA:1001,0
DA:1002,0
DA:1010,5
DA:1014,5
DA:1016,4
DA:1020,4
DA:1022,4
DA:1023,4
DA:1026,4
DA:1029,4
DA:1030,4
DA:1033,4
DA:1034,4
DA:1035,4
DA:1038,4
DA:1040,4
DA:1041,4
DA:1043,4
DA:1045,4
DA:1046,4
DA:1054,4
DA:1056,1
DA:1062,3
DA:1067,3
DA:1069,2
DA:1074,2
DA:1075,2
DA:1076,2
DA:1079,2
DA:1082,2
DA:1083,2
DA:1086,2
DA:1087,2
DA:1089,2
DA:1093,2
DA:1094,2
DA:1096,1
DA:1103,1
DA:1106,1
DA:1108,0
DA:1110,0
DA:1114,1
DA:1125,1
DA:1132,1
DA:1133,1
DA:1134,1
DA:1135,1
DA:1136,1
DA:1137,1
DA:1138,1
DA:1139,1
DA:1142,1
DA:1143,1
DA:1144,1
DA:1145,1
DA:1146,1
DA:1147,1
DA:1148,1
DA:1149,1
DA:1152,1
DA:1153,1
DA:1154,1
DA:1155,1
DA:1156,1
DA:1157,1
DA:1158,1
DA:1159,1
DA:1162,1
DA:1163,1
DA:1165,1
DA:1167,1
DA:1170,1
DA:1171,1
DA:1173,1
DA:1175,1
DA:1178,1
DA:1179,1
DA:1181,1
DA:1183,1
DA:1184,1
DA:1189,2
DA:1192,2
DA:1193,1
DA:1201,1
DA:1203,1
DA:1204,1
DA:1205,1
DA:1209,4
DA:1212,8
DA:1214,5
DA:1215,5
DA:1218,1
DA:1224,5
DA:1227,18
DA:1229,13
DA:1231,13
DA:1233,13
DA:1234,0
DA:1236,13
DA:1238,5
DA:1245,1
DA:1249,1
DA:1250,1
DA:1255,1
DA:1259,10
DA:1261,10
DA:1263,10
DA:1265,1
DA:1266,1
DA:1267,1
DA:1268,1
DA:1269,1
DA:1271,1
DA:1272,1
DA:1273,1
DA:1276,4
DA:1278,4
DA:1279,4
DA:1282,10
DA:1284,9
DA:1285,9
DA:1288,3
DA:1291,6
DA:1293,5
DA:1294,5
DA:1297,2
DA:1299,1
DA:1302,1
DA:1306,1
DA:1307,0
DA:1310,1
DA:1311,1
DA:1314,1
DA:1315,1
DA:1318,1
DA:1319,1
DA:1322,1
DA:1324,1
DA:1328,0
DA:1330,0
DA:1333,1
DA:1334,1
DA:1336,1
DA:1345,43
DA:1347,43
DA:1348,43
DA:1350,43
DA:1351,43
DA:1352,43
DA:1353,43
DA:1354,43
DA:1357,43
DA:1359,25
DA:1360,25
DA:1361,25
DA:1365,18
DA:1373,5
DA:1375,5
DA:1377,29
DA:1379,24
DA:1380,24
DA:1381,24
DA:1383,5
DA:1389,1
DA:1391,1
DA:1393,15
DA:1394,14
DA:1396,1
DA:1405,3
DA:1408,3
DA:1409,3
DA:1410,3
DA:1411,3
DA:1412,3
DA:1414,31
DA:1416,28
DA:1418,28
DA:1420,10
DA:1421,10
DA:1423,10
DA:1424,10
DA:1425,10
DA:1428,28
DA:1429,28
DA:1432,3
DA:1433,3
DA:1435,3
DA:1442,1
DA:1444,1
DA:1446,3
DA:1448,2
DA:1450,7
DA:1453,5
DA:1454,5
DA:1455,5
DA:1457,5
DA:1460,0
DA:1464,5
DA:1466,5
DA:1469,0
DA:1474,1
DA:1475,1
DA:1477,6
DA:1480,5
DA:1481,5
DA:1482,5
DA:1484,5
DA:1487,0
DA:1491,1
DA:1497,3
DA:1500,3
DA:1502,3
DA:1505,13
DA:1508,10
DA:1509,10
DA:1511,3
DA:1522,128
DA:1524,128
DA:1525,128
DA:1526,128
DA:1528,0
DA:1539,50
DA:1541,50
DA:1542,0
DA:1544,50
DA:1545,50
DA:1547,50
DA:1548,50
DA:1550,50
DA:1551,0
DA:1553,50
DA:1555,50
DA:1561,1
DA:1564,1
DA:1565,1
DA:1566,1
DA:1567,1
DA:1568,1
DA:1569,1
DA:1570,1
DA:1576,1
DA:1579,1
DA:1580,1
DA:1581,1
DA:1582,2
DA:1588,1
DA:1590,1
DA:1591,1
DA:1592,1
DA:1593,1
DA:1595,1
DA:1602,1
DA:1604,1
DA:1606,22
DA:1608,22
DA:1609,1
DA:1610,21
DA:1612,1
DA:1613,1
DA:1620,1
DA:1622,1
DA:1624,2
DA:1625,1
DA:1627,1
DA:1628,1
DA:1629,1
DA:1635,1
DA:1637,1
DA:1638,1
DA:1640,1
DA:1641,1
DA:1643,1
DA:1644,1
DA:1649,16
DA:1651,16
DA:1652,14
DA:1654,2
DA:1656,2
DA:1657,2
DA:1658,2
DA:1663,13
DA:1665,13
DA:1666,10
DA:1668,3
DA:1669,3
DA:1670,3
DA:1672,3
DA:1673,3
DA:1674,3
LF:723
LH:519
end_of_record
TN:
SF:/workspace/vtr-verilog-to-routing/ODIN_II/SRC/read_xml_config_file.c
FN:51,_Z16read_config_filePc
FN:97,_Z18read_verilog_filesN4pugi8xml_nodeEP10config_t_tRKN7pugiloc8loc_dataE
FN:119,_Z12read_outputsN4pugi8xml_nodeEP10config_t_tRKN7pugiloc8loc_dataE
FN:156,_Z19read_debug_switchesN4pugi8xml_nodeEP10config_t_tRKN7pugiloc8loc_dataE
FN:196,_Z33set_default_optimization_settingsP10config_t_t
FN:214,_Z18read_optimizationsN4pugi8xml_nodeEP10config_t_tRKN7pugiloc8loc_dataE
FNDA:0,_Z19read_debug_switchesN4pugi8xml_nodeEP10config_t_tRKN7pugiloc8loc_dataE
FNDA:0,_Z18read_verilog_filesN4pugi8xml_nodeEP10config_t_tRKN7pugiloc8loc_dataE
FNDA:0,_Z33set_default_optimization_settingsP10config_t_t
FNDA:0,_Z18read_optimizationsN4pugi8xml_nodeEP10config_t_tRKN7pugiloc8loc_dataE
FNDA:0,_Z12read_outputsN4pugi8xml_nodeEP10config_t_tRKN7pugiloc8loc_dataE
FNDA:0,_Z16read_config_filePc
FNF:6
FNH:0
DA:51,0
DA:53,0
DA:56,0
DA:58,0
DA:59,0
DA:61,0
DA:62,0
DA:63,0
DA:64,0
DA:68,0
DA:71,0
DA:72,0
DA:75,0
DA:76,0
DA:79,0
DA:80,0
DA:81,0
DA:83,0
DA:87,0
DA:88,0
DA:91,0
DA:97,0
DA:99,0
DA:100,0
DA:102,0
DA:103,0
DA:105,0
DA:107,0
DA:108,0
DA:109,0
DA:111,0
DA:113,0
DA:119,0
DA:121,0
DA:123,0
DA:124,0
DA:126,0
DA:129,0
DA:130,0
DA:132,0
DA:135,0
DA:136,0
DA:138,0
DA:139,0
DA:142,0
DA:144,0
DA:145,0
DA:147,0
DA:150,0
DA:156,0
DA:158,0
DA:160,0
DA:161,0
DA:163,0
DA:166,0
DA:167,0
DA:169,0
DA:172,0
DA:173,0
DA:175,0
DA:178,0
DA:179,0
DA:181,0
DA:184,0
DA:185,0
DA:187,0
DA:190,0
DA:196,0
DA:198,0
DA:199,0
DA:200,0
DA:201,0
DA:202,0
DA:203,0
DA:204,0
DA:205,0
DA:206,0
DA:207,0
DA:208,0
DA:214,0
DA:217,0
DA:219,0
DA:220,0
DA:222,0
DA:223,0
DA:225,0
DA:228,0
DA:230,0
DA:231,0
DA:233,0
DA:236,0
DA:238,0
DA:239,0
DA:241,0
DA:244,0
DA:246,0
DA:247,0
DA:249,0
DA:252,0
DA:255,0
DA:256,0
DA:258,0
DA:259,0
DA:261,0
DA:264,0
DA:266,0
DA:267,0
DA:269,0
DA:270,0
DA:271,0
DA:272,0
DA:274,0
DA:277,0
DA:281,0
DA:282,0
DA:284,0
DA:285,0
DA:287,0
DA:290,0
DA:292,0
DA:293,0
DA:295,0
DA:298,0
DA:300,0
DA:301,0
DA:303,0
DA:306,0
DA:308,0
DA:309,0
DA:311,0
DA:314,0
DA:316,0
DA:317,0
DA:319,0
DA:322,0
DA:325,0
LF:136
LH:0
end_of_record
TN:
SF:/workspace/vtr-verilog-to-routing/ODIN_II/SRC/simulate_blif.c
FN:34,_Z16simulate_netlistP11netlist_t_t
FN:264,_Z14simulate_cycleiP6stages
FN:350,_Z20simulate_first_cycleP11netlist_t_tiP9pin_namesP7lines_t
FN:409,_Z19stage_ordered_nodesPP9nnode_t_ti
FN:495,_Z23compute_and_store_valueP9nnode_t_ti
FN:831,_Z26update_undriven_input_pinsP9nnode_t_ti
FN:874,_Z24flag_undriven_input_pinsP9nnode_t_t
FN:905,_Z21get_num_covered_nodesP6stages
FN:940,_Z21enqueue_node_if_readyP9queue_t_tP9nnode_t_ti
FN:957,_Z16is_node_completeP9nnode_t_ti
FN:970,_Z13is_node_readyP9nnode_t_ti
FN:1025,_Z15get_clock_ratioP9nnode_t_t
FN:1033,_Z15set_clock_ratioiP9nnode_t_t
FN:1047,_Z15get_children_ofP9nnode_t_tPi
FN:1130,_Z25get_children_pinnumber_ofP9nnode_t_tPi
FN:1213,_Z23get_children_of_nodepinP9nnode_t_tPii
FN:1301,_Z16update_pin_valueP8npin_t_tai
FN:1313,_Z13get_pin_valueP8npin_t_ti
FN:1330,_Z17get_values_offseti
FN:1338,_Z13get_pin_cycleP8npin_t_t
FN:1351,_Z13set_pin_cycleP8npin_t_ti
FN:1359,_Z13is_even_cyclei
FN:1374,_Z14initialize_pinP8npin_t_t
FN:1423,_Z13is_clock_nodeP9nnode_t_t
FN:1436,_Z10is_posedgeP8npin_t_ti
FN:1447,_Z21compute_flipflop_nodeP9nnode_t_ti
FN:1467,_Z18compute_mux_2_nodeP9nnode_t_ti
FN:1540,_Z20compute_hard_ip_nodeP9nnode_t_ti
FN:1596,_Z21compute_multiply_nodeP9nnode_t_ti
FN:1642,_Z20compute_generic_nodeP9nnode_t_ti
FN:1682,_Z15multiply_arraysPiiS_i
FN:1712,_Z16compute_add_nodeP9nnode_t_tii
FN:1774,_Z10add_arraysPiiS_iS_ii
FN:1852,_Z22compute_unary_sub_nodeP9nnode_t_ti
FN:1910,_Z16unary_sub_arraysPiiS_i
FN:1937,_Z19compute_memory_nodeP9nnode_t_ti
FN:1951,_Z26compute_single_port_memoryP9nnode_t_ti
FN:2005,_Z24compute_dual_port_memoryP9nnode_t_ti
FN:2075,_Z22compute_memory_addressP15signal_list_t_ti
FN:2095,_Z18instantiate_memoryP9nnode_t_tii
FN:2124,_Z19preprocess_mif_fileP8_IO_FILE
FN:2162,_Z15parse_mif_radixPc
FN:2183,_Z27assign_memory_from_mif_fileP8_IO_FILEPcilPa
FN:2340,_Z19assign_node_to_lineP9nnode_t_tP7lines_tii
FN:2392,_Z20insert_pin_into_lineP8npin_t_tiP6line_ti
FN:2427,_Z12create_linesP11netlist_t_ti
FN:2461,_Z20write_vector_headersP8_IO_FILEP7lines_t
FN:2475,_Z26verify_test_vector_headersP8_IO_FILEP7lines_t
FN:2535,_Z12verify_linesP7lines_t
FN:2557,_Z22find_portname_in_linesPcP7lines_t
FN:2570,_Z11create_linePc
FN:2588,_Z22generate_vector_headerP7lines_t
FN:2617,_Z24add_test_vector_to_linesP11test_vectorP7lines_ti
FN:2645,_Z20compare_test_vectorsP11test_vectorS0_
FN:2682,_Z17parse_test_vectorPc
FN:2751,_Z27generate_random_test_vectorP7lines_tiP13hashtable_t_tS2_
FN:2805,_Z18write_wave_to_fileP7lines_tP8_IO_FILEiii
FN:2822,_Z20write_vector_to_fileP7lines_tP8_IO_FILEi
FN:2901,_Z27write_wave_to_modelsim_fileP11netlist_t_tP7lines_tP8_IO_FILEii
FN:2932,_Z29write_vector_to_modelsim_fileP7lines_tP8_IO_FILEi
FN:2984,_Z21verify_output_vectorsPci
FN:3081,_Z19index_pin_name_listP9pin_names
FN:3099,_Z19parse_pin_name_listPc
FN:3125,_Z29add_additional_items_to_linesP9nnode_t_tP9pin_namesP7lines_t
FN:3206,_Z16get_mif_filenameP9nnode_t_t
FN:3226,_Z11trim_stringPcPKc
FN:3254,_Z20line_has_unknown_pinP6line_ti
FN:3273,_Z18get_line_pin_valueP6line_tii
FN:3282,_Z19vector_value_to_hexPai
FN:3304,_Z18count_test_vectorsP8_IO_FILE
FN:3325,_Z9is_vectorPc
FN:3348,_Z15get_next_vectorP8_IO_FILEPc
FN:3360,_Z10free_linesP7lines_t
FN:3377,_Z11free_stagesP6stages
FN:3389,_Z16free_test_vectorP11test_vector
FN:3401,_Z18free_pin_name_listP9pin_names
FN:3418,_Z18print_progress_bardiid
FN:3460,_Z19print_netlist_statsP6stagesi
FN:3478,_Z22print_simulation_statsP6stagesidd
FN:3494,_Z10print_timed
FN:3507,_Z14print_ancestryP9nnode_t_ti
FN:3598,_Z18print_update_traceP9nnode_t_ti
FN:3688,_Z9wall_timev
FN:3698,_Z20get_circuit_filenamev
FNDA:34,_Z12create_linesP11netlist_t_ti
FNDA:16,_Z19stage_ordered_nodesPP9nnode_t_ti
FNDA:443100,_Z20line_has_unknown_pinP6line_ti
FNDA:48,_Z18free_pin_name_listP9pin_names
FNDA:16000,_Z26compute_single_port_memoryP9nnode_t_ti
FNDA:16,_Z19print_netlist_statsP6stagesi
FNDA:19888800,_Z10is_posedgeP8npin_t_ti
FNDA:74214,_Z29add_additional_items_to_linesP9nnode_t_tP9pin_namesP7lines_t
FNDA:101130,_Z20write_vector_to_fileP7lines_tP8_IO_FILEi
FNDA:17,_Z18count_test_vectorsP8_IO_FILE
FNDA:24000,_Z22compute_memory_addressP15signal_list_t_ti
FNDA:67420,_Z24add_test_vector_to_linesP11test_vectorP7lines_ti
FNDA:33,_Z22generate_vector_headerP7lines_t
FNDA:0,_Z14print_ancestryP9nnode_t_ti
FNDA:168582,_Z16free_test_vectorP11test_vector
FNDA:297040,_Z13is_even_cyclei
FNDA:0,_Z23get_children_of_nodepinP9nnode_t_tPii
FNDA:16,_Z22print_simulation_statsP6stagesidd
FNDA:32,_Z10free_linesP7lines_t
FNDA:1042430000,_Z17get_values_offseti
FNDA:212359,_Z15get_next_vectorP8_IO_FILEPc
FNDA:17,_Z16simulate_netlistP11netlist_t_t
FNDA:17,_Z26verify_test_vector_headersP8_IO_FILEP7lines_t
FNDA:152182000,_Z23compute_and_store_valueP9nnode_t_ti
FNDA:0,_Z15set_clock_ratioiP9nnode_t_t
FNDA:181211,_Z15multiply_arraysPiiS_i
FNDA:0,_Z15get_clock_ratioP9nnode_t_t
FNDA:33710,_Z29write_vector_to_modelsim_fileP7lines_tP8_IO_FILEi
FNDA:16,_Z20get_circuit_filenamev
FNDA:8,_Z18instantiate_memoryP9nnode_t_tii
FNDA:0,_Z20compute_hard_ip_nodeP9nnode_t_ti
FNDA:5805040,_Z10add_arraysPiiS_iS_ii
FNDA:0,_Z20compute_generic_nodeP9nnode_t_ti
FNDA:4302,_Z22find_portname_in_linesPcP7lines_t
FNDA:152185000,_Z13is_clock_nodeP9nnode_t_t
FNDA:67436,_Z20compare_test_vectorsP11test_vectorS0_
FNDA:1476,_Z21enqueue_node_if_readyP9queue_t_tP9nnode_t_ti
FNDA:219180,_Z21compute_multiply_nodeP9nnode_t_ti
FNDA:0,_Z27assign_memory_from_mif_fileP8_IO_FILEPcilPa
FNDA:19872800,_Z21compute_flipflop_nodeP9nnode_t_ti
FNDA:88972,_Z14initialize_pinP8npin_t_t
FNDA:212326,_Z9is_vectorPc
FNDA:182123000,_Z16update_pin_valueP8npin_t_tai
FNDA:67404,_Z14simulate_cycleiP6stages
FNDA:16,_Z21get_num_covered_nodesP6stages
FNDA:8428,_Z18write_wave_to_fileP7lines_tP8_IO_FILEiii
FNDA:168582,_Z17parse_test_vectorPc
FNDA:16,_Z11free_stagesP6stages
FNDA:50,_Z12verify_linesP7lines_t
FNDA:2151,_Z19assign_node_to_lineP9nnode_t_tP7lines_tii
FNDA:0,_Z16unary_sub_arraysPiiS_i
FNDA:48,_Z19parse_pin_name_listPc
FNDA:380908,_Z11trim_stringPcPKc
FNDA:82280,_Z16is_node_completeP9nnode_t_ti
FNDA:4217,_Z18print_progress_bardiid
FNDA:16,_Z21verify_output_vectorsPci
FNDA:0,_Z15parse_mif_radixPc
FNDA:8508960,_Z18get_line_pin_valueP6line_tii
FNDA:283311,_Z13is_node_readyP9nnode_t_ti
FNDA:32,_Z19index_pin_name_listP9pin_names
FNDA:60723600,_Z18compute_mux_2_nodeP9nnode_t_ti
FNDA:1630920,_Z13get_pin_cycleP8npin_t_t
FNDA:152466000,_Z26update_undriven_input_pinsP9nnode_t_ti
FNDA:4214,_Z27write_wave_to_modelsim_fileP11netlist_t_tP7lines_tP8_IO_FILEii
FNDA:0,_Z22compute_unary_sub_nodeP9nnode_t_ti
FNDA:149,_Z11create_linePc
FNDA:8,_Z16get_mif_filenameP9nnode_t_t
FNDA:860411000,_Z13get_pin_valueP8npin_t_ti
FNDA:0,_Z18print_update_traceP9nnode_t_ti
FNDA:16910,_Z9wall_timev
FNDA:283311,_Z24flag_undriven_input_pinsP9nnode_t_t
FNDA:0,_Z19vector_value_to_hexPai
FNDA:148428,_Z15get_children_ofP9nnode_t_tPi
FNDA:16,_Z20simulate_first_cycleP11netlist_t_tiP9pin_namesP7lines_t
FNDA:0,_Z24compute_dual_port_memoryP9nnode_t_ti
FNDA:2151,_Z20insert_pin_into_lineP8npin_t_tiP6line_ti
FNDA:16000,_Z19compute_memory_nodeP9nnode_t_ti
FNDA:32,_Z20write_vector_headersP8_IO_FILEP7lines_t
FNDA:182212000,_Z13set_pin_cycleP8npin_t_ti
FNDA:0,_Z19preprocess_mif_fileP8_IO_FILE
FNDA:836,_Z10print_timed
FNDA:0,_Z27generate_random_test_vectorP7lines_tiP13hashtable_t_tS2_
FNDA:5805040,_Z16compute_add_nodeP9nnode_t_tii
FNDA:0,_Z25get_children_pinnumber_ofP9nnode_t_tPi
FNF:84
FNH:68
DA:34,17
DA:36,17
DA:39,17
DA:40,17
DA:41,0
DA:43,17
DA:44,17
DA:45,0
DA:48,17
DA:49,17
DA:50,0
DA:53,17
DA:54,17
DA:55,0
DA:58,17
DA:59,17
DA:60,0
DA:63,17
DA:64,17
DA:65,0
DA:67,17
DA:70,17
DA:73,17
DA:75,17
DA:76,17
DA:77,0
DA:79,17
DA:82,17
DA:83,1
DA:85,16
DA:90,0
DA:91,0
DA:95,16
DA:99,16
DA:100,0
DA:101,0
DA:103,16
DA:105,0
DA:109,16
DA:111,16
DA:112,16
DA:114,16
DA:115,16
DA:117,16
DA:120,16
DA:121,16
DA:122,16
DA:123,16
DA:129,16
DA:130,16
DA:132,16
DA:133,4230
DA:135,4214
DA:137,4214
DA:138,4214
DA:143,71634
DA:145,67420
DA:147,33710
DA:151,33710
DA:152,0
DA:154,33710
DA:158,0
DA:162,67420
DA:164,67420
DA:165,33710
DA:169,4214
DA:171,4214
DA:173,4214
DA:176,71634
DA:180,67420
DA:182,67404
DA:188,16
DA:189,16
DA:190,16
DA:192,16
DA:193,0
DA:198,4214
DA:201,4214
DA:203,4214
DA:206,4214
DA:207,16
DA:210,4214
DA:211,4198
DA:212,4198
DA:215,16
DA:216,16
DA:217,16
DA:218,16
DA:220,16
DA:221,16
DA:223,16
DA:225,16
DA:226,16
DA:228,16
DA:229,16
DA:231,0
DA:232,16
DA:236,16
DA:238,16
DA:242,16
DA:243,16
DA:245,16
DA:246,16
DA:248,16
DA:249,16
DA:250,16
DA:251,16
DA:252,16
DA:253,16
DA:264,67404
DA:288,1632510
DA:311,153673000
DA:312,152108000
DA:343,67404
DA:350,16
DA:352,16
DA:355,1444
DA:356,1428
DA:359,16
DA:360,16
DA:361,64
DA:362,48
DA:364,16
DA:365,16
DA:368,74230
DA:370,74214
DA:373,74214
DA:376,74214
DA:377,74214
DA:379,356658
DA:381,282444
DA:383,282444
DA:385,72738
DA:386,72738
DA:389,74214
DA:391,74214
DA:394,74214
DA:395,74214
DA:397,16
DA:400,16
DA:401,16
DA:403,16
DA:409,16
DA:410,16
DA:411,16
DA:412,16
DA:413,16
DA:414,16
DA:415,16
DA:416,16
DA:417,16
DA:419,16
DA:422,16
DA:423,16
DA:426,74230
DA:428,74214
DA:429,74214
DA:433,74214
DA:436,74214
DA:439,74214
DA:441,74214
DA:442,349392
DA:443,275875
DA:444,0
DA:447,74214
DA:449,697
DA:450,697
DA:451,697
DA:452,697
DA:453,697
DA:454,697
DA:455,697
DA:457,697
DA:458,697
DA:460,697
DA:461,697
DA:465,74214
DA:466,74214
DA:469,74214
DA:472,356658
DA:473,282444
DA:476,74214
DA:478,74214
DA:480,74214
DA:482,16
DA:483,16
DA:485,16
DA:486,16
DA:488,16
DA:495,152182000
DA:497,152182000
DA:499,152182000
DA:501,152182000
DA:503,60723600
DA:504,60723600
DA:505,60723600
DA:506,19872800
DA:507,19872800
DA:508,19872800
DA:509,16000
DA:510,16000
DA:511,16000
DA:512,219180
DA:513,219180
DA:514,219180
DA:515,4468420
DA:517,4468420
DA:518,4468420
DA:519,4468420
DA:521,8412200
DA:523,6788480
DA:525,6788480
DA:526,6584780
DA:528,4468420
DA:529,1623710
DA:530,1538570
DA:531,4468420
DA:533,10132700
DA:535,10132700
DA:536,10132700
DA:537,10132700
DA:539,27440400
DA:541,21273500
DA:543,21273500
DA:544,20959800
DA:546,10132700
DA:547,6166920
DA:548,6120120
DA:549,10132700
DA:551,240
DA:553,240
DA:554,240
DA:555,240
DA:557,416
DA:559,354
DA:561,354
DA:562,354
DA:564,240
DA:565,62
DA:566,62
DA:567,240
DA:569,18595800
DA:572,18595800
DA:573,18595800
DA:574,18595800
DA:576,35016400
DA:578,18613900
DA:580,18613900
DA:581,18479900
DA:583,18595800
DA:584,16402500
DA:585,16278500
DA:586,18595800
DA:588,0
DA:590,0
DA:591,0
DA:593,0
DA:594,0
DA:595,0
DA:597,0
DA:598,0
DA:599,0
DA:600,0
DA:602,0
DA:604,0
DA:606,8522960
DA:608,8522960
DA:609,8522960
DA:611,8522960
DA:612,8522960
DA:613,8522960
DA:615,8522960
DA:616,45999
DA:617,8476960
DA:618,509510
DA:620,7967450
DA:622,8522960
DA:624,40000
DA:626,40000
DA:627,40000
DA:629,40000
DA:630,40000
DA:631,40000
DA:633,40000
DA:634,0
DA:635,40000
DA:636,35118
DA:637,30964
DA:638,22350
DA:639,21136
DA:641,20008
DA:643,19992
DA:645,40000
DA:647,20000
DA:649,20000
DA:650,20000
DA:652,20000
DA:653,20000
DA:654,20000
DA:656,20000
DA:657,0
DA:658,20000
DA:659,0
DA:660,20000
DA:662,4882
DA:664,15118
DA:666,20000
DA:668,8891200
DA:671,8891200
DA:672,8891200
DA:673,8891200
DA:675,26592400
DA:677,17741800
DA:679,17741800
DA:680,17701200
DA:682,8891200
DA:683,8850600
DA:684,6989640
DA:685,8891200
DA:687,10173000
DA:690,10173000
DA:691,10173000
DA:692,10173000
DA:694,30192300
DA:696,20182600
DA:698,20182600
DA:699,20019300
DA:701,10173000
DA:702,10009700
DA:703,5720420
DA:704,10173000
DA:706,0
DA:708,0
DA:709,0
DA:711,0
DA:713,0
DA:714,0
DA:715,0
DA:716,0
DA:718,27360
DA:721,54720
DA:723,27360
DA:724,27360
DA:726,67420
DA:727,67420
DA:728,67420
DA:729,67420
DA:730,67420
DA:731,67420
DA:732,67420
DA:733,67420
DA:734,67420
DA:735,67420
DA:736,67420
DA:737,67420
DA:738,3042720
DA:739,3042720
DA:740,1429200
DA:741,1429200
DA:742,1429200
DA:743,1429200
DA:744,1429200
DA:745,0
DA:746,0
DA:747,0
DA:748,0
DA:749,0
DA:750,0
DA:752,1868920
DA:753,1868920
DA:754,1868920
DA:755,3936120
DA:756,3936120
DA:757,3936120
DA:759,0
DA:760,3936120
DA:762,0
DA:781,0
DA:782,0
DA:788,334305000
DA:789,182123000
DA:790,11541200
DA:798,334305000
DA:799,182123000
DA:801,23145100
DA:804,23145100
DA:807,23145100
DA:808,5193440
DA:812,23145100
DA:813,2211370
DA:815,23145100
DA:819,152182000
DA:831,152466000
DA:834,152466000
DA:836,0
DA:837,0
DA:841,152466000
DA:843,356658
DA:845,282444
DA:846,282444
DA:852,0
DA:853,0
DA:856,0
DA:859,0
DA:868,152466000
DA:874,283311
DA:877,5391550
DA:879,5108240
DA:881,5108240
DA:883,0
DA:885,0
DA:887,0
DA:888,0
DA:891,0
DA:893,0
DA:894,0
DA:896,0
DA:900,283311
DA:905,16
DA:907,16
DA:909,729
DA:912,74927
DA:918,74214
DA:920,74214
DA:921,120497
DA:923,79658
DA:925,33375
DA:926,33375
DA:930,74214
DA:931,40839
DA:934,16
DA:940,1476
DA:942,1476
DA:944,1476
DA:945,1476
DA:946,1476
DA:950,0
DA:957,82280
DA:960,91822
DA:961,82280
DA:962,72738
DA:964,9542
DA:970,283311
DA:972,283311
DA:974,283311
DA:975,283311
DA:978,283311
DA:980,19237
DA:981,19237
DA:983,19237
DA:985,19237
DA:986,19237
DA:988,0
DA:990,264074
DA:993,448
DA:995,440
DA:997,440
DA:998,440
DA:999,432
DA:1002,16
DA:1003,0
DA:1007,424
DA:1008,112
DA:1015,1291790
DA:1016,1227280
DA:1017,199443
DA:1019,83756
DA:1025,0
DA:1027,0
DA:1033,0
DA:1036,0
DA:1037,0
DA:1039,0
DA:1047,148428
DA:1049,148428
DA:1050,148428
DA:1052,326372
DA:1054,177944
DA:1055,177944
DA:1056,177944
DA:1062,173098
DA:1064,0
DA:1065,0
DA:1066,0
DA:1068,0
DA:1077,0
DA:1078,0
DA:1081,0
DA:1082,0
DA:1083,0
DA:1087,853006
DA:1089,679908
DA:1090,679908
DA:1092,564888
DA:1095,564888
DA:1097,0
DA:1098,0
DA:1100,564888
DA:1102,0
DA:1103,0
DA:1106,564888
DA:1108,0
DA:1109,0
DA:1114,564888
DA:1115,564888
DA:1121,148428
DA:1122,148428
DA:1130,0
DA:1132,0
DA:1133,0
DA:1135,0
DA:1137,0
DA:1138,0
DA:1139,0
DA:1145,0
DA:1147,0
DA:1148,0
DA:1149,0
DA:1151,0
DA:1160,0
DA:1161,0
DA:1164,0
DA:1165,0
DA:1166,0
DA:1170,0
DA:1172,0
DA:1173,0
DA:1175,0
DA:1178,0
DA:1180,0
DA:1181,0
DA:1183,0
DA:1185,0
DA:1186,0
DA:1189,0
DA:1191,0
DA:1192,0
DA:1197,0
DA:1198,0
DA:1204,0
DA:1205,0
DA:1213,0
DA:1215,0
DA:1216,0
DA:1217,0
DA:1218,0
DA:1220,0
DA:1221,0
DA:1224,0
DA:1225,0
DA:1226,0
DA:1232,0
DA:1234,0
DA:1235,0
DA:1236,0
DA:1238,0
DA:1247,0
DA:1248,0
DA:1251,0
DA:1252,0
DA:1253,0
DA:1257,0
DA:1259,0
DA:1260,0
DA:1262,0
DA:1265,0
DA:1267,0
DA:1268,0
DA:1270,0
DA:1272,0
DA:1273,0
DA:1276,0
DA:1278,0
DA:1279,0
DA:1284,0
DA:1285,0
DA:1291,0
DA:1292,0
DA:1301,182123000
DA:1303,182123000
DA:1304,88972
DA:1306,182123000
DA:1307,182123000
DA:1308,182123000
DA:1313,860411000
DA:1315,860411000
DA:1319,100076
DA:1320,0
DA:1322,100076
DA:1324,860311000
DA:1330,1042430000
DA:1332,1042430000
DA:1338,1630920
DA:1340,1630920
DA:1341,282004
DA:1343,1348920
DA:1351,182212000
DA:1353,182212000
DA:1354,182212000
DA:1359,297040
DA:1361,297040
DA:1374,88972
DA:1377,88972
DA:1378,0
DA:1381,88972
DA:1382,0
DA:1384,88972
DA:1386,86549
DA:1387,86549
DA:1390,426503
DA:1392,339954
DA:1393,339954
DA:1395,302806
DA:1396,302806
DA:1402,2423
DA:1403,2423
DA:1407,1512520
DA:1411,1423550
DA:1412,0
DA:1414,1423550
DA:1417,88972
DA:1423,152185000
DA:1426,152185000
DA:1427,152185000
DA:1428,152185000
DA:1436,19888800
DA:1438,19888800
DA:1439,9944400
DA:1441,9944400
DA:1447,19872800
DA:1449,19872800
DA:1450,19872800
DA:1452,19872800
DA:1453,19872800
DA:1454,19872800
DA:1457,19872800
DA:1458,9936400
DA:1461,9936400
DA:1462,19872800
DA:1467,60723600
DA:1469,60723600
DA:1470,60723600
DA:1471,60723600
DA:1473,60723600
DA:1476,60723600
DA:1477,60723600
DA:1478,60723600
DA:1480,239591000
DA:1482,178867000
DA:1483,178867000
DA:1485,178867000
DA:1486,2590730
DA:1487,176276000
DA:1488,59935200
DA:1494,178867000
DA:1495,52113600
DA:1499,60723600
DA:1501,541127
DA:1502,541127
DA:1505,60723600
DA:1508,60723600
DA:1514,117351
DA:1515,23764
DA:1517,93587
DA:1520,60606200
DA:1522,129935
DA:1526,60476300
DA:1527,60476300
DA:1533,60476300
DA:1535,60723600
DA:1540,0
DA:1542,0
DA:1543,0
DA:1545,0
DA:1546,0
DA:1548,0
DA:1550,0
DA:1552,0
DA:1553,0
DA:1556,0
DA:1558,0
DA:1560,0
DA:1561,0
DA:1564,0
DA:1567,0
DA:1569,0
DA:1570,0
DA:1571,0
DA:1574,0
DA:1576,0
DA:1580,0
DA:1581,0
DA:1583,0
DA:1584,0
DA:1586,0
DA:1587,0
DA:1589,0
DA:1590,0
DA:1591,0
DA:1596,219180
DA:1598,219180
DA:1599,219180
DA:1602,219180
DA:1603,6504680
DA:1605,6323470
DA:1606,6323470
DA:1608,37969
DA:1609,37969
DA:1613,219180
DA:1615,693892
DA:1616,655923
DA:1620,181211
DA:1621,181211
DA:1623,3270790
DA:1624,3089580
DA:1626,3375230
DA:1627,3194020
DA:1629,181211
DA:1631,6464810
DA:1632,6283600
DA:1634,181211
DA:1635,181211
DA:1636,181211
DA:1639,219180
DA:1642,0
DA:1644,0
DA:1645,0
DA:1647,0
DA:1648,0
DA:1649,0
DA:1651,0
DA:1653,0
DA:1656,0
DA:1658,0
DA:1660,0
DA:1661,0
DA:1664,0
DA:1665,0
DA:1668,0
DA:1671,0
DA:1672,0
DA:1682,181211
DA:1684,181211
DA:1685,181211
DA:1688,3270790
DA:1690,3089580
DA:1693,18478100
DA:1694,17787700
DA:1697,6464810
DA:1699,9901250
DA:1701,3617650
DA:1702,3617650
DA:1705,181211
DA:1712,5805040
DA:1714,5805040
DA:1715,5805040
DA:1718,5805040
DA:1720,5805040
DA:1721,5805040
DA:1722,5805040
DA:1724,5805040
DA:1727,5805040
DA:1729,1295480
DA:1730,433420
DA:1731,862060
DA:1732,862060
DA:1735,4509560
DA:1737,29025200
DA:1738,23220200
DA:1739,29025200
DA:1740,23220200
DA:1742,11610100
DA:1744,5805040
DA:1745,862060
DA:1747,4942980
DA:1748,433420
DA:1750,4509560
DA:1752,5805040
DA:1755,29025200
DA:1756,23220200
DA:1758,5805040
DA:1760,5805040
DA:1761,5805040
DA:1762,5805040
DA:1763,5805040
DA:1765,5805040
DA:1774,5805040
DA:1776,5805040
DA:1777,5805040
DA:1784,5805040
DA:1786,71390
DA:1787,71390
DA:1791,5733650
DA:1792,5733650
DA:1795,5805040
DA:1796,5805040
DA:1797,23220200
DA:1799,17415100
DA:1801,299193
DA:1802,299193
DA:1806,17115900
DA:1807,17115900
DA:1809,17415100
DA:1811,5805040
DA:1813,5805040
DA:1815,0
DA:1817,0
DA:1818,0
DA:1822,0
DA:1823,0
DA:1825,0
DA:1830,0
DA:1832,0
DA:1834,0
DA:1835,0
DA:1838,0
DA:1839,0
DA:1841,0
DA:1845,5805040
DA:1852,0
DA:1854,0
DA:1855,0
DA:1858,0
DA:1859,0
DA:1861,0
DA:1862,0
DA:1864,0
DA:1865,0
DA:1869,0
DA:1871,0
DA:1872,0
DA:1876,0
DA:1877,0
DA:1879,0
DA:1880,0
DA:1882,0
DA:1883,0
DA:1884,0
DA:1886,0
DA:1888,0
DA:1891,0
DA:1892,0
DA:1894,0
DA:1896,0
DA:1897,0
DA:1898,0
DA:1901,0
DA:1910,0
DA:1912,0
DA:1913,0
DA:1918,0
DA:1919,0
DA:1920,0
DA:1922,0
DA:1923,0
DA:1924,0
DA:1926,0
DA:1927,0
DA:1928,0
DA:1931,0
DA:1937,16000
DA:1939,16000
DA:1940,16000
DA:1941,0
DA:1942,0
DA:1944,0
DA:1946,16000
DA:1951,16000
DA:1953,16000
DA:1955,16000
DA:1957,16000
DA:1958,8
DA:1961,16000
DA:1963,8000
DA:1964,8000
DA:1965,8000
DA:1968,16000
DA:1971,8000
DA:1974,8000
DA:1975,0
DA:1982,16000
DA:1983,16000
DA:1986,32000
DA:1989,16000
DA:1992,16000
DA:1993,0
DA:1995,16000
DA:1999,16000
DA:2000,16000
DA:2005,0
DA:2007,0
DA:2008,0
DA:2010,0
DA:2011,0
DA:2014,0
DA:2016,0
DA:2017,0
DA:2019,0
DA:2020,0
DA:2022,0
DA:2023,0
DA:2026,0
DA:2029,0
DA:2030,0
DA:2033,0
DA:2034,0
DA:2036,0
DA:2037,0
DA:2043,0
DA:2044,0
DA:2046,0
DA:2047,0
DA:2050,0
DA:2053,0
DA:2054,0
DA:2057,0
DA:2058,0
DA:2060,0
DA:2062,0
DA:2063,0
DA:2065,0
DA:2069,0
DA:2070,0
DA:2075,24000
DA:2077,24000
DA:2079,24000
DA:2082,24000
DA:2083,24000
DA:2085,0
DA:2088,0
DA:2095,8
DA:2097,8
DA:2098,8
DA:2102,131080
DA:2103,131072
DA:2105,8
DA:2107,8
DA:2108,8
DA:2110,8
DA:2114,0
DA:2115,0
DA:2117,8
DA:2118,8
DA:2124,0
DA:2126,0
DA:2127,0
DA:2128,0
DA:2131,0
DA:2132,0
DA:2135,0
DA:2137,0
DA:2140,0
DA:2143,0
DA:2144,0
DA:2146,0
DA:2147,0
DA:2152,0
DA:2153,0
DA:2156,0
DA:2158,0
DA:2159,0
DA:2162,0
DA:2164,0
DA:2166,0
DA:2167,0
DA:2168,0
DA:2169,0
DA:2170,0
DA:2171,0
DA:2172,0
DA:2173,0
DA:2175,0
DA:2179,0
DA:2183,0
DA:2185,0
DA:2186,0
DA:2188,0
DA:2191,0
DA:2192,0
DA:2193,0
DA:2195,0
DA:2196,0
DA:2197,0
DA:2199,0
DA:2201,0
DA:2203,0
DA:2205,0
DA:2207,0
DA:2210,0
DA:2213,0
DA:2214,0
DA:2217,0
DA:2218,0
DA:2221,0
DA:2222,0
DA:2224,0
DA:2226,0
DA:2229,0
DA:2230,0
DA:2232,0
DA:2233,0
DA:2235,0
DA:2236,0
DA:2238,0
DA:2239,0
DA:2242,0
DA:2246,0
DA:2247,0
DA:2251,0
DA:2261,0
DA:2262,0
DA:2264,0
DA:2265,0
DA:2268,0
DA:2269,0
DA:2270,0
DA:2272,0
DA:2277,0
DA:2278,0
DA:2279,0
DA:2280,0
DA:2281,0
DA:2282,0
DA:2286,0
DA:2287,0
DA:2288,0
DA:2289,0
DA:2290,0
DA:2291,0
DA:2295,0
DA:2296,0
DA:2297,0
DA:2298,0
DA:2300,0
DA:2301,0
DA:2304,0
DA:2305,0
DA:2309,0
DA:2313,0
DA:2318,0
DA:2320,0
DA:2323,0
DA:2324,0
DA:2325,0
DA:2328,0
DA:2329,0
DA:2331,0
DA:2333,0
DA:2334,0
DA:2340,2151
DA:2343,2151
DA:2345,732
DA:2346,732
DA:2347,732
DA:2351,2151
DA:2353,2151
DA:2354,2114
DA:2357,37
DA:2358,37
DA:2361,2151
DA:2362,2151
DA:2364,2151
DA:2366,37
DA:2368,0
DA:2373,37
DA:2374,37
DA:2375,37
DA:2376,37
DA:2381,2114
DA:2382,0
DA:2385,2114
DA:2387,2151
DA:2392,2151
DA:2395,2151
DA:2396,2151
DA:2400,65235
DA:2402,63084
DA:2406,0
DA:2408,0
DA:2409,0
DA:2411,0
DA:2415,2151
DA:2416,2151
DA:2417,2151
DA:2418,2151
DA:2419,2151
DA:2427,34
DA:2429,34
DA:2430,34
DA:2431,34
DA:2433,34
DA:2434,34
DA:2437,2198
DA:2439,2164
DA:2440,2164
DA:2442,2164
DA:2444,2151
DA:2446,149
DA:2447,149
DA:2448,149
DA:2450,2151
DA:2452,2164
DA:2454,34
DA:2461,32
DA:2463,32
DA:2464,32
DA:2465,32
DA:2466,32
DA:2467,32
DA:2475,17
DA:2477,17
DA:2478,17
DA:2482,17
DA:2483,17
DA:2484,0
DA:2488,17
DA:2490,600
DA:2492,600
DA:2494,600
DA:2496,0
DA:2497,0
DA:2499,600
DA:2501,94
DA:2503,94
DA:2505,1
DA:2506,1
DA:2510,1
DA:2511,1
DA:2515,93
DA:2516,93
DA:2520,93
DA:2521,93
DA:2525,506
DA:2526,506
DA:2529,16
DA:2535,50
DA:2538,252
DA:2541,3083
DA:2543,2881
DA:2545,0
DA:2546,0
DA:2550,50
DA:2557,4302
DA:2560,21506
DA:2561,21357
DA:2562,4153
DA:2564,149
DA:2570,149
DA:2572,149
DA:2574,149
DA:2575,149
DA:2576,149
DA:2577,149
DA:2578,149
DA:2580,149
DA:2582,149
DA:2588,33
DA:2590,33
DA:2591,33
DA:2594,181
DA:2597,148
DA:2598,0
DA:2600,148
DA:2601,148
DA:2603,33
DA:2607,0
DA:2609,33
DA:2610,33
DA:2617,67420
DA:2619,67420
DA:2620,0
DA:2621,67420
DA:2622,0
DA:2625,396260
DA:2627,328840
DA:2629,328840
DA:2630,0
DA:2633,3371560
DA:2635,3042720
DA:2636,0
DA:2639,67420
DA:2645,67436
DA:2647,67436
DA:2649,0
DA:2650,0
DA:2654,181749
DA:2657,1658480
DA:2658,1544170
DA:2659,0
DA:2666,114313
DA:2668,0
DA:2670,0
DA:2671,0
DA:2672,0
DA:2675,67436
DA:2682,168582
DA:2684,168582
DA:2685,168582
DA:2686,168582
DA:2687,168582
DA:2688,168582
DA:2690,168582
DA:2692,168582
DA:2693,168582
DA:2694,561628
DA:2696,393046
DA:2697,393046
DA:2698,393046
DA:2699,393046
DA:2701,393046
DA:2703,262656
DA:2704,262656
DA:2705,262656
DA:2707,1187360
DA:2709,924702
DA:2711,924702
DA:2713,4623510
DA:2715,3698810
DA:2716,3698810
DA:2718,1950180
DA:2719,1950180
DA:2721,3698810
DA:2722,3698810
DA:2724,262656
DA:2729,1131280
DA:2731,1000890
DA:2732,1000890
DA:2733,946680
DA:2735,1000890
DA:2736,1000890
DA:2739,393046
DA:2740,393046
DA:2742,168582
DA:2743,168582
DA:2751,0
DA:2753,0
DA:2754,0
DA:2755,0
DA:2756,0
DA:2759,0
DA:2761,0
DA:2762,0
DA:2763,0
DA:2764,0
DA:2767,0
DA:2769,0
DA:2771,0
DA:2773,0
DA:2774,0
DA:2776,0
DA:2778,0
DA:2779,0
DA:2784,0
DA:2785,0
DA:2787,0
DA:2790,0
DA:2791,0
DA:2793,0
DA:2795,0
DA:2805,8428
DA:2807,8428
DA:2808,32
DA:2811,143268
DA:2813,134840
DA:2814,101130
DA:2816,8428
DA:2822,101130
DA:2826,379810
DA:2828,278680
DA:2829,278680
DA:2831,278680
DA:2833,97982
DA:2834,0
DA:2836,97982
DA:2839,97982
DA:2840,630849
DA:2842,532867
DA:2844,532867
DA:2845,0
DA:2848,532867
DA:2850,455390
DA:2853,77477
DA:2854,77477
DA:2865,180698
DA:2866,0
DA:2868,180698
DA:2870,180698
DA:2872,2598390
DA:2874,2417690
DA:2876,2417690
DA:2877,0
DA:2879,2417690
DA:2881,2417690
DA:2883,655561
DA:2884,655561
DA:2893,278680
DA:2895,101130
DA:2896,101130
DA:2901,4214
DA:2903,4214
DA:2905,16
DA:2909,1444
DA:2911,1428
DA:2912,1428
DA:2914,13
DA:2915,13
DA:2916,13
DA:2922,71634
DA:2924,67420
DA:2925,33710
DA:2927,4214
DA:2932,33710
DA:2935,198130
DA:2937,164420
DA:2939,65680
DA:2942,131360
DA:2944,65680
DA:2946,65680
DA:2947,65680
DA:2949,65680
DA:2953,98740
DA:2954,98740
DA:2957,1554420
DA:2959,1455680
DA:2960,724663
DA:2962,1455680
DA:2964,386420
DA:2965,386420
DA:2968,98740
DA:2972,33710
DA:2984,16
DA:2986,16
DA:2987,16
DA:2989,16
DA:2992,16
DA:2994,0
DA:2995,0
DA:3003,16
DA:3004,16
DA:3007,16
DA:3008,16
DA:3014,67452
DA:3016,67436
DA:3018,0
DA:3019,0
DA:3020,0
DA:3022,67436
DA:3024,0
DA:3025,0
DA:3026,0
DA:3029,67436
DA:3031,0
DA:3032,0
DA:3039,0
DA:3044,67436
DA:3045,67436
DA:3048,67436
DA:3050,0
DA:3051,0
DA:3052,0
DA:3053,0
DA:3059,67436
DA:3060,67436
DA:3065,16
DA:3067,0
DA:3068,0
DA:3071,16
DA:3072,16
DA:3074,16
DA:3081,32
DA:3083,32
DA:3085,32
DA:3087,0
DA:3088,0
DA:3089,0
DA:3091,32
DA:3099,48
DA:3101,48
DA:3102,48
DA:3103,48
DA:3106,48
DA:3108,0
DA:3109,0
DA:3110,0
DA:3112,0
DA:3113,0
DA:3114,0
DA:3116,0
DA:3118,48
DA:3125,74214
DA:3127,74214
DA:3129,0
DA:3130,0
DA:3133,0
DA:3135,0
DA:3137,0
DA:3139,0
DA:3141,0
DA:3143,0
DA:3144,0
DA:3147,0
DA:3150,0
DA:3152,0
DA:3154,0
DA:3156,0
DA:3157,0
DA:3160,0
DA:3165,0
DA:3167,0
DA:3169,0
DA:3171,0
DA:3172,0
DA:3177,0
DA:3179,0
DA:3181,0
DA:3184,0
DA:3185,0
DA:3187,0
DA:3189,0
DA:3191,0
DA:3192,0
DA:3193,0
DA:3195,0
DA:3196,0
DA:3200,74214
DA:3206,8
DA:3209,8
DA:3210,8
DA:3212,8
DA:3213,8
DA:3214,0
DA:3216,8
DA:3218,8
DA:3219,8
DA:3226,380908
DA:3228,380908
DA:3231,896716
DA:3232,896716
DA:3234,2888740
DA:3236,2507840
DA:3238,515808
DA:3239,515808
DA:3240,515808
DA:3244,896716
DA:3245,380908
DA:3248,380908
DA:3254,443100
DA:3256,443100
DA:3258,4459630
DA:3260,4037040
DA:3262,20505
DA:3263,20505
DA:3266,443100
DA:3273,8508960
DA:3275,8508960
DA:3282,0
DA:3285,0
DA:3287,0
DA:3288,0
DA:3290,0
DA:3292,0
DA:3294,0
DA:3296,0
DA:3298,0
DA:3304,17
DA:3306,17
DA:3308,17
DA:3310,43744
DA:3311,43727
DA:3313,17
DA:3314,17
DA:3316,17
DA:3318,17
DA:3325,212326
DA:3327,212326
DA:3328,212326
DA:3330,212326
DA:3332,212326
DA:3333,212326
DA:3337,0
DA:3338,0
DA:3348,212359
DA:3350,212359
DA:3351,212326
DA:3352,212326
DA:3354,33
DA:3360,32
DA:3363,178
DA:3365,146
DA:3366,146
DA:3367,146
DA:3370,32
DA:3371,32
DA:3372,32
DA:3377,729
DA:3379,729
DA:3380,713
DA:3381,16
DA:3382,16
DA:3383,16
DA:3384,16
DA:3389,561628
DA:3391,561628
DA:3392,393046
DA:3393,168582
DA:3394,168582
DA:3395,168582
DA:3396,168582
DA:3401,48
DA:3403,48
DA:3404,0
DA:3406,48
DA:3407,48
DA:3408,48
DA:3418,4217
DA:3420,4217
DA:3422,787
DA:3424,787
DA:3427,20476
DA:3428,19689
DA:3430,787
DA:3432,20448
DA:3433,19661
DA:3435,787
DA:3437,770
DA:3438,770
DA:3439,770
DA:3443,17
DA:3444,17
DA:3447,787
DA:3449,787
DA:3450,17
DA:3452,787
DA:3454,4217
DA:3460,16
DA:3462,16
DA:3464,16
DA:3465,16
DA:3466,16
DA:3467,16
DA:3471,16
DA:3473,16
DA:3478,16
DA:3480,16
DA:3481,16
DA:3482,16
DA:3483,16
DA:3484,16
DA:3485,16
DA:3486,16
DA:3487,16
DA:3488,16
DA:3489,16
DA:3494,836
DA:3496,836
DA:3497,836
DA:3498,836
DA:3499,836
DA:3500,661
DA:3501,836
DA:3507,0
DA:3509,0
DA:3511,0
DA:3512,0
DA:3514,0
DA:3515,0
DA:3516,0
DA:3518,0
DA:3520,0
DA:3521,0
DA:3522,0
DA:3524,0
DA:3526,0
DA:3527,0
DA:3528,0
DA:3529,0
DA:3530,0
DA:3531,0
DA:3532,0
DA:3580,0
DA:3583,0
DA:3585,0
DA:3586,0
DA:3587,0
DA:3598,0
DA:3601,0
DA:3602,0
DA:3613,0
DA:3616,0
DA:3618,0
DA:3619,0
DA:3621,0
DA:3623,0
DA:3625,0
DA:3626,0
DA:3627,0
DA:3629,0
DA:3630,0
DA:3631,0
DA:3632,0
DA:3633,0
DA:3636,0
DA:3638,0
DA:3639,0
DA:3640,0
DA:3643,0
DA:3644,0
DA:3647,0
DA:3649,0
DA:3650,0
DA:3652,0
DA:3654,0
DA:3655,0
DA:3656,0
DA:3658,0
DA:3661,0
DA:3662,0
DA:3663,0
DA:3666,0
DA:3668,0
DA:3669,0
DA:3670,0
DA:3671,0
DA:3680,0
DA:3681,0
DA:3682,0
DA:3688,16910
DA:3691,16910
DA:3692,16910
DA:3698,16
DA:3700,16
LF:1631
LH:1027
end_of_record
TN:
SF:/workspace/vtr-verilog-to-routing/ODIN_II/SRC/string_cache.c
FN:10,_Z11string_hashP12STRING_CACHEPKc
FN:24,_Z16generate_sc_hashP12STRING_CACHE
FN:48,_Z19sc_new_string_cachev
FN:67,_Z16sc_lookup_stringP12STRING_CACHEPKc
FN:89,_Z13sc_add_stringP12STRING_CACHEPKc
FN:128,_Z11sc_valid_idP12STRING_CACHEl
FN:139,_Z11sc_do_allocll
FN:160,_Z20sc_free_string_cacheP12STRING_CACHE
FNDA:670,_Z16generate_sc_hashP12STRING_CACHE
FNDA:608660,_Z16sc_lookup_stringP12STRING_CACHEPKc
FNDA:0,_Z11sc_valid_idP12STRING_CACHEl
FNDA:267,_Z20sc_free_string_cacheP12STRING_CACHE
FNDA:168707,_Z13sc_add_stringP12STRING_CACHEPKc
FNDA:514,_Z19sc_new_string_cachev
FNDA:917619,_Z11string_hashP12STRING_CACHEPKc
FNDA:3194,_Z11sc_do_allocll
FNF:8
FNH:7
DA:10,917619
DA:15,917619
DA:16,917619
DA:17,917619
DA:18,37766800
DA:19,36849200
DA:20,917619
DA:24,670
DA:29,670
DA:30,156
DA:31,670
DA:32,156
DA:33,670
DA:34,670
DA:35,670
DA:36,670
DA:37,670
DA:38,186000
DA:40,185330
DA:41,185330
DA:42,185330
DA:44,670
DA:48,514
DA:52,514
DA:53,514
DA:54,514
DA:55,514
DA:56,514
DA:57,514
DA:58,514
DA:59,514
DA:60,514
DA:61,514
DA:62,514
DA:63,514
DA:67,608660
DA:72,608660
DA:73,13997
DA:76,594663
DA:77,594663
DA:78,699552
DA:80,468388
DA:81,363499
DA:82,104889
DA:84,231164
DA:89,168707
DA:96,168707
DA:97,168707
DA:98,31081
DA:99,137626
DA:101,156
DA:103,156
DA:104,156
DA:105,156
DA:106,156
DA:107,156
DA:109,156
DA:110,156
DA:111,156
DA:112,156
DA:113,156
DA:115,156
DA:117,137626
DA:118,137626
DA:119,137626
DA:120,137626
DA:121,137626
DA:122,137626
DA:123,137626
DA:124,137626
DA:128,0
DA:131,0
DA:132,0
DA:133,0
DA:134,0
DA:135,0
DA:139,3194
DA:144,3194
DA:145,0
DA:146,3194
DA:147,0
DA:148,3194
DA:149,3194
DA:151,0
DA:154,0
DA:155,0
DA:157,3194
DA:160,267
DA:164,267
DA:165,16625
DA:166,16358
DA:167,16358
DA:168,267
DA:169,267
DA:170,267
DA:173,267
DA:175,267
DA:177,267
DA:178,267
DA:180,267
DA:182,267
DA:183,267
DA:185,267
DA:186,267
DA:187,267
LF:105
LH:94
end_of_record
TN:
SF:/workspace/vtr-verilog-to-routing/ODIN_II/SRC/subtractions.c
FN:58,_Z23report_sub_distributionv
FN:83,_Z26declare_hard_adder_for_subP9nnode_t_t
FN:121,_Z34instantiate_hard_adder_subtractionP9nnode_t_tsP11netlist_t_t
FN:163,_Z24init_split_adder_for_subP9nnode_t_tS0_iiiiiiii
FN:360,_Z19split_adder_for_subP9nnode_t_tiiiiiiiP11netlist_t_t
FN:660,_Z22iterate_adders_for_subP11netlist_t_t
FN:731,_Z20clean_adders_for_subv
FNDA:2007,_Z34instantiate_hard_adder_subtractionP9nnode_t_tsP11netlist_t_t
FNDA:2007,_Z26declare_hard_adder_for_subP9nnode_t_t
FNDA:17,_Z20clean_adders_for_subv
FNDA:2007,_Z24init_split_adder_for_subP9nnode_t_tS0_iiiiiiii
FNDA:17,_Z23report_sub_distributionv
FNDA:17,_Z22iterate_adders_for_subP11netlist_t_t
FNDA:432,_Z19split_adder_for_subP9nnode_t_tiiiiiiiP11netlist_t_t
FNF:7
FNH:7
DA:58,17
DA:60,17
DA:61,1
DA:63,16
DA:64,16
DA:65,16
DA:66,16
DA:68,16
DA:69,16
DA:71,16
DA:72,16
DA:74,16
DA:75,16
DA:77,16
DA:83,2007
DA:89,2007
DA:91,0
DA:93,2007
DA:94,2007
DA:95,2007
DA:96,2007
DA:98,2007
DA:100,2001
DA:101,2001
DA:103,0
DA:107,6
DA:108,6
DA:109,6
DA:110,6
DA:111,6
DA:112,6
DA:113,6
DA:114,6
DA:115,6
DA:121,2007
DA:126,2007
DA:129,2007
DA:130,2007
DA:131,2007
DA:134,2007
DA:135,0
DA:137,2007
DA:139,2007
DA:140,0
DA:143,12042
DA:145,10035
DA:147,8879
DA:148,8879
DA:149,8879
DA:150,8879
DA:154,2007
DA:155,2007
DA:163,2007
DA:166,2007
DA:168,2007
DA:169,2007
DA:172,2007
DA:173,2007
DA:174,2007
DA:175,2007
DA:178,2007
DA:180,2007
DA:181,2007
DA:182,2007
DA:183,1831
DA:184,176
DA:186,0
DA:187,0
DA:191,176
DA:192,176
DA:193,176
DA:195,2007
DA:199,0
DA:200,0
DA:202,0
DA:203,0
DA:204,0
DA:206,0
DA:211,2007
DA:212,2007
DA:213,2007
DA:214,2007
DA:215,2007
DA:216,2007
DA:217,2007
DA:218,2007
DA:221,2007
DA:222,0
DA:224,2007
DA:227,2007
DA:228,2007
DA:231,2007
DA:233,105
DA:234,84
DA:236,1986
DA:238,0
DA:239,0
DA:241,1986
DA:243,170
DA:245,0
DA:246,0
DA:248,0
DA:250,0
DA:251,0
DA:252,0
DA:254,0
DA:255,0
DA:260,574
DA:262,404
DA:263,404
DA:264,404
DA:266,446
DA:267,276
DA:272,1816
DA:274,425
DA:276,425
DA:277,425
DA:279,1700
DA:281,1275
DA:282,1275
DA:283,1275
DA:289,0
DA:291,0
DA:292,0
DA:293,0
DA:299,1391
DA:301,6955
DA:303,5564
DA:304,5564
DA:305,5564
DA:310,0
DA:311,0
DA:313,0
DA:314,0
DA:315,0
DA:321,10035
DA:322,8028
DA:325,4014
DA:327,2007
DA:332,2007
DA:333,0
DA:335,2007
DA:337,2007
DA:338,2007
DA:339,12042
DA:340,10035
DA:342,2007
DA:360,432
DA:366,432
DA:367,432
DA:370,432
DA:372,425
DA:373,425
DA:377,7
DA:378,7
DA:381,432
DA:382,432
DA:384,7736
DA:386,7304
DA:387,7304
DA:388,7243
DA:390,61
DA:393,2439
DA:395,2007
DA:396,2007
DA:397,2007
DA:398,2007
DA:400,432
DA:401,0
DA:404,432
DA:406,0
DA:407,0
DA:411,432
DA:412,432
DA:415,432
DA:417,432
DA:418,432
DA:422,0
DA:423,0
DA:428,1575
DA:431,2007
DA:434,432
DA:436,432
DA:437,432
DA:439,0
DA:440,432
DA:441,432
DA:442,432
DA:444,432
DA:446,0
DA:450,0
DA:452,0
DA:453,0
DA:454,0
DA:456,0
DA:458,0
DA:459,0
DA:460,0
DA:463,0
DA:468,432
DA:470,432
DA:471,0
DA:473,432
DA:474,1728
DA:478,1296
DA:480,4
DA:481,4
DA:482,4
DA:484,1292
DA:486,2
DA:487,2
DA:488,2
DA:491,1290
DA:495,2007
DA:497,1575
DA:498,1575
DA:499,1143
DA:501,7583
DA:503,6008
DA:507,0
DA:509,0
DA:510,0
DA:511,0
DA:513,0
DA:515,0
DA:516,0
DA:517,0
DA:520,0
DA:526,6008
DA:528,20
DA:529,20
DA:530,20
DA:532,5988
DA:534,0
DA:535,0
DA:536,0
DA:539,5988
DA:545,432
DA:548,432
DA:549,432
DA:551,432
DA:552,432
DA:556,432
DA:557,0
DA:559,432
DA:563,2439
DA:565,2007
DA:566,18063
DA:568,16056
DA:570,645
DA:571,54
DA:573,591
DA:579,2007
DA:580,1575
DA:582,432
DA:584,0
DA:586,0
DA:587,0
DA:590,0
DA:592,0
DA:598,1728
DA:600,1296
DA:601,1296
DA:604,0
DA:606,0
DA:611,432
DA:614,2007
DA:616,7875
DA:618,6300
DA:619,6008
DA:622,292
DA:624,292
DA:629,432
DA:631,432
DA:637,432
DA:638,432
DA:639,432
DA:642,432
DA:643,432
DA:644,432
DA:645,432
DA:646,432
DA:647,432
DA:660,17
DA:669,17
DA:670,1
DA:674,16
DA:675,16
DA:676,16
DA:678,16
DA:680,448
DA:682,432
DA:683,432
DA:685,432
DA:686,432
DA:688,432
DA:689,432
DA:690,425
DA:692,7
DA:693,432
DA:695,432
DA:698,432
DA:699,256
DA:701,176
DA:703,432
DA:704,256
DA:706,176
DA:708,432
DA:709,432
DA:711,0
DA:712,432
DA:714,432
DA:718,0
DA:722,16
DA:731,17
DA:733,17
DA:734,0
DA:735,3008
DA:736,2991
DA:737,17
LF:320
LH:247
end_of_record
TN:
SF:/workspace/vtr-verilog-to-routing/ODIN_II/SRC/verilog_bison.c
FN:1445,_ZL21yy_symbol_value_printP8_IO_FILEiPK7YYSTYPE
FN:1466,_ZL15yy_symbol_printP8_IO_FILEiPK7YYSTYPE
FN:1481,_ZL14yy_stack_printPsS_
FN:1504,_ZL15yy_reduce_printPsP7YYSTYPEi
FN:1604,_ZL9yytnamerrPcPKc
FN:1655,_ZL14yysyntax_errorPlPPcPsi
FN:1794,_ZL10yydestructPKciP7YYSTYPE
FN:1823,_Z7yyparsev
FNDA:0,_ZL21yy_symbol_value_printP8_IO_FILEiPK7YYSTYPE
FNDA:0,_ZL15yy_reduce_printPsP7YYSTYPEi
FNDA:34,_ZL10yydestructPKciP7YYSTYPE
FNDA:0,_ZL15yy_symbol_printP8_IO_FILEiPK7YYSTYPE
FNDA:0,_ZL14yy_stack_printPsS_
FNDA:17,_Z7yyparsev
FNDA:0,_ZL9yytnamerrPcPKc
FNDA:0,_ZL14yysyntax_errorPlPPcPsi
FNF:8
FNH:2
DA:1445,0
DA:1447,0
DA:1449,0
DA:1450,0
DA:1466,0
DA:1468,0
DA:1469,0
DA:1471,0
DA:1472,0
DA:1473,0
DA:1481,0
DA:1483,0
DA:1484,0
DA:1486,0
DA:1487,0
DA:1489,0
DA:1490,0
DA:1504,0
DA:1506,0
DA:1507,0
DA:1509,0
DA:1512,0
DA:1514,0
DA:1515,0
DA:1516,0
DA:1517,0
DA:1519,0
DA:1521,0
DA:1604,0
DA:1606,0
DA:1608,0
DA:1609,0
DA:1612,0
DA:1614,0
DA:1616,0
DA:1618,0
DA:1619,0
DA:1620,0
DA:1622,0
DA:1624,0
DA:1626,0
DA:1627,0
DA:1628,0
DA:1629,0
DA:1631,0
DA:1632,0
DA:1633,0
DA:1634,0
DA:1636,0
DA:1639,0
DA:1640,0
DA:1642,0
DA:1655,0
DA:1660,0
DA:1665,0
DA:1667,0
DA:1692,0
DA:1694,0
DA:1695,0
DA:1696,0
DA:1697,0
DA:1698,0
DA:1703,0
DA:1705,0
DA:1706,0
DA:1709,0
DA:1710,0
DA:1713,0
DA:1715,0
DA:1716,0
DA:1717,0
DA:1719,0
DA:1722,0
DA:1723,0
DA:1724,0
DA:1726,0
DA:1732,0
DA:1738,0
DA:1739,0
DA:1740,0
DA:1741,0
DA:1742,0
DA:1743,0
DA:1744,0
DA:1751,0
DA:1752,0
DA:1753,0
DA:1755,0
DA:1758,0
DA:1760,0
DA:1761,0
DA:1763,0
DA:1764,0
DA:1771,0
DA:1772,0
DA:1773,0
DA:1774,0
DA:1776,0
DA:1777,0
DA:1781,0
DA:1782,0
DA:1785,0
DA:1794,34
DA:1797,34
DA:1798,0
DA:1799,34
DA:1804,34
DA:1823,17
DA:1851,17
DA:1859,17
DA:1860,17
DA:1867,17
DA:1869,17
DA:1870,17
DA:1871,17
DA:1873,17
DA:1875,17
DA:1876,17
DA:1877,17
DA:1878,17
DA:1879,17
DA:1885,225523
DA:1888,225523
DA:1894,225540
DA:1895,225540
DA:1898,225540
DA:1901,225540
DA:1907,0
DA:1930,0
DA:1931,0
DA:1932,0
DA:1933,0
DA:1934,0
DA:1937,0
DA:1939,0
DA:1941,0
DA:1942,0
DA:1943,0
DA:1944,0
DA:1946,0
DA:1947,0
DA:1951,0
DA:1952,0
DA:1955,0
DA:1959,0
DA:1960,0
DA:1964,225540
DA:1965,17
DA:1967,225523
DA:1973,225523
DA:1978,225523
DA:1979,225523
DA:1980,88601
DA:1985,136922
DA:1987,101952
DA:1988,101952
DA:1991,136922
DA:1993,34
DA:1994,34
DA:1998,136888
DA:1999,136888
DA:2004,136922
DA:2005,136922
DA:2006,31625
DA:2007,105297
DA:2008,105297
DA:2012,3345
DA:2013,3345
DA:2018,101952
DA:2019,0
DA:2022,101952
DA:2023,101952
DA:2025,101952
DA:2029,101952
DA:2030,101952
DA:2036,120226
DA:2037,120226
DA:2038,120226
DA:2039,0
DA:2040,120226
DA:2046,123571
DA:2048,123571
DA:2058,123571
DA:2061,123571
DA:2062,123571
DA:2064,17
DA:2068,17
DA:2070,36
DA:2083,36
DA:2085,0
DA:2089,0
DA:2091,17
DA:2095,17
DA:2097,0
DA:2101,0
DA:2103,0
DA:2107,0
DA:2109,53
DA:2113,53
DA:2115,0
DA:2119,0
DA:2121,0
DA:2125,0
DA:2127,7672
DA:2131,7672
DA:2133,53
DA:2137,53
DA:2139,1
DA:2143,1
DA:2145,624
DA:2149,624
DA:2151,256
DA:2155,256
DA:2157,0
DA:2161,0
DA:2163,3547
DA:2167,3547
DA:2169,0
DA:2173,0
DA:2175,2706
DA:2179,2706
DA:2181,0
DA:2185,0
DA:2187,41
DA:2191,41
DA:2193,0
DA:2197,0
DA:2199,0
DA:2203,0
DA:2205,550
DA:2209,550
DA:2211,0
DA:2215,0
DA:2217,0
DA:2221,0
DA:2223,0
DA:2227,0
DA:2229,0
DA:2233,0
DA:2235,0
DA:2239,0
DA:2241,0
DA:2245,0
DA:2247,0
DA:2251,0
DA:2253,0
DA:2257,0
DA:2259,0
DA:2263,0
DA:2265,0
DA:2269,0
DA:2271,0
DA:2275,0
DA:2277,0
DA:2281,0
DA:2283,0
DA:2287,0
DA:2289,0
DA:2293,0
DA:2295,0
DA:2299,0
DA:2301,1
DA:2305,1
DA:2307,0
DA:2311,0
DA:2313,624
DA:2317,624
DA:2319,256
DA:2323,256
DA:2325,0
DA:2329,0
DA:2331,2679
DA:2335,2679
DA:2337,868
DA:2341,868
DA:2343,0
DA:2347,0
DA:2349,0
DA:2353,0
DA:2355,0
DA:2359,0
DA:2361,0
DA:2365,0
DA:2367,991
DA:2371,991
DA:2373,0
DA:2377,0
DA:2379,4481
DA:2383,4481
DA:2385,0
DA:2389,0
DA:2391,0
DA:2395,0
DA:2397,1986
DA:2401,1986
DA:2403,3474
DA:2407,3474
DA:2409,0
DA:2413,0
DA:2415,0
DA:2419,0
DA:2421,12
DA:2425,12
DA:2427,0
DA:2431,0
DA:2433,0
DA:2437,0
DA:2439,0
DA:2443,0
DA:2445,2706
DA:2449,2706
DA:2451,0
DA:2455,0
DA:2457,2706
DA:2461,2706
DA:2463,0
DA:2467,0
DA:2469,0
DA:2473,0
DA:2475,0
DA:2479,0
DA:2481,0
DA:2485,0
DA:2487,0
DA:2491,0
DA:2493,0
DA:2497,0
DA:2499,0
DA:2503,0
DA:2505,0
DA:2509,0
DA:2511,0
DA:2515,0
DA:2517,0
DA:2521,0
DA:2523,0
DA:2527,0
DA:2529,0
DA:2533,0
DA:2535,0
DA:2539,0
DA:2541,0
DA:2545,0
DA:2547,0
DA:2551,0
DA:2553,0
DA:2557,0
DA:2559,0
DA:2563,0
DA:2565,41
DA:2569,41
DA:2571,0
DA:2575,0
DA:2577,41
DA:2581,41
DA:2583,0
DA:2587,0
DA:2589,0
DA:2593,0
DA:2595,41
DA:2599,41
DA:2601,0
DA:2605,0
DA:2607,0
DA:2611,0
DA:2613,0
DA:2617,0
DA:2619,0
DA:2623,0
DA:2625,0
DA:2629,0
DA:2631,712
DA:2635,712
DA:2637,41
DA:2641,41
DA:2643,51
DA:2647,51
DA:2649,702
DA:2653,702
DA:2655,0
DA:2659,0
DA:2661,0
DA:2665,0
DA:2667,0
DA:2671,0
DA:2673,0
DA:2677,0
DA:2679,550
DA:2683,550
DA:2685,0
DA:2689,0
DA:2691,392
DA:2695,392
DA:2697,200
DA:2701,200
DA:2703,2103
DA:2707,2103
DA:2709,827
DA:2713,827
DA:2715,661
DA:2719,661
DA:2721,15
DA:2725,15
DA:2727,0
DA:2731,0
DA:2733,0
DA:2737,0
DA:2739,0
DA:2743,0
DA:2745,0
DA:2749,0
DA:2751,0
DA:2755,0
DA:2757,0
DA:2761,0
DA:2763,2906
DA:2767,2906
DA:2769,0
DA:2773,0
DA:2775,2103
DA:2779,2103
DA:2781,0
DA:2785,0
DA:2787,0
DA:2791,0
DA:2793,306
DA:2797,306
DA:2799,15
DA:2803,15
DA:2805,320
DA:2809,320
DA:2811,1
DA:2815,1
DA:2817,392
DA:2821,392
DA:2823,786
DA:2827,786
DA:2829,392
DA:2833,392
DA:2835,550
DA:2839,550
DA:2841,0
DA:2845,0
DA:2847,9
DA:2851,9
DA:2853,0
DA:2857,0
DA:2859,550
DA:2863,550
DA:2865,7
DA:2869,7
DA:2871,550
DA:2875,550
DA:2877,2
DA:2881,2
DA:2883,28297
DA:2887,28297
DA:2889,0
DA:2893,0
DA:2895,7
DA:2899,7
DA:2901,158
DA:2905,158
DA:2907,1
DA:2911,1
DA:2913,6
DA:2917,6
DA:2919,0
DA:2923,0
DA:2925,1
DA:2929,1
DA:2931,0
DA:2935,0
DA:2937,29
DA:2941,29
DA:2943,0
DA:2947,0
DA:2949,558
DA:2953,558
DA:2955,0
DA:2959,0
DA:2961,96
DA:2965,96
DA:2967,0
DA:2971,0
DA:2973,0
DA:2977,0
DA:2979,330
DA:2983,330
DA:2985,530
DA:2989,530
DA:2991,120
DA:2995,120
DA:2997,44
DA:3001,44
DA:3003,1
DA:3007,1
DA:3009,1
DA:3013,1
DA:3015,1
DA:3019,1
DA:3021,287
DA:3025,287
DA:3027,38
DA:3031,38
DA:3033,38
DA:3037,38
DA:3039,0
DA:3043,0
DA:3045,1817
DA:3049,1817
DA:3051,1
DA:3055,1
DA:3057,39
DA:3061,39
DA:3063,13
DA:3067,13
DA:3069,0
DA:3073,0
DA:3075,0
DA:3079,0
DA:3081,227
DA:3085,227
DA:3087,16
DA:3091,16
DA:3093,515
DA:3097,515
DA:3099,0
DA:3103,0
DA:3105,721
DA:3109,721
DA:3111,0
DA:3115,0
DA:3117,14705
DA:3121,14705
DA:3123,13552
DA:3127,13552
DA:3129,3518
DA:3133,3518
DA:3135,164
DA:3139,164
DA:3141,1386
DA:3145,1386
DA:3147,65
DA:3151,65
DA:3153,1321
DA:3157,1321
DA:3159,2024
DA:3163,2024
DA:3165,1321
DA:3169,1321
DA:3174,0
DA:3187,123571
DA:3189,123571
DA:3190,123571
DA:3191,123571
DA:3193,123571
DA:3199,123571
DA:3200,123571
DA:3201,111510
DA:3202,190717
DA:3203,56425
DA:3206,123571
DA:3212,0
DA:3215,0
DA:3218,0
DA:3220,0
DA:3227,0
DA:3229,0
DA:3230,0
DA:3231,0
DA:3232,0
DA:3234,0
DA:3235,0
DA:3236,0
DA:3237,0
DA:3239,0
DA:3240,0
DA:3241,0
DA:3245,0
DA:3246,0
DA:3249,0
DA:3250,0
DA:3251,0
DA:3259,0
DA:3264,0
DA:3267,0
DA:3268,0
DA:3272,0
DA:3274,0
DA:3280,0
DA:3304,0
DA:3305,0
DA:3309,0
DA:3310,0
DA:3312,0
DA:3313,0
DA:3315,0
DA:3316,0
DA:3317,0
DA:3322,0
DA:3323,0
DA:3326,0
DA:3327,0
DA:3328,0
DA:3329,0
DA:3330,0
DA:3334,0
DA:3339,0
DA:3341,0
DA:3342,0
DA:3348,17
DA:3349,17
DA:3350,17
DA:3356,0
DA:3357,0
DA:3358,0
DA:3365,0
DA:3366,0
DA:3367,0
DA:3375,17
DA:3376,17
DA:3380,0
DA:3381,0
DA:3386,17
DA:3387,17
DA:3388,51
DA:3390,34
DA:3391,34
DA:3392,34
DA:3395,17
DA:3396,0
DA:3399,17
DA:3400,0
DA:3402,17
LF:635
LH:266
end_of_record
TN:
SF:/workspace/vtr-verilog-to-routing/ODIN_II/SRC/verilog_bison.y
FN:47,_Z7yyerrorPKc
FN:54,_Z6yywrapv
FNDA:0,_Z6yywrapv
FNDA:0,_Z7yyerrorPKc
FNF:2
FNH:0
DA:47,0
DA:49,0
DA:50,0
DA:54,0
DA:56,0
DA:128,17
DA:132,36
DA:134,36
DA:138,0
DA:141,0
DA:142,17
DA:143,0
DA:146,0
DA:150,53
DA:151,0
DA:152,0
DA:155,7672
DA:156,53
DA:159,1
DA:160,624
DA:161,256
DA:162,0
DA:163,3547
DA:164,0
DA:165,2706
DA:166,0
DA:167,41
DA:168,0
DA:169,0
DA:170,550
DA:171,0
DA:172,0
DA:177,0
DA:181,0
DA:185,0
DA:188,0
DA:189,0
DA:192,0
DA:193,0
DA:194,0
DA:195,0
DA:196,0
DA:197,0
DA:198,0
DA:201,0
DA:204,1
DA:207,0
DA:210,624
DA:213,256
DA:216,0
DA:219,2679
DA:220,868
DA:222,0
DA:224,0
DA:226,0
DA:227,0
DA:229,991
DA:230,0
DA:231,4481
DA:234,0
DA:235,0
DA:237,1986
DA:238,3474
DA:239,0
DA:241,0
DA:243,12
DA:246,0
DA:248,0
DA:251,0
DA:254,2706
DA:256,0
DA:257,2706
DA:261,0
DA:262,0
DA:263,0
DA:264,0
DA:265,0
DA:266,0
DA:267,0
DA:271,0
DA:272,0
DA:274,0
DA:275,0
DA:277,0
DA:278,0
DA:282,0
DA:283,0
DA:288,0
DA:289,0
DA:293,41
DA:298,0
DA:299,41
DA:302,0
DA:307,0
DA:309,41
DA:310,0
DA:311,0
DA:312,0
DA:314,0
DA:315,0
DA:317,712
DA:318,41
DA:321,51
DA:322,702
DA:325,0
DA:326,0
DA:329,0
DA:330,0
DA:334,550
DA:337,0
DA:338,392
DA:339,200
DA:340,2103
DA:341,827
DA:342,661
DA:343,15
DA:344,0
DA:345,0
DA:346,0
DA:349,0
DA:350,0
DA:353,0
DA:355,2906
DA:356,0
DA:359,2103
DA:360,0
DA:363,0
DA:364,306
DA:365,15
DA:368,320
DA:369,1
DA:372,392
DA:375,786
DA:376,392
DA:379,550
DA:380,0
DA:384,9
DA:385,0
DA:386,550
DA:389,7
DA:390,550
DA:391,2
DA:394,28297
DA:395,0
DA:396,7
DA:397,158
DA:398,1
DA:399,6
DA:400,0
DA:401,1
DA:402,0
DA:403,29
DA:404,0
DA:405,558
DA:406,0
DA:407,96
DA:408,0
DA:409,0
DA:410,330
DA:411,530
DA:412,120
DA:413,44
DA:414,1
DA:415,1
DA:416,1
DA:417,287
DA:418,38
DA:419,38
DA:420,0
DA:421,1817
DA:422,1
DA:423,39
DA:424,13
DA:425,0
DA:426,0
DA:427,227
DA:428,16
DA:429,515
DA:430,0
DA:431,721
DA:432,0
DA:435,14705
DA:436,13552
DA:437,3518
DA:438,164
DA:439,1386
DA:442,65
DA:443,1321
DA:445,2024
DA:446,1321
LF:190
LH:91
end_of_record
TN:
SF:/workspace/vtr-verilog-to-routing/ODIN_II/SRC/verilog_flex.c
FN:872,_Z5yylexv
FN:1528,_ZL18yy_get_next_bufferv
FN:1666,_ZL21yy_get_previous_statev
FN:1698,_ZL16yy_try_NUL_transi
FN:1723,_ZL7yyunputiPc
FN:1764,_ZL7yyinputv
FN:1841,_Z9yyrestartP8_IO_FILE
FN:1858,_Z19yy_switch_to_bufferP15yy_buffer_state
FN:1889,_ZL20yy_load_buffer_statev
FN:1903,_Z16yy_create_bufferP8_IO_FILEi
FN:1931,_Z16yy_delete_bufferP15yy_buffer_state
FN:1950,_ZL14yy_init_bufferP15yy_buffer_stateP8_IO_FILE
FN:1978,_Z15yy_flush_bufferP15yy_buffer_state
FN:2007,_Z19yypush_buffer_stateP15yy_buffer_state
FN:2037,_Z18yypop_buffer_statev
FN:2056,_ZL21yyensure_buffer_stackv
FN:2105,_Z14yy_scan_bufferPcm
FN:2142,_Z14yy_scan_stringPKc
FN:2155,_Z13yy_scan_bytesPKci
FN:2189,_ZL14yy_fatal_errorPKc
FN:2217,_Z12yyget_linenov
FN:2226,_Z8yyget_inv
FN:2234,_Z9yyget_outv
FN:2242,_Z10yyget_lengv
FN:2251,_Z10yyget_textv
FN:2260,_Z12yyset_linenoi
FN:2272,_Z8yyset_inP8_IO_FILE
FN:2277,_Z9yyset_outP8_IO_FILE
FN:2282,_Z11yyget_debugv
FN:2287,_Z11yyset_debugi
FN:2292,_ZL15yy_init_globalsv
FN:2321,_Z13yylex_destroyv
FN:2367,_Z7yyallocm
FN:2372,_Z9yyreallocPvm
FN:2385,_Z6yyfreePv
FNDA:17,_ZL21yyensure_buffer_stackv
FNDA:0,_Z11yyget_debugv
FNDA:0,_Z8yyset_inP8_IO_FILE
FNDA:0,_ZL7yyinputv
FNDA:0,_Z18yypop_buffer_statev
FNDA:0,_ZL14yy_fatal_errorPKc
FNDA:0,_Z14yy_scan_bufferPcm
FNDA:0,_Z19yypush_buffer_stateP15yy_buffer_state
FNDA:0,_Z11yyset_debugi
FNDA:17,_Z9yyrestartP8_IO_FILE
FNDA:0,_Z14yy_scan_stringPKc
FNDA:17,_Z16yy_create_bufferP8_IO_FILEi
FNDA:0,_Z9yyget_outv
FNDA:68,_ZL18yy_get_next_bufferv
FNDA:0,_Z19yy_switch_to_bufferP15yy_buffer_state
FNDA:0,_ZL15yy_init_globalsv
FNDA:0,_Z10yyget_lengv
FNDA:0,_Z13yylex_destroyv
FNDA:0,_Z16yy_delete_bufferP15yy_buffer_state
FNDA:0,_Z9yyreallocPvm
FNDA:51,_ZL21yy_get_previous_statev
FNDA:0,_ZL7yyunputiPc
FNDA:34,_ZL14yy_init_bufferP15yy_buffer_stateP8_IO_FILE
FNDA:0,_Z9yyset_outP8_IO_FILE
FNDA:0,_Z10yyget_textv
FNDA:0,_ZL16yy_try_NUL_transi
FNDA:0,_Z12yyset_linenoi
FNDA:51,_Z7yyallocm
FNDA:0,_Z8yyget_inv
FNDA:0,_Z6yyfreePv
FNDA:0,_Z12yyget_linenov
FNDA:0,_Z13yy_scan_bytesPKci
FNDA:34,_Z15yy_flush_bufferP15yy_buffer_state
FNDA:51,_ZL20yy_load_buffer_statev
FNDA:101952,_Z5yylexv
FNF:35
FNH:10
DA:872,101952
DA:878,101952
DA:880,17
DA:886,17
DA:887,17
DA:889,17
DA:890,0
DA:892,17
DA:893,17
DA:895,17
DA:896,17
DA:897,34
DA:898,17
DA:901,17
DA:914,154873
DA:917,154873
DA:922,154873
DA:924,154873
DA:925,419494
DA:926,264570
DA:928,419494
DA:929,419494
DA:931,260945
DA:932,260945
DA:934,656471
DA:936,236977
DA:937,236977
DA:938,146042
DA:940,419494
DA:941,419494
DA:943,419494
DA:945,154924
DA:946,154924
DA:947,154924
DA:949,90935
DA:950,90935
DA:951,90935
DA:954,154924
DA:956,154941
DA:958,154941
DA:960,0
DA:962,0
DA:963,0
DA:964,0
DA:965,0
DA:967,550
DA:1387,17
DA:1389,17
DA:1391,68
DA:1394,68
DA:1397,68
DA:1400,68
DA:1411,17
DA:1412,17
DA:1413,17
DA:1423,68
DA:1427,0
DA:1429,0
DA:1440,0
DA:1442,0
DA:1444,0
DA:1447,0
DA:1448,0
DA:1449,0
DA:1454,0
DA:1455,0
DA:1459,68
DA:1461,17
DA:1463,17
DA:1476,17
DA:1478,17
DA:1479,17
DA:1490,51
DA:1491,51
DA:1492,51
DA:1494,51
DA:1496,51
DA:1497,51
DA:1498,51
DA:1500,0
DA:1501,0
DA:1502,0
DA:1504,0
DA:1506,0
DA:1507,0
DA:1508,0
DA:1510,0
DA:1513,0
DA:1514,0
DA:1515,52921
DA:1517,52921
DA:1528,68
DA:1530,68
DA:1531,68
DA:1535,68
DA:1536,0
DA:1539,68
DA:1541,0
DA:1546,0
DA:1554,0
DA:1561,68
DA:1563,152
DA:1564,84
DA:1566,68
DA:1570,0
DA:1574,68
DA:1575,68
DA:1577,68
DA:1581,0
DA:1583,0
DA:1584,0
DA:1586,0
DA:1588,0
DA:1590,0
DA:1591,0
DA:1593,0
DA:1595,0
DA:1597,0
DA:1598,0
DA:1602,0
DA:1604,0
DA:1605,0
DA:1608,0
DA:1610,0
DA:1615,68
DA:1616,68
DA:1619,68
DA:1622,68
DA:1625,68
DA:1627,17
DA:1629,17
DA:1630,17
DA:1635,0
DA:1636,0
DA:1642,51
DA:1644,68
DA:1646,0
DA:1647,0
DA:1648,0
DA:1649,0
DA:1650,0
DA:1652,0
DA:1655,68
DA:1656,68
DA:1657,68
DA:1659,68
DA:1661,68
DA:1666,51
DA:1671,51
DA:1673,135
DA:1675,84
DA:1676,84
DA:1678,54
DA:1679,54
DA:1681,125
DA:1683,41
DA:1684,41
DA:1685,41
DA:1687,84
DA:1690,51
DA:1698,0
DA:1701,0
DA:1703,0
DA:1704,0
DA:1706,0
DA:1707,0
DA:1709,0
DA:1711,0
DA:1712,0
DA:1713,0
DA:1715,0
DA:1716,0
DA:1718,0
DA:1723,0
DA:1727,0
DA:1730,0
DA:1732,0
DA:1735,0
DA:1736,0
DA:1737,0
DA:1738,0
DA:1739,0
DA:1741,0
DA:1742,0
DA:1744,0
DA:1745,0
DA:1746,0
DA:1747,0
DA:1749,0
DA:1750,0
DA:1753,0
DA:1755,0
DA:1756,0
DA:1757,0
DA:1758,0
DA:1764,0
DA:1772,0
DA:1774,0
DA:1780,0
DA:1782,0
DA:1786,0
DA:1787,0
DA:1789,0
DA:1791,0
DA:1803,0
DA:1807,0
DA:1810,0
DA:1821,0
DA:1822,0
DA:1823,0
DA:1828,0
DA:1829,0
DA:1830,0
DA:1832,0
DA:1841,17
DA:1844,17
DA:1845,0
DA:1846,0
DA:1847,0
DA:1850,17
DA:1851,17
DA:1852,17
DA:1858,0
DA:1866,0
DA:1867,0
DA:1868,0
DA:1870,0
DA:1873,0
DA:1874,0
DA:1875,0
DA:1878,0
DA:1879,0
DA:1886,0
DA:1889,51
DA:1891,51
DA:1892,51
DA:1893,51
DA:1894,51
DA:1895,51
DA:1903,17
DA:1907,17
DA:1908,17
DA:1909,0
DA:1911,17
DA:1916,17
DA:1917,17
DA:1918,0
DA:1920,17
DA:1922,17
DA:1924,17
DA:1931,0
DA:1934,0
DA:1935,0
DA:1937,0
DA:1938,0
DA:1940,0
DA:1941,0
DA:1943,0
DA:1950,34
DA:1953,34
DA:1955,34
DA:1957,34
DA:1958,34
DA:1964,34
DA:1965,17
DA:1966,17
DA:1969,34
DA:1971,34
DA:1972,34
DA:1978,34
DA:1980,34
DA:1981,0
DA:1983,34
DA:1989,34
DA:1990,34
DA:1992,34
DA:1994,34
DA:1995,34
DA:1997,34
DA:1998,17
DA:2007,0
DA:2009,0
DA:2010,0
DA:2012,0
DA:2015,0
DA:2018,0
DA:2019,0
DA:2020,0
DA:2024,0
DA:2025,0
DA:2026,0
DA:2029,0
DA:2030,0
DA:2037,0
DA:2039,0
DA:2040,0
DA:2042,0
DA:2043,0
DA:2044,0
DA:2045,0
DA:2047,0
DA:2048,0
DA:2049,0
DA:2056,17
DA:2060,17
DA:2066,17
DA:2067,17
DA:2068,17
DA:2070,17
DA:2071,0
DA:2073,17
DA:2075,17
DA:2076,17
DA:2077,17
DA:2080,0
DA:2083,0
DA:2085,0
DA:2086,0
DA:2087,0
DA:2090,0
DA:2091,0
DA:2094,0
DA:2095,0
DA:2105,0
DA:2109,0
DA:2110,0
DA:2111,0
DA:2113,0
DA:2115,0
DA:2116,0
DA:2117,0
DA:2119,0
DA:2120,0
DA:2121,0
DA:2122,0
DA:2123,0
DA:2124,0
DA:2125,0
DA:2126,0
DA:2127,0
DA:2129,0
DA:2131,0
DA:2142,0
DA:2145,0
DA:2155,0
DA:2163,0
DA:2164,0
DA:2165,0
DA:2166,0
DA:2168,0
DA:2169,0
DA:2171,0
DA:2173,0
DA:2174,0
DA:2175,0
DA:2180,0
DA:2182,0
DA:2189,0
DA:2191,0
DA:2192,0
DA:2217,0
DA:2220,0
DA:2226,0
DA:2228,0
DA:2234,0
DA:2236,0
DA:2242,0
DA:2244,0
DA:2251,0
DA:2253,0
DA:2260,0
DA:2263,0
DA:2264,0
DA:2272,0
DA:2274,0
DA:2275,0
DA:2277,0
DA:2279,0
DA:2280,0
DA:2282,0
DA:2284,0
DA:2287,0
DA:2289,0
DA:2290,0
DA:2292,0
DA:2298,0
DA:2299,0
DA:2300,0
DA:2301,0
DA:2302,0
DA:2303,0
DA:2310,0
DA:2311,0
DA:2317,0
DA:2321,0
DA:2325,0
DA:2326,0
DA:2327,0
DA:2328,0
DA:2332,0
DA:2333,0
DA:2337,0
DA:2339,0
DA:2367,51
DA:2369,51
DA:2372,0
DA:2382,0
DA:2385,0
DA:2387,0
DA:2388,0
LF:410
LH:158
end_of_record
TN:
SF:/workspace/vtr-verilog-to-routing/ODIN_II/SRC/verilog_flex.l
FNF:0
FNH:0
DA:45,550
DA:46,0
DA:47,2706
DA:48,3098
DA:49,392
DA:50,15
DA:51,15
DA:52,0
DA:53,1
DA:54,67
DA:55,66
DA:56,0
DA:57,0
DA:58,661
DA:59,1053
DA:60,407
DA:61,15
DA:62,53
DA:63,53
DA:64,0
DA:65,0
DA:66,1488
DA:67,1488
DA:68,0
DA:69,624
DA:70,624
DA:71,0
DA:72,53
DA:73,53
DA:74,0
DA:75,2
DA:76,2
DA:77,0
DA:78,9
DA:79,265
DA:80,257
DA:81,1
DA:82,550
DA:83,1418
DA:84,868
DA:85,0
DA:86,0
DA:87,0
DA:88,0
DA:89,0
DA:90,0
DA:91,0
DA:92,0
DA:93,2679
DA:94,2679
DA:95,0
DA:96,0
DA:98,0
DA:99,16
DA:100,243
DA:101,2369
DA:102,2142
DA:103,13
DA:104,13
DA:105,38
DA:106,1855
DA:107,1818
DA:108,1
DA:109,0
DA:110,0
DA:111,1
DA:112,2
DA:113,3
DA:114,2
DA:115,23444
DA:116,0
DA:117,3654
DA:118,14705
DA:119,11051
DA:120,0
DA:122,48213
DA:125,35264
DA:126,17591
DA:127,17591
DA:128,0
DA:129,0
DA:130,0
DA:131,0
DA:132,0
DA:133,0
DA:134,0
DA:135,0
DA:136,0
DA:137,0
LF:89
LH:54
end_of_record
TN:
SF:/workspace/vtr-verilog-to-routing/ODIN_II/SRC/verilog_preprocessor.c
FN:17,_Z17init_veri_preprocv
FN:42,_Z20cleanup_veri_preprocv
FN:76,_Z17clean_veri_defineP11veri_define
FN:96,_Z18clean_veri_includeP12veri_include
FN:113,_Z15add_veri_definePcS_iP12veri_include
FN:182,_Z16add_veri_includePciP12veri_include
FN:226,_Z19ret_veri_definedvalPc
FN:240,_Z15veri_is_definedPc
FN:262,_Z16open_source_filePc
FN:313,_Z12veri_preprocP8_IO_FILE
FN:351,_Z15remove_commentsP8_IO_FILE
FN:399,_Z24veri_preproc_bootstrapedP8_IO_FILES0_P12veri_include
FN:628,_Z4trimPc
FN:655,_Z3topP15veri_flag_stack
FN:665,_Z3popP15veri_flag_stack
FN:679,_Z4pushP15veri_flag_stacki
FNDA:17855,_Z4trimPc
FNDA:17,_Z18clean_veri_includeP12veri_include
FNDA:17,_Z16add_veri_includePciP12veri_include
FNDA:66,_Z15add_veri_definePcS_iP12veri_include
FNDA:17,_Z12veri_preprocP8_IO_FILE
FNDA:722,_Z15veri_is_definedPc
FNDA:0,_Z16open_source_filePc
FNDA:17,_Z24veri_preproc_bootstrapedP8_IO_FILES0_P12veri_include
FNDA:66,_Z17clean_veri_defineP11veri_define
FNDA:722,_Z19ret_veri_definedvalPc
FNDA:0,_Z4pushP15veri_flag_stacki
FNDA:0,_Z3popP15veri_flag_stack
FNDA:17,_Z15remove_commentsP8_IO_FILE
FNDA:17657,_Z3topP15veri_flag_stack
FNDA:17,_Z20cleanup_veri_preprocv
FNDA:17,_Z17init_veri_preprocv
FNF:16
FNH:13
DA:17,17
DA:19,17
DA:20,17
DA:22,0
DA:23,0
DA:25,17
DA:26,17
DA:28,17
DA:29,17
DA:31,0
DA:32,0
DA:34,17
DA:35,17
DA:36,17
DA:42,17
DA:46,17
DA:47,17
DA:50,83
DA:52,66
DA:54,17
DA:55,17
DA:56,17
DA:57,17
DA:59,34
DA:61,17
DA:63,17
DA:64,17
DA:65,17
DA:66,17
DA:70,17
DA:76,66
DA:78,66
DA:81,66
DA:83,66
DA:85,66
DA:87,66
DA:88,66
DA:91,66
DA:96,17
DA:98,17
DA:101,17
DA:103,17
DA:104,17
DA:107,17
DA:113,66
DA:116,66
DA:117,66
DA:118,66
DA:120,0
DA:121,0
DA:125,66
DA:127,2
DA:129,2
DA:133,1510
DA:135,1444
DA:137,0
DA:138,0
DA:140,0
DA:143,0
DA:144,0
DA:145,0
DA:153,0
DA:155,0
DA:157,0
DA:158,0
DA:161,0
DA:162,0
DA:167,66
DA:168,66
DA:169,66
DA:170,66
DA:172,66
DA:173,66
DA:175,66
DA:182,17
DA:185,17
DA:186,17
DA:187,17
DA:189,0
DA:190,0
DA:194,17
DA:196,0
DA:198,0
DA:202,17
DA:204,0
DA:206,0
DA:212,17
DA:213,17
DA:214,17
DA:216,17
DA:217,17
DA:219,17
DA:226,722
DA:228,722
DA:229,722
DA:231,656
DA:233,66
DA:240,722
DA:243,722
DA:245,11144
DA:247,11078
DA:248,11078
DA:250,656
DA:253,66
DA:262,0
DA:268,0
DA:269,0
DA:271,0
DA:275,0
DA:277,0
DA:279,0
DA:281,0
DA:285,0
DA:286,0
DA:289,0
DA:290,0
DA:292,0
DA:293,0
DA:295,0
DA:296,0
DA:298,0
DA:299,0
DA:301,0
DA:303,0
DA:304,0
DA:307,0
DA:313,17
DA:318,17
DA:321,17
DA:322,17
DA:323,17
DA:325,0
DA:326,0
DA:329,17
DA:330,17
DA:332,17
DA:334,0
DA:335,0
DA:340,17
DA:342,17
DA:343,17
DA:344,17
DA:351,17
DA:353,17
DA:354,17
DA:355,17
DA:358,17
DA:359,17608
DA:362,390233
DA:364,373460
DA:367,360880
DA:372,360062
DA:374,168
DA:375,168
DA:379,359894
DA:380,343236
DA:386,12580
DA:388,168
DA:389,168
DA:393,17591
DA:395,17
DA:396,17
DA:399,17
DA:402,17
DA:404,17
DA:405,17
DA:408,17
DA:410,17608
DA:416,17591
DA:419,17591
DA:421,17591
DA:422,18313
DA:424,722
DA:425,722
DA:426,722
DA:428,722
DA:429,6803
DA:430,7255
DA:431,8921
DA:432,1196
DA:433,6599
DA:435,722
DA:436,722
DA:437,722
DA:438,722
DA:439,656
DA:440,656
DA:444,66
DA:445,66
DA:446,66
DA:448,722
DA:449,722
DA:451,17591
DA:452,17591
DA:453,17591
DA:454,17591
DA:456,17591
DA:461,17591
DA:463,66
DA:468,66
DA:470,0
DA:472,0
DA:474,0
DA:476,0
DA:479,0
DA:481,0
DA:483,0
DA:486,0
DA:488,0
DA:490,0
DA:492,0
DA:497,66
DA:499,66
DA:502,66
DA:505,66
DA:509,66
DA:512,66
DA:514,66
DA:516,66
DA:521,0
DA:523,0
DA:525,0
DA:527,0
DA:529,0
DA:531,0
DA:533,0
DA:534,0
DA:535,0
DA:538,0
DA:541,0
DA:542,0
DA:544,0
DA:545,0
DA:546,0
DA:548,0
DA:552,0
DA:557,0
DA:560,0
DA:563,0
DA:564,0
DA:566,0
DA:567,0
DA:568,0
DA:570,0
DA:574,0
DA:579,0
DA:582,0
DA:585,0
DA:588,0
DA:589,0
DA:592,0
DA:594,0
DA:595,0
DA:602,0
DA:604,0
DA:607,0
DA:609,0
DA:612,17525
DA:614,17525
DA:619,17591
DA:620,17591
DA:622,17
DA:623,17
DA:624,17
DA:628,17855
DA:630,17855
DA:631,17855
DA:634,47194
DA:636,35140
DA:638,33637
DA:640,17285
DA:643,16352
DA:646,17855
DA:655,17657
DA:657,17657
DA:659,0
DA:661,17657
DA:665,0
DA:667,0
DA:669,0
DA:670,0
DA:672,0
DA:673,0
DA:675,0
DA:677,0
DA:679,0
DA:681,0
DA:683,0
DA:684,0
DA:685,0
DA:687,0
DA:689,0
LF:292
LH:177
end_of_record
TN:
SF:/workspace/vtr-verilog-to-routing/libvtrutil/src/pugixml_loc.hpp
FN:17,_ZN7pugiloc8loc_dataC2Ev
FN:19,_ZN7pugiloc8loc_dataC2ENSt7__cxx1112basic_stringIcSt11char_traitsIcESaIcEEE
FN:25,_ZNK7pugiloc8loc_data8filenameB5cxx11Ev
FN:30,_ZNK7pugiloc8loc_data4lineEN4pugi8xml_nodeE
FN:41,_ZNK7pugiloc8loc_data4lineEl
FN:57,_ZN7pugiloc8loc_data14build_loc_dataEv
FNDA:17,_ZN7pugiloc8loc_data14build_loc_dataEv
FNDA:2788,_ZNK7pugiloc8loc_data4lineEN4pugi8xml_nodeE
FNDA:2788,_ZNK7pugiloc8loc_data4lineEl
FNDA:17,_ZN7pugiloc8loc_dataC2ENSt7__cxx1112basic_stringIcSt11char_traitsIcESaIcEEE
FNDA:0,_ZNK7pugiloc8loc_data8filenameB5cxx11Ev
FNDA:17,_ZN7pugiloc8loc_dataC2Ev
FNF:6
FNH:5
DA:17,17
DA:19,17
DA:20,17
DA:21,17
DA:22,17
DA:25,0
DA:30,2788
DA:31,2788
DA:41,2788
DA:42,2788
DA:43,2788
DA:45,2788
DA:57,17
DA:58,17
DA:60,17
DA:65,680
DA:67,668287
DA:68,667624
DA:69,13855
DA:71,663
DA:74,17
DA:75,17
LF:22
LH:21
end_of_record
TN:
SF:/workspace/vtr-verilog-to-routing/libvtrutil/src/pugixml_util.hpp
FN:29,_ZN8pugiutil8XmlErrorC2ENSt7__cxx1112basic_stringIcSt11char_traitsIcESaIcEEES6_m
FN:36,_ZN8pugiutil8load_xmlERN4pugi12xml_documentENSt7__cxx1112basic_stringIcSt11char_traitsIcESaIcEEE
FN:70,_ZN8pugiutil15get_first_childEN4pugi8xml_nodeERKNSt7__cxx1112basic_stringIcSt11char_traitsIcESaIcEEERKN7pugiloc8loc_dataENS_6ReqOptE
FN:90,_ZN8pugiutil16get_single_childEN4pugi8xml_nodeERKNSt7__cxx1112basic_stringIcSt11char_traitsIcESaIcEEERKN7pugiloc8loc_dataENS_6ReqOptE
FN:132,_ZN8pugiutil13get_attributeEN4pugi8xml_nodeERKNSt7__cxx1112basic_stringIcSt11char_traitsIcESaIcEEERKN7pugiloc8loc_dataENS_6ReqOptE
FNDA:17,_ZN8pugiutil8load_xmlERN4pugi12xml_documentENSt7__cxx1112basic_stringIcSt11char_traitsIcESaIcEEE
FNDA:31756,_ZN8pugiutil13get_attributeEN4pugi8xml_nodeERKNSt7__cxx1112basic_stringIcSt11char_traitsIcESaIcEEERKN7pugiloc8loc_dataENS_6ReqOptE
FNDA:3655,_ZN8pugiutil16get_single_childEN4pugi8xml_nodeERKNSt7__cxx1112basic_stringIcSt11char_traitsIcESaIcEEERKN7pugiloc8loc_dataENS_6ReqOptE
FNDA:32436,_ZN8pugiutil15get_first_childEN4pugi8xml_nodeERKNSt7__cxx1112basic_stringIcSt11char_traitsIcESaIcEEERKN7pugiloc8loc_dataENS_6ReqOptE
FNDA:0,_ZN8pugiutil8XmlErrorC2ENSt7__cxx1112basic_stringIcSt11char_traitsIcESaIcEEES6_m
FNF:5
FNH:4
DA:29,0
DA:30,0
DA:36,17
DA:38,17
DA:39,17
DA:40,0
DA:43,17
DA:70,32436
DA:75,32436
DA:76,32436
DA:77,0
DA:78,0
DA:80,32436
DA:90,3655
DA:94,3655
DA:96,3655
DA:97,0
DA:98,0
DA:101,3655
DA:132,31756
DA:136,31756
DA:138,31756
DA:139,0
DA:140,0
DA:143,31756
LF:25
LH:16
end_of_record
TN:
SF:/workspace/vtr-verilog-to-routing/libvtrutil/src/vtr_error.h
FN:10,_ZN3vtr8VtrErrorC2ENSt7__cxx1112basic_stringIcSt11char_traitsIcESaIcEEES6_m
FNDA:0,_ZN3vtr8VtrErrorC2ENSt7__cxx1112basic_stringIcSt11char_traitsIcESaIcEEES6_m
FNF:1
FNH:0
DA:10,0
DA:11,0
DA:13,0
LF:3
LH:0
end_of_record
