TN:
SF:/usr/include/c++/9/cmath
FN:350,_ZSt3logIiEN9__gnu_cxx11__enable_ifIXsrSt12__is_integerIT_E7__valueEdE6__typeES3_
FNDA:0,_ZSt3logIiEN9__gnu_cxx11__enable_ifIXsrSt12__is_integerIT_E7__valueEdE6__typeES3_
DA:350,0
DA:351,0
end_of_record
SF:/workspace/vtr-verilog-to-routing/ODIN_II/SRC/netlist_cleanup.c
FN:47,_Z16insert_node_listP13node_list_t_tP9nnode_t_t
FNDA:4332,_Z16insert_node_listP13node_list_t_tP9nnode_t_t
FN:62,_Z17traverse_backwardP9nnode_t_t
FNDA:283187,_Z17traverse_backwardP9nnode_t_t
FN:80,_Z16traverse_forwardP9nnode_t_tii
FNDA:77908,_Z16traverse_forwardP9nnode_t_tii
FN:125,_Z24mark_output_dependenciesP11netlist_t_t
FNDA:17,_Z24mark_output_dependenciesP11netlist_t_t
FN:134,_Z21identify_unused_nodesP11netlist_t_t
FNDA:17,_Z21identify_unused_nodesP11netlist_t_t
FN:153,_Z19remove_unused_nodesP13node_list_t_t
FNDA:17,_Z19remove_unused_nodesP13node_list_t_t
FN:180,_Z27calculate_addsub_statisticsP13node_list_t_t
FNDA:17,_Z27calculate_addsub_statisticsP13node_list_t_t
FN:220,_Z19remove_unused_logicP11netlist_t_t
FNDA:17,_Z19remove_unused_logicP11netlist_t_t
DA:47,4332
DA:48,4332
DA:49,4332
DA:50,4332
DA:62,283187
DA:63,283187
DA:64,74117
DA:66,356572
DA:67,282455
DA:68,282455
DA:80,77908
DA:81,77908
DA:82,77908
DA:86,77908
DA:89,77908
DA:91,77908
DA:93,3682
DA:96,77908
DA:98,2991
DA:99,650
DA:105,170230
DA:106,92322
DA:107,449305
DA:108,358876
DA:109,338737
DA:110,338737
DA:112,316322
DA:113,76423
DA:125,17
DA:127,749
DA:128,732
DA:130,17
DA:134,17
DA:136,17
DA:137,17
DA:139,17
DA:140,17
DA:142,17
DA:143,17
DA:144,17
DA:146,1451
DA:147,1434
DA:149,17
DA:153,3699
DA:154,3699
DA:156,37549
DA:157,33867
DA:158,33867
DA:160,3682
DA:161,3682
DA:163,17
DA:180,667
DA:181,667
DA:182,650
DA:183,650
DA:184,650
DA:185,3545
DA:186,2904
DA:187,9
DA:188,9
DA:190,2895
DA:193,2895
DA:194,2895
DA:195,2254
DA:197,650
DA:198,641
DA:199,209
DA:200,209
DA:201,209
DA:203,432
DA:204,432
DA:205,432
DA:206,432
DA:209,641
DA:210,641
DA:213,650
DA:216,17
DA:217,17
DA:220,17
DA:221,17
DA:222,17
DA:223,17
DA:224,17
DA:225,17
end_of_record
TN:
SF:/workspace/vtr-verilog-to-routing/ODIN_II/SRC/ast_elaborate.c
FN:57,_Z12simplify_astv
FNDA:17,_Z12simplify_astv
FN:77,_Z17optimize_for_treev
FNDA:17,_Z17optimize_for_treev
FN:161,_Z15search_for_nodeP12ast_node_t_tPS0_S1_
FNDA:97666,_Z15search_for_nodeP12ast_node_t_tPS0_S1_
FN:190,_Z9copy_treeP12ast_node_t_tS0_
FNDA:0,_Z9copy_treeP12ast_node_t_tS0_
FN:263,_Z13complete_nodeP12ast_node_t_tS0_
FNDA:0,_Z13complete_nodeP12ast_node_t_tS0_
FN:278,_Z17record_expressionP12ast_node_t_tPPc
FNDA:0,_Z17record_expressionP12ast_node_t_tPPc
FN:296,_Z11calculationPPc
FNDA:0,_Z11calculationPPc
FN:345,_Z20translate_expressionPPcS0_
FNDA:0,_Z20translate_expressionPPcS0_
FN:395,_Z17check_and_replaceP12ast_node_t_tPPc
FNDA:0,_Z17check_and_replaceP12ast_node_t_tPPc
FN:446,_Z17modify_expressionPPcS0_S_
FNDA:0,_Z17modify_expressionPPcS0_S_
FN:470,_Z15free_whole_treeP12ast_node_t_t
FNDA:0,_Z15free_whole_treeP12ast_node_t_t
FN:509,_Z12initial_nodeP12ast_node_t_t3idsii
FNDA:0,_Z12initial_nodeP12ast_node_t_t3idsii
FN:532,_Z21change_to_number_nodeP12ast_node_t_tPc
FNDA:18,_Z21change_to_number_nodeP12ast_node_t_tPc
FN:583,_Z15reallocate_nodeP12ast_node_t_ti
FNDA:0,_Z15reallocate_nodeP12ast_node_t_ti
FN:598,_Z22find_most_unique_countv
FNDA:51,_Z22find_most_unique_countv
FN:615,_Z15mark_node_writeP12ast_node_t_tPA20_c
FNDA:0,_Z15mark_node_writeP12ast_node_t_tPA20_c
FN:639,_Z14mark_node_readP12ast_node_t_tPA20_c
FNDA:0,_Z14mark_node_readP12ast_node_t_tPA20_c
FN:662,_Z28remove_intermediate_variableP12ast_node_t_tPA20_c
FNDA:0,_Z28remove_intermediate_variableP12ast_node_t_tPA20_c
FN:712,_Z18search_marked_nodeP12ast_node_t_tiPcPS0_
FNDA:0,_Z18search_marked_nodeP12ast_node_t_tiPcPS0_
FN:740,_Z16free_single_nodeP12ast_node_t_t
FNDA:0,_Z16free_single_nodeP12ast_node_t_t
FN:760,_Z28reduce_assignment_expressionv
FNDA:34,_Z28reduce_assignment_expressionv
FN:812,_Z16find_assign_nodeP12ast_node_t_tPS0_
FNDA:197394,_Z16find_assign_nodeP12ast_node_t_tPS0_
FN:830,_Z19simplify_expressionPi
FNDA:924,_Z19simplify_expressionPi
FN:843,_Z9find_tailP8exp_node
FNDA:0,_Z9find_tailP8exp_node
FN:857,_Z17reduce_enode_listv
FNDA:1848,_Z17reduce_enode_listv
FN:903,_Z14store_exp_listP12ast_node_t_t
FNDA:924,_Z14store_exp_listP12ast_node_t_t
FN:920,_Z16record_tree_infoP12ast_node_t_t
FNDA:3324,_Z16record_tree_infoP12ast_node_t_t
FN:949,_Z12create_enodeP12ast_node_t_t
FNDA:3324,_Z12create_enodeP12ast_node_t_t
FN:1020,_Z15adjoin_constantPi
FNDA:924,_Z15adjoin_constantPi
FN:1084,_Z13replace_enodeiP8exp_nodei
FNDA:0,_Z13replace_enodeiP8exp_nodei
FN:1129,_Z16combine_constantPi
FNDA:924,_Z16combine_constantPi
FN:1206,_Z18construct_new_treeP8exp_nodeP12ast_node_t_tii
FNDA:0,_Z18construct_new_treeP8exp_nodeP12ast_node_t_tii
FN:1262,_Z14check_exp_listP8exp_node
FNDA:0,_Z14check_exp_listP8exp_node
FN:1279,_Z26delete_continuous_multiplyPi
FNDA:924,_Z26delete_continuous_multiplyPi
FN:1341,_Z15create_ast_nodeP8exp_nodeP12ast_node_t_tii
FNDA:0,_Z15create_ast_nodeP8exp_nodeP12ast_node_t_tii
FN:1374,_Z14create_op_nodeP12ast_node_t_tP8exp_nodeii
FNDA:0,_Z14create_op_nodeP12ast_node_t_tP8exp_nodeii
FN:1402,_Z13free_exp_listv
FNDA:924,_Z13free_exp_listv
FN:1415,_Z17deal_with_bracketP12ast_node_t_t
FNDA:924,_Z17deal_with_bracketP12ast_node_t_t
FN:1442,_Z18check_mult_bracketPii
FNDA:924,_Z18check_mult_bracketPii
FN:1473,_Z14recursive_treeP12ast_node_t_tPiS1_
FNDA:3502,_Z14recursive_treeP12ast_node_t_tPiS1_
FN:1500,_Z14find_leaf_nodeP12ast_node_t_tPiS1_i
FNDA:0,_Z14find_leaf_nodeP12ast_node_t_tPiS1_i
FN:1516,_Z14delete_bracketii
FNDA:0,_Z14delete_bracketii
FN:1552,_Z19delete_bracket_headP8exp_nodeS0_
FNDA:0,_Z19delete_bracket_headP8exp_nodeS0_
FN:1571,_Z15change_exp_listP8exp_nodeS0_S0_i
FNDA:0,_Z15change_exp_listP8exp_nodeS0_S0_i
FN:1662,_Z15copy_enode_listP8exp_nodeS0_S0_
FNDA:0,_Z15copy_enode_listP8exp_nodeS0_S0_
FN:1681,_Z10copy_enodeP8exp_nodeS0_
FNDA:0,_Z10copy_enodeP8exp_nodeS0_
FN:1692,_Z19delete_bracket_tailP8exp_nodeS0_
FNDA:0,_Z19delete_bracket_tailP8exp_nodeS0_
FN:1707,_Z19delete_bracket_bodyP8exp_nodeS0_
FNDA:0,_Z19delete_bracket_bodyP8exp_nodeS0_
FN:1731,_Z20check_tree_operationP12ast_node_t_tPi
FNDA:41004,_Z20check_tree_operationP12ast_node_t_tPi
FN:1752,_Z15check_operationP8exp_nodeS0_
FNDA:0,_Z15check_operationP8exp_nodeS0_
FN:1777,_Z16reduce_parameterv
FNDA:34,_Z16reduce_parameterv
FN:1800,_Z14find_parameterP12ast_node_t_tPS0_Pi
FNDA:144486,_Z14find_parameterP12ast_node_t_tPS0_Pi
FN:1825,_Z16remove_para_nodeP12ast_node_t_tPS0_i
FNDA:2,_Z16remove_para_nodeP12ast_node_t_tPS0_i
FN:1861,_Z16change_para_nodeP12ast_node_t_tPci
FNDA:7368,_Z16change_para_nodeP12ast_node_t_tPci
FN:1882,_Z15change_ast_nodeP12ast_node_t_ti
FNDA:18,_Z15change_ast_nodeP12ast_node_t_ti
FN:1896,_Z15shift_operationv
FNDA:17,_Z15shift_operationv
FN:1912,_Z24search_certain_operationP12ast_node_t_ti
FNDA:72957,_Z24search_certain_operationP12ast_node_t_ti
FN:1937,_Z22check_binary_operationP12ast_node_t_ti
FNDA:96,_Z22check_binary_operationP12ast_node_t_ti
FN:1960,_Z17check_node_numberP12ast_node_t_tS0_ii
FNDA:4,_Z17check_node_numberP12ast_node_t_tS0_ii
FN:1995,_Z15change_bit_sizeP12ast_node_t_tix
FNDA:0,_Z15change_bit_sizeP12ast_node_t_tix
FN:2010,_Z23search_var_declare_listP12ast_node_t_tPcx
FNDA:0,_Z23search_var_declare_listP12ast_node_t_tPcx
FN:2047,_Z27check_intermediate_variableP12ast_node_t_tPi
FNDA:0,_Z27check_intermediate_variableP12ast_node_t_tPi
FN:2070,_Z15keep_all_branchP12ast_node_t_tS0_i
FNDA:0,_Z15keep_all_branchP12ast_node_t_tS0_i
FN:2092,_Z11check_indexP12ast_node_t_tS0_
FNDA:0,_Z11check_indexP12ast_node_t_tS0_
DA:57,17
DA:60,17
DA:62,17
DA:64,17
DA:66,17
DA:70,17
DA:77,17
DA:83,17
DA:84,17
DA:86,17
DA:89,70
DA:91,53
DA:93,53
DA:96,53
DA:105,0
DA:106,0
DA:108,0
DA:109,0
DA:110,0
DA:111,0
DA:113,0
DA:114,0
DA:115,0
DA:117,0
DA:118,0
DA:119,0
DA:120,0
DA:121,0
DA:122,0
DA:123,0
DA:124,0
DA:125,0
DA:126,0
DA:128,0
DA:130,0
DA:131,0
DA:132,0
DA:133,0
DA:134,0
DA:135,0
DA:136,0
DA:137,0
DA:138,0
DA:139,0
DA:142,0
DA:143,0
DA:144,0
DA:147,0
DA:148,0
DA:150,0
DA:151,0
DA:152,0
DA:155,17
DA:161,97666
DA:164,97666
DA:165,64433
DA:167,130846
DA:168,97613
DA:170,130846
DA:172,97613
DA:173,24709
DA:176,72904
DA:178,0
DA:179,0
DA:180,0
DA:190,0
DA:193,0
DA:194,0
DA:195,0
DA:199,0
DA:200,0
DA:202,0
DA:203,0
DA:205,0
DA:206,0
DA:207,0
DA:208,0
DA:212,0
DA:213,0
DA:214,0
DA:215,0
DA:216,0
DA:218,0
DA:220,0
DA:221,0
DA:222,0
DA:223,0
DA:224,0
DA:225,0
DA:226,0
DA:227,0
DA:228,0
DA:229,0
DA:230,0
DA:232,0
DA:233,0
DA:234,0
DA:235,0
DA:236,0
DA:239,0
DA:240,0
DA:244,0
DA:245,0
DA:247,0
DA:249,0
DA:250,0
DA:253,0
DA:258,0
DA:263,0
DA:265,0
DA:266,0
DA:267,0
DA:268,0
DA:269,0
DA:270,0
DA:271,0
DA:272,0
DA:273,0
DA:278,0
DA:280,0
DA:281,0
DA:282,0
DA:284,0
DA:285,0
DA:287,0
DA:288,0
DA:289,0
DA:296,0
DA:304,0
DA:306,0
DA:308,0
DA:310,0
DA:312,0
DA:313,0
DA:314,0
DA:315,0
DA:316,0
DA:317,0
DA:318,0
DA:319,0
DA:320,0
DA:321,0
DA:322,0
DA:323,0
DA:324,0
DA:325,0
DA:327,0
DA:328,0
DA:332,0
DA:333,0
DA:336,0
DA:338,0
DA:345,0
DA:353,0
DA:354,0
DA:356,0
DA:358,0
DA:360,0
DA:362,0
DA:364,0
DA:366,0
DA:368,0
DA:369,0
DA:372,0
DA:373,0
DA:375,0
DA:377,0
DA:378,0
DA:380,0
DA:381,0
DA:382,0
DA:386,0
DA:388,0
DA:390,0
DA:395,0
DA:398,0
DA:400,0
DA:401,0
DA:402,0
DA:404,0
DA:405,0
DA:406,0
DA:408,0
DA:409,0
DA:410,0
DA:412,0
DA:413,0
DA:414,0
DA:416,0
DA:417,0
DA:419,0
DA:420,0
DA:421,0
DA:422,0
DA:423,0
DA:424,0
DA:425,0
DA:426,0
DA:427,0
DA:428,0
DA:429,0
DA:430,0
DA:432,0
DA:433,0
DA:435,0
DA:437,0
DA:438,0
DA:441,0
DA:446,0
DA:449,0
DA:450,0
DA:452,0
DA:453,0
DA:455,0
DA:457,0
DA:458,0
DA:461,0
DA:465,0
DA:470,0
DA:474,0
DA:475,0
DA:477,0
DA:479,0
DA:480,0
DA:483,0
DA:484,0
DA:486,0
DA:488,0
DA:489,0
DA:490,0
DA:491,0
DA:492,0
DA:493,0
DA:494,0
DA:495,0
DA:496,0
DA:497,0
DA:498,0
DA:499,0
DA:502,0
DA:509,0
DA:511,0
DA:512,0
DA:513,0
DA:514,0
DA:515,0
DA:516,0
DA:517,0
DA:518,0
DA:519,0
DA:520,0
DA:521,0
DA:522,0
DA:523,0
DA:525,0
DA:532,18
DA:534,18
DA:535,18
DA:536,18
DA:537,18
DA:539,40
DA:541,22
DA:543,0
DA:545,22
DA:548,18
DA:549,18
DA:551,18
DA:552,18
DA:553,18
DA:554,18
DA:555,18
DA:558,18
DA:560,0
DA:565,18
DA:567,18
DA:571,0
DA:575,18
DA:576,18
DA:578,18
DA:583,0
DA:587,0
DA:589,0
DA:590,0
DA:591,0
DA:593,0
DA:598,51
DA:602,210
DA:604,159
DA:605,159
DA:606,53
DA:609,51
DA:615,0
DA:618,0
DA:619,0
DA:621,0
DA:622,0
DA:624,0
DA:625,0
DA:629,0
DA:630,0
DA:631,0
DA:639,0
DA:642,0
DA:643,0
DA:645,0
DA:647,0
DA:648,0
DA:649,0
DA:652,0
DA:653,0
DA:654,0
DA:662,0
DA:665,0
DA:666,0
DA:669,0
DA:671,0
DA:673,0
DA:675,0
DA:676,0
DA:677,0
DA:678,0
DA:679,0
DA:680,0
DA:681,0
DA:683,0
DA:684,0
DA:685,0
DA:689,0
DA:693,0
DA:694,0
DA:697,0
DA:698,0
DA:699,0
DA:701,0
DA:702,0
DA:704,0
DA:706,0
DA:712,0
DA:715,0
DA:716,0
DA:718,0
DA:720,0
DA:722,0
DA:724,0
DA:725,0
DA:729,0
DA:740,0
DA:742,0
DA:743,0
DA:745,0
DA:746,0
DA:748,0
DA:749,0
DA:750,0
DA:752,0
DA:760,34
DA:763,34
DA:765,34
DA:766,34
DA:767,34
DA:768,34
DA:770,34
DA:771,34
DA:772,34
DA:774,34
DA:775,140
DA:777,106
DA:778,106
DA:779,106
DA:780,10124
DA:782,10018
DA:783,10018
DA:784,10018
DA:786,924
DA:787,924
DA:788,924
DA:789,924
DA:790,0
DA:791,924
DA:792,924
DA:794,0
DA:795,0
DA:796,0
DA:797,0
DA:798,0
DA:799,0
DA:800,0
DA:802,924
DA:812,197394
DA:815,197394
DA:816,130326
DA:818,67068
DA:819,10186
DA:821,264354
DA:822,197286
DA:830,924
DA:832,924
DA:833,924
DA:834,924
DA:835,924
DA:836,924
DA:838,924
DA:843,0
DA:846,0
DA:847,0
DA:848,0
DA:849,0
DA:851,0
DA:857,1848
DA:861,8496
DA:863,6648
DA:865,1848
DA:867,0
DA:868,0
DA:869,0
DA:873,4800
DA:875,60
DA:877,0
DA:878,0
DA:881,0
DA:882,0
DA:884,0
DA:885,0
DA:887,60
DA:889,0
DA:890,0
DA:892,0
DA:893,0
DA:894,0
DA:898,1848
DA:903,924
DA:906,924
DA:907,924
DA:908,924
DA:909,924
DA:910,924
DA:911,924
DA:912,924
DA:913,924
DA:915,924
DA:920,3324
DA:922,3324
DA:923,0
DA:927,3324
DA:929,2050
DA:930,2050
DA:935,1274
DA:936,1274
DA:937,1274
DA:938,1126
DA:949,3324
DA:952,3324
DA:953,3324
DA:954,3324
DA:955,3324
DA:956,3324
DA:957,3324
DA:959,208
DA:960,208
DA:961,208
DA:962,208
DA:963,208
DA:965,1842
DA:966,1842
DA:967,1842
DA:968,1842
DA:969,1842
DA:971,988
DA:973,988
DA:975,432
DA:976,432
DA:977,432
DA:978,432
DA:979,432
DA:981,332
DA:982,332
DA:983,332
DA:984,332
DA:985,332
DA:987,192
DA:988,192
DA:989,192
DA:990,192
DA:991,192
DA:993,0
DA:994,0
DA:995,0
DA:996,0
DA:997,0
DA:999,32
DA:1000,32
DA:1004,1274
DA:1010,3324
DA:1011,3324
DA:1012,3324
DA:1014,3324
DA:1020,924
DA:1025,3324
DA:1027,2400
DA:1028,2400
DA:1030,0
DA:1032,0
DA:1033,0
DA:1034,0
DA:1035,0
DA:1036,0
DA:1038,0
DA:1039,0
DA:1040,0
DA:1041,0
DA:1042,0
DA:1044,0
DA:1045,0
DA:1047,0
DA:1048,0
DA:1049,0
DA:1051,0
DA:1052,0
DA:1054,0
DA:1056,0
DA:1058,0
DA:1059,0
DA:1061,0
DA:1064,0
DA:1065,0
DA:1066,0
DA:1068,0
DA:1072,2400
DA:1073,2400
DA:1075,0
DA:1076,0
DA:1079,924
DA:1084,0
DA:1087,0
DA:1088,0
DA:1089,0
DA:1090,0
DA:1091,0
DA:1093,0
DA:1095,0
DA:1096,0
DA:1101,0
DA:1102,0
DA:1105,0
DA:1107,0
DA:1108,0
DA:1109,0
DA:1111,0
DA:1112,0
DA:1113,0
DA:1117,0
DA:1118,0
DA:1121,0
DA:1122,0
DA:1129,924
DA:1135,4248
DA:1137,3324
DA:1138,3324
DA:1140,8
DA:1142,24
DA:1144,16
DA:1146,0
DA:1147,0
DA:1148,0
DA:1149,0
DA:1150,0
DA:1152,0
DA:1153,0
DA:1155,0
DA:1159,0
DA:1160,0
DA:1162,0
DA:1164,0
DA:1165,0
DA:1167,0
DA:1168,0
DA:1172,0
DA:1173,0
DA:1176,0
DA:1177,0
DA:1178,0
DA:1180,0
DA:1181,0
DA:1184,0
DA:1185,0
DA:1187,0
DA:1192,3324
DA:1193,3324
DA:1195,0
DA:1196,0
DA:1198,0
DA:1201,924
DA:1206,0
DA:1209,0
DA:1211,0
DA:1212,0
DA:1214,0
DA:1215,0
DA:1217,0
DA:1218,0
DA:1220,0
DA:1221,0
DA:1222,0
DA:1223,0
DA:1224,0
DA:1225,0
DA:1230,0
DA:1232,0
DA:1233,0
DA:1235,0
DA:1236,0
DA:1237,0
DA:1238,0
DA:1239,0
DA:1240,0
DA:1244,0
DA:1245,0
DA:1247,0
DA:1249,0
DA:1250,0
DA:1251,0
DA:1252,0
DA:1253,0
DA:1256,0
DA:1262,0
DA:1265,0
DA:1266,0
DA:1267,0
DA:1269,0
DA:1270,0
DA:1271,0
DA:1273,0
DA:1279,924
DA:1284,4248
DA:1286,3324
DA:1287,3324
DA:1289,36
DA:1291,32
DA:1293,12
DA:1295,12
DA:1297,4
DA:1298,4
DA:1302,4
DA:1304,0
DA:1305,0
DA:1306,0
DA:1307,0
DA:1309,0
DA:1310,0
DA:1311,0
DA:1312,0
DA:1315,0
DA:1316,0
DA:1318,0
DA:1319,0
DA:1320,0
DA:1321,0
DA:1322,0
DA:1324,4
DA:1328,3324
DA:1329,3324
DA:1331,0
DA:1332,0
DA:1336,924
DA:1341,0
DA:1343,0
DA:1346,0
DA:1348,0
DA:1349,0
DA:1350,0
DA:1351,0
DA:1352,0
DA:1354,0
DA:1355,0
DA:1356,0
DA:1358,0
DA:1359,0
DA:1360,0
DA:1361,0
DA:1362,0
DA:1363,0
DA:1365,0
DA:1366,0
DA:1369,0
DA:1374,0
DA:1376,0
DA:1377,0
DA:1378,0
DA:1380,0
DA:1381,0
DA:1382,0
DA:1384,0
DA:1385,0
DA:1386,0
DA:1388,0
DA:1389,0
DA:1390,0
DA:1392,0
DA:1393,0
DA:1394,0
DA:1397,0
DA:1402,924
DA:1405,4248
DA:1407,3324
DA:1408,3324
DA:1410,924
DA:1415,924
DA:1418,924
DA:1419,924
DA:1420,924
DA:1421,924
DA:1422,924
DA:1423,924
DA:1424,924
DA:1425,0
DA:1428,924
DA:1430,0
DA:1431,0
DA:1432,0
DA:1434,924
DA:1442,924
DA:1444,924
DA:1447,924
DA:1449,0
DA:1450,0
DA:1451,0
DA:1452,0
DA:1454,0
DA:1456,0
DA:1457,0
DA:1458,0
DA:1460,0
DA:1462,0
DA:1463,0
DA:1465,924
DA:1473,3502
DA:1476,3502
DA:1477,0
DA:1479,3502
DA:1481,576
DA:1483,384
DA:1485,0
DA:1486,0
DA:1491,3502
DA:1492,3912
DA:1493,2578
DA:1500,0
DA:1502,0
DA:1503,0
DA:1505,0
DA:1506,0
DA:1508,0
DA:1509,0
DA:1516,0
DA:1519,0
DA:1520,0
DA:1522,0
DA:1524,0
DA:1525,0
DA:1526,0
DA:1528,0
DA:1529,0
DA:1530,0
DA:1533,0
DA:1534,0
DA:1537,0
DA:1538,0
DA:1540,0
DA:1541,0
DA:1543,0
DA:1544,0
DA:1545,0
DA:1547,0
DA:1552,0
DA:1555,0
DA:1557,0
DA:1559,0
DA:1560,0
DA:1562,0
DA:1563,0
DA:1565,0
DA:1566,0
DA:1571,0
DA:1573,0
DA:1575,0
DA:1577,0
DA:1579,0
DA:1581,0
DA:1582,0
DA:1584,0
DA:1586,0
DA:1587,0
DA:1589,0
DA:1591,0
DA:1592,0
DA:1593,0
DA:1596,0
DA:1598,0
DA:1599,0
DA:1600,0
DA:1601,0
DA:1602,0
DA:1603,0
DA:1604,0
DA:1605,0
DA:1607,0
DA:1608,0
DA:1610,0
DA:1613,0
DA:1615,0
DA:1616,0
DA:1618,0
DA:1619,0
DA:1621,0
DA:1623,0
DA:1624,0
DA:1626,0
DA:1628,0
DA:1629,0
DA:1631,0
DA:1633,0
DA:1634,0
DA:1635,0
DA:1638,0
DA:1640,0
DA:1641,0
DA:1642,0
DA:1643,0
DA:1644,0
DA:1645,0
DA:1646,0
DA:1647,0
DA:1650,0
DA:1651,0
DA:1653,0
DA:1657,0
DA:1662,0
DA:1665,0
DA:1666,0
DA:1668,0
DA:1669,0
DA:1670,0
DA:1671,0
DA:1672,0
DA:1675,0
DA:1681,0
DA:1683,0
DA:1684,0
DA:1685,0
DA:1686,0
DA:1687,0
DA:1692,0
DA:1694,0
DA:1695,0
DA:1696,0
DA:1698,0
DA:1699,0
DA:1701,0
DA:1702,0
DA:1707,0
DA:1710,0
DA:1711,0
DA:1712,0
DA:1713,0
DA:1714,0
DA:1716,0
DA:1717,0
DA:1718,0
DA:1720,0
DA:1721,0
DA:1723,0
DA:1726,0
DA:1731,41004
DA:1734,41004
DA:1735,0
DA:1737,41004
DA:1739,932
DA:1740,932
DA:1743,40072
DA:1744,44040
DA:1745,30986
DA:1752,0
DA:1755,0
DA:1757,0
DA:1759,0
DA:1761,0
DA:1763,0
DA:1764,0
DA:1766,0
DA:1771,0
DA:1777,34
DA:1781,34
DA:1782,34
DA:1784,140
DA:1786,106
DA:1787,106
DA:1788,106
DA:1789,106
DA:1790,106
DA:1791,2
DA:1795,34
DA:1800,144486
DA:1805,144486
DA:1806,0
DA:1808,288866
DA:1810,160262
DA:1811,160262
DA:1812,15882
DA:1814,144380
DA:1815,24
DA:1817,144380
DA:1825,2
DA:1829,2
DA:1834,2
DA:1835,2
DA:1836,2
DA:1838,26
DA:1840,24
DA:1842,24
DA:1843,24
DA:1845,24
DA:1846,24
DA:1848,2040
DA:1850,2016
DA:1851,2016
DA:1856,2
DA:1861,7368
DA:1865,7368
DA:1866,0
DA:1870,7368
DA:1871,18
DA:1873,7368
DA:1874,7944
DA:1875,5352
DA:1882,18
DA:1884,18
DA:1885,18
DA:1886,18
DA:1887,18
DA:1888,18
DA:1889,18
DA:1891,18
DA:1896,17
DA:1900,70
DA:1902,53
DA:1903,53
DA:1906,17
DA:1912,72957
DA:1917,72957
DA:1918,39724
DA:1920,130846
DA:1922,97613
DA:1923,97613
DA:1925,72904
DA:1926,96
DA:1927,72904
DA:1937,96
DA:1939,96
DA:1941,96
DA:1942,2
DA:1943,96
DA:1944,2
DA:1948,0
DA:1950,0
DA:1951,0
DA:1954,96
DA:1960,4
DA:1962,4
DA:1963,4
DA:1964,4
DA:1965,4
DA:1966,0
DA:1967,4
DA:1969,0
DA:1970,0
DA:1972,4
DA:1974,0
DA:1975,0
DA:1976,0
DA:1977,0
DA:1978,0
DA:1980,0
DA:1981,0
DA:1982,0
DA:1984,0
DA:1985,0
DA:1986,0
DA:1987,0
DA:1995,0
DA:1999,0
DA:2000,0
DA:2001,0
DA:2002,0
DA:2004,0
DA:2010,0
DA:2014,0
DA:2015,0
DA:2016,0
DA:2018,0
DA:2020,0
DA:2022,0
DA:2024,0
DA:2026,0
DA:2027,0
DA:2028,0
DA:2035,0
DA:2037,0
DA:2038,0
DA:2047,0
DA:2051,0
DA:2052,0
DA:2055,0
DA:2057,0
DA:2058,0
DA:2061,0
DA:2062,0
DA:2070,0
DA:2073,0
DA:2074,0
DA:2076,0
DA:2077,0
DA:2078,0
DA:2080,0
DA:2081,0
DA:2082,0
DA:2083,0
DA:2086,0
DA:2092,0
DA:2094,0
DA:2096,0
DA:2098,0
DA:2099,0
DA:2102,0
end_of_record
SF:/usr/include/c++/9/cmath
FN:350,_ZSt3logIiEN9__gnu_cxx11__enable_ifIXsrSt12__is_integerIT_E7__valueEdE6__typeES3_
FNDA:0,_ZSt3logIiEN9__gnu_cxx11__enable_ifIXsrSt12__is_integerIT_E7__valueEdE6__typeES3_
FN:350,_ZSt3logIxEN9__gnu_cxx11__enable_ifIXsrSt12__is_integerIT_E7__valueEdE6__typeES3_
FNDA:0,_ZSt3logIxEN9__gnu_cxx11__enable_ifIXsrSt12__is_integerIT_E7__valueEdE6__typeES3_
DA:350,0
DA:351,0
DA:350,0
DA:351,0
end_of_record
TN:
SF:/usr/include/c++/9/bits/basic_string.h
end_of_record
SF:/usr/include/c++/9/bits/stl_construct.h
FN:97,_ZSt8_DestroyINSt7__cxx1112basic_stringIcSt11char_traitsIcESaIcEEEEvPT_
FNDA:0,_ZSt8_DestroyINSt7__cxx1112basic_stringIcSt11char_traitsIcESaIcEEEEvPT_
FN:97,_ZSt8_DestroyI14s_wireconn_infEvPT_
FNDA:0,_ZSt8_DestroyI14s_wireconn_infEvPT_
FN:97,_ZSt8_DestroyI17s_switchblock_infEvPT_
FNDA:0,_ZSt8_DestroyI17s_switchblock_infEvPT_
FN:105,_ZNSt12_Destroy_auxILb0EE9__destroyIPNSt7__cxx1112basic_stringIcSt11char_traitsIcESaIcEEEEEvT_S9_
FNDA:0,_ZNSt12_Destroy_auxILb0EE9__destroyIPNSt7__cxx1112basic_stringIcSt11char_traitsIcESaIcEEEEEvT_S9_
FN:105,_ZNSt12_Destroy_auxILb0EE9__destroyIP14s_wireconn_infEEvT_S4_
FNDA:0,_ZNSt12_Destroy_auxILb0EE9__destroyIP14s_wireconn_infEEvT_S4_
FN:105,_ZNSt12_Destroy_auxILb0EE9__destroyIP17s_switchblock_infEEvT_S4_
FNDA:18,_ZNSt12_Destroy_auxILb0EE9__destroyIP17s_switchblock_infEEvT_S4_
FN:117,_ZNSt12_Destroy_auxILb1EE9__destroyIPiEEvT_S3_
FNDA:0,_ZNSt12_Destroy_auxILb1EE9__destroyIPiEEvT_S3_
FN:127,_ZSt8_DestroyIPiEvT_S1_
FNDA:0,_ZSt8_DestroyIPiEvT_S1_
FN:127,_ZSt8_DestroyIPNSt7__cxx1112basic_stringIcSt11char_traitsIcESaIcEEEEvT_S7_
FNDA:0,_ZSt8_DestroyIPNSt7__cxx1112basic_stringIcSt11char_traitsIcESaIcEEEEvT_S7_
FN:127,_ZSt8_DestroyIP14s_wireconn_infEvT_S2_
FNDA:0,_ZSt8_DestroyIP14s_wireconn_infEvT_S2_
FN:127,_ZSt8_DestroyIP17s_switchblock_infEvT_S2_
FNDA:18,_ZSt8_DestroyIP17s_switchblock_infEvT_S2_
FN:203,_ZSt8_DestroyIPiiEvT_S1_RSaIT0_E
FNDA:0,_ZSt8_DestroyIPiiEvT_S1_RSaIT0_E
FN:203,_ZSt8_DestroyIPNSt7__cxx1112basic_stringIcSt11char_traitsIcESaIcEEES5_EvT_S7_RSaIT0_E
FNDA:0,_ZSt8_DestroyIPNSt7__cxx1112basic_stringIcSt11char_traitsIcESaIcEEES5_EvT_S7_RSaIT0_E
FN:203,_ZSt8_DestroyIP14s_wireconn_infS0_EvT_S2_RSaIT0_E
FNDA:0,_ZSt8_DestroyIP14s_wireconn_infS0_EvT_S2_RSaIT0_E
FN:203,_ZSt8_DestroyIP17s_switchblock_infS0_EvT_S2_RSaIT0_E
FNDA:18,_ZSt8_DestroyIP17s_switchblock_infS0_EvT_S2_RSaIT0_E
DA:97,0
DA:98,0
DA:97,0
DA:98,0
DA:97,0
DA:98,0
DA:105,0
DA:107,0
DA:108,0
DA:109,0
DA:105,0
DA:107,0
DA:108,0
DA:109,0
DA:105,18
DA:107,18
DA:108,0
DA:109,18
DA:117,0
DA:127,0
DA:137,0
DA:138,0
DA:127,0
DA:137,0
DA:138,0
DA:127,0
DA:137,0
DA:138,0
DA:127,18
DA:137,18
DA:138,18
DA:203,0
DA:206,0
DA:207,0
DA:203,0
DA:206,0
DA:207,0
DA:203,0
DA:206,0
DA:207,0
DA:203,18
DA:206,18
DA:207,18
end_of_record
SF:/usr/include/c++/9/ext/aligned_buffer.h
FN:64,_ZN9__gnu_cxx16__aligned_membufISt4pairIK16Connect_SB_SidesSt6vectorINSt7__cxx1112basic_stringIcSt11char_traitsIcESaIcEEESaISA_EEEE7_M_addrEv
FNDA:0,_ZN9__gnu_cxx16__aligned_membufISt4pairIK16Connect_SB_SidesSt6vectorINSt7__cxx1112basic_stringIcSt11char_traitsIcESaIcEEESaISA_EEEE7_M_addrEv
FN:72,_ZN9__gnu_cxx16__aligned_membufISt4pairIK16Connect_SB_SidesSt6vectorINSt7__cxx1112basic_stringIcSt11char_traitsIcESaIcEEESaISA_EEEE6_M_ptrEv
FNDA:0,_ZN9__gnu_cxx16__aligned_membufISt4pairIK16Connect_SB_SidesSt6vectorINSt7__cxx1112basic_stringIcSt11char_traitsIcESaIcEEESaISA_EEEE6_M_ptrEv
DA:64,0
DA:65,0
DA:72,0
DA:73,0
end_of_record
SF:/usr/include/c++/9/bits/stl_tree.h
FN:234,_ZNSt13_Rb_tree_nodeISt4pairIK16Connect_SB_SidesSt6vectorINSt7__cxx1112basic_stringIcSt11char_traitsIcESaIcEEESaIS9_EEEE9_M_valptrEv
FNDA:0,_ZNSt13_Rb_tree_nodeISt4pairIK16Connect_SB_SidesSt6vectorINSt7__cxx1112basic_stringIcSt11char_traitsIcESaIcEEESaIS9_EEEE9_M_valptrEv
FN:566,_ZNSt8_Rb_treeI16Connect_SB_SidesSt4pairIKS0_St6vectorINSt7__cxx1112basic_stringIcSt11char_traitsIcESaIcEEESaIS9_EEESt10_Select1stISC_ESt4lessIS0_ESaISC_EE21_M_get_Node_allocatorEv
FNDA:0,_ZNSt8_Rb_treeI16Connect_SB_SidesSt4pairIKS0_St6vectorINSt7__cxx1112basic_stringIcSt11char_traitsIcESaIcEEESaIS9_EEESt10_Select1stISC_ESt4lessIS0_ESaISC_EE21_M_get_Node_allocatorEv
FN:583,_ZNSt8_Rb_treeI16Connect_SB_SidesSt4pairIKS0_St6vectorINSt7__cxx1112basic_stringIcSt11char_traitsIcESaIcEEESaIS9_EEESt10_Select1stISC_ESt4lessIS0_ESaISC_EE11_M_put_nodeEPSt13_Rb_tree_nodeISC_E
FNDA:0,_ZNSt8_Rb_treeI16Connect_SB_SidesSt4pairIKS0_St6vectorINSt7__cxx1112basic_stringIcSt11char_traitsIcESaIcEEESaIS9_EEESt10_Select1stISC_ESt4lessIS0_ESaISC_EE11_M_put_nodeEPSt13_Rb_tree_nodeISC_E
FN:637,_ZNSt8_Rb_treeI16Connect_SB_SidesSt4pairIKS0_St6vectorINSt7__cxx1112basic_stringIcSt11char_traitsIcESaIcEEESaIS9_EEESt10_Select1stISC_ESt4lessIS0_ESaISC_EE15_M_destroy_nodeEPSt13_Rb_tree_nodeISC_E
FNDA:0,_ZNSt8_Rb_treeI16Connect_SB_SidesSt4pairIKS0_St6vectorINSt7__cxx1112basic_stringIcSt11char_traitsIcESaIcEEESaIS9_EEESt10_Select1stISC_ESt4lessIS0_ESaISC_EE15_M_destroy_nodeEPSt13_Rb_tree_nodeISC_E
FN:648,_ZNSt8_Rb_treeI16Connect_SB_SidesSt4pairIKS0_St6vectorINSt7__cxx1112basic_stringIcSt11char_traitsIcESaIcEEESaIS9_EEESt10_Select1stISC_ESt4lessIS0_ESaISC_EE12_M_drop_nodeEPSt13_Rb_tree_nodeISC_E
FNDA:0,_ZNSt8_Rb_treeI16Connect_SB_SidesSt4pairIKS0_St6vectorINSt7__cxx1112basic_stringIcSt11char_traitsIcESaIcEEESaIS9_EEESt10_Select1stISC_ESt4lessIS0_ESaISC_EE12_M_drop_nodeEPSt13_Rb_tree_nodeISC_E
FN:744,_ZNSt8_Rb_treeI16Connect_SB_SidesSt4pairIKS0_St6vectorINSt7__cxx1112basic_stringIcSt11char_traitsIcESaIcEEESaIS9_EEESt10_Select1stISC_ESt4lessIS0_ESaISC_EE8_M_beginEv
FNDA:0,_ZNSt8_Rb_treeI16Connect_SB_SidesSt4pairIKS0_St6vectorINSt7__cxx1112basic_stringIcSt11char_traitsIcESaIcEEESaIS9_EEESt10_Select1stISC_ESt4lessIS0_ESaISC_EE8_M_beginEv
FN:789,_ZNSt8_Rb_treeI16Connect_SB_SidesSt4pairIKS0_St6vectorINSt7__cxx1112basic_stringIcSt11char_traitsIcESaIcEEESaIS9_EEESt10_Select1stISC_ESt4lessIS0_ESaISC_EE7_S_leftEPSt18_Rb_tree_node_base
FNDA:0,_ZNSt8_Rb_treeI16Connect_SB_SidesSt4pairIKS0_St6vectorINSt7__cxx1112basic_stringIcSt11char_traitsIcESaIcEEESaIS9_EEESt10_Select1stISC_ESt4lessIS0_ESaISC_EE7_S_leftEPSt18_Rb_tree_node_base
FN:797,_ZNSt8_Rb_treeI16Connect_SB_SidesSt4pairIKS0_St6vectorINSt7__cxx1112basic_stringIcSt11char_traitsIcESaIcEEESaIS9_EEESt10_Select1stISC_ESt4lessIS0_ESaISC_EE8_S_rightEPSt18_Rb_tree_node_base
FNDA:0,_ZNSt8_Rb_treeI16Connect_SB_SidesSt4pairIKS0_St6vectorINSt7__cxx1112basic_stringIcSt11char_traitsIcESaIcEEESaIS9_EEESt10_Select1stISC_ESt4lessIS0_ESaISC_EE8_S_rightEPSt18_Rb_tree_node_base
FN:994,_ZNSt8_Rb_treeI16Connect_SB_SidesSt4pairIKS0_St6vectorINSt7__cxx1112basic_stringIcSt11char_traitsIcESaIcEEESaIS9_EEESt10_Select1stISC_ESt4lessIS0_ESaISC_EED2Ev
FNDA:0,_ZNSt8_Rb_treeI16Connect_SB_SidesSt4pairIKS0_St6vectorINSt7__cxx1112basic_stringIcSt11char_traitsIcESaIcEEESaIS9_EEESt10_Select1stISC_ESt4lessIS0_ESaISC_EED2Ev
FN:1907,_ZNSt8_Rb_treeI16Connect_SB_SidesSt4pairIKS0_St6vectorINSt7__cxx1112basic_stringIcSt11char_traitsIcESaIcEEESaIS9_EEESt10_Select1stISC_ESt4lessIS0_ESaISC_EE8_M_eraseEPSt13_Rb_tree_nodeISC_E
FNDA:0,_ZNSt8_Rb_treeI16Connect_SB_SidesSt4pairIKS0_St6vectorINSt7__cxx1112basic_stringIcSt11char_traitsIcESaIcEEESaIS9_EEESt10_Select1stISC_ESt4lessIS0_ESaISC_EE8_M_eraseEPSt13_Rb_tree_nodeISC_E
DA:234,0
DA:235,0
DA:566,0
DA:567,0
DA:583,0
DA:584,0
DA:637,0
DA:642,0
DA:643,0
DA:645,0
DA:648,0
DA:650,0
DA:651,0
DA:652,0
DA:744,0
DA:745,0
DA:789,0
DA:790,0
DA:797,0
DA:798,0
DA:994,0
DA:995,0
DA:1907,0
DA:1911,0
DA:1913,0
DA:1914,0
DA:1915,0
DA:1916,0
DA:1918,0
end_of_record
SF:/usr/include/c++/9/bits/allocator.h
FN:138,_ZNSaI17s_switchblock_infEC2Ev
FNDA:18,_ZNSaI17s_switchblock_infEC2Ev
FN:153,_ZNSaIiED2Ev
FNDA:0,_ZNSaIiED2Ev
FN:153,_ZNSaINSt7__cxx1112basic_stringIcSt11char_traitsIcESaIcEEEED2Ev
FNDA:0,_ZNSaINSt7__cxx1112basic_stringIcSt11char_traitsIcESaIcEEEED2Ev
FN:153,_ZNSaI14s_wireconn_infED2Ev
FNDA:0,_ZNSaI14s_wireconn_infED2Ev
FN:153,_ZNSaISt13_Rb_tree_nodeISt4pairIK16Connect_SB_SidesSt6vectorINSt7__cxx1112basic_stringIcSt11char_traitsIcESaIcEEESaIS9_EEEEED2Ev
FNDA:0,_ZNSaISt13_Rb_tree_nodeISt4pairIK16Connect_SB_SidesSt6vectorINSt7__cxx1112basic_stringIcSt11char_traitsIcESaIcEEESaIS9_EEEEED2Ev
FN:153,_ZNSaI17s_switchblock_infED2Ev
FNDA:18,_ZNSaI17s_switchblock_infED2Ev
DA:138,18
DA:153,0
DA:153,0
DA:153,0
DA:153,0
DA:153,18
end_of_record
SF:/usr/include/c++/9/bits/alloc_traits.h
FN:469,_ZNSt16allocator_traitsISaIiEE10deallocateERS0_Pim
FNDA:0,_ZNSt16allocator_traitsISaIiEE10deallocateERS0_Pim
FN:469,_ZNSt16allocator_traitsISaINSt7__cxx1112basic_stringIcSt11char_traitsIcESaIcEEEEE10deallocateERS6_PS5_m
FNDA:0,_ZNSt16allocator_traitsISaINSt7__cxx1112basic_stringIcSt11char_traitsIcESaIcEEEEE10deallocateERS6_PS5_m
FN:469,_ZNSt16allocator_traitsISaISt13_Rb_tree_nodeISt4pairIK16Connect_SB_SidesSt6vectorINSt7__cxx1112basic_stringIcSt11char_traitsIcESaIcEEESaISA_EEEEEE10deallocateERSF_PSE_m
FNDA:0,_ZNSt16allocator_traitsISaISt13_Rb_tree_nodeISt4pairIK16Connect_SB_SidesSt6vectorINSt7__cxx1112basic_stringIcSt11char_traitsIcESaIcEEESaISA_EEEEEE10deallocateERSF_PSE_m
FN:469,_ZNSt16allocator_traitsISaI14s_wireconn_infEE10deallocateERS1_PS0_m
FNDA:0,_ZNSt16allocator_traitsISaI14s_wireconn_infEE10deallocateERS1_PS0_m
FN:469,_ZNSt16allocator_traitsISaI17s_switchblock_infEE10deallocateERS1_PS0_m
FNDA:0,_ZNSt16allocator_traitsISaI17s_switchblock_infEE10deallocateERS1_PS0_m
FN:495,_ZNSt16allocator_traitsISaISt13_Rb_tree_nodeISt4pairIK16Connect_SB_SidesSt6vectorINSt7__cxx1112basic_stringIcSt11char_traitsIcESaIcEEESaISA_EEEEEE7destroyISD_EEvRSF_PT_
FNDA:0,_ZNSt16allocator_traitsISaISt13_Rb_tree_nodeISt4pairIK16Connect_SB_SidesSt6vectorINSt7__cxx1112basic_stringIcSt11char_traitsIcESaIcEEESaISA_EEEEEE7destroyISD_EEvRSF_PT_
DA:469,0
DA:470,0
DA:469,0
DA:470,0
DA:469,0
DA:470,0
DA:469,0
DA:470,0
DA:469,0
DA:470,0
DA:495,0
DA:497,0
end_of_record
SF:/usr/include/c++/9/bits/stl_pair.h
end_of_record
SF:/usr/include/c++/9/bits/stl_map.h
FN:300,_ZNSt3mapI16Connect_SB_SidesSt6vectorINSt7__cxx1112basic_stringIcSt11char_traitsIcESaIcEEESaIS7_EESt4lessIS0_ESaISt4pairIKS0_S9_EEED2Ev
FNDA:0,_ZNSt3mapI16Connect_SB_SidesSt6vectorINSt7__cxx1112basic_stringIcSt11char_traitsIcESaIcEEESaIS7_EESt4lessIS0_ESaISt4pairIKS0_S9_EEED2Ev
DA:300,0
end_of_record
SF:/usr/include/c++/9/bits/stl_vector.h
FN:94,_ZNSt12_Vector_baseI17s_switchblock_infSaIS0_EE17_Vector_impl_dataC2Ev
FNDA:18,_ZNSt12_Vector_baseI17s_switchblock_infSaIS0_EE17_Vector_impl_dataC2Ev
FN:128,_ZNSt12_Vector_baseI17s_switchblock_infSaIS0_EE12_Vector_implC2Ev
FNDA:18,_ZNSt12_Vector_baseI17s_switchblock_infSaIS0_EE12_Vector_implC2Ev
FN:273,_ZNSt12_Vector_baseIiSaIiEE19_M_get_Tp_allocatorEv
FNDA:0,_ZNSt12_Vector_baseIiSaIiEE19_M_get_Tp_allocatorEv
FN:273,_ZNSt12_Vector_baseINSt7__cxx1112basic_stringIcSt11char_traitsIcESaIcEEESaIS5_EE19_M_get_Tp_allocatorEv
FNDA:0,_ZNSt12_Vector_baseINSt7__cxx1112basic_stringIcSt11char_traitsIcESaIcEEESaIS5_EE19_M_get_Tp_allocatorEv
FN:273,_ZNSt12_Vector_baseI17s_switchblock_infSaIS0_EE19_M_get_Tp_allocatorEv
FNDA:18,_ZNSt12_Vector_baseI17s_switchblock_infSaIS0_EE19_M_get_Tp_allocatorEv
FN:273,_ZNSt12_Vector_baseI14s_wireconn_infSaIS0_EE19_M_get_Tp_allocatorEv
FNDA:0,_ZNSt12_Vector_baseI14s_wireconn_infSaIS0_EE19_M_get_Tp_allocatorEv
FN:285,_ZNSt12_Vector_baseI17s_switchblock_infSaIS0_EEC2Ev
FNDA:18,_ZNSt12_Vector_baseI17s_switchblock_infSaIS0_EEC2Ev
FN:330,_ZNSt12_Vector_baseI14s_wireconn_infSaIS0_EED2Ev
FNDA:0,_ZNSt12_Vector_baseI14s_wireconn_infSaIS0_EED2Ev
FN:330,_ZNSt12_Vector_baseI17s_switchblock_infSaIS0_EED2Ev
FNDA:18,_ZNSt12_Vector_baseI17s_switchblock_infSaIS0_EED2Ev
FN:330,_ZNSt12_Vector_baseINSt7__cxx1112basic_stringIcSt11char_traitsIcESaIcEEESaIS5_EED2Ev
FNDA:0,_ZNSt12_Vector_baseINSt7__cxx1112basic_stringIcSt11char_traitsIcESaIcEEESaIS5_EED2Ev
FN:330,_ZNSt12_Vector_baseIiSaIiEED2Ev
FNDA:0,_ZNSt12_Vector_baseIiSaIiEED2Ev
FN:347,_ZNSt12_Vector_baseI14s_wireconn_infSaIS0_EE13_M_deallocateEPS0_m
FNDA:0,_ZNSt12_Vector_baseI14s_wireconn_infSaIS0_EE13_M_deallocateEPS0_m
FN:347,_ZNSt12_Vector_baseIiSaIiEE13_M_deallocateEPim
FNDA:0,_ZNSt12_Vector_baseIiSaIiEE13_M_deallocateEPim
FN:347,_ZNSt12_Vector_baseI17s_switchblock_infSaIS0_EE13_M_deallocateEPS0_m
FNDA:18,_ZNSt12_Vector_baseI17s_switchblock_infSaIS0_EE13_M_deallocateEPS0_m
FN:347,_ZNSt12_Vector_baseINSt7__cxx1112basic_stringIcSt11char_traitsIcESaIcEEESaIS5_EE13_M_deallocateEPS5_m
FNDA:0,_ZNSt12_Vector_baseINSt7__cxx1112basic_stringIcSt11char_traitsIcESaIcEEESaIS5_EE13_M_deallocateEPS5_m
FN:484,_ZNSt6vectorI17s_switchblock_infSaIS0_EEC2Ev
FNDA:18,_ZNSt6vectorI17s_switchblock_infSaIS0_EEC2Ev
FN:675,_ZNSt6vectorI14s_wireconn_infSaIS0_EED2Ev
FNDA:0,_ZNSt6vectorI14s_wireconn_infSaIS0_EED2Ev
FN:675,_ZNSt6vectorINSt7__cxx1112basic_stringIcSt11char_traitsIcESaIcEEESaIS5_EED2Ev
FNDA:0,_ZNSt6vectorINSt7__cxx1112basic_stringIcSt11char_traitsIcESaIcEEESaIS5_EED2Ev
FN:675,_ZNSt6vectorIiSaIiEED2Ev
FNDA:0,_ZNSt6vectorIiSaIiEED2Ev
FN:675,_ZNSt6vectorI17s_switchblock_infSaIS0_EED2Ev
FNDA:18,_ZNSt6vectorI17s_switchblock_infSaIS0_EED2Ev
DA:94,18
DA:95,18
DA:96,18
DA:128,18
DA:130,18
DA:131,18
DA:273,0
DA:274,0
DA:273,0
DA:274,0
DA:273,0
DA:274,0
DA:273,18
DA:274,18
DA:285,18
DA:330,0
DA:332,0
DA:333,0
DA:334,0
DA:330,0
DA:332,0
DA:333,0
DA:334,0
DA:330,0
DA:332,0
DA:333,0
DA:334,0
DA:330,18
DA:332,18
DA:333,18
DA:334,18
DA:347,0
DA:350,0
DA:351,0
DA:352,0
DA:347,0
DA:350,0
DA:351,0
DA:352,0
DA:347,0
DA:350,0
DA:351,0
DA:352,0
DA:347,18
DA:350,18
DA:351,0
DA:352,18
DA:484,18
DA:675,0
DA:677,0
DA:678,0
DA:680,0
DA:675,0
DA:677,0
DA:678,0
DA:680,0
DA:675,0
DA:677,0
DA:678,0
DA:680,0
DA:675,18
DA:677,18
DA:678,18
DA:680,18
end_of_record
SF:/usr/include/c++/9/bits/move.h
FN:47,_ZSt11__addressofINSt7__cxx1112basic_stringIcSt11char_traitsIcESaIcEEEEPT_RS6_
FNDA:0,_ZSt11__addressofINSt7__cxx1112basic_stringIcSt11char_traitsIcESaIcEEEEPT_RS6_
FN:47,_ZSt11__addressofI14s_wireconn_infEPT_RS1_
FNDA:0,_ZSt11__addressofI14s_wireconn_infEPT_RS1_
FN:47,_ZSt11__addressofI17s_switchblock_infEPT_RS1_
FNDA:0,_ZSt11__addressofI17s_switchblock_infEPT_RS1_
DA:47,0
DA:48,0
DA:47,0
DA:48,0
DA:47,0
DA:48,0
end_of_record
SF:/workspace/vtr-verilog-to-routing/ODIN_II/SRC/odin_ii.c
FN:69,main
FNDA:18,main
FN:143,_Z11print_usagev
FNDA:0,_Z11print_usagev
FN:198,_Z11get_optionsiPPc
FNDA:18,_Z11get_optionsiPPc
DA:69,18
DA:74,18
DA:75,18
DA:76,18
DA:79,18
DA:80,18
DA:81,18
DA:84,18
DA:87,18
DA:89,0
DA:90,0
DA:94,18
DA:96,17
DA:103,17
DA:115,18
DA:118,17
DA:122,1
DA:126,18
DA:130,17
DA:131,17
DA:132,17
DA:133,17
DA:136,17
DA:143,0
DA:146,0
DA:192,0
DA:193,0
DA:198,18
DA:201,18
DA:205,18
DA:206,18
DA:207,106
DA:209,88
DA:212,17
DA:213,17
DA:214,17
DA:215,17
DA:217,0
DA:218,0
DA:219,0
DA:220,17
DA:221,17
DA:222,17
DA:223,1
DA:224,1
DA:225,1
DA:234,1
DA:235,1
DA:236,1
DA:237,0
DA:242,0
DA:244,0
DA:245,0
DA:246,0
DA:247,0
DA:249,0
DA:250,0
DA:251,0
DA:252,0
DA:253,0
DA:254,0
DA:255,0
DA:256,0
DA:257,0
DA:258,0
DA:259,0
DA:260,0
DA:261,17
DA:262,17
DA:263,17
DA:264,17
DA:265,17
DA:266,17
DA:267,0
DA:268,0
DA:269,0
DA:270,0
DA:271,0
DA:273,0
DA:274,0
DA:275,0
DA:276,0
DA:277,0
DA:278,0
DA:279,0
DA:280,0
DA:281,0
DA:282,0
DA:283,0
DA:284,0
DA:285,0
DA:286,18
DA:287,18
DA:288,18
DA:289,0
DA:290,0
DA:291,0
DA:292,0
DA:293,0
DA:294,0
DA:295,0
DA:297,88
DA:300,18
DA:301,18
DA:302,18
DA:303,17
DA:304,0
DA:306,0
DA:307,0
DA:313,18
DA:315,0
DA:317,18
end_of_record
SF:/usr/include/c++/9/ext/new_allocator.h
FN:80,_ZN9__gnu_cxx13new_allocatorI17s_switchblock_infEC2Ev
FNDA:18,_ZN9__gnu_cxx13new_allocatorI17s_switchblock_infEC2Ev
FN:89,_ZN9__gnu_cxx13new_allocatorIiED2Ev
FNDA:0,_ZN9__gnu_cxx13new_allocatorIiED2Ev
FN:89,_ZN9__gnu_cxx13new_allocatorINSt7__cxx1112basic_stringIcSt11char_traitsIcESaIcEEEED2Ev
FNDA:0,_ZN9__gnu_cxx13new_allocatorINSt7__cxx1112basic_stringIcSt11char_traitsIcESaIcEEEED2Ev
FN:89,_ZN9__gnu_cxx13new_allocatorI14s_wireconn_infED2Ev
FNDA:0,_ZN9__gnu_cxx13new_allocatorI14s_wireconn_infED2Ev
FN:89,_ZN9__gnu_cxx13new_allocatorISt13_Rb_tree_nodeISt4pairIK16Connect_SB_SidesSt6vectorINSt7__cxx1112basic_stringIcSt11char_traitsIcESaIcEEESaISB_EEEEED2Ev
FNDA:0,_ZN9__gnu_cxx13new_allocatorISt13_Rb_tree_nodeISt4pairIK16Connect_SB_SidesSt6vectorINSt7__cxx1112basic_stringIcSt11char_traitsIcESaIcEEESaISB_EEEEED2Ev
FN:89,_ZN9__gnu_cxx13new_allocatorI17s_switchblock_infED2Ev
FNDA:18,_ZN9__gnu_cxx13new_allocatorI17s_switchblock_infED2Ev
FN:119,_ZN9__gnu_cxx13new_allocatorIiE10deallocateEPim
FNDA:0,_ZN9__gnu_cxx13new_allocatorIiE10deallocateEPim
FN:119,_ZN9__gnu_cxx13new_allocatorINSt7__cxx1112basic_stringIcSt11char_traitsIcESaIcEEEE10deallocateEPS6_m
FNDA:0,_ZN9__gnu_cxx13new_allocatorINSt7__cxx1112basic_stringIcSt11char_traitsIcESaIcEEEE10deallocateEPS6_m
FN:119,_ZN9__gnu_cxx13new_allocatorISt13_Rb_tree_nodeISt4pairIK16Connect_SB_SidesSt6vectorINSt7__cxx1112basic_stringIcSt11char_traitsIcESaIcEEESaISB_EEEEE10deallocateEPSF_m
FNDA:0,_ZN9__gnu_cxx13new_allocatorISt13_Rb_tree_nodeISt4pairIK16Connect_SB_SidesSt6vectorINSt7__cxx1112basic_stringIcSt11char_traitsIcESaIcEEESaISB_EEEEE10deallocateEPSF_m
FN:119,_ZN9__gnu_cxx13new_allocatorI14s_wireconn_infE10deallocateEPS1_m
FNDA:0,_ZN9__gnu_cxx13new_allocatorI14s_wireconn_infE10deallocateEPS1_m
FN:119,_ZN9__gnu_cxx13new_allocatorI17s_switchblock_infE10deallocateEPS1_m
FNDA:0,_ZN9__gnu_cxx13new_allocatorI17s_switchblock_infE10deallocateEPS1_m
FN:151,_ZN9__gnu_cxx13new_allocatorISt13_Rb_tree_nodeISt4pairIK16Connect_SB_SidesSt6vectorINSt7__cxx1112basic_stringIcSt11char_traitsIcESaIcEEESaISB_EEEEE7destroyISE_EEvPT_
FNDA:0,_ZN9__gnu_cxx13new_allocatorISt13_Rb_tree_nodeISt4pairIK16Connect_SB_SidesSt6vectorINSt7__cxx1112basic_stringIcSt11char_traitsIcESaIcEEESaISB_EEEEE7destroyISE_EEvPT_
DA:80,18
DA:89,0
DA:89,0
DA:89,0
DA:89,0
DA:89,18
DA:119,0
DA:128,0
DA:129,0
DA:119,0
DA:128,0
DA:129,0
DA:119,0
DA:128,0
DA:129,0
DA:119,0
DA:128,0
DA:129,0
DA:119,0
DA:128,0
DA:129,0
DA:151,0
DA:153,0
end_of_record
SF:/workspace/vtr-verilog-to-routing/libarchfpga/include/physical_types.h
end_of_record
TN:
SF:/workspace/vtr-verilog-to-routing/ODIN_II/SRC/odin_ii_func.c
FN:58,_Z19set_default_optionsv
FNDA:18,_Z19set_default_optionsv
FN:109,_Z23do_high_level_synthesisv
FNDA:17,_Z23do_high_level_synthesisv
FN:193,_Z24do_simulation_of_netlistv
FNDA:18,_Z24do_simulation_of_netlistv
DA:58,18
DA:61,18
DA:62,18
DA:63,18
DA:64,18
DA:65,18
DA:66,18
DA:67,18
DA:68,18
DA:69,18
DA:70,18
DA:71,18
DA:72,18
DA:73,18
DA:74,18
DA:75,18
DA:76,18
DA:77,18
DA:78,18
DA:79,18
DA:82,18
DA:83,18
DA:84,18
DA:85,18
DA:86,18
DA:87,18
DA:88,18
DA:89,18
DA:90,18
DA:92,18
DA:93,18
DA:95,18
DA:96,18
DA:102,18
DA:103,18
DA:104,18
DA:109,17
DA:111,17
DA:113,17
DA:114,17
DA:117,17
DA:118,17
DA:120,17
DA:122,17
DA:125,17
DA:127,17
DA:132,17
DA:134,0
DA:138,17
DA:142,17
DA:144,17
DA:147,17
DA:150,17
DA:151,17
DA:153,17
DA:156,0
DA:162,17
DA:163,17
DA:166,17
DA:176,17
DA:177,17
DA:179,17
DA:181,17
DA:182,17
DA:183,17
DA:184,17
DA:187,17
DA:188,17
DA:193,18
DA:195,18
DA:196,1
DA:198,17
DA:199,17
DA:201,16
end_of_record
TN:
SF:/workspace/vtr-verilog-to-routing/ODIN_II/SRC/verilog_preprocessor.c
FN:17,_Z17init_veri_preprocv
FNDA:17,_Z17init_veri_preprocv
FN:42,_Z20cleanup_veri_preprocv
FNDA:17,_Z20cleanup_veri_preprocv
FN:76,_Z17clean_veri_defineP11veri_define
FNDA:66,_Z17clean_veri_defineP11veri_define
FN:96,_Z18clean_veri_includeP12veri_include
FNDA:17,_Z18clean_veri_includeP12veri_include
FN:113,_Z15add_veri_definePcS_iP12veri_include
FNDA:66,_Z15add_veri_definePcS_iP12veri_include
FN:182,_Z16add_veri_includePciP12veri_include
FNDA:17,_Z16add_veri_includePciP12veri_include
FN:226,_Z19ret_veri_definedvalPc
FNDA:722,_Z19ret_veri_definedvalPc
FN:240,_Z15veri_is_definedPc
FNDA:722,_Z15veri_is_definedPc
FN:261,_Z16open_source_filePc
FNDA:0,_Z16open_source_filePc
FN:312,_Z12veri_preprocP8_IO_FILE
FNDA:17,_Z12veri_preprocP8_IO_FILE
FN:350,_Z15remove_commentsP8_IO_FILE
FNDA:17,_Z15remove_commentsP8_IO_FILE
FN:398,_Z24veri_preproc_bootstrapedP8_IO_FILES0_P12veri_include
FNDA:17,_Z24veri_preproc_bootstrapedP8_IO_FILES0_P12veri_include
FN:627,_Z4trimPc
FNDA:17855,_Z4trimPc
FN:654,_Z3topP15veri_flag_stack
FNDA:17657,_Z3topP15veri_flag_stack
FN:664,_Z3popP15veri_flag_stack
FNDA:0,_Z3popP15veri_flag_stack
FN:678,_Z4pushP15veri_flag_stacki
FNDA:0,_Z4pushP15veri_flag_stacki
DA:17,17
DA:19,17
DA:20,17
DA:22,0
DA:23,0
DA:25,17
DA:26,17
DA:28,17
DA:29,17
DA:31,0
DA:32,0
DA:34,17
DA:35,17
DA:36,17
DA:42,17
DA:46,17
DA:47,17
DA:50,83
DA:52,66
DA:54,17
DA:55,17
DA:56,17
DA:57,17
DA:59,34
DA:61,17
DA:63,17
DA:64,17
DA:65,17
DA:66,17
DA:70,17
DA:76,66
DA:78,66
DA:81,66
DA:83,66
DA:85,66
DA:87,66
DA:88,66
DA:91,66
DA:96,17
DA:98,17
DA:101,17
DA:103,17
DA:104,17
DA:107,17
DA:113,66
DA:116,66
DA:117,66
DA:118,66
DA:120,0
DA:121,0
DA:125,66
DA:127,2
DA:129,2
DA:133,1510
DA:135,1444
DA:137,0
DA:138,0
DA:140,0
DA:143,0
DA:144,0
DA:145,0
DA:153,0
DA:155,0
DA:157,0
DA:158,0
DA:161,0
DA:162,0
DA:167,66
DA:168,66
DA:169,66
DA:170,66
DA:172,66
DA:173,66
DA:175,66
DA:182,17
DA:185,17
DA:186,17
DA:187,17
DA:189,0
DA:190,0
DA:194,17
DA:196,0
DA:198,0
DA:202,17
DA:204,0
DA:206,0
DA:212,17
DA:213,17
DA:214,17
DA:216,17
DA:217,17
DA:219,17
DA:226,722
DA:228,722
DA:229,722
DA:231,656
DA:233,66
DA:240,722
DA:243,722
DA:245,11144
DA:247,11078
DA:249,656
DA:252,66
DA:261,0
DA:267,0
DA:268,0
DA:270,0
DA:274,0
DA:276,0
DA:278,0
DA:280,0
DA:284,0
DA:285,0
DA:288,0
DA:289,0
DA:291,0
DA:292,0
DA:294,0
DA:295,0
DA:297,0
DA:298,0
DA:300,0
DA:302,0
DA:303,0
DA:306,0
DA:312,17
DA:317,17
DA:320,17
DA:321,17
DA:322,17
DA:324,0
DA:325,0
DA:328,17
DA:329,17
DA:331,17
DA:333,0
DA:334,0
DA:339,17
DA:341,17
DA:342,17
DA:343,17
DA:350,17
DA:352,17
DA:353,17
DA:354,17
DA:357,17
DA:358,17608
DA:361,390233
DA:363,373460
DA:366,360880
DA:371,360062
DA:373,168
DA:374,168
DA:378,359894
DA:379,343236
DA:385,12580
DA:387,168
DA:388,168
DA:392,17591
DA:394,17
DA:395,17
DA:398,17
DA:401,17
DA:403,17
DA:404,17
DA:407,17
DA:409,17608
DA:415,17591
DA:418,17591
DA:420,17591
DA:421,18313
DA:423,722
DA:424,722
DA:425,722
DA:427,722
DA:428,6803
DA:429,7255
DA:430,8921
DA:431,1196
DA:432,6599
DA:434,722
DA:435,722
DA:436,722
DA:437,722
DA:438,656
DA:439,656
DA:443,66
DA:444,66
DA:445,66
DA:447,722
DA:448,722
DA:450,17591
DA:451,17591
DA:452,17591
DA:453,17591
DA:455,17591
DA:460,17591
DA:462,66
DA:467,66
DA:469,0
DA:471,0
DA:473,0
DA:475,0
DA:478,0
DA:480,0
DA:482,0
DA:485,0
DA:487,0
DA:489,0
DA:491,0
DA:496,66
DA:498,66
DA:501,66
DA:504,66
DA:508,66
DA:511,66
DA:513,66
DA:515,66
DA:520,0
DA:522,0
DA:524,0
DA:526,0
DA:528,0
DA:530,0
DA:532,0
DA:533,0
DA:534,0
DA:537,0
DA:540,0
DA:541,0
DA:543,0
DA:544,0
DA:545,0
DA:547,0
DA:551,0
DA:556,0
DA:559,0
DA:562,0
DA:563,0
DA:565,0
DA:566,0
DA:567,0
DA:569,0
DA:573,0
DA:578,0
DA:581,0
DA:584,0
DA:587,0
DA:588,0
DA:591,0
DA:593,0
DA:594,0
DA:601,0
DA:603,0
DA:606,0
DA:608,0
DA:611,17525
DA:613,17525
DA:618,17591
DA:619,17591
DA:621,17
DA:622,17
DA:623,17
DA:627,17855
DA:629,17855
DA:630,17855
DA:633,47194
DA:635,35140
DA:637,33637
DA:639,17285
DA:642,16352
DA:645,17855
DA:654,17657
DA:656,17657
DA:658,0
DA:660,17657
DA:664,0
DA:666,0
DA:668,0
DA:669,0
DA:671,0
DA:672,0
DA:674,0
DA:676,0
DA:678,0
DA:680,0
DA:682,0
DA:683,0
DA:684,0
DA:686,0
DA:688,0
end_of_record
TN:
SF:/workspace/vtr-verilog-to-routing/ODIN_II/SRC/output_graphcrunch_format.c
FN:39,_Z18graphcrunch_outputPcS_sP11netlist_t_t
FNDA:0,_Z18graphcrunch_outputPcS_sP11netlist_t_t
FN:57,_Z32depth_first_traverse_graphcrunchP8_IO_FILEsP11netlist_t_t
FNDA:0,_Z32depth_first_traverse_graphcrunchP8_IO_FILEsP11netlist_t_t
FN:79,_Z41depth_first_traversal_graphcrunch_displayP9nnode_t_tP8_IO_FILEi
FNDA:0,_Z41depth_first_traversal_graphcrunch_displayP9nnode_t_tP8_IO_FILEi
DA:39,0
DA:45,0
DA:46,0
DA:48,0
DA:51,0
DA:52,0
DA:57,0
DA:62,0
DA:64,0
DA:66,0
DA:70,0
DA:71,0
DA:72,0
DA:73,0
DA:74,0
DA:79,0
DA:85,0
DA:87,0
DA:96,0
DA:98,0
DA:100,0
DA:101,0
DA:103,0
DA:104,0
DA:106,0
DA:107,0
DA:109,0
DA:110,0
DA:111,0
DA:115,0
DA:116,0
DA:118,0
DA:121,0
DA:122,0
DA:124,0
DA:127,0
DA:128,0
DA:131,0
DA:133,0
DA:134,0
DA:137,0
end_of_record
TN:
SF:/workspace/vtr-verilog-to-routing/ODIN_II/SRC/read_blif.c
FN:137,_Z9read_blifPc
FNDA:1,_Z9read_blifPc
FN:190,_Z11read_tokensPcP17hard_block_modelsP8_IO_FILEP13hashtable_t_t
FNDA:19,_Z11read_tokensPcP17hard_block_modelsP8_IO_FILEP13hashtable_t_t
FN:248,_Z31assign_node_type_from_node_namePc
FNDA:2,_Z31assign_node_type_from_node_namePc
FN:318,_Z28create_latch_node_and_driverP8_IO_FILEP13hashtable_t_t
FNDA:0,_Z28create_latch_node_and_driverP8_IO_FILEP13hashtable_t_t
FN:429,_Z17search_clock_nameP8_IO_FILE
FNDA:0,_Z17search_clock_nameP8_IO_FILE
FN:497,_Z23create_hard_block_nodesP17hard_block_modelsP8_IO_FILEP13hashtable_t_t
FNDA:1,_Z23create_hard_block_nodesP17hard_block_modelsP8_IO_FILEP13hashtable_t_t
FN:649,_Z31create_internal_node_and_driverP8_IO_FILEP13hashtable_t_t
FNDA:5,_Z31create_internal_node_and_driverP8_IO_FILEP13hashtable_t_t
FN:780,_Z30read_bit_map_find_unknown_gateiP9nnode_t_tP8_IO_FILE
FNDA:2,_Z30read_bit_map_find_unknown_gateiP9nnode_t_tP8_IO_FILE
FN:1010,_Z19add_top_input_nodesP8_IO_FILEP13hashtable_t_t
FNDA:1,_Z19add_top_input_nodesP8_IO_FILEP13hashtable_t_t
FN:1062,_Z26rb_create_top_output_nodesP8_IO_FILE
FNDA:1,_Z26rb_create_top_output_nodesP8_IO_FILE
FN:1103,_Z18rb_look_for_clocksv
FNDA:1,_Z18rb_look_for_clocksv
FN:1125,_Z25rb_create_top_driver_netsPKcP13hashtable_t_t
FNDA:1,_Z25rb_create_top_driver_netsPKcP13hashtable_t_t
FN:1189,_ZL9dum_parsePcP8_IO_FILE
FNDA:1,_ZL9dum_parsePcP8_IO_FILE
FN:1201,_Z12hook_up_netsP13hashtable_t_t
FNDA:1,_Z12hook_up_netsP13hashtable_t_t
FN:1224,_Z12hook_up_nodeP9nnode_t_tP13hashtable_t_t
FNDA:5,_Z12hook_up_nodeP9nnode_t_tP13hashtable_t_t
FN:1245,_Z21read_hard_block_modelPcP16hard_block_portsP8_IO_FILE
FNDA:1,_Z21read_hard_block_modelPcP16hard_block_portsP8_IO_FILE
FN:1345,_ZL28compare_hard_block_pin_namesPKvS0_
FNDA:43,_ZL28compare_hard_block_pin_namesPKvS0_
FN:1373,_Z11index_namesPPci
FNDA:5,_Z11index_namesPPci
FN:1389,_Z15associate_namesPPcS0_i
FNDA:1,_Z15associate_namesPPcS0_i
FN:1405,_Z20get_hard_block_portsPPci
FNDA:3,_Z20get_hard_block_portsPPci
FN:1442,_Z37verify_hard_block_ports_against_modelP16hard_block_portsP16hard_block_model
FNDA:1,_Z37verify_hard_block_ports_against_modelP16hard_block_portsP16hard_block_model
FN:1497,_Z35generate_hard_block_ports_signatureP16hard_block_ports
FNDA:3,_Z35generate_hard_block_ports_signatureP16hard_block_ports
FN:1522,_Z24get_hard_block_port_namePc
FNDA:128,_Z24get_hard_block_port_namePc
FN:1539,_Z25get_hard_block_pin_numberPc
FNDA:50,_Z25get_hard_block_pin_numberPc
FN:1561,_Z20add_hard_block_modelP16hard_block_modelP16hard_block_portsP17hard_block_models
FNDA:1,_Z20add_hard_block_modelP16hard_block_modelP16hard_block_portsP17hard_block_models
FN:1576,_Z20get_hard_block_modelPcP16hard_block_portsP17hard_block_models
FNDA:1,_Z20get_hard_block_modelPcP16hard_block_portsP17hard_block_models
FN:1588,_Z24create_hard_block_modelsv
FNDA:1,_Z24create_hard_block_modelsv
FN:1602,_Z16count_blif_linesP8_IO_FILE
FNDA:1,_Z16count_blif_linesP8_IO_FILE
FN:1620,_Z22free_hard_block_modelsP17hard_block_models
FNDA:1,_Z22free_hard_block_modelsP17hard_block_models
FN:1635,_Z21free_hard_block_modelP16hard_block_model
FNDA:1,_Z21free_hard_block_modelP16hard_block_model
FN:1649,_Z20free_hard_block_pinsP15hard_block_pins
FNDA:2,_Z20free_hard_block_pinsP15hard_block_pins
FN:1663,_Z21free_hard_block_portsP16hard_block_ports
FNDA:3,_Z21free_hard_block_portsP16hard_block_ports
DA:137,1
DA:140,1
DA:142,1
DA:144,1
DA:146,1
DA:148,1
DA:150,1
DA:152,1
DA:155,1
DA:157,1
DA:158,1
DA:159,1
DA:160,1
DA:162,1
DA:163,1
DA:165,19
DA:167,18
DA:169,1
DA:171,1
DA:173,1
DA:174,1
DA:177,1
DA:178,1
DA:179,1
DA:180,1
DA:190,19
DA:194,19
DA:196,19
DA:198,13
DA:200,0
DA:204,13
DA:205,13
DA:207,1
DA:209,12
DA:211,1
DA:213,11
DA:215,5
DA:217,6
DA:219,0
DA:221,6
DA:223,1
DA:225,5
DA:229,1
DA:230,1
DA:232,4
DA:235,1
DA:239,18
DA:248,2
DA:252,2
DA:253,12
DA:254,4
DA:256,2
DA:259,2
DA:261,8
DA:263,6
DA:266,2
DA:268,2
DA:269,2
DA:270,2
DA:271,2
DA:272,2
DA:273,2
DA:274,2
DA:275,2
DA:276,2
DA:277,2
DA:278,2
DA:279,2
DA:280,2
DA:281,2
DA:282,2
DA:283,2
DA:284,2
DA:285,2
DA:286,2
DA:287,2
DA:288,2
DA:289,2
DA:290,2
DA:291,2
DA:292,2
DA:293,2
DA:294,2
DA:295,2
DA:296,2
DA:297,2
DA:298,2
DA:299,2
DA:300,2
DA:301,2
DA:302,2
DA:303,2
DA:304,2
DA:305,2
DA:306,2
DA:307,2
DA:308,2
DA:309,2
DA:310,2
DA:318,0
DA:321,0
DA:322,0
DA:326,0
DA:328,0
DA:329,0
DA:331,0
DA:332,0
DA:336,0
DA:339,0
DA:341,0
DA:342,0
DA:343,0
DA:345,0
DA:346,0
DA:348,0
DA:349,0
DA:353,0
DA:357,0
DA:358,0
DA:359,0
DA:369,0
DA:370,0
DA:371,0
DA:372,0
DA:376,0
DA:377,0
DA:380,0
DA:384,0
DA:386,0
DA:390,0
DA:391,0
DA:392,0
DA:393,0
DA:395,0
DA:396,0
DA:397,0
DA:398,0
DA:401,0
DA:404,0
DA:405,0
DA:408,0
DA:409,0
DA:411,0
DA:412,0
DA:413,0
DA:414,0
DA:415,0
DA:417,0
DA:420,0
DA:421,0
DA:422,0
DA:429,0
DA:432,0
DA:433,0
DA:434,0
DA:436,0
DA:437,0
DA:438,0
DA:439,0
DA:442,0
DA:445,0
DA:446,0
DA:449,0
DA:451,0
DA:452,0
DA:454,0
DA:457,0
DA:459,0
DA:460,0
DA:463,0
DA:465,0
DA:468,0
DA:470,0
DA:472,0
DA:473,0
DA:476,0
DA:478,0
DA:480,0
DA:484,0
DA:485,0
DA:487,0
DA:488,0
DA:497,1
DA:500,1
DA:504,1
DA:506,1
DA:507,15
DA:509,14
DA:510,14
DA:514,1
DA:515,1
DA:516,1
DA:517,15
DA:519,14
DA:520,14
DA:524,1
DA:527,1
DA:529,15
DA:530,14
DA:532,1
DA:535,1
DA:539,1
DA:542,1
DA:544,1
DA:547,1
DA:551,1
DA:552,1
DA:555,1
DA:556,1
DA:557,1
DA:558,0
DA:559,1
DA:560,1
DA:561,0
DA:562,0
DA:564,0
DA:565,1
DA:570,1
DA:571,4
DA:572,3
DA:574,1
DA:575,3
DA:576,2
DA:580,1
DA:581,1
DA:582,1
DA:583,1
DA:586,10
DA:588,9
DA:589,9
DA:591,9
DA:592,0
DA:594,9
DA:595,9
DA:596,9
DA:597,9
DA:599,9
DA:603,6
DA:605,5
DA:606,5
DA:608,5
DA:610,5
DA:611,5
DA:612,5
DA:613,5
DA:615,5
DA:617,5
DA:618,5
DA:620,5
DA:623,5
DA:627,1
DA:628,1
DA:629,1
DA:630,1
DA:633,1
DA:634,1
DA:636,1
DA:637,1
DA:638,1
DA:639,1
DA:642,1
DA:649,5
DA:653,5
DA:654,5
DA:656,12
DA:658,7
DA:659,7
DA:663,5
DA:664,5
DA:667,5
DA:668,5
DA:669,4
DA:670,3
DA:673,3
DA:678,2
DA:680,2
DA:682,0
DA:683,0
DA:686,2
DA:688,2
DA:689,2
DA:693,2
DA:695,2
DA:698,2
DA:700,0
DA:701,0
DA:706,4
DA:707,2
DA:713,4
DA:715,2
DA:716,2
DA:717,2
DA:718,2
DA:722,2
DA:724,0
DA:725,0
DA:727,0
DA:728,0
DA:729,0
DA:730,0
DA:733,2
DA:735,0
DA:736,0
DA:738,0
DA:739,0
DA:740,0
DA:741,0
DA:745,2
DA:746,2
DA:749,2
DA:752,2
DA:753,2
DA:757,2
DA:758,2
DA:759,2
DA:761,2
DA:763,2
DA:764,2
DA:766,2
DA:768,2
DA:771,2
DA:773,5
DA:780,2
DA:783,2
DA:784,2
DA:785,2
DA:786,2
DA:788,2
DA:791,0
DA:793,0
DA:794,0
DA:796,0
DA:797,0
DA:798,0
DA:799,0
DA:800,0
DA:803,2
DA:804,2
DA:805,2
DA:809,4
DA:810,4
DA:811,2
DA:813,2
DA:814,2
DA:815,2
DA:816,2
DA:819,2
DA:821,2
DA:822,2
DA:826,0
DA:827,0
DA:830,2
DA:831,2
DA:834,2
DA:837,2
DA:838,0
DA:841,2
DA:842,0
DA:846,4
DA:848,2
DA:850,2
DA:851,2
DA:852,0
DA:853,0
DA:857,0
DA:858,0
DA:861,0
DA:862,0
DA:864,0
DA:865,0
DA:866,0
DA:867,0
DA:871,0
DA:874,0
DA:876,0
DA:878,0
DA:881,0
DA:882,0
DA:883,0
DA:884,0
DA:885,0
DA:887,0
DA:889,0
DA:890,0
DA:891,0
DA:892,0
DA:893,0
DA:895,0
DA:897,0
DA:898,0
DA:899,0
DA:900,0
DA:901,0
DA:903,0
DA:905,0
DA:906,0
DA:907,0
DA:908,0
DA:909,0
DA:911,0
DA:915,0
DA:919,0
DA:921,0
DA:924,0
DA:925,0
DA:926,0
DA:928,0
DA:929,0
DA:933,0
DA:937,0
DA:938,0
DA:941,0
DA:943,0
DA:946,0
DA:947,0
DA:948,0
DA:950,0
DA:954,0
DA:958,0
DA:959,0
DA:963,0
DA:966,0
DA:968,0
DA:969,0
DA:970,0
DA:974,0
DA:976,0
DA:977,0
DA:978,0
DA:985,0
DA:986,0
DA:994,0
DA:995,0
DA:1000,0
DA:1001,0
DA:1002,0
DA:1010,5
DA:1014,5
DA:1016,4
DA:1020,4
DA:1022,4
DA:1023,4
DA:1026,4
DA:1029,4
DA:1030,4
DA:1033,4
DA:1034,4
DA:1035,4
DA:1038,4
DA:1040,4
DA:1041,4
DA:1043,4
DA:1045,4
DA:1046,4
DA:1054,4
DA:1056,1
DA:1062,3
DA:1067,3
DA:1069,2
DA:1074,2
DA:1075,2
DA:1076,2
DA:1079,2
DA:1082,2
DA:1083,2
DA:1086,2
DA:1087,2
DA:1089,2
DA:1093,2
DA:1094,2
DA:1096,1
DA:1103,1
DA:1106,1
DA:1108,0
DA:1110,0
DA:1114,1
DA:1125,1
DA:1132,1
DA:1133,1
DA:1134,1
DA:1135,1
DA:1136,1
DA:1137,1
DA:1138,1
DA:1139,1
DA:1142,1
DA:1143,1
DA:1144,1
DA:1145,1
DA:1146,1
DA:1147,1
DA:1148,1
DA:1149,1
DA:1152,1
DA:1153,1
DA:1154,1
DA:1155,1
DA:1156,1
DA:1157,1
DA:1158,1
DA:1159,1
DA:1162,1
DA:1163,1
DA:1165,1
DA:1167,1
DA:1170,1
DA:1171,1
DA:1173,1
DA:1175,1
DA:1178,1
DA:1179,1
DA:1181,1
DA:1183,1
DA:1184,1
DA:1189,2
DA:1192,2
DA:1193,1
DA:1201,1
DA:1203,1
DA:1204,1
DA:1205,1
DA:1209,4
DA:1212,8
DA:1214,5
DA:1215,5
DA:1218,1
DA:1224,5
DA:1227,18
DA:1229,13
DA:1231,13
DA:1233,13
DA:1234,0
DA:1236,13
DA:1238,5
DA:1245,1
DA:1249,1
DA:1250,1
DA:1255,1
DA:1259,10
DA:1261,10
DA:1263,10
DA:1265,1
DA:1266,1
DA:1267,1
DA:1268,1
DA:1269,1
DA:1271,1
DA:1272,1
DA:1273,1
DA:1276,4
DA:1278,4
DA:1279,4
DA:1282,10
DA:1284,9
DA:1285,9
DA:1288,3
DA:1291,6
DA:1293,5
DA:1294,5
DA:1297,2
DA:1299,1
DA:1302,1
DA:1306,1
DA:1307,0
DA:1310,1
DA:1311,1
DA:1314,1
DA:1315,1
DA:1318,1
DA:1319,1
DA:1322,1
DA:1324,1
DA:1328,0
DA:1330,0
DA:1333,1
DA:1334,1
DA:1336,1
DA:1345,43
DA:1347,43
DA:1348,43
DA:1350,43
DA:1351,43
DA:1352,43
DA:1353,43
DA:1354,43
DA:1357,43
DA:1359,25
DA:1360,25
DA:1361,25
DA:1365,18
DA:1373,5
DA:1375,5
DA:1377,29
DA:1379,24
DA:1380,24
DA:1381,24
DA:1383,5
DA:1389,1
DA:1391,1
DA:1393,15
DA:1394,14
DA:1396,1
DA:1405,3
DA:1408,3
DA:1409,3
DA:1410,3
DA:1411,3
DA:1412,3
DA:1414,31
DA:1416,28
DA:1418,28
DA:1420,10
DA:1421,10
DA:1423,10
DA:1424,10
DA:1425,10
DA:1428,28
DA:1429,28
DA:1432,3
DA:1433,3
DA:1435,3
DA:1442,1
DA:1444,1
DA:1446,3
DA:1448,2
DA:1450,7
DA:1453,5
DA:1454,5
DA:1455,5
DA:1457,5
DA:1460,0
DA:1464,5
DA:1466,5
DA:1469,0
DA:1474,1
DA:1475,1
DA:1477,6
DA:1480,5
DA:1481,5
DA:1482,5
DA:1484,5
DA:1487,0
DA:1491,1
DA:1497,3
DA:1500,3
DA:1502,3
DA:1505,13
DA:1508,10
DA:1509,10
DA:1511,3
DA:1522,128
DA:1524,128
DA:1525,128
DA:1526,128
DA:1528,0
DA:1539,50
DA:1541,50
DA:1542,0
DA:1544,50
DA:1545,50
DA:1547,50
DA:1548,50
DA:1550,50
DA:1551,0
DA:1553,50
DA:1555,50
DA:1561,1
DA:1564,1
DA:1565,1
DA:1566,1
DA:1567,1
DA:1568,1
DA:1569,1
DA:1570,1
DA:1576,1
DA:1579,1
DA:1580,1
DA:1581,1
DA:1582,2
DA:1588,1
DA:1590,1
DA:1591,1
DA:1592,1
DA:1593,1
DA:1595,1
DA:1602,1
DA:1604,1
DA:1606,22
DA:1608,22
DA:1609,1
DA:1610,21
DA:1612,1
DA:1613,1
DA:1620,1
DA:1622,1
DA:1624,2
DA:1625,1
DA:1627,1
DA:1628,1
DA:1629,1
DA:1635,1
DA:1637,1
DA:1638,1
DA:1640,1
DA:1641,1
DA:1643,1
DA:1644,1
DA:1649,16
DA:1651,16
DA:1652,14
DA:1654,2
DA:1656,2
DA:1657,2
DA:1658,2
DA:1663,13
DA:1665,13
DA:1666,10
DA:1668,3
DA:1669,3
DA:1670,3
DA:1672,3
DA:1673,3
DA:1674,3
end_of_record
TN:
SF:/workspace/vtr-verilog-to-routing/ODIN_II/SRC/activity_estimation.c
FN:61,_Z19activity_estimationPcS_iP11netlist_t_tS1_
FNDA:0,_Z19activity_estimationPcS_iP11netlist_t_tS1_
FN:88,_Z23calc_transition_densityP11netlist_t_t
FNDA:0,_Z23calc_transition_densityP11netlist_t_t
FN:188,_Z24initialize_probabilitiesPcP11netlist_t_t
FNDA:0,_Z24initialize_probabilitiesPcP11netlist_t_t
FN:275,_Z36calc_probabilities_and_init_act_dataP11netlist_t_t
FNDA:0,_Z36calc_probabilities_and_init_act_dataP11netlist_t_t
FN:393,_Z18boolean_differenceP9nnode_t_ti
FNDA:0,_Z18boolean_differenceP9nnode_t_ti
FN:444,_Z12calc_densityP9nnode_t_tiPs
FNDA:0,_Z12calc_densityP9nnode_t_tiPs
FN:531,_Z44output_activation_file_ace_and_function_filePciP11netlist_t_tS1_
FNDA:0,_Z44output_activation_file_ace_and_function_filePciP11netlist_t_tS1_
FN:852,_Z18cleanup_activationP11netlist_t_t
FNDA:0,_Z18cleanup_activationP11netlist_t_t
DA:61,0
DA:64,0
DA:67,0
DA:70,0
DA:73,0
DA:76,0
DA:79,0
DA:83,0
DA:88,0
DA:94,0
DA:96,0
DA:99,0
DA:100,0
DA:103,0
DA:106,0
DA:108,0
DA:111,0
DA:112,0
DA:113,0
DA:114,0
DA:116,0
DA:118,0
DA:119,0
DA:121,0
DA:122,0
DA:124,0
DA:125,0
DA:127,0
DA:131,0
DA:134,0
DA:139,0
DA:142,0
DA:145,0
DA:148,0
DA:151,0
DA:153,0
DA:154,0
DA:155,0
DA:156,0
DA:159,0
DA:160,0
DA:162,0
DA:164,0
DA:165,0
DA:166,0
DA:167,0
DA:170,0
DA:171,0
DA:173,0
DA:175,0
DA:179,0
DA:183,0
DA:188,0
DA:193,0
DA:195,0
DA:198,0
DA:199,0
DA:201,0
DA:202,0
DA:203,0
DA:205,0
DA:207,0
DA:209,0
DA:212,0
DA:217,0
DA:222,0
DA:223,0
DA:224,0
DA:226,0
DA:227,0
DA:228,0
DA:231,0
DA:234,0
DA:235,0
DA:236,0
DA:238,0
DA:239,0
DA:240,0
DA:243,0
DA:246,0
DA:247,0
DA:248,0
DA:250,0
DA:251,0
DA:252,0
DA:255,0
DA:258,0
DA:259,0
DA:260,0
DA:262,0
DA:263,0
DA:264,0
DA:268,0
DA:275,0
DA:280,0
DA:283,0
DA:285,0
DA:288,0
DA:289,0
DA:292,0
DA:294,0
DA:295,0
DA:297,0
DA:300,0
DA:303,0
DA:305,0
DA:306,0
DA:308,0
DA:311,0
DA:313,0
DA:314,0
DA:315,0
DA:316,0
DA:318,0
DA:320,0
DA:324,0
DA:327,0
DA:330,0
DA:335,0
DA:337,0
DA:339,0
DA:342,0
DA:343,0
DA:344,0
DA:345,0
DA:347,0
DA:350,0
DA:352,0
DA:353,0
DA:354,0
DA:355,0
DA:357,0
DA:360,0
DA:363,0
DA:365,0
DA:367,0
DA:368,0
DA:372,0
DA:375,0
DA:378,0
DA:381,0
DA:383,0
DA:388,0
DA:393,0
DA:398,0
DA:401,0
DA:402,0
DA:403,0
DA:406,0
DA:408,0
DA:410,0
DA:412,0
DA:413,0
DA:414,0
DA:417,0
DA:420,0
DA:422,0
DA:425,0
DA:427,0
DA:430,0
DA:431,0
DA:435,0
DA:438,0
DA:444,0
DA:448,0
DA:449,0
DA:451,0
DA:453,0
DA:455,0
DA:456,0
DA:457,0
DA:458,0
DA:460,0
DA:464,0
DA:468,0
DA:470,0
DA:472,0
DA:473,0
DA:474,0
DA:476,0
DA:479,0
DA:486,0
DA:489,0
DA:493,0
DA:496,0
DA:497,0
DA:498,0
DA:499,0
DA:501,0
DA:503,0
DA:507,0
DA:510,0
DA:512,0
DA:516,0
DA:517,0
DA:518,0
DA:521,0
DA:531,0
DA:533,0
DA:534,0
DA:535,0
DA:544,0
DA:545,0
DA:546,0
DA:548,0
DA:549,0
DA:551,0
DA:553,0
DA:554,0
DA:556,0
DA:558,0
DA:559,0
DA:561,0
DA:565,0
DA:567,0
DA:570,0
DA:571,0
DA:573,0
DA:575,0
DA:577,0
DA:580,0
DA:586,0
DA:591,0
DA:596,0
DA:598,0
DA:599,0
DA:600,0
DA:604,0
DA:606,0
DA:608,0
DA:610,0
DA:614,0
DA:616,0
DA:617,0
DA:619,0
DA:620,0
DA:622,0
DA:623,0
DA:624,0
DA:628,0
DA:630,0
DA:633,0
DA:635,0
DA:636,0
DA:638,0
DA:639,0
DA:641,0
DA:642,0
DA:643,0
DA:647,0
DA:649,0
DA:650,0
DA:652,0
DA:655,0
DA:659,0
DA:661,0
DA:662,0
DA:663,0
DA:665,0
DA:671,0
DA:673,0
DA:675,0
DA:676,0
DA:679,0
DA:680,0
DA:683,0
DA:688,0
DA:690,0
DA:691,0
DA:693,0
DA:696,0
DA:697,0
DA:701,0
DA:703,0
DA:706,0
DA:707,0
DA:708,0
DA:710,0
DA:711,0
DA:714,0
DA:716,0
DA:718,0
DA:721,0
DA:723,0
DA:725,0
DA:726,0
DA:728,0
DA:731,0
DA:734,0
DA:735,0
DA:736,0
DA:740,0
DA:741,0
DA:746,0
DA:747,0
DA:749,0
DA:752,0
DA:757,0
DA:758,0
DA:762,0
DA:765,0
DA:766,0
DA:771,0
DA:773,0
DA:775,0
DA:776,0
DA:779,0
DA:783,0
DA:784,0
DA:785,0
DA:788,0
DA:789,0
DA:791,0
DA:793,0
DA:796,0
DA:798,0
DA:802,0
DA:803,0
DA:806,0
DA:807,0
DA:809,0
DA:811,0
DA:815,0
DA:818,0
DA:824,0
DA:825,0
DA:827,0
DA:829,0
DA:832,0
DA:836,0
DA:837,0
DA:840,0
DA:841,0
DA:845,0
DA:846,0
DA:847,0
DA:852,0
DA:856,0
DA:858,0
DA:861,0
DA:862,0
DA:863,0
DA:865,0
DA:866,0
DA:867,0
DA:868,0
DA:869,0
DA:870,0
DA:872,0
DA:873,0
DA:876,0
end_of_record
TN:
SF:/workspace/vtr-verilog-to-routing/ODIN_II/SRC/netlist_check.c
FN:53,_Z13check_netlistP11netlist_t_t
FNDA:18,_Z13check_netlistP11netlist_t_t
FN:67,_Z54levelize_and_check_for_combinational_loop_and_livenesssP11netlist_t_t
FNDA:0,_Z54levelize_and_check_for_combinational_loop_and_livenesssP11netlist_t_t
FN:90,_Z24sequential_levelized_dfssP11netlist_t_t
FNDA:0,_Z24sequential_levelized_dfssP11netlist_t_t
FN:166,_Z44depth_first_traverse_until_next_ff_or_outputP9nnode_t_tS0_iiP11netlist_t_t
FNDA:0,_Z44depth_first_traverse_until_next_ff_or_outputP9nnode_t_tS0_iiP11netlist_t_t
FN:244,_Z46depth_first_traversal_check_if_forward_leveledsP11netlist_t_t
FNDA:0,_Z46depth_first_traversal_check_if_forward_leveledsP11netlist_t_t
FN:266,_Z45depth_first_traverse_check_if_forward_leveledP9nnode_t_ti
FNDA:0,_Z45depth_first_traverse_check_if_forward_leveledP9nnode_t_ti
FN:315,_Z17levelize_forwardsP11netlist_t_t
FNDA:0,_Z17levelize_forwardsP11netlist_t_t
FN:476,_Z60levelize_forwards_clean_checking_for_combo_loop_and_livenesssP11netlist_t_t
FNDA:0,_Z60levelize_forwards_clean_checking_for_combo_loop_and_livenesssP11netlist_t_t
FN:577,_Z18levelize_backwardsP11netlist_t_t
FNDA:0,_Z18levelize_backwardsP11netlist_t_t
FN:709,_Z46levelize_backwards_clean_checking_for_livenesssP11netlist_t_t
FNDA:0,_Z46levelize_backwards_clean_checking_for_livenesssP11netlist_t_t
FN:793,_Z30find_node_at_top_of_combo_loopP9nnode_t_t
FNDA:0,_Z30find_node_at_top_of_combo_loopP9nnode_t_t
DA:53,18
DA:56,18
DA:59,0
DA:61,18
DA:67,0
DA:70,0
DA:73,0
DA:76,0
DA:79,0
DA:81,0
DA:84,0
DA:85,0
DA:90,0
DA:94,0
DA:95,0
DA:96,0
DA:97,0
DA:98,0
DA:99,0
DA:102,0
DA:105,0
DA:107,0
DA:109,0
DA:110,0
DA:112,0
DA:117,0
DA:119,0
DA:120,0
DA:122,0
DA:124,0
DA:126,0
DA:127,0
DA:129,0
DA:132,0
DA:138,0
DA:139,0
DA:140,0
DA:141,0
DA:142,0
DA:145,0
DA:146,0
DA:147,0
DA:148,0
DA:149,0
DA:152,0
DA:154,0
DA:158,0
DA:161,0
DA:166,0
DA:173,0
DA:176,0
DA:179,0
DA:180,0
DA:181,0
DA:183,0
DA:187,0
DA:190,0
DA:192,0
DA:195,0
DA:197,0
DA:201,0
DA:202,0
DA:205,0
DA:206,0
DA:207,0
DA:209,0
DA:216,0
DA:217,0
DA:219,0
DA:221,0
DA:222,0
DA:224,0
DA:225,0
DA:227,0
DA:228,0
DA:230,0
DA:231,0
DA:232,0
DA:235,0
DA:244,0
DA:249,0
DA:251,0
DA:253,0
DA:257,0
DA:258,0
DA:259,0
DA:260,0
DA:261,0
DA:266,0
DA:272,0
DA:274,0
DA:281,0
DA:283,0
DA:285,0
DA:286,0
DA:288,0
DA:289,0
DA:291,0
DA:292,0
DA:294,0
DA:295,0
DA:296,0
DA:298,0
DA:300,0
DA:301,0
DA:305,0
DA:315,0
DA:319,0
DA:320,0
DA:323,0
DA:324,0
DA:325,0
DA:326,0
DA:327,0
DA:328,0
DA:329,0
DA:331,0
DA:334,0
DA:335,0
DA:336,0
DA:337,0
DA:339,0
DA:342,0
DA:343,0
DA:344,0
DA:345,0
DA:347,0
DA:350,0
DA:351,0
DA:352,0
DA:353,0
DA:355,0
DA:357,0
DA:359,0
DA:361,0
DA:362,0
DA:363,0
DA:364,0
DA:367,0
DA:369,0
DA:371,0
DA:372,0
DA:373,0
DA:374,0
DA:378,0
DA:381,0
DA:382,0
DA:383,0
DA:384,0
DA:385,0
DA:388,0
DA:390,0
DA:391,0
DA:392,0
DA:395,0
DA:398,0
DA:399,0
DA:401,0
DA:405,0
DA:406,0
DA:408,0
DA:410,0
DA:411,0
DA:413,0
DA:416,0
DA:418,0
DA:420,0
DA:423,0
DA:424,0
DA:429,0
DA:430,0
DA:434,0
DA:437,0
DA:438,0
DA:440,0
DA:442,0
DA:443,0
DA:447,0
DA:450,0
DA:451,0
DA:452,0
DA:454,0
DA:461,0
DA:464,0
DA:469,0
DA:472,0
DA:476,0
DA:480,0
DA:481,0
DA:483,0
DA:485,0
DA:488,0
DA:490,0
DA:491,0
DA:492,0
DA:495,0
DA:498,0
DA:499,0
DA:501,0
DA:503,0
DA:504,0
DA:507,0
DA:509,0
DA:510,0
DA:512,0
DA:514,0
DA:520,0
DA:521,0
DA:522,0
DA:525,0
DA:526,0
DA:528,0
DA:530,0
DA:531,0
DA:535,0
DA:538,0
DA:539,0
DA:541,0
DA:544,0
DA:545,0
DA:548,0
DA:550,0
DA:551,0
DA:553,0
DA:560,0
DA:563,0
DA:568,0
DA:571,0
DA:577,0
DA:581,0
DA:582,0
DA:585,0
DA:586,0
DA:587,0
DA:588,0
DA:589,0
DA:590,0
DA:591,0
DA:593,0
DA:595,0
DA:596,0
DA:597,0
DA:598,0
DA:601,0
DA:603,0
DA:605,0
DA:606,0
DA:607,0
DA:608,0
DA:612,0
DA:615,0
DA:616,0
DA:617,0
DA:618,0
DA:619,0
DA:622,0
DA:624,0
DA:625,0
DA:626,0
DA:629,0
DA:632,0
DA:633,0
DA:636,0
DA:638,0
DA:642,0
DA:644,0
DA:646,0
DA:649,0
DA:650,0
DA:655,0
DA:656,0
DA:660,0
DA:662,0
DA:666,0
DA:667,0
DA:669,0
DA:671,0
DA:672,0
DA:676,0
DA:679,0
DA:682,0
DA:683,0
DA:684,0
DA:687,0
DA:693,0
DA:696,0
DA:701,0
DA:704,0
DA:709,0
DA:713,0
DA:714,0
DA:716,0
DA:718,0
DA:721,0
DA:723,0
DA:724,0
DA:725,0
DA:728,0
DA:731,0
DA:732,0
DA:735,0
DA:737,0
DA:740,0
DA:745,0
DA:746,0
DA:747,0
DA:750,0
DA:751,0
DA:753,0
DA:755,0
DA:756,0
DA:760,0
DA:763,0
DA:764,0
DA:766,0
DA:770,0
DA:771,0
DA:777,0
DA:780,0
DA:785,0
DA:788,0
DA:793,0
DA:797,0
DA:803,0
DA:804,0
DA:805,0
DA:808,0
DA:809,0
DA:811,0
DA:813,0
DA:814,0
DA:815,0
DA:819,0
DA:821,0
DA:824,0
DA:826,0
DA:830,0
end_of_record
TN:
SF:/workspace/vtr-verilog-to-routing/ODIN_II/SRC/output_blif.c
FN:53,_Z11output_blifPcP11netlist_t_t
FNDA:17,_Z11output_blifPcP11netlist_t_t
FN:231,_Z31depth_first_traversal_to_outputsP8_IO_FILEP11netlist_t_t
FNDA:17,_Z31depth_first_traversal_to_outputsP8_IO_FILEP11netlist_t_t
FN:256,_Z26depth_traverse_output_blifP9nnode_t_tiP8_IO_FILE
FNDA:283940,_Z26depth_traverse_output_blifP9nnode_t_tiP8_IO_FILE
FN:302,_Z11output_nodeP9nnode_t_tsP8_IO_FILE
FNDA:74226,_Z11output_nodeP9nnode_t_tsP8_IO_FILE
FN:415,_Z23define_logical_functionP9nnode_t_tsP8_IO_FILE
FNDA:26190,_Z23define_logical_functionP9nnode_t_tsP8_IO_FILE
FN:584,_Z33define_set_input_logical_functionP9nnode_t_tPKcP8_IO_FILE
FNDA:4280,_Z33define_set_input_logical_functionP9nnode_t_tPKcP8_IO_FILE
FN:665,_Z9define_ffP9nnode_t_tP8_IO_FILE
FNDA:9695,_Z9define_ffP9nnode_t_tP8_IO_FILE
FN:705,_Z18define_decoded_muxP9nnode_t_tP8_IO_FILE
FNDA:28842,_Z18define_decoded_muxP9nnode_t_tP8_IO_FILE
FN:801,_Z23output_blif_pin_connectP9nnode_t_tP8_IO_FILE
FNDA:0,_Z23output_blif_pin_connectP9nnode_t_tP8_IO_FILE
DA:53,17
DA:56,17
DA:57,17
DA:58,17
DA:63,17
DA:65,0
DA:66,0
DA:67,0
DA:71,17
DA:74,17
DA:76,0
DA:79,17
DA:82,1451
DA:84,1434
DA:86,17
DA:87,17
DA:90,1434
DA:92,1428
DA:94,0
DA:95,0
DA:99,0
DA:100,0
DA:105,1428
DA:107,1179
DA:112,249
DA:113,249
DA:118,17
DA:120,17
DA:121,749
DA:123,732
DA:125,0
DA:129,732
DA:131,17
DA:132,17
DA:135,732
DA:137,0
DA:138,0
DA:142,0
DA:143,0
DA:148,732
DA:149,557
DA:153,175
DA:154,175
DA:159,17
DA:162,17
DA:163,17
DA:166,17
DA:168,17
DA:172,0
DA:176,749
DA:179,732
DA:180,732
DA:182,732
DA:184,0
DA:185,0
DA:186,0
DA:187,0
DA:189,0
DA:190,0
DA:201,732
DA:202,732
DA:203,732
DA:204,716
DA:207,732
DA:211,732
DA:215,17
DA:216,17
DA:220,17
DA:221,17
DA:222,17
DA:225,17
DA:226,17
DA:231,17
DA:235,17
DA:236,17
DA:237,17
DA:239,17
DA:240,17
DA:241,17
DA:244,1451
DA:246,1434
DA:248,1434
DA:251,17
DA:256,283940
DA:262,283940
DA:264,209714
DA:271,74226
DA:274,74226
DA:276,162482
DA:278,88256
DA:279,1695
DA:281,86561
DA:282,426529
DA:284,339968
DA:285,37150
DA:287,302818
DA:288,302818
DA:289,20363
DA:292,282455
DA:302,74226
DA:304,74226
DA:306,4277
DA:307,4277
DA:308,4277
DA:309,4277
DA:310,4277
DA:311,0
DA:312,0
DA:313,0
DA:314,0
DA:315,0
DA:316,2
DA:317,2
DA:318,2
DA:319,1
DA:320,1
DA:321,1
DA:322,0
DA:323,0
DA:324,0
DA:326,26190
DA:335,26190
DA:336,26190
DA:338,28842
DA:339,28842
DA:340,28842
DA:342,9695
DA:343,9695
DA:344,9695
DA:346,99
DA:347,99
DA:348,0
DA:350,99
DA:352,99
DA:355,925
DA:356,925
DA:357,0
DA:359,925
DA:361,925
DA:363,1970
DA:364,1970
DA:365,0
DA:367,1970
DA:368,1970
DA:370,1970
DA:372,8
DA:375,8
DA:377,8
DA:378,2217
DA:385,2217
DA:387,0
DA:407,0
DA:408,0
DA:410,74226
DA:415,26190
DA:419,26190
DA:421,26190
DA:424,26190
DA:427,0
DA:430,0
DA:431,0
DA:433,0
DA:436,0
DA:437,0
DA:439,0
DA:444,73423
DA:448,47233
DA:449,47233
DA:451,47233
DA:453,3430
DA:454,3234
DA:455,3234
DA:456,3234
DA:457,2454
DA:459,3430
DA:464,43803
DA:469,0
DA:470,0
DA:472,0
DA:476,26190
DA:478,26190
DA:480,26190
DA:483,26190
DA:485,2241
DA:488,7682
DA:490,5441
DA:492,2241
DA:493,2241
DA:495,5088
DA:498,18435
DA:500,85564
DA:502,72217
DA:503,13347
DA:505,58870
DA:507,13347
DA:509,5088
DA:511,4
DA:514,12
DA:516,24
DA:518,16
DA:519,8
DA:521,8
DA:523,8
DA:525,4
DA:527,9290
DA:531,18593
DA:533,9303
DA:535,9290
DA:536,9290
DA:538,4465
DA:541,4465
DA:543,22325
DA:545,17860
DA:547,8930
DA:548,8930
DA:549,8930
DA:550,8930
DA:553,4465
DA:555,5102
DA:558,5102
DA:559,25510
DA:561,20408
DA:563,10204
DA:564,10204
DA:565,10204
DA:566,10204
DA:569,5102
DA:571,0
DA:572,0
DA:573,0
DA:576,26190
DA:577,26190
DA:578,0
DA:579,26190
DA:584,4280
DA:587,4280
DA:589,4280
DA:591,4280
DA:592,4280
DA:595,4280
DA:598,0
DA:601,0
DA:602,0
DA:604,0
DA:608,0
DA:609,0
DA:611,0
DA:612,0
DA:615,0
DA:617,0
DA:619,0
DA:624,17120
DA:626,12840
DA:630,3048
DA:631,3048
DA:632,3048
DA:633,3048
DA:634,2640
DA:636,3048
DA:641,9792
DA:646,4280
DA:647,4280
DA:650,4280
DA:652,4280
DA:654,4280
DA:657,4280
DA:658,0
DA:659,4280
DA:665,9695
DA:667,9695
DA:668,9695
DA:672,9695
DA:675,9695
DA:676,9695
DA:679,9695
DA:680,0
DA:684,9695
DA:685,0
DA:688,9695
DA:689,9695
DA:691,0
DA:693,9695
DA:694,9695
DA:696,0
DA:699,9695
DA:700,9695
DA:705,28842
DA:709,28842
DA:711,28842
DA:713,28842
DA:716,0
DA:719,0
DA:721,0
DA:725,0
DA:729,0
DA:730,0
DA:732,0
DA:737,201630
DA:741,172788
DA:743,172788
DA:746,0
DA:747,0
DA:749,0
DA:753,172788
DA:755,8843
DA:756,7424
DA:757,7424
DA:758,7416
DA:759,4373
DA:761,8843
DA:766,163945
DA:772,28842
DA:774,28842
DA:776,28842
DA:779,115236
DA:781,2337010
DA:783,2250620
DA:784,86394
DA:785,2164220
DA:786,86394
DA:787,2077830
DA:788,0
DA:790,2077830
DA:792,86394
DA:795,28842
DA:796,28842
DA:801,0
DA:806,0
DA:809,0
DA:810,0
DA:813,0
end_of_record
TN:
SF:/workspace/vtr-verilog-to-routing/ODIN_II/SRC/netlist_optimizations.c
FN:41,_Z25netlist_optimizations_topP11netlist_t_t
FNDA:17,_Z25netlist_optimizations_topP11netlist_t_t
DA:41,17
DA:45,17
DA:46,17
DA:47,17
DA:50,17
DA:51,17
DA:54,17
DA:55,17
DA:56,17
DA:59,17
DA:60,17
DA:61,17
DA:63,17
end_of_record
TN:
SF:/workspace/vtr-verilog-to-routing/ODIN_II/SRC/netlist_create_from_ast.c
FN:150,_Z29create_param_table_for_moduleP12ast_node_t_tS0_Pc
FNDA:57,_Z29create_param_table_for_moduleP12ast_node_t_tS0_Pc
FN:313,_Z14create_netlistv
FNDA:17,_Z14create_netlistv
FN:394,_Z15look_for_clocksP11netlist_t_t
FNDA:17,_Z15look_for_clocksP11netlist_t_t
FN:412,_Z15find_top_modulev
FNDA:17,_Z15find_top_modulev
FN:474,_Z44convert_ast_to_netlist_recursing_via_modulesP12ast_node_t_tPci
FNDA:57,_Z44convert_ast_to_netlist_recursing_via_modulesP12ast_node_t_tPci
FN:611,_Z28netlist_expand_ast_of_moduleP12ast_node_t_tPc
FNDA:37341,_Z28netlist_expand_ast_of_moduleP12ast_node_t_tPc
FN:964,_Z24concatenate_signal_listsPP15signal_list_t_ti
FNDA:1387,_Z24concatenate_signal_listsPP15signal_list_t_ti
FN:993,_Z37create_all_driver_nets_in_this_modulePc
FNDA:57,_Z37create_all_driver_nets_in_this_modulePc
FN:1031,_Z39create_all_driver_nets_in_this_functionPc
FNDA:0,_Z39create_all_driver_nets_in_this_functionPc
FN:1069,_Z22create_top_driver_netsP12ast_node_t_tPc
FNDA:17,_Z22create_top_driver_netsP12ast_node_t_tPc
FN:1179,_Z23create_top_output_nodesP12ast_node_t_tPc
FNDA:17,_Z23create_top_output_nodesP12ast_node_t_tPc
FN:1300,_Z23define_nets_with_driverP12ast_node_t_tPc
FNDA:4047,_Z23define_nets_with_driverP12ast_node_t_tPc
FN:1426,_Z33define_nodes_and_nets_with_driverP12ast_node_t_tPc
FNDA:110,_Z33define_nodes_and_nets_with_driverP12ast_node_t_tPc
FN:1536,_Z30create_symbol_table_for_moduleP12ast_node_t_tPc
FNDA:57,_Z30create_symbol_table_for_moduleP12ast_node_t_tPc
FN:1652,_Z32create_symbol_table_for_functionP12ast_node_t_tPc
FNDA:0,_Z32create_symbol_table_for_functionP12ast_node_t_tPc
FN:1770,_Z27check_for_initial_reg_valueP12ast_node_t_tPx
FNDA:4718,_Z27check_for_initial_reg_valueP12ast_node_t_tPx
FN:1790,_Z24connect_memory_and_aliasP12ast_node_t_tPc
FNDA:1,_Z24connect_memory_and_aliasP12ast_node_t_tPc
FN:1927,_Z28connect_hard_block_and_aliasP12ast_node_t_tPci
FNDA:0,_Z28connect_hard_block_and_aliasP12ast_node_t_tPci
FN:2080,_Z38connect_module_instantiation_and_aliassP12ast_node_t_tPc
FNDA:80,_Z38connect_module_instantiation_and_aliassP12ast_node_t_tPc
FN:2375,_Z40connect_function_instantiation_and_aliassP12ast_node_t_tPc
FNDA:0,_Z40connect_function_instantiation_and_aliassP12ast_node_t_tPc
FN:2710,_Z11create_pinsP12ast_node_t_tPcS1_
FNDA:67152,_Z11create_pinsP12ast_node_t_tPcS1_
FN:2808,_Z17create_output_pinP12ast_node_t_tPc
FNDA:0,_Z17create_output_pinP12ast_node_t_tPc
FN:2831,_Z16assignment_aliasP12ast_node_t_tPc
FNDA:5205,_Z16assignment_aliasP12ast_node_t_tPc
FN:3093,_Z52define_latchs_initial_value_inside_initial_statementP12ast_node_t_tPc
FNDA:0,_Z52define_latchs_initial_value_inside_initial_statementP12ast_node_t_tPc
FN:3141,_Z31terminate_registered_assignmentP12ast_node_t_tP15signal_list_t_tS2_Pc
FNDA:547,_Z31terminate_registered_assignmentP12ast_node_t_tP15signal_list_t_tS2_Pc
FN:3358,_Z31terminate_continuous_assignmentP12ast_node_t_tP15signal_list_t_tPc
FNDA:2713,_Z31terminate_continuous_assignmentP12ast_node_t_tP15signal_list_t_tPc
FN:3441,_Z34alias_output_assign_pins_to_inputsP13char_list_t_tP15signal_list_t_tP12ast_node_t_t
FNDA:5205,_Z34alias_output_assign_pins_to_inputsP13char_list_t_tP15signal_list_t_tP12ast_node_t_t
FN:3488,_Z11create_gateP12ast_node_t_tPc
FNDA:0,_Z11create_gateP12ast_node_t_tPc
FN:3596,_Z21create_operation_nodeP12ast_node_t_tPP15signal_list_t_tiPc
FNDA:4581,_Z21create_operation_nodeP12ast_node_t_tPP15signal_list_t_tiPc
FN:3821,_Z25evaluate_sensitivity_listP12ast_node_t_tPc
FNDA:551,_Z25evaluate_sensitivity_listP12ast_node_t_tPc
FN:3888,_Z22create_if_for_questionP12ast_node_t_tPc
FNDA:515,_Z22create_if_for_questionP12ast_node_t_tPc
FN:3912,_Z34create_if_question_mux_expressionsP12ast_node_t_tP9nnode_t_tPc
FNDA:515,_Z34create_if_question_mux_expressionsP12ast_node_t_tP9nnode_t_tPc
FN:3944,_Z9create_ifP12ast_node_t_tPc
FNDA:1515,_Z9create_ifP12ast_node_t_tPc
FN:3968,_Z25create_if_control_signalsP12ast_node_t_tP9nnode_t_tPc
FNDA:2030,_Z25create_if_control_signalsP12ast_node_t_tP9nnode_t_tPc
FN:4028,_Z24create_if_mux_statementsP12ast_node_t_tP9nnode_t_tPc
FNDA:1515,_Z24create_if_mux_statementsP12ast_node_t_tP9nnode_t_tPc
FN:4062,_Z11create_caseP12ast_node_t_tPc
FNDA:15,_Z11create_caseP12ast_node_t_tPc
FN:4094,_Z27create_case_control_signalsP12ast_node_t_tS0_P9nnode_t_tPc
FNDA:15,_Z27create_case_control_signalsP12ast_node_t_tS0_P9nnode_t_tPc
FN:4162,_Z26create_case_mux_statementsP12ast_node_t_tP9nnode_t_tPc
FNDA:15,_Z26create_case_mux_statementsP12ast_node_t_tP9nnode_t_tPc
FN:4201,_Z21create_mux_statementsPP15signal_list_t_tP9nnode_t_tiPc
FNDA:1530,_Z21create_mux_statementsPP15signal_list_t_tP9nnode_t_tiPc
FN:4315,_Z22create_mux_expressionsPP15signal_list_t_tP9nnode_t_tiPc
FNDA:515,_Z22create_mux_expressionsPP15signal_list_t_tP9nnode_t_tiPc
FN:4390,_Z27find_smallest_non_numericalP12ast_node_t_tPP15signal_list_t_ti
FNDA:272,_Z27find_smallest_non_numericalP12ast_node_t_tPP15signal_list_t_ti
FN:4453,_Z14pad_with_zerosP12ast_node_t_tP15signal_list_t_tiPc
FNDA:544,_Z14pad_with_zerosP12ast_node_t_tP15signal_list_t_tiPc
FN:4481,_Z26create_dual_port_ram_blockP12ast_node_t_tPcP7s_model
FNDA:0,_Z26create_dual_port_ram_blockP12ast_node_t_tPcP7s_model
FN:4656,_Z28create_single_port_ram_blockP12ast_node_t_tPcP7s_model
FNDA:1,_Z28create_single_port_ram_blockP12ast_node_t_tPcP7s_model
FN:4844,_Z33create_soft_single_port_ram_blockP12ast_node_t_tPc
FNDA:0,_Z33create_soft_single_port_ram_blockP12ast_node_t_tPc
FN:4994,_Z31create_soft_dual_port_ram_blockP12ast_node_t_tPc
FNDA:0,_Z31create_soft_dual_port_ram_blockP12ast_node_t_tPc
FN:5152,_Z17create_hard_blockP12ast_node_t_tPc
FNDA:1,_Z17create_hard_blockP12ast_node_t_tPc
DA:150,57
DA:156,57
DA:157,57
DA:158,57
DA:161,57
DA:162,57
DA:163,0
DA:164,57
DA:165,57
DA:168,57
DA:170,7911
DA:172,7854
DA:175,9283
DA:177,4730
DA:179,4730
DA:180,4094
DA:181,3818
DA:182,2724
DA:183,4730
DA:185,12
DA:186,12
DA:188,12
DA:190,12
DA:192,12
DA:194,12
DA:195,12
DA:196,12
DA:197,12
DA:199,12
DA:204,57
DA:207,0
DA:209,0
DA:211,0
DA:212,0
DA:213,0
DA:214,0
DA:215,0
DA:219,0
DA:222,0
DA:224,0
DA:226,0
DA:227,0
DA:228,0
DA:229,0
DA:230,0
DA:235,0
DA:236,0
DA:237,0
DA:240,0
DA:242,0
DA:244,0
DA:246,0
DA:247,0
DA:248,0
DA:249,0
DA:251,0
DA:252,0
DA:254,0
DA:257,0
DA:259,0
DA:262,0
DA:264,0
DA:265,0
DA:266,0
DA:267,0
DA:268,0
DA:272,0
DA:273,0
DA:274,0
DA:275,0
DA:278,0
DA:282,0
DA:284,0
DA:293,57
DA:295,0
DA:299,57
DA:301,0
DA:313,17
DA:320,17
DA:323,70
DA:325,53
DA:328,0
DA:329,0
DA:330,0
DA:332,0
DA:333,0
DA:334,0
DA:335,0
DA:336,0
DA:337,0
DA:339,0
DA:340,0
DA:341,0
DA:343,0
DA:344,0
DA:345,0
DA:346,0
DA:347,0
DA:348,0
DA:349,0
DA:351,0
DA:352,0
DA:354,53
DA:358,17
DA:359,17
DA:362,17
DA:372,17
DA:373,17
DA:375,17
DA:378,17
DA:381,17
DA:382,17
DA:383,17
DA:384,17
DA:385,17
DA:388,17
DA:389,17
DA:394,17
DA:398,10644
DA:400,10627
DA:402,13
DA:405,17
DA:412,17
DA:416,17
DA:419,70
DA:421,93
DA:426,40
DA:430,80
DA:431,40
DA:433,0
DA:434,0
DA:435,0
DA:437,0
DA:441,40
DA:447,70
DA:449,53
DA:451,17
DA:453,36
DA:455,0
DA:461,17
DA:463,0
DA:466,17
DA:474,57
DA:476,57
DA:479,57
DA:481,29
DA:488,112
DA:490,84
DA:492,1629
DA:494,1601
DA:497,0
DA:498,0
DA:500,0
DA:502,0
DA:503,0
DA:506,0
DA:508,0
DA:512,0
DA:513,0
DA:514,0
DA:516,0
DA:517,0
DA:521,0
DA:523,0
DA:524,0
DA:531,68
DA:537,80
DA:538,40
DA:539,40
DA:544,40
DA:546,0
DA:547,0
DA:550,40
DA:552,40
DA:554,40
DA:558,40
DA:561,40
DA:563,28
DA:569,0
DA:570,0
DA:571,0
DA:576,0
DA:578,0
DA:579,0
DA:582,0
DA:585,0
DA:587,0
DA:592,0
DA:595,0
DA:599,28
DA:602,57
DA:603,57
DA:611,37341
DA:615,37341
DA:616,37341
DA:617,37341
DA:618,37341
DA:620,37341
DA:628,37341
DA:630,24783
DA:631,24783
DA:636,37341
DA:638,0
DA:639,0
DA:640,0
DA:641,57
DA:643,57
DA:644,57
DA:645,57
DA:646,0
DA:648,0
DA:649,0
DA:650,0
DA:652,57
DA:656,57
DA:657,57
DA:658,57
DA:659,57
DA:660,57
DA:663,57
DA:666,57
DA:668,7911
DA:674,7854
DA:679,80
DA:682,40
DA:686,40
DA:688,7814
DA:690,0
DA:695,57
DA:696,4553
DA:697,9283
DA:698,4730
DA:699,4730
DA:702,4553
DA:703,0
DA:704,0
DA:705,0
DA:707,0
DA:708,0
DA:709,0
DA:712,0
DA:713,0
DA:714,0
DA:715,0
DA:716,0
DA:719,0
DA:722,0
DA:724,0
DA:727,0
DA:730,0
DA:734,0
DA:735,0
DA:737,0
DA:738,0
DA:739,0
DA:740,0
DA:741,0
DA:742,0
DA:743,0
DA:744,0
DA:746,0
DA:748,0
DA:749,0
DA:752,3410
DA:754,3410
DA:755,3410
DA:756,3410
DA:758,8540
DA:760,8540
DA:761,8540
DA:763,4118
DA:766,4118
DA:769,4118
DA:772,2709
DA:774,2709
DA:775,2709
DA:776,3102
DA:782,3102
DA:783,3102
DA:784,3102
DA:786,2103
DA:792,2103
DA:793,2103
DA:794,2103
DA:796,551
DA:798,551
DA:799,551
DA:800,551
DA:801,15
DA:802,15
DA:803,15
DA:804,15
DA:805,1515
DA:806,1515
DA:807,1515
DA:808,1515
DA:809,515
DA:810,515
DA:811,515
DA:812,515
DA:814,1
DA:816,1
DA:817,1
DA:818,1
DA:819,1
DA:821,6095
DA:822,6095
DA:826,37341
DA:829,57973
DA:831,31292
DA:834,25855
DA:841,37341
DA:843,0
DA:844,0
DA:846,0
DA:847,1387
DA:848,1387
DA:849,1387
DA:850,57
DA:852,57
DA:854,7911
DA:856,7854
DA:858,80
DA:861,40
DA:868,57
DA:869,57
DA:871,57
DA:873,0
DA:879,0
DA:880,0
DA:881,0
DA:885,0
DA:886,0
DA:887,0
DA:888,0
DA:889,2709
DA:892,5418
DA:893,2709
DA:895,2709
DA:896,4553
DA:897,9283
DA:898,4730
DA:899,0
DA:902,4553
DA:903,551
DA:905,551
DA:908,4
DA:910,547
DA:912,547
DA:916,0
DA:917,0
DA:919,551
DA:920,4032
DA:921,4032
DA:922,4032
DA:923,4032
DA:924,229
DA:925,229
DA:926,229
DA:927,229
DA:928,447
DA:929,447
DA:930,447
DA:932,1
DA:933,1
DA:934,1
DA:935,0
DA:936,0
DA:937,0
DA:939,23375
DA:941,23375
DA:947,37341
DA:949,24783
DA:951,37341
DA:953,24783
DA:956,37341
DA:964,1387
DA:966,1387
DA:969,6120
DA:972,4733
DA:973,0
DA:976,19870
DA:978,15137
DA:979,15137
DA:981,4733
DA:984,1387
DA:993,57
DA:999,4740
DA:1001,4683
DA:1002,4683
DA:1004,4683
DA:1006,3589
DA:1007,3589
DA:1008,2712
DA:1011,877
DA:1012,877
DA:1013,241
DA:1014,241
DA:1019,4047
DA:1023,57
DA:1031,0
DA:1037,0
DA:1039,0
DA:1040,0
DA:1042,0
DA:1044,0
DA:1045,0
DA:1046,0
DA:1049,0
DA:1050,0
DA:1051,0
DA:1052,0
DA:1057,0
DA:1061,0
DA:1069,17
DA:1074,17
DA:1077,17
DA:1080,17
DA:1082,5909
DA:1084,5892
DA:1087,6243
DA:1089,3178
DA:1091,110
DA:1099,0
DA:1103,17
DA:1104,17
DA:1105,17
DA:1106,17
DA:1107,17
DA:1108,17
DA:1109,17
DA:1110,17
DA:1112,17
DA:1113,17
DA:1114,17
DA:1115,17
DA:1116,17
DA:1117,17
DA:1118,17
DA:1119,17
DA:1121,17
DA:1122,17
DA:1123,17
DA:1124,17
DA:1125,17
DA:1126,17
DA:1127,17
DA:1128,17
DA:1131,17
DA:1132,17
DA:1133,17
DA:1135,17
DA:1136,17
DA:1138,0
DA:1141,17
DA:1142,17
DA:1145,17
DA:1146,17
DA:1147,17
DA:1149,17
DA:1150,17
DA:1152,0
DA:1155,17
DA:1156,17
DA:1159,17
DA:1160,17
DA:1161,17
DA:1163,17
DA:1164,17
DA:1166,0
DA:1169,17
DA:1170,17
DA:1171,17
DA:1179,17
DA:1184,17
DA:1187,17
DA:1190,17
DA:1192,5909
DA:1194,5892
DA:1197,6243
DA:1199,3178
DA:1202,54
DA:1206,54
DA:1210,8
DA:1213,8
DA:1215,0
DA:1219,8
DA:1221,8
DA:1224,8
DA:1225,8
DA:1226,8
DA:1227,8
DA:1229,8
DA:1230,8
DA:1233,8
DA:1236,8
DA:1237,8
DA:1238,8
DA:1240,46
DA:1242,46
DA:1243,46
DA:1244,46
DA:1246,770
DA:1249,724
DA:1252,724
DA:1254,0
DA:1257,724
DA:1259,724
DA:1262,724
DA:1263,724
DA:1264,724
DA:1265,724
DA:1267,724
DA:1268,724
DA:1271,724
DA:1274,724
DA:1275,724
DA:1276,724
DA:1282,0
DA:1292,0
DA:1294,17
DA:1300,4047
DA:1305,4047
DA:1307,4047
DA:1312,806
DA:1315,806
DA:1318,806
DA:1319,806
DA:1321,0
DA:1325,806
DA:1326,806
DA:1329,806
DA:1330,0
DA:1332,0
DA:1335,3241
DA:1337,3241
DA:1338,3241
DA:1341,3241
DA:1344,3241
DA:1345,3241
DA:1346,0
DA:1352,63600
DA:1355,60359
DA:1358,60359
DA:1360,60359
DA:1361,60359
DA:1363,0
DA:1367,60359
DA:1368,60359
DA:1371,60359
DA:1372,0
DA:1374,0
DA:1376,0
DA:1381,0
DA:1383,0
DA:1384,0
DA:1386,0
DA:1387,0
DA:1389,0
DA:1390,0
DA:1392,0
DA:1394,0
DA:1395,0
DA:1397,0
DA:1398,0
DA:1401,0
DA:1403,0
DA:1404,0
DA:1406,0
DA:1407,0
DA:1410,0
DA:1412,0
DA:1413,0
DA:1415,0
DA:1418,4047
DA:1426,110
DA:1431,110
DA:1435,110
DA:1440,44
DA:1442,44
DA:1444,44
DA:1445,44
DA:1447,0
DA:1451,44
DA:1452,44
DA:1455,44
DA:1456,44
DA:1457,44
DA:1459,44
DA:1460,44
DA:1462,44
DA:1463,44
DA:1466,44
DA:1467,44
DA:1470,44
DA:1471,44
DA:1472,44
DA:1474,66
DA:1477,66
DA:1478,66
DA:1479,66
DA:1482,1456
DA:1485,1390
DA:1488,1390
DA:1490,1390
DA:1491,1390
DA:1493,0
DA:1497,1390
DA:1498,1390
DA:1501,1390
DA:1502,1390
DA:1504,1390
DA:1505,1390
DA:1506,1390
DA:1508,1390
DA:1509,1390
DA:1512,1390
DA:1513,1390
DA:1516,1390
DA:1517,1390
DA:1518,1390
DA:1521,0
DA:1524,0
DA:1525,0
DA:1528,110
DA:1536,57
DA:1542,57
DA:1545,57
DA:1547,7911
DA:1549,7854
DA:1552,9283
DA:1554,4730
DA:1557,4730
DA:1558,12
DA:1560,4718
DA:1561,4718
DA:1568,4718
DA:1570,4718
DA:1571,4718
DA:1577,35
DA:1578,0
DA:1579,0
DA:1580,0
DA:1584,0
DA:1588,35
DA:1591,0
DA:1595,0
DA:1596,0
DA:1597,0
DA:1600,35
DA:1603,35
DA:1604,35
DA:1606,35
DA:1609,35
DA:1610,0
DA:1611,0
DA:1612,35
DA:1614,0
DA:1616,0
DA:1622,4683
DA:1625,4683
DA:1626,4683
DA:1627,4683
DA:1631,4683
DA:1632,0
DA:1633,0
DA:1636,4718
DA:1643,0
DA:1645,57
DA:1652,0
DA:1658,0
DA:1661,0
DA:1663,0
DA:1665,0
DA:1668,0
DA:1670,0
DA:1673,0
DA:1674,0
DA:1676,0
DA:1677,0
DA:1683,0
DA:1685,0
DA:1687,0
DA:1693,0
DA:1694,0
DA:1695,0
DA:1696,0
DA:1700,0
DA:1704,0
DA:1707,0
DA:1711,0
DA:1712,0
DA:1713,0
DA:1716,0
DA:1719,0
DA:1720,0
DA:1722,0
DA:1726,0
DA:1727,0
DA:1728,0
DA:1729,0
DA:1733,0
DA:1739,0
DA:1742,0
DA:1743,0
DA:1744,0
DA:1748,0
DA:1749,0
DA:1750,0
DA:1753,0
DA:1760,0
DA:1762,0
DA:1770,4718
DA:1771,4718
DA:1773,4718
DA:1774,0
DA:1775,0
DA:1777,4718
DA:1790,1
DA:1798,1
DA:1799,6
DA:1803,5
DA:1804,5
DA:1805,5
DA:1810,4
DA:1811,9
DA:1812,5
DA:1818,1
DA:1819,1
DA:1820,1
DA:1821,2
DA:1822,1
DA:1823,1
DA:1824,1
DA:1827,1
DA:1828,1
DA:1829,1
DA:1831,9
DA:1838,8
DA:1840,8
DA:1841,8
DA:1842,8
DA:1844,8
DA:1845,8
DA:1846,8
DA:1847,8
DA:1851,0
DA:1852,0
DA:1853,0
DA:1854,0
DA:1856,0
DA:1857,0
DA:1858,0
DA:1859,0
DA:1863,8
DA:1866,8
DA:1870,0
DA:1874,0
DA:1876,0
DA:1881,0
DA:1888,8
DA:1889,8
DA:1893,8
DA:1894,8
DA:1898,8
DA:1899,8
DA:1903,8
DA:1905,8
DA:1908,8
DA:1909,8
DA:1914,1
DA:1927,0
DA:1936,0
DA:1937,0
DA:1938,0
DA:1940,0
DA:1944,0
DA:1945,0
DA:1948,0
DA:1950,0
DA:1951,0
DA:1954,0
DA:1955,0
DA:1957,0
DA:1958,0
DA:1959,0
DA:1961,0
DA:1963,0
DA:1964,0
DA:1965,0
DA:1966,0
DA:1969,0
DA:1980,0
DA:1982,0
DA:1983,0
DA:1984,0
DA:1986,0
DA:1987,0
DA:1988,0
DA:1989,0
DA:1993,0
DA:1994,0
DA:1995,0
DA:1996,0
DA:1998,0
DA:1999,0
DA:2000,0
DA:2001,0
DA:2005,0
DA:2008,0
DA:2012,0
DA:2016,0
DA:2018,0
DA:2023,0
DA:2030,0
DA:2031,0
DA:2036,0
DA:2038,0
DA:2039,0
DA:2044,0
DA:2045,0
DA:2049,0
DA:2051,0
DA:2055,0
DA:2056,0
DA:2061,0
DA:2080,80
DA:2085,80
DA:2091,80
DA:2094,80
DA:2096,0
DA:2100,80
DA:2101,0
DA:2103,80
DA:2104,80
DA:2106,80
DA:2108,0
DA:2110,0
DA:2113,1576
DA:2115,1496
DA:2117,1496
DA:2119,1496
DA:2121,1496
DA:2123,748
DA:2125,970
DA:2128,748
DA:2132,748
DA:2134,100
DA:2136,648
DA:2138,1296
DA:2140,648
DA:2142,648
DA:2144,648
DA:2145,648
DA:2146,648
DA:2147,648
DA:2149,648
DA:2150,648
DA:2152,0
DA:2155,0
DA:2156,0
DA:2158,16334
DA:2161,15586
DA:2172,9368
DA:2175,9269
DA:2176,9269
DA:2177,9269
DA:2180,9269
DA:2181,18538
DA:2182,9269
DA:2183,9269
DA:2186,9269
DA:2190,99
DA:2193,99
DA:2194,99
DA:2195,99
DA:2197,99
DA:2198,198
DA:2199,99
DA:2200,99
DA:2203,99
DA:2210,9368
DA:2213,0
DA:2214,0
DA:2218,9368
DA:2220,0
DA:2221,0
DA:2223,9368
DA:2225,0
DA:2226,0
DA:2229,9368
DA:2232,6403
DA:2235,6325
DA:2238,6325
DA:2243,78
DA:2249,2965
DA:2250,2965
DA:2252,2965
DA:2255,308
DA:2257,308
DA:2259,2657
DA:2262,2657
DA:2264,2657
DA:2269,9368
DA:2271,300
DA:2272,300
DA:2275,0
DA:2277,0
DA:2278,0
DA:2283,9368
DA:2284,9368
DA:2286,6218
DA:2296,6218
DA:2299,6217
DA:2300,6217
DA:2301,6217
DA:2303,6217
DA:2304,12434
DA:2305,6217
DA:2306,6217
DA:2307,6217
DA:2311,1
DA:2313,1
DA:2314,1
DA:2315,1
DA:2317,1
DA:2318,2
DA:2319,1
DA:2320,1
DA:2321,1
DA:2326,6218
DA:2328,0
DA:2337,6218
DA:2343,6218
DA:2344,6218
DA:2345,6218
DA:2346,6218
DA:2347,0
DA:2348,0
DA:2353,6218
DA:2356,6218
DA:2358,383
DA:2360,0
DA:2362,0
DA:2363,0
DA:2368,6218
DA:2369,6218
DA:2373,80
DA:2375,0
DA:2377,0
DA:2383,0
DA:2389,0
DA:2392,0
DA:2394,0
DA:2398,0
DA:2399,0
DA:2401,0
DA:2402,0
DA:2404,0
DA:2406,0
DA:2408,0
DA:2411,0
DA:2414,0
DA:2416,0
DA:2420,0
DA:2422,0
DA:2424,0
DA:2426,0
DA:2429,0
DA:2433,0
DA:2435,0
DA:2437,0
DA:2439,0
DA:2441,0
DA:2443,0
DA:2446,0
DA:2447,0
DA:2448,0
DA:2449,0
DA:2451,0
DA:2452,0
DA:2455,0
DA:2458,0
DA:2459,0
DA:2461,0
DA:2463,0
DA:2474,0
DA:2477,0
DA:2478,0
DA:2479,0
DA:2482,0
DA:2483,0
DA:2484,0
DA:2485,0
DA:2488,0
DA:2492,0
DA:2495,0
DA:2498,0
DA:2499,0
DA:2501,0
DA:2502,0
DA:2503,0
DA:2504,0
DA:2507,0
DA:2511,0
DA:2516,0
DA:2517,0
DA:2518,0
DA:2524,0
DA:2526,0
DA:2527,0
DA:2529,0
DA:2531,0
DA:2532,0
DA:2535,0
DA:2538,0
DA:2541,0
DA:2544,0
DA:2549,0
DA:2555,0
DA:2556,0
DA:2558,0
DA:2561,0
DA:2563,0
DA:2565,0
DA:2568,0
DA:2570,0
DA:2576,0
DA:2578,0
DA:2579,0
DA:2582,0
DA:2584,0
DA:2585,0
DA:2590,0
DA:2591,0
DA:2593,0
DA:2603,0
DA:2609,0
DA:2614,0
DA:2616,0
DA:2617,0
DA:2618,0
DA:2620,0
DA:2631,0
DA:2635,0
DA:2637,0
DA:2638,0
DA:2639,0
DA:2641,0
DA:2645,0
DA:2647,0
DA:2652,0
DA:2661,0
DA:2662,0
DA:2663,0
DA:2664,0
DA:2665,0
DA:2667,0
DA:2668,0
DA:2669,0
DA:2670,0
DA:2675,0
DA:2678,0
DA:2680,0
DA:2682,0
DA:2684,0
DA:2685,0
DA:2691,0
DA:2692,0
DA:2697,0
DA:2710,67152
DA:2713,67152
DA:2718,67152
DA:2720,67152
DA:2723,16624
DA:2725,50528
DA:2728,50528
DA:2729,50528
DA:2730,50528
DA:2731,50528
DA:2735,0
DA:2739,227158
DA:2741,160006
DA:2742,160006
DA:2745,160006
DA:2747,6047
DA:2748,6047
DA:2749,6047
DA:2751,153959
DA:2753,18869
DA:2754,18869
DA:2755,18869
DA:2761,135090
DA:2763,52124
DA:2765,52124
DA:2766,52124
DA:2770,135090
DA:2772,135090
DA:2775,131615
DA:2777,131615
DA:2780,0
DA:2782,0
DA:2784,131615
DA:2788,49081
DA:2790,49081
DA:2796,160006
DA:2799,67152
DA:2808,0
DA:2812,0
DA:2816,0
DA:2817,0
DA:2818,0
DA:2820,0
DA:2821,0
DA:2823,0
DA:2825,0
DA:2831,5205
DA:2835,5205
DA:2836,0
DA:2837,0
DA:2840,5205
DA:2841,5205
DA:2844,5205
DA:2845,5205
DA:2847,5205
DA:2849,5205
DA:2850,5205
DA:2854,5205
DA:2856,0
DA:2857,0
DA:2860,0
DA:2863,0
DA:2864,0
DA:2865,0
DA:2868,0
DA:2871,0
DA:2872,0
DA:2873,0
DA:2876,0
DA:2878,0
DA:2879,0
DA:2880,0
DA:2884,0
DA:2885,0
DA:2886,0
DA:2888,0
DA:2889,0
DA:2890,0
DA:2895,0
DA:2896,0
DA:2897,0
DA:2899,0
DA:2900,0
DA:2901,0
DA:2902,0
DA:2903,0
DA:2904,0
DA:2905,0
DA:2907,0
DA:2909,0
DA:2910,0
DA:2912,0
DA:2913,0
DA:2914,0
DA:2918,5205
DA:2919,5205
DA:2924,5205
DA:2926,0
DA:2927,0
DA:2931,0
DA:2933,0
DA:2934,0
DA:2940,0
DA:2944,0
DA:2945,0
DA:2946,0
DA:2949,0
DA:2952,0
DA:2953,0
DA:2955,0
DA:2959,0
DA:2960,0
DA:2961,0
DA:2964,0
DA:2966,0
DA:2967,0
DA:2968,0
DA:2970,0
DA:2971,0
DA:2973,0
DA:2974,0
DA:2976,0
DA:2977,0
DA:2978,0
DA:2980,0
DA:2982,0
DA:2984,0
DA:2985,0
DA:2986,0
DA:2988,0
DA:2990,0
DA:2992,0
DA:2993,0
DA:2994,0
DA:2996,0
DA:2998,0
DA:3003,5205
DA:3010,5205
DA:3012,5205
DA:3014,5205
DA:3016,5205
DA:3019,0
DA:3022,0
DA:3023,0
DA:3024,0
DA:3026,0
DA:3029,5205
DA:3033,4714
DA:3034,4432
DA:3036,282
DA:3040,4923
DA:3044,5205
DA:3045,5205
DA:3049,0
DA:3053,0
DA:3055,0
DA:3056,0
DA:3058,0
DA:3061,0
DA:3063,0
DA:3064,0
DA:3066,0
DA:3067,0
DA:3069,0
DA:3070,0
DA:3071,0
DA:3077,0
DA:3081,0
DA:3083,0
DA:3084,0
DA:3086,0
DA:3090,5205
DA:3093,0
DA:3099,0
DA:3100,0
DA:3102,0
DA:3103,0
DA:3105,0
DA:3106,0
DA:3107,0
DA:3109,0
DA:3110,0
DA:3112,0
DA:3114,0
DA:3115,0
DA:3116,0
DA:3117,0
DA:3118,0
DA:3119,0
DA:3122,0
DA:3123,0
DA:3124,0
DA:3125,0
DA:3129,0
DA:3130,0
DA:3137,0
DA:3141,547
DA:3143,547
DA:3145,547
DA:3146,547
DA:3148,547
DA:3151,82
DA:3155,42
DA:3156,42
DA:3158,33
DA:3159,33
DA:3161,0
DA:3162,0
DA:3164,33
DA:3168,9
DA:3172,42
DA:3173,39
DA:3175,0
DA:3179,0
DA:3181,42
DA:3184,0
DA:3185,0
DA:3187,42
DA:3190,39
DA:3191,39
DA:3197,547
DA:3199,547
DA:3202,11174
DA:3204,10627
DA:3205,10627
DA:3206,10627
DA:3208,0
DA:3213,10627
DA:3214,10627
DA:3216,0
DA:3219,10627
DA:3221,10627
DA:3222,10627
DA:3225,10627
DA:3226,10627
DA:3228,10627
DA:3232,10627
DA:3233,10627
DA:3234,10627
DA:3235,10627
DA:3238,10627
DA:3239,10627
DA:3240,10627
DA:3242,10627
DA:3243,10627
DA:3245,0
DA:3246,0
DA:3247,0
DA:3252,10627
DA:3253,10627
DA:3255,10627
DA:3256,10627
DA:3261,10627
DA:3262,10627
DA:3263,10627
DA:3264,10627
DA:3270,10627
DA:3271,10627
DA:3272,10627
DA:3275,10627
DA:3278,10627
DA:3279,10627
DA:3281,10627
DA:3283,0
DA:3286,10627
DA:3288,10627
DA:3289,10627
DA:3290,10627
DA:3294,11174
DA:3296,10627
DA:3297,10627
DA:3299,10627
DA:3300,10627
DA:3302,1043080
DA:3304,1032450
DA:3305,1032450
DA:3306,0
DA:3309,0
DA:3310,0
DA:3314,10627
DA:3315,0
DA:3319,547
DA:3320,547
DA:3321,547
DA:3323,0
DA:3324,0
DA:3325,0
DA:3328,0
DA:3330,0
DA:3331,0
DA:3333,0
DA:3334,0
DA:3335,0
DA:3339,0
DA:3341,0
DA:3342,0
DA:3343,0
DA:3344,0
DA:3345,0
DA:3346,0
DA:3347,0
DA:3350,547
DA:3352,547
DA:3353,547
DA:3358,2713
DA:3360,2713
DA:3362,43177
DA:3364,40464
DA:3365,40464
DA:3366,40464
DA:3368,0
DA:3373,40464
DA:3374,40464
DA:3376,0
DA:3380,40464
DA:3382,40464
DA:3383,13397
DA:3385,40464
DA:3386,40464
DA:3388,40464
DA:3390,40464
DA:3392,40464
DA:3393,40464
DA:3394,40464
DA:3395,40464
DA:3397,40464
DA:3398,40464
DA:3401,40464
DA:3402,40464
DA:3404,40464
DA:3406,0
DA:3410,40464
DA:3414,2713
DA:3416,0
DA:3417,0
DA:3418,0
DA:3421,0
DA:3423,0
DA:3424,0
DA:3426,0
DA:3427,0
DA:3428,0
DA:3432,2713
DA:3434,2713
DA:3435,2713
DA:3441,5205
DA:3445,5205
DA:3447,67904
DA:3449,62981
DA:3450,62981
DA:3451,62981
DA:3453,5590
DA:3455,667
DA:3456,0
DA:3457,0
DA:3459,667
DA:3460,667
DA:3461,667
DA:3462,667
DA:3465,4923
DA:3469,4714
DA:3471,4432
DA:3472,4432
DA:3473,4432
DA:3476,282
DA:3477,0
DA:3479,282
DA:3488,0
DA:3497,0
DA:3499,0
DA:3501,0
DA:3506,0
DA:3508,0
DA:3509,0
DA:3512,0
DA:3514,0
DA:3515,0
DA:3516,0
DA:3517,0
DA:3519,0
DA:3520,0
DA:3521,0
DA:3522,0
DA:3525,0
DA:3527,0
DA:3529,0
DA:3537,0
DA:3538,0
DA:3539,0
DA:3543,0
DA:3545,0
DA:3546,0
DA:3549,0
DA:3552,0
DA:3554,0
DA:3555,0
DA:3557,0
DA:3559,0
DA:3562,0
DA:3563,0
DA:3564,0
DA:3567,0
DA:3568,0
DA:3571,0
DA:3572,0
DA:3576,0
DA:3578,0
DA:3579,0
DA:3582,0
DA:3588,0
DA:3596,4581
DA:3599,4581
DA:3601,4581
DA:3602,4581
DA:3603,4581
DA:3607,4581
DA:3609,4581
DA:3610,4581
DA:3611,4581
DA:3613,4581
DA:3616,13514
DA:3618,8933
DA:3620,4621
DA:3624,4581
DA:3626,158
DA:3628,158
DA:3629,158
DA:3630,158
DA:3631,269
DA:3633,269
DA:3634,269
DA:3635,269
DA:3637,269
DA:3638,269
DA:3639,444
DA:3641,444
DA:3642,444
DA:3643,444
DA:3645,444
DA:3646,99
DA:3648,99
DA:3649,99
DA:3652,99
DA:3653,99
DA:3654,733
DA:3661,733
DA:3663,725
DA:3664,725
DA:3668,8
DA:3670,8
DA:3671,8
DA:3673,733
DA:3674,64
DA:3677,64
DA:3678,64
DA:3679,64
DA:3680,299
DA:3684,299
DA:3685,299
DA:3686,299
DA:3687,2515
DA:3694,2515
DA:3707,272
DA:3709,272
DA:3712,272
DA:3713,272
DA:3717,2243
DA:3719,2515
DA:3720,2515
DA:3722,0
DA:3723,0
DA:3724,0
DA:3725,0
DA:3726,0
DA:3727,0
DA:3728,0
DA:3729,0
DA:3730,0
DA:3733,4581
DA:3734,4581
DA:3736,13514
DA:3738,8933
DA:3741,128
DA:3742,128
DA:3743,0
DA:3744,128
DA:3747,128
DA:3750,64
DA:3752,64
DA:3754,64
DA:3755,128
DA:3757,8805
DA:3761,8607
DA:3763,8607
DA:3766,8607
DA:3767,8607
DA:3773,198
DA:3775,198
DA:3778,198
DA:3780,198
DA:3786,4581
DA:3787,4581
DA:3790,25788
DA:3795,21207
DA:3796,21207
DA:3797,21207
DA:3798,21207
DA:3800,21207
DA:3802,21207
DA:3804,21207
DA:3807,21207
DA:3810,13514
DA:3812,8933
DA:3815,4581
DA:3821,551
DA:3824,551
DA:3825,551
DA:3828,551
DA:3831,0
DA:3832,0
DA:3833,0
DA:3835,0
DA:3838,551
DA:3840,1112
DA:3842,561
DA:3843,552
DA:3844,5
DA:3846,552
DA:3848,552
DA:3849,552
DA:3851,552
DA:3852,552
DA:3854,9
DA:3857,9
DA:3861,0
DA:3867,551
DA:3869,0
DA:3871,551
DA:3873,4
DA:3874,4
DA:3875,4
DA:3877,547
DA:3879,547
DA:3882,551
DA:3888,515
DA:3894,515
DA:3896,515
DA:3897,515
DA:3898,515
DA:3901,515
DA:3904,515
DA:3906,515
DA:3912,515
DA:3919,515
DA:3922,1545
DA:3924,1030
DA:3927,1030
DA:3931,0
DA:3936,515
DA:3938,515
DA:3944,1515
DA:3950,1515
DA:3952,1515
DA:3953,1515
DA:3954,1515
DA:3957,1515
DA:3960,1515
DA:3962,1515
DA:3968,2030
DA:3977,2030
DA:3979,2030
DA:3982,2030
DA:3983,2030
DA:3985,2030
DA:3990,1
DA:3991,1
DA:3994,1
DA:3996,1
DA:4001,2029
DA:4002,2029
DA:4006,2030
DA:4009,2030
DA:4012,2030
DA:4013,2030
DA:4017,2030
DA:4020,2030
DA:4022,2030
DA:4023,2030
DA:4028,1515
DA:4035,1515
DA:4038,4545
DA:4040,3030
DA:4043,2203
DA:4044,2203
DA:4049,827
DA:4054,1515
DA:4056,1515
DA:4062,15
DA:4070,15
DA:4072,15
DA:4073,15
DA:4074,15
DA:4077,15
DA:4080,15
DA:4083,15
DA:4086,15
DA:4088,15
DA:4094,15
DA:4097,15
DA:4100,15
DA:4102,15
DA:4105,336
DA:4107,321
DA:4111,320
DA:4112,320
DA:4113,320
DA:4116,320
DA:4117,320
DA:4120,320
DA:4121,320
DA:4124,320
DA:4127,320
DA:4130,320
DA:4132,320
DA:4134,1
DA:4140,1
DA:4143,1
DA:4144,1
DA:4147,1
DA:4150,1
DA:4154,0
DA:4157,15
DA:4162,15
DA:4169,15
DA:4172,336
DA:4174,321
DA:4177,320
DA:4178,320
DA:4180,1
DA:4182,1
DA:4183,1
DA:4184,1
DA:4188,0
DA:4193,15
DA:4195,15
DA:4201,1530
DA:4206,1530
DA:4207,1530
DA:4208,1530
DA:4211,1530
DA:4214,1530
DA:4215,1530
DA:4217,29365
DA:4219,27835
DA:4223,27835
DA:4224,27835
DA:4225,27835
DA:4228,27835
DA:4230,27835
DA:4233,27835
DA:4234,27835
DA:4236,27835
DA:4238,27835
DA:4240,27835
DA:4242,27835
DA:4245,123187
DA:4247,95352
DA:4250,95352
DA:4251,95352
DA:4252,79365
DA:4256,44824
DA:4258,44824
DA:4259,44824
DA:4264,50528
DA:4267,50528
DA:4269,50528
DA:4272,0
DA:4277,50528
DA:4278,50528
DA:4280,50528
DA:4282,50528
DA:4285,0
DA:4288,0
DA:4290,0
DA:4293,0
DA:4297,27835
DA:4298,27835
DA:4299,27835
DA:4303,4881
DA:4305,3351
DA:4307,1530
DA:4309,1530
DA:4315,515
DA:4318,515
DA:4319,515
DA:4322,1545
DA:4324,1030
DA:4326,524
DA:4330,3648
DA:4335,3133
DA:4336,3133
DA:4337,3133
DA:4340,3133
DA:4342,3133
DA:4345,3133
DA:4346,3133
DA:4348,3133
DA:4350,3133
DA:4352,3133
DA:4354,3133
DA:4357,9399
DA:4359,6266
DA:4362,6266
DA:4365,6021
DA:4373,245
DA:4379,1545
DA:4381,1030
DA:4384,515
DA:4390,272
DA:4395,272
DA:4396,272
DA:4398,786
DA:4400,514
DA:4401,514
DA:4404,1542
DA:4406,1028
DA:4409,242
DA:4411,786
DA:4413,774
DA:4414,774
DA:4418,514
DA:4420,0
DA:4425,514
DA:4428,1716
DA:4430,1474
DA:4433,240
DA:4434,240
DA:4436,1234
DA:4437,754
DA:4440,32
DA:4441,32
DA:4447,272
DA:4453,544
DA:4457,544
DA:4459,1699
DA:4461,1457
DA:4462,0
DA:4464,1457
DA:4467,302
DA:4469,30
DA:4470,0
DA:4473,544
DA:4481,0
DA:4483,0
DA:4484,0
DA:4486,0
DA:4488,0
DA:4489,0
DA:4493,0
DA:4495,0
DA:4496,0
DA:4497,0
DA:4500,0
DA:4505,0
DA:4507,0
DA:4508,0
DA:4509,0
DA:4511,0
DA:4512,0
DA:4514,0
DA:4516,0
DA:4517,0
DA:4518,0
DA:4521,0
DA:4522,0
DA:4525,0
DA:4528,0
DA:4529,0
DA:4530,0
DA:4531,0
DA:4532,0
DA:4537,0
DA:4538,0
DA:4539,0
DA:4540,0
DA:4541,0
DA:4543,0
DA:4546,0
DA:4547,0
DA:4548,0
DA:4549,0
DA:4550,0
DA:4551,0
DA:4554,0
DA:4555,0
DA:4558,0
DA:4560,0
DA:4563,0
DA:4566,0
DA:4567,0
DA:4568,0
DA:4572,0
DA:4573,0
DA:4575,0
DA:4576,0
DA:4577,0
DA:4579,0
DA:4580,0
DA:4581,0
DA:4584,0
DA:4585,0
DA:4587,0
DA:4589,0
DA:4591,0
DA:4592,0
DA:4594,0
DA:4596,0
DA:4597,0
DA:4600,0
DA:4601,0
DA:4602,0
DA:4603,0
DA:4607,0
DA:4609,0
DA:4611,0
DA:4612,0
DA:4618,0
DA:4619,0
DA:4620,0
DA:4621,0
DA:4622,0
DA:4623,0
DA:4625,0
DA:4627,0
DA:4629,0
DA:4632,0
DA:4635,0
DA:4636,0
DA:4638,0
DA:4642,0
DA:4643,0
DA:4645,0
DA:4646,0
DA:4648,0
DA:4656,1
DA:4658,1
DA:4659,0
DA:4662,1
DA:4663,1
DA:4664,1
DA:4667,1
DA:4669,1
DA:4670,1
DA:4671,1
DA:4672,1
DA:4673,2
DA:4675,1
DA:4676,1
DA:4680,1
DA:4684,1
DA:4687,6
DA:4689,5
DA:4690,5
DA:4691,5
DA:4693,15
DA:4694,10
DA:4696,5
DA:4698,1
DA:4699,1
DA:4700,0
DA:4703,5
DA:4704,0
DA:4707,5
DA:4711,1
DA:4712,1
DA:4713,5
DA:4715,4
DA:4716,4
DA:4719,1
DA:4720,2
DA:4722,1
DA:4723,1
DA:4726,1
DA:4727,0
DA:4729,1
DA:4730,1
DA:4731,6
DA:4736,5
DA:4737,5
DA:4738,5
DA:4739,5
DA:4740,5
DA:4742,5
DA:4745,4
DA:4746,4
DA:4747,4
DA:4748,1
DA:4751,19
DA:4752,15
DA:4755,4
DA:4757,4
DA:4760,4
DA:4763,4
DA:4764,0
DA:4765,4
DA:4769,1
DA:4770,6
DA:4772,5
DA:4773,5
DA:4774,5
DA:4776,5
DA:4778,1
DA:4779,1
DA:4781,2
DA:4783,1
DA:4784,1
DA:4787,1
DA:4788,1
DA:4789,1
DA:4790,1
DA:4794,9
DA:4796,8
DA:4797,8
DA:4798,8
DA:4803,8
DA:4804,8
DA:4805,8
DA:4806,8
DA:4808,8
DA:4809,8
DA:4811,8
DA:4813,8
DA:4815,8
DA:4818,8
DA:4821,8
DA:4822,8
DA:4824,1
DA:4828,6
DA:4830,5
DA:4833,1
DA:4834,1
DA:4835,1
DA:4837,1
DA:4844,0
DA:4846,0
DA:4848,0
DA:4849,0
DA:4851,0
DA:4854,0
DA:4856,0
DA:4857,0
DA:4858,0
DA:4859,0
DA:4860,0
DA:4863,0
DA:4867,0
DA:4868,0
DA:4869,0
DA:4870,0
DA:4872,0
DA:4873,0
DA:4874,0
DA:4876,0
DA:4878,0
DA:4881,0
DA:4882,0
DA:4883,0
DA:4884,0
DA:4887,0
DA:4888,0
DA:4891,0
DA:4894,0
DA:4897,0
DA:4900,0
DA:4901,0
DA:4902,0
DA:4906,0
DA:4907,0
DA:4908,0
DA:4910,0
DA:4911,0
DA:4913,0
DA:4915,0
DA:4916,0
DA:4918,0
DA:4921,0
DA:4922,0
DA:4924,0
DA:4925,0
DA:4926,0
DA:4927,0
DA:4931,0
DA:4934,0
DA:4936,0
DA:4938,0
DA:4939,0
DA:4944,0
DA:4947,0
DA:4948,0
DA:4952,0
DA:4953,0
DA:4954,0
DA:4956,0
DA:4958,0
DA:4959,0
DA:4962,0
DA:4964,0
DA:4966,0
DA:4969,0
DA:4972,0
DA:4973,0
DA:4975,0
DA:4979,0
DA:4980,0
DA:4982,0
DA:4984,0
DA:4985,0
DA:4987,0
DA:4994,0
DA:4996,0
DA:4997,0
DA:4999,0
DA:5000,0
DA:5002,0
DA:5005,0
DA:5007,0
DA:5008,0
DA:5009,0
DA:5010,0
DA:5011,0
DA:5014,0
DA:5018,0
DA:5019,0
DA:5020,0
DA:5021,0
DA:5022,0
DA:5024,0
DA:5025,0
DA:5026,0
DA:5028,0
DA:5030,0
DA:5032,0
DA:5035,0
DA:5036,0
DA:5038,0
DA:5039,0
DA:5040,0
DA:5041,0
DA:5044,0
DA:5045,0
DA:5048,0
DA:5051,0
DA:5054,0
DA:5057,0
DA:5058,0
DA:5060,0
DA:5064,0
DA:5066,0
DA:5067,0
DA:5068,0
DA:5070,0
DA:5071,0
DA:5073,0
DA:5074,0
DA:5075,0
DA:5077,0
DA:5079,0
DA:5085,0
DA:5087,0
DA:5088,0
DA:5090,0
DA:5091,0
DA:5092,0
DA:5093,0
DA:5097,0
DA:5099,0
DA:5107,0
DA:5108,0
DA:5109,0
DA:5111,0
DA:5113,0
DA:5114,0
DA:5117,0
DA:5119,0
DA:5121,0
DA:5124,0
DA:5127,0
DA:5128,0
DA:5130,0
DA:5134,0
DA:5135,0
DA:5137,0
DA:5139,0
DA:5140,0
DA:5143,0
DA:5152,1
DA:5156,1
DA:5157,1
DA:5160,1
DA:5162,1
DA:5163,1
DA:5164,1
DA:5165,1
DA:5167,1
DA:5170,1
DA:5174,1
DA:5176,1
DA:5177,1
DA:5179,0
DA:5183,0
DA:5185,0
DA:5186,0
DA:5188,0
DA:5191,0
DA:5193,0
DA:5198,0
DA:5200,0
DA:5202,0
DA:5204,0
DA:5207,0
DA:5208,0
DA:5209,0
DA:5212,0
DA:5214,0
DA:5215,0
DA:5216,0
DA:5219,0
DA:5220,0
DA:5224,0
DA:5227,0
DA:5229,0
DA:5230,0
DA:5231,0
DA:5232,0
DA:5233,0
DA:5234,0
DA:5236,0
DA:5237,0
DA:5238,0
DA:5241,0
DA:5243,0
DA:5244,0
DA:5245,0
DA:5249,0
DA:5252,0
DA:5253,0
DA:5258,0
DA:5259,0
DA:5260,0
DA:5261,0
DA:5262,0
DA:5264,0
DA:5269,0
DA:5272,0
DA:5273,0
DA:5274,0
DA:5276,0
DA:5279,0
DA:5281,0
DA:5282,0
DA:5283,0
DA:5287,0
DA:5289,0
DA:5290,0
DA:5291,0
DA:5293,0
DA:5297,0
DA:5298,0
DA:5301,0
DA:5303,0
DA:5306,0
DA:5309,0
DA:5310,0
DA:5311,0
DA:5317,0
DA:5319,0
DA:5320,0
DA:5323,0
DA:5331,0
DA:5332,0
DA:5334,0
DA:5336,0
DA:5337,0
DA:5339,0
DA:5340,0
DA:5341,0
DA:5342,0
DA:5344,0
DA:5346,0
DA:5348,0
DA:5351,0
DA:5354,0
DA:5355,0
DA:5357,0
DA:5364,0
DA:5366,0
DA:5367,0
DA:5370,0
DA:5378,0
DA:5379,0
DA:5381,0
DA:5383,0
DA:5384,0
DA:5385,0
DA:5387,0
DA:5389,0
DA:5390,0
DA:5391,0
DA:5393,0
DA:5395,0
DA:5397,0
DA:5400,0
DA:5403,0
DA:5404,0
DA:5406,0
DA:5409,0
DA:5412,0
DA:5413,0
DA:5416,0
DA:5424,0
DA:5425,0
DA:5426,0
DA:5428,0
DA:5430,0
DA:5432,0
DA:5433,0
DA:5437,0
DA:5438,0
DA:5440,0
DA:5445,0
DA:5446,0
DA:5447,0
DA:5451,0
DA:5453,0
DA:5455,0
DA:5458,0
DA:5461,0
DA:5462,0
DA:5464,0
DA:5467,0
DA:5469,0
DA:5473,0
DA:5474,0
DA:5476,0
DA:5477,0
DA:5479,0
end_of_record
TN:
SF:/workspace/vtr-verilog-to-routing/ODIN_II/SRC/ast_optimizations.c
FN:49,_Z20optimizations_on_ASTP12ast_node_t_t
FNDA:17,_Z20optimizations_on_ASTP12ast_node_t_t
FN:59,_Z23reduceAST_traverse_nodeP12ast_node_t_tS0_i
FNDA:97683,_Z23reduceAST_traverse_nodeP12ast_node_t_tS0_i
FN:116,_Z12constantFoldP12ast_node_t_t
FNDA:39799,_Z12constantFoldP12ast_node_t_t
DA:49,17
DA:52,17
DA:53,17
DA:54,17
DA:59,97683
DA:62,97683
DA:63,97683
DA:64,97683
DA:66,97683
DA:69,24709
DA:73,72974
DA:76,72974
DA:80,72974
DA:83,170640
DA:86,97666
DA:90,72974
DA:93,72974
DA:97,170640
DA:99,97666
DA:100,0
DA:102,72974
DA:103,72974
DA:105,72974
DA:107,0
DA:110,72974
DA:116,39799
DA:119,39799
DA:120,39799
DA:121,39799
DA:123,39799
DA:126,0
DA:130,39799
DA:132,9406
DA:136,9406
DA:137,9406
DA:140,9406
DA:142,6028
DA:143,6028
DA:145,6028
DA:146,6028
DA:148,6028
DA:149,0
DA:150,0
DA:152,0
DA:153,0
DA:155,0
DA:156,0
DA:157,0
DA:159,0
DA:160,0
DA:162,0
DA:163,3299
DA:164,3299
DA:166,3299
DA:167,3299
DA:169,3299
DA:170,79
DA:171,79
DA:172,79
DA:173,79
DA:176,9406
DA:179,9406
DA:180,9406
DA:184,0
DA:185,0
DA:187,9406
DA:188,30393
DA:189,30393
DA:193,39799
DA:196,75239
DA:199,35440
DA:203,39799
DA:205,255
DA:206,255
DA:207,0
DA:211,0
DA:216,0
DA:218,0
DA:219,0
DA:220,0
DA:221,0
DA:222,0
DA:223,0
DA:224,0
DA:225,0
DA:226,0
DA:227,0
DA:228,0
DA:231,0
DA:233,0
DA:235,0
DA:236,0
DA:239,0
DA:242,0
DA:245,0
DA:248,255
DA:249,11815
DA:250,11815
DA:251,192
DA:252,181
DA:253,181
DA:257,181
DA:262,181
DA:264,61
DA:265,61
DA:266,61
DA:267,120
DA:268,120
DA:269,120
DA:270,0
DA:271,0
DA:272,0
DA:273,0
DA:274,0
DA:275,0
DA:276,0
DA:277,0
DA:278,0
DA:279,0
DA:280,0
DA:281,0
DA:282,0
DA:283,0
DA:284,0
DA:285,0
DA:286,0
DA:287,0
DA:288,0
DA:289,0
DA:290,0
DA:291,0
DA:292,0
DA:293,0
DA:294,0
DA:295,0
DA:296,0
DA:297,0
DA:298,0
DA:299,0
DA:300,0
DA:301,0
DA:302,0
DA:303,0
DA:304,0
DA:307,181
DA:309,181
DA:311,181
DA:312,181
DA:315,181
DA:318,181
DA:321,181
DA:324,11815
DA:325,27729
DA:326,27729
DA:330,75239
DA:332,35440
DA:333,9406
DA:335,39799
DA:336,39799
DA:338,39799
DA:340,181
DA:343,39799
end_of_record
TN:
SF:/workspace/vtr-verilog-to-routing/ODIN_II/SRC/high_level_data.c
FN:25,_Z12add_tag_datav
FNDA:0,_Z12add_tag_datav
FN:38,_Z11update_treeP12ast_node_t_t
FNDA:0,_Z11update_treeP12ast_node_t_t
FN:103,_Z10update_tagP12ast_node_t_tii
FNDA:0,_Z10update_tagP12ast_node_t_tii
FN:122,_Z12generate_tagv
FNDA:0,_Z12generate_tagv
FN:134,_Z14get_linenumberP12ast_node_t_t
FNDA:0,_Z14get_linenumberP12ast_node_t_t
DA:25,0
DA:29,0
DA:31,0
DA:33,0
DA:38,0
DA:44,0
DA:45,0
DA:47,0
DA:49,0
DA:51,0
DA:52,0
DA:53,0
DA:54,0
DA:55,0
DA:57,0
DA:58,0
DA:60,0
DA:64,0
DA:66,0
DA:68,0
DA:69,0
DA:70,0
DA:71,0
DA:72,0
DA:74,0
DA:75,0
DA:77,0
DA:81,0
DA:83,0
DA:85,0
DA:86,0
DA:87,0
DA:88,0
DA:89,0
DA:91,0
DA:92,0
DA:94,0
DA:103,0
DA:106,0
DA:107,0
DA:109,0
DA:110,0
DA:112,0
DA:114,0
DA:122,0
DA:125,0
DA:126,0
DA:128,0
DA:134,0
DA:136,0
end_of_record
TN:
SF:/usr/include/c++/9/cmath
FN:350,_ZSt3logIiEN9__gnu_cxx11__enable_ifIXsrSt12__is_integerIT_E7__valueEdE6__typeES3_
FNDA:8101,_ZSt3logIiEN9__gnu_cxx11__enable_ifIXsrSt12__is_integerIT_E7__valueEdE6__typeES3_
FN:350,_ZSt3logIxEN9__gnu_cxx11__enable_ifIXsrSt12__is_integerIT_E7__valueEdE6__typeES3_
FNDA:7460,_ZSt3logIxEN9__gnu_cxx11__enable_ifIXsrSt12__is_integerIT_E7__valueEdE6__typeES3_
DA:350,8101
DA:351,8101
DA:350,7460
DA:351,7460
end_of_record
SF:/workspace/vtr-verilog-to-routing/ODIN_II/SRC/ast_util.c
FN:42,_Z18create_node_w_type3idsii
FNDA:71224,_Z18create_node_w_type3idsii
FN:69,_Z18free_child_in_treeP12ast_node_t_ti
FNDA:362,_Z18free_child_in_treeP12ast_node_t_ti
FN:107,_Z13free_ast_nodeP12ast_node_t_t
FNDA:181,_Z13free_ast_nodeP12ast_node_t_t
FN:143,_Z18free_ast_node_onlyP12ast_node_t_t
FNDA:0,_Z18free_ast_node_onlyP12ast_node_t_t
FN:168,_Z19create_tree_node_idPcii
FNDA:23444,_Z19create_tree_node_idPcii
FN:179,_Z33create_tree_node_long_long_numberxiii
FNDA:181,_Z33create_tree_node_long_long_numberxiii
FN:205,_Z23create_tree_node_numberPcii
FNDA:14705,_Z23create_tree_node_numberPcii
FN:341,_Z25allocate_children_to_nodeP12ast_node_t_tiz
FNDA:32573,_Z25allocate_children_to_nodeP12ast_node_t_tiz
FN:362,_Z17add_child_to_nodeP12ast_node_t_tS0_
FNDA:13857,_Z17add_child_to_nodeP12ast_node_t_tS0_
FN:377,_Z38add_child_at_the_beginning_of_the_nodeP12ast_node_t_tS0_
FNDA:0,_Z38add_child_at_the_beginning_of_the_nodeP12ast_node_t_tS0_
FN:407,_Z9get_rangeP12ast_node_t_t
FNDA:5637,_Z9get_rangeP12ast_node_t_t
FN:436,_Z32make_concat_into_list_of_stringsP12ast_node_t_tPc
FNDA:0,_Z32make_concat_into_list_of_stringsP12ast_node_t_tPc
FN:551,_Z30get_name_of_var_declare_at_bitP12ast_node_t_ti
FNDA:15586,_Z30get_name_of_var_declare_at_bitP12ast_node_t_ti
FN:579,_Z22get_name_of_pin_at_bitP12ast_node_t_tiPc
FNDA:15595,_Z22get_name_of_pin_at_bitP12ast_node_t_tiPc
FN:683,_Z23get_name_of_pins_numberP12ast_node_t_tii
FNDA:4030,_Z23get_name_of_pins_numberP12ast_node_t_tii
FN:716,_Z16get_name_of_pinsP12ast_node_t_tPc
FNDA:21829,_Z16get_name_of_pinsP12ast_node_t_tPc
FN:859,_Z28get_name_of_pins_with_prefixP12ast_node_t_tPc
FNDA:21829,_Z28get_name_of_pins_with_prefixP12ast_node_t_tPc
FN:884,_Z12resolve_nodePcP12ast_node_t_t
FNDA:44437,_Z12resolve_nodePcP12ast_node_t_t
FN:947,_Z22make_module_param_nameP12ast_node_t_tPc
FNDA:40,_Z22make_module_param_nameP12ast_node_t_tPc
FN:973,_Z9calculatells
FNDA:0,_Z9calculatells
FN:999,_Z13move_ast_nodeP12ast_node_t_tS0_S0_
FNDA:0,_Z13move_ast_nodeP12ast_node_t_tS0_S0_
DA:42,71224
DA:48,71224
DA:49,71224
DA:50,71224
DA:52,71224
DA:53,71224
DA:55,71224
DA:56,71224
DA:57,71224
DA:59,71224
DA:60,71224
DA:62,71224
DA:69,362
DA:71,362
DA:74,362
DA:75,0
DA:78,362
DA:80,0
DA:83,362
DA:84,0
DA:86,362
DA:88,0
DA:89,0
DA:90,0
DA:91,0
DA:92,362
DA:93,362
DA:94,327
DA:95,362
DA:96,0
DA:97,0
DA:100,362
DA:101,362
DA:107,181
DA:111,181
DA:112,0
DA:115,543
DA:117,362
DA:120,181
DA:121,181
DA:123,181
DA:125,0
DA:126,0
DA:127,0
DA:128,0
DA:129,0
DA:130,0
DA:131,0
DA:132,0
DA:133,181
DA:134,181
DA:137,181
DA:143,0
DA:145,0
DA:146,0
DA:148,0
DA:150,0
DA:151,0
DA:152,0
DA:153,0
DA:154,0
DA:155,0
DA:156,0
DA:157,0
DA:158,0
DA:159,0
DA:162,0
DA:163,0
DA:168,23444
DA:170,23444
DA:171,23444
DA:173,23444
DA:179,181
DA:181,181
DA:182,181
DA:183,181
DA:184,181
DA:186,181
DA:188,0
DA:189,0
DA:192,181
DA:193,181
DA:195,181
DA:196,181
DA:197,0
DA:199,181
DA:205,14705
DA:207,14705
DA:208,14705
DA:209,14705
DA:211,14705
DA:214,34654
DA:216,23603
DA:218,3654
DA:220,19949
DA:223,14705
DA:225,11051
DA:227,11051
DA:229,11051
DA:232,11051
DA:234,11051
DA:239,3654
DA:241,0
DA:242,0
DA:243,0
DA:244,23
DA:245,23
DA:246,23
DA:247,1
DA:248,1
DA:249,1
DA:250,3630
DA:251,3630
DA:252,3630
DA:253,0
DA:254,0
DA:255,0
DA:259,3654
DA:260,3654
DA:261,3654
DA:263,3654
DA:264,3654
DA:267,0
DA:268,0
DA:272,3654
DA:275,3654
DA:279,14705
DA:282,3654
DA:287,11051
DA:289,7261
DA:293,3790
DA:297,14705
DA:299,11051
DA:301,11051
DA:302,11051
DA:303,11051
DA:304,23
DA:305,23
DA:306,23
DA:307,23
DA:309,23
DA:312,0
DA:314,23
DA:315,1
DA:316,1
DA:317,1
DA:319,1
DA:320,1
DA:321,3630
DA:323,3630
DA:325,3630
DA:329,3630
DA:331,3630
DA:334,14705
DA:341,32573
DA:347,32573
DA:348,32573
DA:351,32573
DA:353,111391
DA:355,78818
DA:357,32573
DA:362,13857
DA:365,13857
DA:366,0
DA:369,13857
DA:370,13857
DA:371,13857
DA:377,0
DA:382,0
DA:383,0
DA:388,0
DA:389,0
DA:391,0
DA:393,0
DA:394,0
DA:395,0
DA:396,0
DA:399,0
DA:407,5637
DA:411,5637
DA:416,3638
DA:419,0
DA:422,0
DA:423,0
DA:424,0
DA:427,3638
DA:429,1999
DA:436,0
DA:441,0
DA:442,0
DA:445,0
DA:447,0
DA:449,0
DA:453,0
DA:455,0
DA:457,0
DA:459,0
DA:461,0
DA:463,0
DA:465,0
DA:466,0
DA:467,0
DA:469,0
DA:472,0
DA:473,0
DA:474,0
DA:476,0
DA:478,0
DA:479,0
DA:480,0
DA:483,0
DA:485,0
DA:489,0
DA:492,0
DA:494,0
DA:495,0
DA:496,0
DA:498,0
DA:500,0
DA:501,0
DA:502,0
DA:503,0
DA:504,0
DA:508,0
DA:510,0
DA:511,0
DA:512,0
DA:513,0
DA:516,0
DA:518,0
DA:520,0
DA:524,0
DA:526,0
DA:527,0
DA:528,0
DA:531,0
DA:534,0
DA:536,0
DA:537,0
DA:538,0
DA:542,0
DA:545,0
DA:551,15586
DA:553,15586
DA:556,15586
DA:558,100
DA:559,100
DA:561,15486
DA:563,15486
DA:564,15486
DA:566,0
DA:569,0
DA:572,15586
DA:579,15595
DA:584,15595
DA:586,0
DA:587,0
DA:588,0
DA:590,15595
DA:592,118
DA:593,118
DA:594,118
DA:595,118
DA:596,118
DA:598,118
DA:600,15477
DA:602,101
DA:604,15376
DA:609,15376
DA:613,0
DA:614,0
DA:617,15376
DA:619,0
DA:621,15376
DA:623,15376
DA:624,15376
DA:627,0
DA:629,15376
DA:631,0
DA:633,0
DA:634,0
DA:636,0
DA:637,0
DA:639,0
DA:640,0
DA:642,0
DA:644,0
DA:645,0
DA:649,0
DA:650,0
DA:653,0
DA:655,0
DA:657,0
DA:658,0
DA:662,0
DA:665,0
DA:668,0
DA:669,0
DA:674,0
DA:676,0
DA:677,0
DA:680,15595
DA:683,4030
DA:686,4030
DA:688,4030
DA:690,28946
DA:693,24916
DA:695,24916
DA:696,24916
DA:698,6047
DA:699,18869
DA:700,0
DA:701,0
DA:706,0
DA:708,4030
DA:716,21829
DA:718,21829
DA:719,21829
DA:723,21829
DA:725,21829
DA:727,3599
DA:728,3599
DA:729,3599
DA:730,3599
DA:731,3599
DA:732,3599
DA:734,18230
DA:736,203
DA:737,203
DA:738,203
DA:739,203
DA:740,203
DA:741,203
DA:743,203
DA:744,6751
DA:745,6548
DA:749,0
DA:750,0
DA:753,18027
DA:760,14009
DA:762,14009
DA:764,13997
DA:766,13997
DA:768,0
DA:770,13997
DA:772,13997
DA:775,0
DA:777,13997
DA:779,13997
DA:781,5076
DA:782,5076
DA:783,5076
DA:785,8921
DA:787,8921
DA:788,8921
DA:789,8921
DA:790,8921
DA:791,8921
DA:792,8921
DA:793,146340
DA:795,274838
DA:796,137419
DA:797,137419
DA:800,0
DA:802,0
DA:812,12
DA:813,12
DA:814,12
DA:817,4018
DA:819,4018
DA:820,4018
DA:822,0
DA:824,0
DA:826,0
DA:830,0
DA:833,0
DA:836,0
DA:837,0
DA:838,0
DA:840,0
DA:841,0
DA:847,0
DA:850,21829
DA:851,21829
DA:853,21829
DA:859,21829
DA:865,21829
DA:867,199387
DA:869,177558
DA:872,21829
DA:884,44437
DA:886,44437
DA:894,44437
DA:895,44437
DA:896,44437
DA:898,44437
DA:900,0
DA:903,44437
DA:905,14212
DA:906,14212
DA:907,14212
DA:908,14212
DA:909,14212
DA:910,14212
DA:911,14212
DA:913,12
DA:914,12
DA:916,14212
DA:918,0
DA:919,0
DA:920,0
DA:921,0
DA:922,0
DA:924,0
DA:925,0
DA:926,0
DA:928,0
DA:930,30225
DA:931,30225
DA:934,44437
DA:935,44437
DA:937,44437
DA:947,40
DA:949,40
DA:950,40
DA:952,40
DA:955,0
DA:956,0
DA:957,0
DA:959,0
DA:961,0
DA:965,40
DA:973,0
DA:975,0
DA:976,0
DA:977,0
DA:978,0
DA:979,0
DA:980,0
DA:981,0
DA:982,0
DA:983,0
DA:984,0
DA:985,0
DA:986,0
DA:987,0
DA:988,0
DA:989,0
DA:990,0
DA:992,0
DA:999,0
DA:1003,0
DA:1004,0
DA:1006,0
DA:1008,0
DA:1009,0
DA:1010,0
DA:1012,0
DA:1016,0
DA:1017,0
end_of_record
SF:/usr/include/c++/9/bits/std_abs.h
FN:61,_ZSt3absx
FNDA:3841,_ZSt3absx
DA:61,3841
end_of_record
TN:
SF:/workspace/vtr-verilog-to-routing/ODIN_II/SRC/parse_making_ast.c
FN:76,_Z21graphVizOutputPreprocP8_IO_FILEPcS1_
FNDA:0,_Z21graphVizOutputPreprocP8_IO_FILEPcS1_
FN:105,_Z12parse_to_astv
FNDA:17,_Z12parse_to_astv
FN:211,_Z19cleanup_hard_blocksv
FNDA:17,_Z19cleanup_hard_blocksv
FN:235,_Z11init_parserv
FNDA:17,_Z11init_parserv
FN:267,_Z14cleanup_parserv
FNDA:17,_Z14cleanup_parserv
FN:286,_Z20init_parser_for_filev
FNDA:17,_Z20init_parser_for_filev
FN:302,_Z24clean_up_parser_for_filev
FNDA:17,_Z24clean_up_parser_for_filev
FN:311,_Z24next_parsed_verilog_fileP12ast_node_t_t
FNDA:17,_Z24next_parsed_verilog_fileP12ast_node_t_t
FN:337,_Z13newSymbolNodePci
FNDA:23444,_Z13newSymbolNodePci
FN:374,_Z13newNumberNodePci
FNDA:14705,_Z13newNumberNodePci
FN:383,_Z7newList3idsP12ast_node_t_t
FNDA:9682,_Z7newList3idsP12ast_node_t_t
FN:393,_Z15newfunctionList3idsP12ast_node_t_t
FNDA:0,_Z15newfunctionList3idsP12ast_node_t_t
FN:407,_Z13newList_entryP12ast_node_t_tS0_
FNDA:13857,_Z13newList_entryP12ast_node_t_tS0_
FN:420,_Z16newListReplicateP12ast_node_t_tS0_
FNDA:0,_Z16newListReplicateP12ast_node_t_tS0_
FN:438,_Z28markAndProcessSymbolListWith3idsS_P12ast_node_t_t
FNDA:4481,_Z28markAndProcessSymbolListWith3idsS_P12ast_node_t_t
FN:833,_Z11newArrayRefPcP12ast_node_t_ti
FNDA:3518,_Z11newArrayRefPcP12ast_node_t_ti
FN:848,_Z11newRangeRefPcP12ast_node_t_tS1_i
FNDA:164,_Z11newRangeRefPcP12ast_node_t_tS1_i
FN:865,_Z18newBinaryOperation14operation_listP12ast_node_t_tS1_i
FNDA:4157,_Z18newBinaryOperation14operation_listP12ast_node_t_tS1_i
FN:889,_Z17newUnaryOperation14operation_listP12ast_node_t_ti
FNDA:202,_Z17newUnaryOperation14operation_listP12ast_node_t_ti
FN:913,_Z16newNegedgeSymbolPci
FNDA:2,_Z16newNegedgeSymbolPci
FN:928,_Z16newPosedgeSymbolPci
FNDA:550,_Z16newPosedgeSymbolPci
FN:943,_Z11newCaseItemP12ast_node_t_tS0_i
FNDA:320,_Z11newCaseItemP12ast_node_t_tS0_i
FN:956,_Z14newDefaultCaseP12ast_node_t_ti
FNDA:1,_Z14newDefaultCaseP12ast_node_t_ti
FN:969,_Z21newParallelConnectionP12ast_node_t_tS0_i
FNDA:0,_Z21newParallelConnectionP12ast_node_t_tS0_i
FN:981,_Z14newNonBlockingP12ast_node_t_tS0_i
FNDA:2103,_Z14newNonBlockingP12ast_node_t_tS0_i
FN:994,_Z10newInitialP12ast_node_t_ti
FNDA:0,_Z10newInitialP12ast_node_t_ti
FN:1006,_Z11newBlockingP12ast_node_t_tS0_i
FNDA:2906,_Z11newBlockingP12ast_node_t_tS0_i
FN:1018,_Z20newFunctionAssigningP12ast_node_t_tS0_i
FNDA:0,_Z20newFunctionAssigningP12ast_node_t_tS0_i
FN:1043,_Z6newForP12ast_node_t_tS0_S0_S0_i
FNDA:0,_Z6newForP12ast_node_t_tS0_S0_S0_i
FN:1056,_Z8newWhileP12ast_node_t_tS0_i
FNDA:0,_Z8newWhileP12ast_node_t_tS0_i
FN:1073,_Z5newIfP12ast_node_t_tS0_S0_i
FNDA:1488,_Z5newIfP12ast_node_t_tS0_S0_i
FN:1086,_Z13newIfQuestionP12ast_node_t_tS0_S0_i
FNDA:515,_Z13newIfQuestionP12ast_node_t_tS0_S0_i
FN:1098,_Z7newCaseP12ast_node_t_tS0_i
FNDA:15,_Z7newCaseP12ast_node_t_tS0_i
FN:1111,_Z9newAlwaysP12ast_node_t_tS0_i
FNDA:550,_Z9newAlwaysP12ast_node_t_tS0_i
FN:1124,_Z19newModuleConnectionPcP12ast_node_t_ti
FNDA:753,_Z19newModuleConnectionPcP12ast_node_t_ti
FN:1147,_Z18newModuleParameterPcP12ast_node_t_ti
FNDA:0,_Z18newModuleParameterPcP12ast_node_t_ti
FN:1180,_Z22newModuleNamedInstancePcP12ast_node_t_tS1_i
FNDA:41,_Z22newModuleNamedInstancePcP12ast_node_t_tS1_i
FN:1195,_Z24newFunctionNamedInstanceP12ast_node_t_tS0_i
FNDA:0,_Z24newFunctionNamedInstanceP12ast_node_t_tS0_i
FN:1218,_Z20newHardBlockInstancePcP12ast_node_t_ti
FNDA:1,_Z20newHardBlockInstancePcP12ast_node_t_ti
FN:1238,_Z17newModuleInstancePcP12ast_node_t_ti
FNDA:41,_Z17newModuleInstancePcP12ast_node_t_ti
FN:1300,_Z19newFunctionInstancePcP12ast_node_t_ti
FNDA:0,_Z19newFunctionInstancePcP12ast_node_t_ti
FN:1336,_Z15newGateInstancePcP12ast_node_t_tS1_S1_i
FNDA:0,_Z15newGateInstancePcP12ast_node_t_tS1_S1_i
FN:1367,_Z29newMultipleInputsGateInstancePcP12ast_node_t_tS1_S1_i
FNDA:0,_Z29newMultipleInputsGateInstancePcP12ast_node_t_tS1_S1_i
FN:1413,_Z7newGate14operation_listP12ast_node_t_ti
FNDA:0,_Z7newGate14operation_listP12ast_node_t_ti
FN:1430,_Z13newVarDeclarePcP12ast_node_t_tS1_S1_S1_S1_i
FNDA:5472,_Z13newVarDeclarePcP12ast_node_t_tS1_S1_S1_S1_i
FN:1447,_Z24newIntegerTypeVarDeclarePcP12ast_node_t_tS1_S1_S1_S1_i
FNDA:0,_Z24newIntegerTypeVarDeclarePcP12ast_node_t_tS1_S1_S1_S1_i
FN:1474,_Z9newModulePcP12ast_node_t_tS1_i
FNDA:53,_Z9newModulePcP12ast_node_t_tS1_i
FN:1529,_Z11newFunctionP12ast_node_t_tS0_i
FNDA:0,_Z11newFunctionP12ast_node_t_tS0_i
FN:1612,_Z13next_functionv
FNDA:0,_Z13next_functionv
FN:1635,_Z11next_modulev
FNDA:53,_Z11next_modulev
FN:1664,_Z11newDefparam3idsP12ast_node_t_ti
FNDA:0,_Z11newDefparam3idsP12ast_node_t_ti
FN:1731,_Z11newConstantPcS_i
FNDA:0,_Z11newConstantPcS_i
FN:1760,_Z17graphVizOutputAstPcP12ast_node_t_t
FNDA:0,_Z17graphVizOutputAstPcP12ast_node_t_t
FN:1785,_Z31graphVizOutputAst_traverse_nodeP8_IO_FILEP12ast_node_t_tS2_i
FNDA:0,_Z31graphVizOutputAst_traverse_nodeP8_IO_FILEP12ast_node_t_tS2_i
FN:2100,_Z19calculate_operationP12ast_node_t_t
FNDA:0,_Z19calculate_operationP12ast_node_t_t
DA:76,0
DA:83,0
DA:84,0
DA:85,0
DA:86,0
DA:89,0
DA:90,0
DA:92,0
DA:93,0
DA:94,0
DA:95,0
DA:96,0
DA:97,0
DA:98,0
DA:99,0
DA:105,17
DA:112,17
DA:115,17
DA:118,17
DA:121,17
DA:122,17
DA:123,17
DA:125,17
DA:126,17
DA:128,0
DA:132,17
DA:133,17
DA:134,17
DA:137,17
DA:138,0
DA:141,17
DA:144,17
DA:146,17
DA:148,17
DA:150,17
DA:152,0
DA:155,0
DA:157,0
DA:158,0
DA:160,0
DA:164,0
DA:165,0
DA:166,0
DA:169,0
DA:170,0
DA:173,0
DA:176,0
DA:179,0
DA:181,0
DA:183,0
DA:185,0
DA:190,17
DA:193,17
DA:194,17
DA:211,17
DA:216,18
DA:218,1
DA:219,1
DA:220,1
DA:221,1
DA:222,1
DA:224,6
DA:226,5
DA:229,17
DA:235,17
DA:237,17
DA:239,17
DA:241,17
DA:243,17
DA:244,17
DA:245,17
DA:246,17
DA:247,17
DA:248,17
DA:249,17
DA:250,17
DA:251,17
DA:252,17
DA:253,17
DA:254,17
DA:255,17
DA:256,17
DA:257,17
DA:260,17
DA:261,17
DA:262,17
DA:267,17
DA:272,17
DA:274,70
DA:276,53
DA:279,17
DA:281,17
DA:286,17
DA:289,17
DA:290,17
DA:293,17
DA:294,17
DA:295,17
DA:296,17
DA:297,17
DA:302,17
DA:305,17
DA:306,17
DA:311,17
DA:315,17
DA:316,17
DA:318,17
DA:321,0
DA:323,0
DA:324,0
DA:329,17
DA:330,17
DA:331,17
DA:332,17
DA:337,23444
DA:342,23444
DA:343,23444
DA:349,0
DA:351,0
DA:355,0
DA:360,23444
DA:364,0
DA:367,23444
DA:374,14705
DA:376,14705
DA:377,14705
DA:383,9682
DA:386,9682
DA:388,9682
DA:390,9682
DA:393,0
DA:396,0
DA:398,0
DA:400,0
DA:402,0
DA:407,13857
DA:410,13857
DA:412,13857
DA:420,0
DA:423,0
DA:425,0
DA:428,0
DA:431,0
DA:433,0
DA:436,0
DA:438,4481
DA:442,4481
DA:443,4481
DA:444,4481
DA:445,4481
DA:446,4481
DA:448,9953
DA:452,5472
DA:454,5472
DA:456,5472
DA:457,3474
DA:458,3474
DA:465,3474
DA:467,0
DA:469,0
DA:470,0
DA:472,0
DA:473,0
DA:476,0
DA:477,0
DA:480,0
DA:481,0
DA:483,3474
DA:485,3474
DA:486,3474
DA:488,0
DA:490,0
DA:491,0
DA:494,3474
DA:496,0
DA:498,0
DA:499,0
DA:501,0
DA:502,0
DA:505,0
DA:506,0
DA:509,0
DA:510,0
DA:512,3474
DA:514,3474
DA:515,3474
DA:517,0
DA:519,0
DA:520,0
DA:523,3474
DA:524,0
DA:526,3474
DA:527,0
DA:531,5472
DA:533,1998
DA:534,1998
DA:537,5472
DA:539,899
DA:541,899
DA:543,899
DA:546,899
DA:548,628
DA:549,628
DA:550,628
DA:552,899
DA:554,271
DA:555,271
DA:556,271
DA:559,899
DA:561,0
DA:563,899
DA:565,12
DA:567,12
DA:568,12
DA:570,1
DA:574,12
DA:577,0
DA:578,0
DA:579,0
DA:581,0
DA:585,0
DA:590,12
DA:592,0
DA:593,0
DA:594,0
DA:596,12
DA:597,12
DA:599,12
DA:601,12
DA:602,12
DA:604,628
DA:605,628
DA:607,628
DA:609,0
DA:612,628
DA:613,628
DA:614,271
DA:615,271
DA:617,271
DA:619,0
DA:622,271
DA:623,271
DA:624,0
DA:625,0
DA:626,0
DA:627,0
DA:628,2684
DA:629,2684
DA:630,2684
DA:631,978
DA:632,978
DA:633,978
DA:634,0
DA:635,0
DA:636,0
DA:637,0
DA:638,0
DA:641,0
DA:643,0
DA:644,0
DA:645,0
DA:648,0
DA:650,0
DA:652,0
DA:653,0
DA:655,0
DA:656,0
DA:659,0
DA:660,0
DA:663,0
DA:664,0
DA:666,0
DA:668,0
DA:669,0
DA:671,0
DA:673,0
DA:674,0
DA:677,0
DA:679,0
DA:681,0
DA:682,0
DA:684,0
DA:685,0
DA:688,0
DA:689,0
DA:692,0
DA:693,0
DA:695,0
DA:697,0
DA:698,0
DA:700,0
DA:702,0
DA:703,0
DA:706,0
DA:707,0
DA:709,0
DA:710,0
DA:714,0
DA:716,0
DA:717,0
DA:720,0
DA:722,0
DA:724,0
DA:726,0
DA:729,0
DA:731,0
DA:732,0
DA:733,0
DA:736,0
DA:738,0
DA:739,0
DA:740,0
DA:743,0
DA:745,0
DA:747,0
DA:749,0
DA:751,0
DA:752,0
DA:754,0
DA:758,0
DA:761,0
DA:762,0
DA:763,0
DA:765,0
DA:769,0
DA:774,0
DA:776,0
DA:777,0
DA:778,0
DA:780,0
DA:781,0
DA:783,0
DA:785,0
DA:786,0
DA:788,0
DA:789,0
DA:791,0
DA:793,0
DA:796,0
DA:797,0
DA:798,0
DA:799,0
DA:801,0
DA:803,0
DA:806,0
DA:807,0
DA:808,0
DA:809,0
DA:810,0
DA:811,0
DA:812,0
DA:813,0
DA:814,0
DA:815,0
DA:816,0
DA:817,0
DA:818,0
DA:819,0
DA:820,0
DA:821,0
DA:822,0
DA:828,4481
DA:833,3518
DA:836,3518
DA:838,3518
DA:840,3518
DA:842,3518
DA:848,164
DA:851,164
DA:853,164
DA:855,164
DA:857,164
DA:859,164
DA:865,4157
DA:867,4157
DA:869,4157
DA:871,4157
DA:873,4157
DA:876,4157
DA:877,4157
DA:879,181
DA:880,181
DA:883,4157
DA:889,202
DA:891,202
DA:893,202
DA:895,202
DA:897,202
DA:900,202
DA:901,202
DA:903,0
DA:904,0
DA:907,202
DA:913,2
DA:916,2
DA:918,2
DA:920,2
DA:922,2
DA:928,550
DA:931,550
DA:933,550
DA:935,550
DA:937,550
DA:943,320
DA:946,320
DA:948,320
DA:950,320
DA:956,1
DA:959,1
DA:961,1
DA:963,1
DA:969,0
DA:972,0
DA:974,0
DA:976,0
DA:981,2103
DA:984,2103
DA:986,2103
DA:988,2103
DA:994,0
DA:997,0
DA:999,0
DA:1001,0
DA:1006,2906
DA:1009,2906
DA:1011,2906
DA:1013,2906
DA:1018,0
DA:1023,0
DA:1025,0
DA:1027,0
DA:1029,0
DA:1032,0
DA:1035,0
DA:1037,0
DA:1043,0
DA:1046,0
DA:1048,0
DA:1050,0
DA:1056,0
DA:1059,0
DA:1061,0
DA:1064,0
DA:1065,0
DA:1067,0
DA:1073,1488
DA:1076,1488
DA:1078,1488
DA:1080,1488
DA:1086,515
DA:1089,515
DA:1091,515
DA:1093,515
DA:1098,15
DA:1101,15
DA:1103,15
DA:1105,15
DA:1111,550
DA:1114,550
DA:1116,550
DA:1118,550
DA:1124,753
DA:1128,753
DA:1129,753
DA:1131,51
DA:1135,702
DA:1139,753
DA:1141,753
DA:1147,0
DA:1151,0
DA:1152,0
DA:1154,0
DA:1158,0
DA:1161,0
DA:1163,0
DA:1169,0
DA:1172,0
DA:1174,0
DA:1180,41
DA:1182,41
DA:1185,41
DA:1187,41
DA:1189,41
DA:1195,0
DA:1198,0
DA:1200,0
DA:1201,0
DA:1202,0
DA:1203,0
DA:1204,0
DA:1206,0
DA:1209,0
DA:1211,0
DA:1213,0
DA:1218,1
DA:1220,1
DA:1223,1
DA:1225,1
DA:1228,1
DA:1229,1
DA:1230,1
DA:1232,1
DA:1238,41
DA:1242,41
DA:1243,81
DA:1245,41
DA:1247,41
DA:1248,40
DA:1249,81
DA:1252,1
DA:1257,40
DA:1258,40
DA:1259,40
DA:1262,40
DA:1266,0
DA:1271,0
DA:1272,0
DA:1273,0
DA:1274,0
DA:1275,0
DA:1276,0
DA:1277,0
DA:1282,40
DA:1284,40
DA:1285,40
DA:1286,0
DA:1289,40
DA:1290,40
DA:1291,40
DA:1294,40
DA:1295,40
DA:1300,0
DA:1303,0
DA:1305,0
DA:1306,0
DA:1307,0
DA:1310,0
DA:1315,0
DA:1317,0
DA:1318,0
DA:1321,0
DA:1323,0
DA:1326,0
DA:1327,0
DA:1328,0
DA:1330,0
DA:1336,0
DA:1339,0
DA:1340,0
DA:1342,0
DA:1344,0
DA:1348,0
DA:1349,0
DA:1350,0
DA:1351,0
DA:1352,0
DA:1353,0
DA:1354,0
DA:1357,0
DA:1359,0
DA:1360,0
DA:1362,0
DA:1364,0
DA:1367,0
DA:1371,0
DA:1373,0
DA:1375,0
DA:1377,0
DA:1382,0
DA:1384,0
DA:1386,0
DA:1388,0
DA:1390,0
DA:1392,0
DA:1393,0
DA:1396,0
DA:1399,0
DA:1401,0
DA:1403,0
DA:1406,0
DA:1408,0
DA:1413,0
DA:1416,0
DA:1418,0
DA:1420,0
DA:1422,0
DA:1430,5472
DA:1432,5472
DA:1435,5472
DA:1438,5472
DA:1440,5472
DA:1447,0
DA:1450,0
DA:1451,0
DA:1453,0
DA:1454,0
DA:1456,0
DA:1458,0
DA:1460,0
DA:1463,0
DA:1466,0
DA:1468,0
DA:1474,53
DA:1478,53
DA:1481,53
DA:1483,53
DA:1485,53
DA:1488,53
DA:1489,53
DA:1490,53
DA:1491,53
DA:1493,53
DA:1494,53
DA:1495,53
DA:1496,53
DA:1498,53
DA:1499,53
DA:1500,53
DA:1501,0
DA:1502,0
DA:1503,0
DA:1504,0
DA:1505,0
DA:1509,0
DA:1512,53
DA:1514,0
DA:1517,53
DA:1520,53
DA:1522,53
DA:1529,0
DA:1540,0
DA:1541,0
DA:1543,0
DA:1545,0
DA:1547,0
DA:1549,0
DA:1551,0
DA:1553,0
DA:1555,0
DA:1557,0
DA:1559,0
DA:1561,0
DA:1564,0
DA:1565,0
DA:1566,0
DA:1567,0
DA:1568,0
DA:1569,0
DA:1570,0
DA:1571,0
DA:1577,0
DA:1580,0
DA:1583,0
DA:1586,0
DA:1589,0
DA:1590,0
DA:1591,0
DA:1594,0
DA:1595,0
DA:1597,0
DA:1599,0
DA:1602,0
DA:1605,0
DA:1607,0
DA:1612,0
DA:1614,0
DA:1618,0
DA:1619,0
DA:1622,0
DA:1623,0
DA:1626,0
DA:1627,0
DA:1629,0
DA:1630,0
DA:1631,0
DA:1635,53
DA:1637,53
DA:1638,53
DA:1641,53
DA:1642,53
DA:1645,53
DA:1646,53
DA:1648,53
DA:1649,53
DA:1651,53
DA:1652,53
DA:1654,53
DA:1655,53
DA:1657,53
DA:1658,53
DA:1659,53
DA:1664,0
DA:1668,0
DA:1671,0
DA:1673,0
DA:1675,0
DA:1677,0
DA:1678,0
DA:1679,0
DA:1680,0
DA:1681,0
DA:1684,0
DA:1685,0
DA:1688,0
DA:1689,0
DA:1690,0
DA:1691,0
DA:1692,0
DA:1693,0
DA:1694,0
DA:1698,0
DA:1699,0
DA:1701,0
DA:1703,0
DA:1704,0
DA:1706,0
DA:1707,0
DA:1710,0
DA:1711,0
DA:1712,0
DA:1714,0
DA:1719,0
DA:1721,0
DA:1722,0
DA:1725,0
DA:1731,0
DA:1734,0
DA:1738,0
DA:1740,0
DA:1743,0
DA:1745,0
DA:1746,0
DA:1760,0
DA:1767,0
DA:1768,0
DA:1769,0
DA:1772,0
DA:1773,0
DA:1775,0
DA:1778,0
DA:1779,0
DA:1780,0
DA:1785,0
DA:1788,0
DA:1791,0
DA:1793,0
DA:1799,0
DA:1801,0
DA:1802,0
DA:1803,0
DA:1804,0
DA:1805,0
DA:1806,0
DA:1807,0
DA:1808,0
DA:1809,0
DA:1810,0
DA:1812,0
DA:1813,0
DA:1815,0
DA:1817,0
DA:1819,0
DA:1821,0
DA:1823,0
DA:1825,0
DA:1827,0
DA:1829,0
DA:1831,0
DA:1833,0
DA:1835,0
DA:1837,0
DA:1839,0
DA:1841,0
DA:1843,0
DA:1844,0
DA:1845,0
DA:1846,0
DA:1847,0
DA:1848,0
DA:1849,0
DA:1850,0
DA:1851,0
DA:1852,0
DA:1853,0
DA:1854,0
DA:1855,0
DA:1856,0
DA:1857,0
DA:1858,0
DA:1859,0
DA:1860,0
DA:1861,0
DA:1862,0
DA:1863,0
DA:1864,0
DA:1865,0
DA:1866,0
DA:1867,0
DA:1868,0
DA:1869,0
DA:1870,0
DA:1871,0
DA:1872,0
DA:1873,0
DA:1874,0
DA:1875,0
DA:1876,0
DA:1877,0
DA:1878,0
DA:1879,0
DA:1880,0
DA:1881,0
DA:1882,0
DA:1883,0
DA:1884,0
DA:1885,0
DA:1886,0
DA:1887,0
DA:1888,0
DA:1889,0
DA:1890,0
DA:1891,0
DA:1892,0
DA:1893,0
DA:1894,0
DA:1895,0
DA:1896,0
DA:1897,0
DA:1898,0
DA:1899,0
DA:1900,0
DA:1901,0
DA:1902,0
DA:1903,0
DA:1904,0
DA:1905,0
DA:1906,0
DA:1907,0
DA:1908,0
DA:1909,0
DA:1910,0
DA:1911,0
DA:1912,0
DA:1913,0
DA:1914,0
DA:1915,0
DA:1916,0
DA:1917,0
DA:1918,0
DA:1919,0
DA:1920,0
DA:1921,0
DA:1922,0
DA:1923,0
DA:1924,0
DA:1925,0
DA:1926,0
DA:1927,0
DA:1928,0
DA:1929,0
DA:1930,0
DA:1931,0
DA:1932,0
DA:1934,0
DA:1935,0
DA:1936,0
DA:1937,0
DA:1938,0
DA:1939,0
DA:1940,0
DA:1941,0
DA:1942,0
DA:1943,0
DA:1944,0
DA:1945,0
DA:1946,0
DA:1947,0
DA:1948,0
DA:1949,0
DA:1950,0
DA:1951,0
DA:1952,0
DA:1953,0
DA:1954,0
DA:1955,0
DA:1956,0
DA:1957,0
DA:1958,0
DA:1959,0
DA:1960,0
DA:1961,0
DA:1962,0
DA:1963,0
DA:1964,0
DA:1965,0
DA:1966,0
DA:1967,0
DA:1968,0
DA:1969,0
DA:1970,0
DA:1971,0
DA:1972,0
DA:1973,0
DA:1974,0
DA:1975,0
DA:1976,0
DA:1977,0
DA:1978,0
DA:1979,0
DA:1980,0
DA:1981,0
DA:1982,0
DA:1983,0
DA:1984,0
DA:1985,0
DA:1986,0
DA:1987,0
DA:1988,0
DA:1989,0
DA:1990,0
DA:1991,0
DA:1992,0
DA:1993,0
DA:1994,0
DA:1995,0
DA:1996,0
DA:1997,0
DA:1998,0
DA:1999,0
DA:2000,0
DA:2001,0
DA:2002,0
DA:2003,0
DA:2004,0
DA:2005,0
DA:2006,0
DA:2007,0
DA:2008,0
DA:2009,0
DA:2010,0
DA:2012,0
DA:2013,0
DA:2014,0
DA:2016,0
DA:2017,0
DA:2018,0
DA:2019,0
DA:2020,0
DA:2021,0
DA:2022,0
DA:2023,0
DA:2024,0
DA:2025,0
DA:2026,0
DA:2027,0
DA:2028,0
DA:2029,0
DA:2030,0
DA:2031,0
DA:2032,0
DA:2033,0
DA:2034,0
DA:2035,0
DA:2036,0
DA:2037,0
DA:2038,0
DA:2039,0
DA:2040,0
DA:2041,0
DA:2042,0
DA:2043,0
DA:2044,0
DA:2045,0
DA:2046,0
DA:2047,0
DA:2049,0
DA:2050,0
DA:2051,0
DA:2052,0
DA:2053,0
DA:2054,0
DA:2055,0
DA:2056,0
DA:2057,0
DA:2058,0
DA:2059,0
DA:2060,0
DA:2061,0
DA:2062,0
DA:2063,0
DA:2065,0
DA:2066,0
DA:2067,0
DA:2068,0
DA:2069,0
DA:2070,0
DA:2071,0
DA:2072,0
DA:2073,0
DA:2074,0
DA:2075,0
DA:2076,0
DA:2077,0
DA:2078,0
DA:2079,0
DA:2081,0
DA:2082,0
DA:2083,0
DA:2087,0
DA:2090,0
DA:2091,0
DA:2093,0
DA:2095,0
DA:2098,0
DA:2100,0
DA:2102,0
DA:2103,0
DA:2106,0
DA:2108,0
DA:2111,0
DA:2113,0
DA:2115,0
DA:2116,0
DA:2118,0
DA:2121,0
DA:2122,0
DA:2125,0
DA:2126,0
DA:2128,0
DA:2129,0
DA:2130,0
DA:2131,0
DA:2134,0
DA:2136,0
DA:2138,0
DA:2139,0
DA:2141,0
DA:2144,0
DA:2145,0
DA:2148,0
DA:2149,0
DA:2151,0
DA:2152,0
DA:2153,0
DA:2154,0
DA:2156,0
DA:2157,0
DA:2159,0
DA:2162,0
DA:2165,0
DA:2168,0
end_of_record
TN:
SF:/workspace/vtr-verilog-to-routing/ODIN_II/SRC/outputs.c
FN:41,_Z10output_topP11netlist_t_t
FNDA:17,_Z10output_topP11netlist_t_t
DA:41,17
DA:43,17
DA:49,17
end_of_record
TN:
SF:/workspace/vtr-verilog-to-routing/ODIN_II/SRC/read_xml_config_file.c
FN:48,_Z16read_config_filePc
FNDA:0,_Z16read_config_filePc
FN:97,_Z18read_verilog_filesP5ezxmlP10config_t_t
FNDA:0,_Z18read_verilog_filesP5ezxmlP10config_t_t
FN:122,_Z12read_outputsP5ezxmlP10config_t_t
FNDA:0,_Z12read_outputsP5ezxmlP10config_t_t
FN:168,_Z19read_debug_switchesP5ezxmlP10config_t_t
FNDA:0,_Z19read_debug_switchesP5ezxmlP10config_t_t
FN:218,_Z33set_default_optimization_settingsP10config_t_t
FNDA:0,_Z33set_default_optimization_settingsP10config_t_t
FN:236,_Z18read_optimizationsP5ezxmlP10config_t_t
FNDA:0,_Z18read_optimizationsP5ezxmlP10config_t_t
DA:48,0
DA:53,0
DA:54,0
DA:56,0
DA:58,0
DA:59,0
DA:63,0
DA:66,0
DA:67,0
DA:68,0
DA:71,0
DA:72,0
DA:73,0
DA:76,0
DA:77,0
DA:78,0
DA:80,0
DA:81,0
DA:85,0
DA:86,0
DA:87,0
DA:90,0
DA:91,0
DA:97,0
DA:102,0
DA:103,0
DA:105,0
DA:107,0
DA:108,0
DA:109,0
DA:111,0
DA:112,0
DA:113,0
DA:114,0
DA:116,0
DA:122,0
DA:126,0
DA:127,0
DA:129,0
DA:130,0
DA:131,0
DA:134,0
DA:135,0
DA:137,0
DA:138,0
DA:139,0
DA:142,0
DA:143,0
DA:145,0
DA:147,0
DA:148,0
DA:151,0
DA:153,0
DA:154,0
DA:156,0
DA:157,0
DA:158,0
DA:160,0
DA:162,0
DA:168,0
DA:172,0
DA:173,0
DA:175,0
DA:176,0
DA:177,0
DA:180,0
DA:181,0
DA:183,0
DA:184,0
DA:185,0
DA:188,0
DA:189,0
DA:191,0
DA:192,0
DA:193,0
DA:196,0
DA:197,0
DA:199,0
DA:200,0
DA:201,0
DA:204,0
DA:205,0
DA:207,0
DA:208,0
DA:209,0
DA:212,0
DA:218,0
DA:220,0
DA:221,0
DA:222,0
DA:223,0
DA:224,0
DA:225,0
DA:226,0
DA:227,0
DA:228,0
DA:229,0
DA:230,0
DA:236,0
DA:241,0
DA:242,0
DA:244,0
DA:245,0
DA:247,0
DA:248,0
DA:251,0
DA:253,0
DA:254,0
DA:256,0
DA:257,0
DA:260,0
DA:262,0
DA:263,0
DA:265,0
DA:266,0
DA:269,0
DA:271,0
DA:272,0
DA:274,0
DA:275,0
DA:278,0
DA:279,0
DA:282,0
DA:283,0
DA:285,0
DA:286,0
DA:288,0
DA:289,0
DA:292,0
DA:294,0
DA:295,0
DA:297,0
DA:298,0
DA:299,0
DA:300,0
DA:302,0
DA:303,0
DA:306,0
DA:308,0
DA:311,0
DA:312,0
DA:314,0
DA:315,0
DA:317,0
DA:318,0
DA:321,0
DA:323,0
DA:324,0
DA:326,0
DA:327,0
DA:330,0
DA:332,0
DA:333,0
DA:335,0
DA:336,0
DA:339,0
DA:341,0
DA:342,0
DA:344,0
DA:345,0
DA:348,0
DA:350,0
DA:351,0
DA:353,0
DA:354,0
DA:357,0
DA:358,0
DA:361,0
end_of_record
TN:
SF:/workspace/vtr-verilog-to-routing/ODIN_II/SRC/subtractions.c
FN:54,_Z23report_sub_distributionv
FNDA:17,_Z23report_sub_distributionv
FN:79,_Z26declare_hard_adder_for_subP9nnode_t_t
FNDA:2007,_Z26declare_hard_adder_for_subP9nnode_t_t
FN:117,_Z34instantiate_hard_adder_subtractionP9nnode_t_tsP11netlist_t_t
FNDA:2007,_Z34instantiate_hard_adder_subtractionP9nnode_t_tsP11netlist_t_t
FN:159,_Z24init_split_adder_for_subP9nnode_t_tS0_iiiiiiii
FNDA:2007,_Z24init_split_adder_for_subP9nnode_t_tS0_iiiiiiii
FN:356,_Z19split_adder_for_subP9nnode_t_tiiiiiiiP11netlist_t_t
FNDA:432,_Z19split_adder_for_subP9nnode_t_tiiiiiiiP11netlist_t_t
FN:656,_Z22iterate_adders_for_subP11netlist_t_t
FNDA:17,_Z22iterate_adders_for_subP11netlist_t_t
FN:727,_Z20clean_adders_for_subv
FNDA:17,_Z20clean_adders_for_subv
DA:54,17
DA:56,17
DA:57,1
DA:59,16
DA:60,16
DA:61,16
DA:62,16
DA:64,16
DA:65,16
DA:67,16
DA:68,16
DA:70,16
DA:71,16
DA:73,16
DA:79,2007
DA:85,2007
DA:87,0
DA:89,2007
DA:90,2007
DA:91,2007
DA:92,2007
DA:94,2007
DA:96,2001
DA:97,2001
DA:99,0
DA:103,6
DA:104,6
DA:105,6
DA:106,6
DA:107,6
DA:108,6
DA:109,6
DA:110,6
DA:111,6
DA:117,2007
DA:122,2007
DA:125,2007
DA:126,2007
DA:127,2007
DA:130,2007
DA:131,0
DA:133,2007
DA:135,2007
DA:136,0
DA:139,12042
DA:141,10035
DA:143,8879
DA:144,8879
DA:145,8879
DA:146,8879
DA:150,2007
DA:151,2007
DA:159,2007
DA:162,2007
DA:164,2007
DA:165,2007
DA:168,2007
DA:169,2007
DA:170,2007
DA:171,2007
DA:174,2007
DA:176,2007
DA:177,2007
DA:178,2007
DA:179,1831
DA:180,176
DA:182,0
DA:183,0
DA:187,176
DA:188,176
DA:189,176
DA:191,2007
DA:195,0
DA:196,0
DA:198,0
DA:199,0
DA:200,0
DA:202,0
DA:207,2007
DA:208,2007
DA:209,2007
DA:210,2007
DA:211,2007
DA:212,2007
DA:213,2007
DA:214,2007
DA:217,2007
DA:218,0
DA:220,2007
DA:223,2007
DA:224,2007
DA:227,2007
DA:229,105
DA:230,84
DA:232,1986
DA:234,0
DA:235,0
DA:237,1986
DA:239,170
DA:241,0
DA:242,0
DA:244,0
DA:246,0
DA:247,0
DA:248,0
DA:250,0
DA:251,0
DA:256,574
DA:258,404
DA:259,404
DA:260,404
DA:262,446
DA:263,276
DA:268,1816
DA:270,425
DA:272,425
DA:273,425
DA:275,1700
DA:277,1275
DA:278,1275
DA:279,1275
DA:285,0
DA:287,0
DA:288,0
DA:289,0
DA:295,1391
DA:297,6955
DA:299,5564
DA:300,5564
DA:301,5564
DA:306,0
DA:307,0
DA:309,0
DA:310,0
DA:311,0
DA:317,10035
DA:318,8028
DA:321,4014
DA:323,2007
DA:328,2007
DA:329,0
DA:331,2007
DA:333,2007
DA:334,2007
DA:335,12042
DA:336,10035
DA:338,2007
DA:356,432
DA:362,432
DA:363,432
DA:366,432
DA:368,425
DA:369,425
DA:373,7
DA:374,7
DA:377,432
DA:378,432
DA:380,7736
DA:382,7304
DA:383,7304
DA:384,7243
DA:386,61
DA:389,2439
DA:391,2007
DA:392,2007
DA:393,2007
DA:394,2007
DA:396,432
DA:397,0
DA:400,432
DA:402,0
DA:403,0
DA:407,432
DA:408,432
DA:411,432
DA:413,432
DA:414,432
DA:418,0
DA:419,0
DA:424,1575
DA:427,2007
DA:430,432
DA:432,432
DA:433,432
DA:435,0
DA:436,432
DA:437,432
DA:438,432
DA:440,432
DA:442,0
DA:446,0
DA:448,0
DA:449,0
DA:450,0
DA:452,0
DA:454,0
DA:455,0
DA:456,0
DA:459,0
DA:464,432
DA:466,432
DA:467,0
DA:469,432
DA:470,1728
DA:474,1296
DA:476,4
DA:477,4
DA:478,4
DA:480,1292
DA:482,2
DA:483,2
DA:484,2
DA:487,1290
DA:491,2007
DA:493,1575
DA:494,1575
DA:495,1143
DA:497,7583
DA:499,6008
DA:503,0
DA:505,0
DA:506,0
DA:507,0
DA:509,0
DA:511,0
DA:512,0
DA:513,0
DA:516,0
DA:522,6008
DA:524,20
DA:525,20
DA:526,20
DA:528,5988
DA:530,0
DA:531,0
DA:532,0
DA:535,5988
DA:541,432
DA:544,432
DA:545,432
DA:547,432
DA:548,432
DA:552,432
DA:553,0
DA:555,432
DA:559,2439
DA:561,2007
DA:562,18063
DA:564,16056
DA:566,645
DA:567,54
DA:569,591
DA:575,2007
DA:576,1575
DA:578,432
DA:580,0
DA:582,0
DA:583,0
DA:586,0
DA:588,0
DA:594,1728
DA:596,1296
DA:597,1296
DA:600,0
DA:602,0
DA:607,432
DA:610,2007
DA:612,7875
DA:614,6300
DA:615,6008
DA:618,292
DA:620,292
DA:625,432
DA:627,432
DA:633,432
DA:634,432
DA:635,432
DA:638,432
DA:639,432
DA:640,432
DA:641,432
DA:642,432
DA:643,432
DA:656,17
DA:665,17
DA:666,1
DA:670,16
DA:671,16
DA:672,16
DA:674,16
DA:676,448
DA:678,432
DA:679,432
DA:681,432
DA:682,432
DA:684,432
DA:685,432
DA:686,425
DA:688,7
DA:689,432
DA:691,432
DA:694,432
DA:695,256
DA:697,176
DA:699,432
DA:700,256
DA:702,176
DA:704,432
DA:705,432
DA:707,0
DA:708,432
DA:710,432
DA:714,0
DA:718,16
DA:727,17
DA:729,17
DA:730,0
DA:731,3008
DA:732,2991
DA:733,17
end_of_record
TN:
SF:/workspace/vtr-verilog-to-routing/ODIN_II/SRC/adders.c
FN:56,_Z21init_add_distributionv
FNDA:16,_Z21init_add_distributionv
FN:70,_Z23record_add_distributionP9nnode_t_t
FNDA:0,_Z23record_add_distributionP9nnode_t_t
FN:91,_Z23report_add_distributionv
FNDA:17,_Z23report_add_distributionv
FN:119,_Z16find_hard_addersv
FNDA:17,_Z16find_hard_addersv
FN:145,_Z18declare_hard_adderP9nnode_t_t
FNDA:984,_Z18declare_hard_adderP9nnode_t_t
FN:183,_Z22instantiate_hard_adderP9nnode_t_tsP11netlist_t_t
FNDA:984,_Z22instantiate_hard_adderP9nnode_t_tsP11netlist_t_t
FN:223,_Z25add_the_blackbox_for_addsP8_IO_FILE
FNDA:17,_Z25add_the_blackbox_for_addsP8_IO_FILE
FN:322,_Z19define_add_functionP9nnode_t_tsP8_IO_FILE
FNDA:2895,_Z19define_add_functionP9nnode_t_tsP8_IO_FILE
FN:406,_Z16init_split_adderP9nnode_t_tS0_iiiiiiiiP11netlist_t_t
FNDA:984,_Z16init_split_adderP9nnode_t_tS0_iiiiiiiiP11netlist_t_t
FN:700,_Z11split_adderP9nnode_t_tiiiiiiiP11netlist_t_t
FNDA:218,_Z11split_adderP9nnode_t_tiiiiiiiP11netlist_t_t
FN:904,_Z14iterate_addersP11netlist_t_t
FNDA:17,_Z14iterate_addersP11netlist_t_t
FN:964,_Z12clean_addersv
FNDA:17,_Z12clean_addersv
FN:979,_Z17reduce_operationsP11netlist_t_t14operation_list
FNDA:51,_Z17reduce_operationsP11netlist_t_t14operation_list
FN:1015,_Z13traverse_list14operation_listP13s_linked_vptr
FNDA:51,_Z13traverse_list14operation_listP13s_linked_vptr
FN:1027,_Z10match_nodeP13s_linked_vptr14operation_list
FNDA:717,_Z10match_nodeP13s_linked_vptr14operation_list
FN:1072,_Z11match_portsP9nnode_t_tS0_14operation_list
FNDA:43157,_Z11match_portsP9nnode_t_tS0_14operation_list
FN:1135,_Z23traverse_operation_nodeP12ast_node_t_tPPc14operation_listPi
FNDA:84777,_Z23traverse_operation_nodeP12ast_node_t_tPPc14operation_listPi
FN:1169,_Z11merge_nodesP9nnode_t_tS0_
FNDA:62,_Z11merge_nodesP9nnode_t_tS0_
FN:1181,_Z16remove_list_nodeP13s_linked_vptrS0_
FNDA:62,_Z16remove_list_nodeP13s_linked_vptrS0_
FN:1194,_Z18remove_fanout_pinsP9nnode_t_t
FNDA:62,_Z18remove_fanout_pinsP9nnode_t_t
FN:1219,_Z15reallocate_pinsP9nnode_t_tS0_
FNDA:62,_Z15reallocate_pinsP9nnode_t_tS0_
FN:1246,_Z13free_op_nodesP9nnode_t_t
FNDA:62,_Z13free_op_nodesP9nnode_t_t
FN:1268,_Z10match_pinsP9nnode_t_tS0_
FNDA:1454,_Z10match_pinsP9nnode_t_tS0_
DA:56,16
DA:59,16
DA:60,16
DA:61,16
DA:62,112
DA:63,96
DA:64,16
DA:70,0
DA:72,0
DA:73,0
DA:74,0
DA:75,0
DA:91,17
DA:93,17
DA:94,1
DA:96,16
DA:97,16
DA:98,16
DA:99,16
DA:101,16
DA:102,16
DA:104,16
DA:105,16
DA:107,16
DA:108,16
DA:110,16
DA:111,16
DA:113,16
DA:119,17
DA:121,17
DA:124,17
DA:126,17
DA:128,16
DA:130,16
DA:131,16
DA:135,0
DA:139,1
DA:145,984
DA:151,984
DA:153,0
DA:155,984
DA:156,984
DA:157,984
DA:158,984
DA:160,984
DA:162,976
DA:163,976
DA:165,0
DA:169,8
DA:170,8
DA:171,8
DA:172,8
DA:173,8
DA:174,8
DA:175,8
DA:176,8
DA:177,8
DA:183,984
DA:188,984
DA:191,984
DA:192,984
DA:193,984
DA:196,984
DA:197,0
DA:199,984
DA:201,984
DA:202,0
DA:205,5904
DA:207,4920
DA:209,4183
DA:210,4183
DA:211,4183
DA:212,4183
DA:216,984
DA:217,984
DA:223,17
DA:234,17
DA:235,3
DA:238,16
DA:239,16
DA:240,16
DA:241,16
DA:242,16
DA:243,16
DA:245,16
DA:246,16
DA:247,16
DA:248,16
DA:251,16
DA:252,16
DA:253,2
DA:256,28
DA:259,14
DA:260,0
DA:262,14
DA:265,14
DA:266,14
DA:267,140
DA:269,126
DA:271,56
DA:273,70
DA:275,56
DA:279,14
DA:281,126
DA:282,0
DA:284,126
DA:286,14
DA:289,14
DA:290,14
DA:291,84
DA:293,70
DA:295,14
DA:299,56
DA:302,70
DA:304,0
DA:305,0
DA:308,70
DA:310,14
DA:311,14
DA:312,14
DA:313,14
DA:315,14
DA:322,2895
DA:328,2895
DA:329,2895
DA:330,2895
DA:331,2895
DA:332,2895
DA:333,2895
DA:334,2895
DA:337,2895
DA:339,0
DA:343,2895
DA:347,28950
DA:349,26055
DA:351,26055
DA:353,11580
DA:354,11371
DA:356,209
DA:358,14475
DA:360,11580
DA:361,11287
DA:363,293
DA:367,2895
DA:368,641
DA:370,2254
DA:373,26055
DA:375,10677
DA:376,10677
DA:378,26055
DA:382,17370
DA:384,14475
DA:385,2895
DA:387,11580
DA:388,14475
DA:390,9419
DA:391,9419
DA:393,14475
DA:396,2895
DA:397,5790
DA:406,984
DA:409,984
DA:411,984
DA:414,984
DA:415,984
DA:416,984
DA:417,984
DA:418,984
DA:421,984
DA:423,984
DA:424,984
DA:425,984
DA:426,766
DA:427,218
DA:429,51
DA:430,51
DA:434,167
DA:435,167
DA:436,167
DA:439,984
DA:440,766
DA:441,218
DA:443,51
DA:444,51
DA:448,167
DA:449,167
DA:450,167
DA:455,0
DA:456,0
DA:458,0
DA:459,0
DA:460,0
DA:462,0
DA:467,984
DA:468,984
DA:469,984
DA:470,984
DA:471,984
DA:472,984
DA:473,984
DA:474,984
DA:477,984
DA:478,0
DA:480,984
DA:483,984
DA:484,984
DA:486,984
DA:488,255
DA:489,204
DA:491,933
DA:493,167
DA:495,2
DA:496,2
DA:497,6
DA:499,4
DA:500,4
DA:501,4
DA:503,4
DA:504,2
DA:509,512
DA:511,347
DA:512,347
DA:513,347
DA:515,478
DA:516,313
DA:521,766
DA:523,216
DA:525,216
DA:526,216
DA:528,864
DA:530,648
DA:531,648
DA:532,648
DA:538,0
DA:540,0
DA:541,0
DA:542,0
DA:548,550
DA:550,2750
DA:552,2200
DA:553,2200
DA:554,2200
DA:559,0
DA:560,0
DA:563,0
DA:564,0
DA:566,0
DA:567,0
DA:568,0
DA:576,984
DA:578,255
DA:579,204
DA:581,933
DA:583,167
DA:585,2
DA:586,2
DA:588,6
DA:590,4
DA:591,4
DA:592,4
DA:594,4
DA:595,2
DA:600,512
DA:602,347
DA:603,347
DA:604,347
DA:606,478
DA:607,313
DA:612,766
DA:614,216
DA:616,216
DA:617,216
DA:619,864
DA:621,648
DA:622,648
DA:623,648
DA:629,0
DA:631,0
DA:632,0
DA:633,0
DA:639,550
DA:641,2750
DA:643,2200
DA:644,2200
DA:645,2200
DA:650,0
DA:651,0
DA:654,0
DA:655,0
DA:657,0
DA:658,0
DA:659,0
DA:667,1968
DA:669,984
DA:674,984
DA:675,0
DA:677,984
DA:679,984
DA:680,984
DA:681,5904
DA:682,4920
DA:684,984
DA:700,218
DA:704,218
DA:705,218
DA:706,218
DA:709,218
DA:710,218
DA:712,218
DA:714,1202
DA:716,984
DA:717,984
DA:718,984
DA:719,984
DA:722,218
DA:723,0
DA:726,218
DA:728,2
DA:729,2
DA:733,216
DA:734,216
DA:737,218
DA:739,218
DA:740,218
DA:744,0
DA:745,0
DA:750,766
DA:753,984
DA:756,218
DA:758,218
DA:759,218
DA:761,0
DA:762,218
DA:763,218
DA:764,218
DA:766,218
DA:769,218
DA:770,218
DA:772,218
DA:773,218
DA:776,218
DA:779,218
DA:781,0
DA:784,0
DA:787,218
DA:789,51
DA:791,51
DA:792,51
DA:797,1202
DA:799,984
DA:800,8856
DA:802,7872
DA:803,936
DA:808,984
DA:809,766
DA:812,218
DA:814,2
DA:816,8
DA:818,6
DA:819,6
DA:822,0
DA:823,0
DA:826,6
DA:827,6
DA:832,0
DA:833,0
DA:834,0
DA:840,864
DA:841,648
DA:842,766
DA:844,2750
DA:845,2200
DA:848,216
DA:850,1080
DA:852,864
DA:853,563
DA:856,301
DA:858,301
DA:862,216
DA:864,216
DA:868,0
DA:870,0
DA:871,0
DA:872,0
DA:875,0
DA:877,0
DA:883,218
DA:884,218
DA:885,218
DA:888,218
DA:889,218
DA:890,218
DA:891,218
DA:892,218
DA:904,17
DA:909,17
DA:913,17
DA:914,1
DA:916,16
DA:917,16
DA:918,16
DA:920,16
DA:922,234
DA:924,218
DA:925,218
DA:927,218
DA:928,218
DA:929,0
DA:931,218
DA:933,218
DA:934,218
DA:935,218
DA:936,218
DA:937,218
DA:940,218
DA:942,218
DA:944,218
DA:945,218
DA:947,0
DA:948,218
DA:949,218
DA:953,0
DA:955,16
DA:964,18
DA:966,18
DA:967,1
DA:968,17
DA:979,51
DA:981,51
DA:983,51
DA:985,17
DA:986,17
DA:987,17
DA:988,17
DA:990,17
DA:991,17
DA:992,17
DA:993,17
DA:995,17
DA:996,17
DA:997,17
DA:998,17
DA:1000,0
DA:1001,0
DA:1002,0
DA:1006,51
DA:1008,51
DA:1015,768
DA:1017,768
DA:1019,717
DA:1020,717
DA:1022,51
DA:1027,717
DA:1030,717
DA:1031,717
DA:1032,717
DA:1033,717
DA:1034,717
DA:1035,717
DA:1036,717
DA:1037,59053
DA:1039,58336
DA:1040,58336
DA:1041,58336
DA:1042,58336
DA:1044,58336
DA:1046,43157
DA:1047,43157
DA:1049,1454
DA:1050,1454
DA:1052,62
DA:1053,62
DA:1058,58336
DA:1059,62
DA:1062,58274
DA:1063,58274
DA:1067,717
DA:1072,43157
DA:1074,43157
DA:1075,43157
DA:1076,43157
DA:1077,43157
DA:1078,43157
DA:1080,43157
DA:1081,43157
DA:1082,43157
DA:1083,43157
DA:1084,43157
DA:1086,43157
DA:1087,43157
DA:1089,41620
DA:1090,41620
DA:1092,41620
DA:1094,3372
DA:1097,3372
DA:1098,3372
DA:1099,101
DA:1102,3271
DA:1103,3271
DA:1104,3271
DA:1106,3372
DA:1107,93
DA:1109,3372
DA:1111,38248
DA:1112,38248
DA:1113,38248
DA:1114,1361
DA:1115,38248
DA:1116,1361
DA:1117,38248
DA:1119,0
DA:1121,0
DA:1127,43157
DA:1135,84777
DA:1139,84777
DA:1140,0
DA:1142,84777
DA:1144,251954
DA:1146,168714
DA:1147,168714
DA:1149,1537
DA:1150,1537
DA:1154,167177
DA:1155,166299
DA:1157,878
DA:1158,878
DA:1169,62
DA:1172,62
DA:1173,62
DA:1174,62
DA:1176,62
DA:1181,62
DA:1183,62
DA:1184,60
DA:1186,2
DA:1187,62
DA:1189,62
DA:1194,62
DA:1197,1286
DA:1199,1224
DA:1200,303420
DA:1202,303420
DA:1203,1224
DA:1205,488962
DA:1207,487738
DA:1208,487738
DA:1210,1224
DA:1211,1224
DA:1214,62
DA:1219,62
DA:1223,62
DA:1224,62
DA:1225,62
DA:1226,724
DA:1228,1324
DA:1230,662
DA:1232,624
DA:1233,624
DA:1234,624
DA:1235,624
DA:1236,624
DA:1241,62
DA:1246,62
DA:1249,62
DA:1250,724
DA:1252,662
DA:1254,662
DA:1255,662
DA:1256,662
DA:1257,662
DA:1258,662
DA:1261,62
DA:1263,62
DA:1268,1454
DA:1273,17224
DA:1275,17162
DA:1276,17162
DA:1277,134493
DA:1279,134493
DA:1281,15770
DA:1282,15770
DA:1284,118723
DA:1286,1392
DA:1287,1392
DA:1290,17162
DA:1291,1392
DA:1294,1454
end_of_record
TN:
SF:/workspace/vtr-verilog-to-routing/ODIN_II/SRC/implicit_memory.c
FN:42,_Z22lookup_implicit_memoryPcS_
FNDA:6574,_Z22lookup_implicit_memoryPcS_
FN:51,_Z36lookup_implicit_memory_reference_astPcP12ast_node_t_t
FNDA:10410,_Z36lookup_implicit_memory_reference_astPcP12ast_node_t_t
FN:64,_Z38is_valid_implicit_memory_reference_astPcP12ast_node_t_t
FNDA:0,_Z38is_valid_implicit_memory_reference_astPcP12ast_node_t_t
FN:76,_Z28create_implicit_memory_blockixPcS_
FNDA:0,_Z28create_implicit_memory_blockixPcS_
FN:114,_Z33add_input_port_to_implicit_memoryP15implicit_memoryP15signal_list_t_tPKc
FNDA:0,_Z33add_input_port_to_implicit_memoryP15implicit_memoryP15signal_list_t_tPKc
FN:124,_Z34add_output_port_to_implicit_memoryP15implicit_memoryP15signal_list_t_tPKc
FNDA:0,_Z34add_output_port_to_implicit_memoryP15implicit_memoryP15signal_list_t_tPKc
FN:134,_Z28lookup_implicit_memory_inputPc
FNDA:101619,_Z28lookup_implicit_memory_inputPc
FN:143,_Z30register_implicit_memory_inputPcP15implicit_memory
FNDA:0,_Z30register_implicit_memory_inputPcP15implicit_memory
FN:154,_Z26init_implicit_memory_indexv
FNDA:17,_Z26init_implicit_memory_indexv
FN:165,_Z48free_implicit_memory_index_and_finalize_memoriesv
FNDA:17,_Z48free_implicit_memory_index_and_finalize_memoriesv
FN:191,_Z39add_dummy_input_port_to_implicit_memoryP15implicit_memoryiPKc
FNDA:0,_Z39add_dummy_input_port_to_implicit_memoryP15implicit_memoryiPKc
FN:207,_Z40add_dummy_output_port_to_implicit_memoryP15implicit_memoryiPKc
FNDA:0,_Z40add_dummy_output_port_to_implicit_memoryP15implicit_memoryiPKc
FN:230,_Z24finalize_implicit_memoryP15implicit_memory
FNDA:0,_Z24finalize_implicit_memoryP15implicit_memory
FN:327,_Z43collapse_implicit_memory_to_single_port_ramP15implicit_memory
FNDA:0,_Z43collapse_implicit_memory_to_single_port_ramP15implicit_memory
DA:42,6574
DA:44,6574
DA:45,6574
DA:51,10410
DA:53,10410
DA:54,364
DA:55,10046
DA:56,6210
DA:58,3836
DA:64,0
DA:66,0
DA:67,0
DA:68,0
DA:70,0
DA:76,0
DA:78,0
DA:79,0
DA:80,0
DA:81,0
DA:83,0
DA:84,0
DA:86,0
DA:87,0
DA:88,0
DA:91,0
DA:92,0
DA:93,0
DA:94,0
DA:96,0
DA:98,0
DA:99,0
DA:100,0
DA:101,0
DA:102,0
DA:103,0
DA:104,0
DA:106,0
DA:108,0
DA:114,0
DA:116,0
DA:118,0
DA:119,0
DA:124,0
DA:126,0
DA:128,0
DA:129,0
DA:134,101619
DA:136,101619
DA:143,0
DA:145,0
DA:146,0
DA:148,0
DA:149,0
DA:154,17
DA:156,17
DA:157,17
DA:158,17
DA:165,17
DA:167,17
DA:169,17
DA:170,17
DA:173,17
DA:175,17
DA:178,17
DA:179,0
DA:181,17
DA:182,17
DA:183,17
DA:185,17
DA:191,0
DA:193,0
DA:195,0
DA:196,0
DA:198,0
DA:200,0
DA:201,0
DA:207,0
DA:209,0
DA:212,0
DA:214,0
DA:216,0
DA:217,0
DA:220,0
DA:222,0
DA:223,0
DA:230,0
DA:232,0
DA:234,0
DA:235,0
DA:236,0
DA:237,0
DA:238,0
DA:239,0
DA:240,0
DA:241,0
DA:242,0
DA:246,0
DA:248,0
DA:249,0
DA:250,0
DA:251,0
DA:252,0
DA:253,0
DA:254,0
DA:255,0
DA:256,0
DA:257,0
DA:258,0
DA:259,0
DA:260,0
DA:261,0
DA:262,0
DA:266,0
DA:268,0
DA:269,0
DA:270,0
DA:271,0
DA:272,0
DA:275,0
DA:277,0
DA:278,0
DA:281,0
DA:282,0
DA:284,0
DA:286,0
DA:287,0
DA:288,0
DA:289,0
DA:292,0
DA:294,0
DA:295,0
DA:296,0
DA:297,0
DA:300,0
DA:301,0
DA:310,0
DA:311,0
DA:312,0
DA:313,0
DA:315,0
DA:316,0
DA:318,0
DA:327,0
DA:329,0
DA:334,0
DA:336,0
DA:337,0
DA:338,0
DA:343,0
DA:345,0
DA:346,0
DA:349,0
DA:350,0
DA:351,0
end_of_record
TN:
SF:/workspace/vtr-verilog-to-routing/ODIN_II/SRC/print_netlist.c
FN:38,_Z26print_netlist_for_checkingP11netlist_t_tPc
FNDA:0,_Z26print_netlist_for_checkingP11netlist_t_tPc
FN:299,_Z34function_to_print_node_and_its_pinP8npin_t_t
FNDA:0,_Z34function_to_print_node_and_its_pinP8npin_t_t
DA:38,0
DA:46,0
DA:48,0
DA:49,0
DA:50,0
DA:51,0
DA:52,0
DA:53,0
DA:55,0
DA:57,0
DA:59,0
DA:60,0
DA:61,0
DA:64,0
DA:65,0
DA:67,0
DA:69,0
DA:71,0
DA:72,0
DA:73,0
DA:76,0
DA:77,0
DA:78,0
DA:79,0
DA:81,0
DA:86,0
DA:87,0
DA:88,0
DA:89,0
DA:90,0
DA:91,0
DA:93,0
DA:95,0
DA:97,0
DA:98,0
DA:99,0
DA:101,0
DA:102,0
DA:104,0
DA:106,0
DA:108,0
DA:109,0
DA:110,0
DA:113,0
DA:114,0
DA:115,0
DA:116,0
DA:118,0
DA:122,0
DA:123,0
DA:124,0
DA:125,0
DA:126,0
DA:127,0
DA:129,0
DA:131,0
DA:133,0
DA:134,0
DA:135,0
DA:137,0
DA:138,0
DA:140,0
DA:142,0
DA:144,0
DA:145,0
DA:146,0
DA:149,0
DA:150,0
DA:151,0
DA:152,0
DA:154,0
DA:158,0
DA:159,0
DA:160,0
DA:162,0
DA:163,0
DA:164,0
DA:165,0
DA:166,0
DA:168,0
DA:170,0
DA:172,0
DA:173,0
DA:174,0
DA:176,0
DA:177,0
DA:179,0
DA:181,0
DA:183,0
DA:184,0
DA:185,0
DA:191,0
DA:192,0
DA:193,0
DA:195,0
DA:196,0
DA:197,0
DA:198,0
DA:199,0
DA:201,0
DA:203,0
DA:205,0
DA:206,0
DA:207,0
DA:208,0
DA:209,0
DA:210,0
DA:211,0
DA:212,0
DA:214,0
DA:216,0
DA:218,0
DA:219,0
DA:221,0
DA:223,0
DA:225,0
DA:226,0
DA:227,0
DA:234,0
DA:235,0
DA:236,0
DA:238,0
DA:239,0
DA:240,0
DA:241,0
DA:242,0
DA:244,0
DA:246,0
DA:248,0
DA:249,0
DA:250,0
DA:252,0
DA:253,0
DA:255,0
DA:257,0
DA:259,0
DA:260,0
DA:261,0
DA:266,0
DA:267,0
DA:268,0
DA:270,0
DA:271,0
DA:272,0
DA:273,0
DA:274,0
DA:276,0
DA:278,0
DA:280,0
DA:281,0
DA:282,0
DA:284,0
DA:285,0
DA:287,0
DA:289,0
DA:291,0
DA:292,0
DA:293,0
DA:296,0
DA:299,0
DA:305,0
DA:306,0
DA:308,0
DA:309,0
DA:310,0
DA:312,0
DA:314,0
DA:316,0
DA:317,0
DA:318,0
DA:320,0
DA:321,0
DA:323,0
DA:325,0
DA:327,0
DA:328,0
DA:329,0
DA:332,0
end_of_record
TN:
SF:/workspace/vtr-verilog-to-routing/ODIN_II/SRC/simulate_blif.c
FN:33,_Z16simulate_netlistP11netlist_t_t
FNDA:17,_Z16simulate_netlistP11netlist_t_t
FN:251,_Z14simulate_cycleiP6stages
FNDA:67404,_Z14simulate_cycleiP6stages
FN:337,_Z20simulate_first_cycleP11netlist_t_tiP9pin_namesP7lines_t
FNDA:16,_Z20simulate_first_cycleP11netlist_t_tiP9pin_namesP7lines_t
FN:396,_Z19stage_ordered_nodesPP9nnode_t_ti
FNDA:16,_Z19stage_ordered_nodesPP9nnode_t_ti
FN:482,_Z23compute_and_store_valueP9nnode_t_ti
FNDA:152182000,_Z23compute_and_store_valueP9nnode_t_ti
FN:791,_Z26update_undriven_input_pinsP9nnode_t_ti
FNDA:152466000,_Z26update_undriven_input_pinsP9nnode_t_ti
FN:834,_Z24flag_undriven_input_pinsP9nnode_t_t
FNDA:283311,_Z24flag_undriven_input_pinsP9nnode_t_t
FN:865,_Z21get_num_covered_nodesP6stages
FNDA:16,_Z21get_num_covered_nodesP6stages
FN:900,_Z21enqueue_node_if_readyP9queue_t_tP9nnode_t_ti
FNDA:1476,_Z21enqueue_node_if_readyP9queue_t_tP9nnode_t_ti
FN:917,_Z16is_node_completeP9nnode_t_ti
FNDA:82280,_Z16is_node_completeP9nnode_t_ti
FN:930,_Z13is_node_readyP9nnode_t_ti
FNDA:283311,_Z13is_node_readyP9nnode_t_ti
FN:985,_Z15get_clock_ratioP9nnode_t_t
FNDA:0,_Z15get_clock_ratioP9nnode_t_t
FN:993,_Z15set_clock_ratioiP9nnode_t_t
FNDA:0,_Z15set_clock_ratioiP9nnode_t_t
FN:1007,_Z15get_children_ofP9nnode_t_tPi
FNDA:148428,_Z15get_children_ofP9nnode_t_tPi
FN:1090,_Z25get_children_pinnumber_ofP9nnode_t_tPi
FNDA:0,_Z25get_children_pinnumber_ofP9nnode_t_tPi
FN:1173,_Z23get_children_of_nodepinP9nnode_t_tPii
FNDA:0,_Z23get_children_of_nodepinP9nnode_t_tPii
FN:1261,_Z16update_pin_valueP8npin_t_tai
FNDA:182123000,_Z16update_pin_valueP8npin_t_tai
FN:1273,_Z13get_pin_valueP8npin_t_ti
FNDA:837266000,_Z13get_pin_valueP8npin_t_ti
FN:1290,_Z17get_values_offseti
FNDA:1019290000,_Z17get_values_offseti
FN:1298,_Z13get_pin_cycleP8npin_t_t
FNDA:1630920,_Z13get_pin_cycleP8npin_t_t
FN:1311,_Z13set_pin_cycleP8npin_t_ti
FNDA:182212000,_Z13set_pin_cycleP8npin_t_ti
FN:1319,_Z13is_even_cyclei
FNDA:297040,_Z13is_even_cyclei
FN:1334,_Z14initialize_pinP8npin_t_t
FNDA:88972,_Z14initialize_pinP8npin_t_t
FN:1383,_Z13is_clock_nodeP9nnode_t_t
FNDA:152185000,_Z13is_clock_nodeP9nnode_t_t
FN:1396,_Z10is_posedgeP8npin_t_ti
FNDA:19888800,_Z10is_posedgeP8npin_t_ti
FN:1407,_Z21compute_flipflop_nodeP9nnode_t_ti
FNDA:19872800,_Z21compute_flipflop_nodeP9nnode_t_ti
FN:1427,_Z18compute_mux_2_nodeP9nnode_t_ti
FNDA:60723600,_Z18compute_mux_2_nodeP9nnode_t_ti
FN:1500,_Z20compute_hard_ip_nodeP9nnode_t_ti
FNDA:0,_Z20compute_hard_ip_nodeP9nnode_t_ti
FN:1556,_Z21compute_multiply_nodeP9nnode_t_ti
FNDA:219180,_Z21compute_multiply_nodeP9nnode_t_ti
FN:1602,_Z20compute_generic_nodeP9nnode_t_ti
FNDA:0,_Z20compute_generic_nodeP9nnode_t_ti
FN:1642,_Z15multiply_arraysPiiS_i
FNDA:181211,_Z15multiply_arraysPiiS_i
FN:1672,_Z16compute_add_nodeP9nnode_t_tii
FNDA:5805040,_Z16compute_add_nodeP9nnode_t_tii
FN:1734,_Z10add_arraysPiiS_iS_ii
FNDA:5805040,_Z10add_arraysPiiS_iS_ii
FN:1812,_Z22compute_unary_sub_nodeP9nnode_t_ti
FNDA:0,_Z22compute_unary_sub_nodeP9nnode_t_ti
FN:1870,_Z16unary_sub_arraysPiiS_i
FNDA:0,_Z16unary_sub_arraysPiiS_i
FN:1897,_Z19compute_memory_nodeP9nnode_t_ti
FNDA:16000,_Z19compute_memory_nodeP9nnode_t_ti
FN:1911,_Z26compute_single_port_memoryP9nnode_t_ti
FNDA:16000,_Z26compute_single_port_memoryP9nnode_t_ti
FN:1965,_Z24compute_dual_port_memoryP9nnode_t_ti
FNDA:0,_Z24compute_dual_port_memoryP9nnode_t_ti
FN:2035,_Z22compute_memory_addressP15signal_list_t_ti
FNDA:24000,_Z22compute_memory_addressP15signal_list_t_ti
FN:2055,_Z18instantiate_memoryP9nnode_t_tii
FNDA:8,_Z18instantiate_memoryP9nnode_t_tii
FN:2084,_Z19preprocess_mif_fileP8_IO_FILE
FNDA:0,_Z19preprocess_mif_fileP8_IO_FILE
FN:2122,_Z15parse_mif_radixPc
FNDA:0,_Z15parse_mif_radixPc
FN:2143,_Z27assign_memory_from_mif_fileP8_IO_FILEPcilPa
FNDA:0,_Z27assign_memory_from_mif_fileP8_IO_FILEPcilPa
FN:2300,_Z19assign_node_to_lineP9nnode_t_tP7lines_tii
FNDA:2151,_Z19assign_node_to_lineP9nnode_t_tP7lines_tii
FN:2352,_Z20insert_pin_into_lineP8npin_t_tiP6line_ti
FNDA:2151,_Z20insert_pin_into_lineP8npin_t_tiP6line_ti
FN:2387,_Z12create_linesP11netlist_t_ti
FNDA:34,_Z12create_linesP11netlist_t_ti
FN:2421,_Z20write_vector_headersP8_IO_FILEP7lines_t
FNDA:32,_Z20write_vector_headersP8_IO_FILEP7lines_t
FN:2435,_Z26verify_test_vector_headersP8_IO_FILEP7lines_t
FNDA:17,_Z26verify_test_vector_headersP8_IO_FILEP7lines_t
FN:2495,_Z12verify_linesP7lines_t
FNDA:50,_Z12verify_linesP7lines_t
FN:2517,_Z22find_portname_in_linesPcP7lines_t
FNDA:4302,_Z22find_portname_in_linesPcP7lines_t
FN:2530,_Z11create_linePc
FNDA:149,_Z11create_linePc
FN:2548,_Z22generate_vector_headerP7lines_t
FNDA:33,_Z22generate_vector_headerP7lines_t
FN:2577,_Z24add_test_vector_to_linesP11test_vectorP7lines_ti
FNDA:67420,_Z24add_test_vector_to_linesP11test_vectorP7lines_ti
FN:2605,_Z20compare_test_vectorsP11test_vectorS0_
FNDA:67436,_Z20compare_test_vectorsP11test_vectorS0_
FN:2642,_Z17parse_test_vectorPc
FNDA:168582,_Z17parse_test_vectorPc
FN:2711,_Z27generate_random_test_vectorP7lines_tiP13hashtable_t_tS2_
FNDA:0,_Z27generate_random_test_vectorP7lines_tiP13hashtable_t_tS2_
FN:2765,_Z18write_wave_to_fileP7lines_tP8_IO_FILEiii
FNDA:8428,_Z18write_wave_to_fileP7lines_tP8_IO_FILEiii
FN:2782,_Z20write_vector_to_fileP7lines_tP8_IO_FILEi
FNDA:101130,_Z20write_vector_to_fileP7lines_tP8_IO_FILEi
FN:2861,_Z27write_wave_to_modelsim_fileP11netlist_t_tP7lines_tP8_IO_FILEii
FNDA:4214,_Z27write_wave_to_modelsim_fileP11netlist_t_tP7lines_tP8_IO_FILEii
FN:2892,_Z29write_vector_to_modelsim_fileP7lines_tP8_IO_FILEi
FNDA:33710,_Z29write_vector_to_modelsim_fileP7lines_tP8_IO_FILEi
FN:2944,_Z21verify_output_vectorsPci
FNDA:16,_Z21verify_output_vectorsPci
FN:3041,_Z19index_pin_name_listP9pin_names
FNDA:32,_Z19index_pin_name_listP9pin_names
FN:3059,_Z19parse_pin_name_listPc
FNDA:48,_Z19parse_pin_name_listPc
FN:3085,_Z29add_additional_items_to_linesP9nnode_t_tP9pin_namesP7lines_t
FNDA:74214,_Z29add_additional_items_to_linesP9nnode_t_tP9pin_namesP7lines_t
FN:3166,_Z16get_mif_filenameP9nnode_t_t
FNDA:8,_Z16get_mif_filenameP9nnode_t_t
FN:3186,_Z11trim_stringPcPKc
FNDA:380908,_Z11trim_stringPcPKc
FN:3214,_Z20line_has_unknown_pinP6line_ti
FNDA:443100,_Z20line_has_unknown_pinP6line_ti
FN:3233,_Z18get_line_pin_valueP6line_tii
FNDA:8508960,_Z18get_line_pin_valueP6line_tii
FN:3242,_Z19vector_value_to_hexPai
FNDA:0,_Z19vector_value_to_hexPai
FN:3264,_Z18count_test_vectorsP8_IO_FILE
FNDA:17,_Z18count_test_vectorsP8_IO_FILE
FN:3285,_Z9is_vectorPc
FNDA:212326,_Z9is_vectorPc
FN:3308,_Z15get_next_vectorP8_IO_FILEPc
FNDA:212359,_Z15get_next_vectorP8_IO_FILEPc
FN:3320,_Z10free_linesP7lines_t
FNDA:32,_Z10free_linesP7lines_t
FN:3337,_Z11free_stagesP6stages
FNDA:16,_Z11free_stagesP6stages
FN:3349,_Z16free_test_vectorP11test_vector
FNDA:168582,_Z16free_test_vectorP11test_vector
FN:3361,_Z18free_pin_name_listP9pin_names
FNDA:48,_Z18free_pin_name_listP9pin_names
FN:3378,_Z18print_progress_bardiid
FNDA:4217,_Z18print_progress_bardiid
FN:3420,_Z19print_netlist_statsP6stagesi
FNDA:16,_Z19print_netlist_statsP6stagesi
FN:3438,_Z22print_simulation_statsP6stagesidd
FNDA:16,_Z22print_simulation_statsP6stagesidd
FN:3454,_Z10print_timed
FNDA:836,_Z10print_timed
FN:3467,_Z14print_ancestryP9nnode_t_ti
FNDA:0,_Z14print_ancestryP9nnode_t_ti
FN:3558,_Z18print_update_traceP9nnode_t_ti
FNDA:0,_Z18print_update_traceP9nnode_t_ti
FN:3648,_Z9wall_timev
FNDA:16910,_Z9wall_timev
FN:3658,_Z20get_circuit_filenamev
FNDA:16,_Z20get_circuit_filenamev
DA:33,17
DA:35,17
DA:38,17
DA:39,17
DA:40,0
DA:42,17
DA:43,17
DA:44,0
DA:47,17
DA:48,17
DA:49,0
DA:52,17
DA:53,17
DA:54,0
DA:57,17
DA:58,17
DA:59,0
DA:61,17
DA:64,17
DA:67,17
DA:69,17
DA:70,17
DA:71,0
DA:73,17
DA:76,17
DA:77,1
DA:79,16
DA:84,0
DA:85,0
DA:90,16
DA:91,0
DA:92,0
DA:94,16
DA:96,0
DA:100,16
DA:102,16
DA:103,16
DA:105,16
DA:106,16
DA:108,16
DA:111,16
DA:112,16
DA:113,16
DA:114,16
DA:120,16
DA:121,16
DA:123,16
DA:124,4230
DA:126,4214
DA:128,4214
DA:129,4214
DA:134,71634
DA:136,67420
DA:138,33710
DA:142,33710
DA:143,0
DA:145,33710
DA:149,0
DA:153,67420
DA:155,67420
DA:156,33710
DA:160,4214
DA:162,4214
DA:164,4214
DA:167,71634
DA:171,67420
DA:173,67404
DA:179,16
DA:180,16
DA:181,16
DA:183,16
DA:184,0
DA:189,4214
DA:192,4214
DA:194,4214
DA:197,4214
DA:198,16
DA:201,4214
DA:202,4198
DA:203,4198
DA:206,16
DA:207,16
DA:208,16
DA:209,16
DA:211,16
DA:212,16
DA:214,16
DA:216,16
DA:217,16
DA:219,16
DA:220,16
DA:222,0
DA:223,16
DA:227,16
DA:229,16
DA:232,16
DA:233,16
DA:235,16
DA:236,16
DA:237,16
DA:238,16
DA:239,16
DA:240,16
DA:251,67404
DA:275,1632510
DA:298,153673000
DA:299,152108000
DA:330,67404
DA:337,16
DA:339,16
DA:342,1444
DA:343,1428
DA:346,16
DA:347,16
DA:348,64
DA:349,48
DA:351,16
DA:352,16
DA:355,74230
DA:357,74214
DA:360,74214
DA:363,74214
DA:364,74214
DA:366,356658
DA:368,282444
DA:370,282444
DA:372,72738
DA:373,72738
DA:376,74214
DA:378,74214
DA:381,74214
DA:382,74214
DA:384,16
DA:387,16
DA:388,16
DA:390,16
DA:396,16
DA:397,16
DA:398,16
DA:399,16
DA:400,16
DA:401,16
DA:402,16
DA:403,16
DA:404,16
DA:406,16
DA:409,16
DA:410,16
DA:413,74230
DA:415,74214
DA:416,74214
DA:420,74214
DA:423,74214
DA:426,74214
DA:428,74214
DA:429,349392
DA:430,275875
DA:431,0
DA:434,74214
DA:436,697
DA:437,697
DA:438,697
DA:439,697
DA:440,697
DA:441,697
DA:442,697
DA:444,697
DA:445,697
DA:447,697
DA:448,697
DA:452,74214
DA:453,74214
DA:456,74214
DA:459,356658
DA:460,282444
DA:463,74214
DA:465,74214
DA:467,74214
DA:469,16
DA:470,16
DA:472,16
DA:473,16
DA:475,16
DA:482,152182000
DA:484,152182000
DA:486,152182000
DA:488,152182000
DA:490,60723600
DA:491,60723600
DA:492,60723600
DA:493,19872800
DA:494,19872800
DA:495,19872800
DA:496,16000
DA:497,16000
DA:498,16000
DA:499,219180
DA:500,219180
DA:501,219180
DA:502,4468420
DA:504,4468420
DA:505,4468420
DA:506,4468420
DA:508,8412200
DA:510,6788480
DA:512,6788480
DA:513,6584780
DA:515,4468420
DA:516,1623710
DA:517,1538570
DA:518,4468420
DA:520,10132700
DA:522,10132700
DA:523,10132700
DA:524,10132700
DA:526,27440400
DA:528,21273500
DA:530,21273500
DA:531,20959800
DA:533,10132700
DA:534,6166920
DA:535,6120120
DA:536,10132700
DA:538,240
DA:540,240
DA:541,240
DA:542,240
DA:544,416
DA:546,354
DA:548,354
DA:549,354
DA:551,240
DA:552,62
DA:553,62
DA:554,240
DA:556,18595800
DA:559,18595800
DA:560,18595800
DA:561,18595800
DA:563,35016400
DA:565,18613900
DA:567,18613900
DA:568,18479900
DA:570,18595800
DA:571,16402500
DA:572,16278500
DA:573,18595800
DA:575,0
DA:577,0
DA:578,0
DA:580,0
DA:581,0
DA:582,0
DA:584,0
DA:585,0
DA:586,0
DA:587,0
DA:589,0
DA:591,0
DA:593,8522960
DA:595,8522960
DA:596,8522960
DA:598,8522960
DA:599,8522960
DA:600,8522960
DA:602,8522960
DA:603,45999
DA:604,8476960
DA:605,509510
DA:607,7967450
DA:609,8522960
DA:611,40000
DA:613,40000
DA:614,40000
DA:616,40000
DA:617,40000
DA:618,40000
DA:620,40000
DA:621,0
DA:622,40000
DA:623,35118
DA:624,30964
DA:625,22350
DA:626,21136
DA:628,20008
DA:630,19992
DA:632,40000
DA:634,20000
DA:636,20000
DA:637,20000
DA:639,20000
DA:640,20000
DA:641,20000
DA:643,20000
DA:644,0
DA:645,20000
DA:646,0
DA:647,20000
DA:649,4882
DA:651,15118
DA:653,20000
DA:655,8891200
DA:658,8891200
DA:659,8891200
DA:660,8891200
DA:662,26592400
DA:664,17741800
DA:666,17741800
DA:667,17701200
DA:669,8891200
DA:670,8850600
DA:671,6989640
DA:672,8891200
DA:674,10173000
DA:677,10173000
DA:678,10173000
DA:679,10173000
DA:681,30192300
DA:683,20182600
DA:685,20182600
DA:686,20019300
DA:688,10173000
DA:689,10009700
DA:690,5720420
DA:691,10173000
DA:693,0
DA:695,0
DA:696,0
DA:698,0
DA:700,0
DA:701,0
DA:702,0
DA:703,0
DA:705,27360
DA:708,54720
DA:710,27360
DA:711,27360
DA:713,67420
DA:714,67420
DA:715,67420
DA:716,67420
DA:717,67420
DA:718,67420
DA:719,67420
DA:720,67420
DA:721,67420
DA:722,67420
DA:723,67420
DA:724,67420
DA:725,3042720
DA:726,3042720
DA:727,1429200
DA:728,1429200
DA:729,1429200
DA:730,1429200
DA:731,1429200
DA:732,0
DA:733,0
DA:734,0
DA:735,0
DA:736,0
DA:737,0
DA:739,1868920
DA:740,1868920
DA:741,1868920
DA:742,3936120
DA:743,3936120
DA:744,3936120
DA:746,0
DA:747,3936120
DA:749,0
DA:768,0
DA:769,0
DA:775,334305000
DA:776,182123000
DA:777,11541200
DA:779,152182000
DA:791,152466000
DA:794,152466000
DA:796,0
DA:797,0
DA:801,152466000
DA:803,356658
DA:805,282444
DA:806,282444
DA:812,0
DA:813,0
DA:816,0
DA:819,0
DA:828,152466000
DA:834,283311
DA:837,5391550
DA:839,5108240
DA:841,5108240
DA:843,0
DA:845,0
DA:847,0
DA:848,0
DA:851,0
DA:853,0
DA:854,0
DA:856,0
DA:860,283311
DA:865,16
DA:867,16
DA:869,729
DA:872,74927
DA:878,74214
DA:880,74214
DA:881,120497
DA:883,79658
DA:885,33375
DA:886,33375
DA:890,74214
DA:891,40839
DA:894,16
DA:900,1476
DA:902,1476
DA:904,1476
DA:905,1476
DA:906,1476
DA:910,0
DA:917,82280
DA:920,91822
DA:921,82280
DA:922,72738
DA:924,9542
DA:930,283311
DA:932,283311
DA:934,283311
DA:935,283311
DA:938,283311
DA:940,19237
DA:941,19237
DA:943,19237
DA:945,19237
DA:946,19237
DA:948,0
DA:950,264074
DA:953,448
DA:955,440
DA:957,440
DA:958,440
DA:959,432
DA:962,16
DA:963,0
DA:967,424
DA:968,112
DA:975,1291790
DA:976,1227280
DA:977,199443
DA:979,83756
DA:985,0
DA:987,0
DA:993,0
DA:996,0
DA:997,0
DA:999,0
DA:1007,148428
DA:1009,148428
DA:1010,148428
DA:1012,326372
DA:1014,177944
DA:1015,177944
DA:1016,177944
DA:1022,173098
DA:1024,0
DA:1025,0
DA:1026,0
DA:1028,0
DA:1037,0
DA:1038,0
DA:1041,0
DA:1042,0
DA:1043,0
DA:1047,853006
DA:1049,679908
DA:1050,679908
DA:1052,564888
DA:1055,564888
DA:1057,0
DA:1058,0
DA:1060,564888
DA:1062,0
DA:1063,0
DA:1066,564888
DA:1068,0
DA:1069,0
DA:1074,564888
DA:1075,564888
DA:1081,148428
DA:1082,148428
DA:1090,0
DA:1092,0
DA:1093,0
DA:1095,0
DA:1097,0
DA:1098,0
DA:1099,0
DA:1105,0
DA:1107,0
DA:1108,0
DA:1109,0
DA:1111,0
DA:1120,0
DA:1121,0
DA:1124,0
DA:1125,0
DA:1126,0
DA:1130,0
DA:1132,0
DA:1133,0
DA:1135,0
DA:1138,0
DA:1140,0
DA:1141,0
DA:1143,0
DA:1145,0
DA:1146,0
DA:1149,0
DA:1151,0
DA:1152,0
DA:1157,0
DA:1158,0
DA:1164,0
DA:1165,0
DA:1173,0
DA:1175,0
DA:1176,0
DA:1177,0
DA:1178,0
DA:1180,0
DA:1181,0
DA:1184,0
DA:1185,0
DA:1186,0
DA:1192,0
DA:1194,0
DA:1195,0
DA:1196,0
DA:1198,0
DA:1207,0
DA:1208,0
DA:1211,0
DA:1212,0
DA:1213,0
DA:1217,0
DA:1219,0
DA:1220,0
DA:1222,0
DA:1225,0
DA:1227,0
DA:1228,0
DA:1230,0
DA:1232,0
DA:1233,0
DA:1236,0
DA:1238,0
DA:1239,0
DA:1244,0
DA:1245,0
DA:1251,0
DA:1252,0
DA:1261,182123000
DA:1263,182123000
DA:1264,88972
DA:1266,182123000
DA:1267,182123000
DA:1268,182123000
DA:1273,837266000
DA:1275,837266000
DA:1279,100076
DA:1280,0
DA:1282,100076
DA:1284,837166000
DA:1290,1019290000
DA:1292,1019290000
DA:1298,1630920
DA:1300,1630920
DA:1301,282004
DA:1303,1348920
DA:1311,182212000
DA:1313,182212000
DA:1314,182212000
DA:1319,297040
DA:1321,297040
DA:1334,88972
DA:1337,88972
DA:1338,0
DA:1341,88972
DA:1342,0
DA:1344,88972
DA:1346,86549
DA:1347,86549
DA:1350,426503
DA:1352,339954
DA:1353,339954
DA:1355,302806
DA:1356,302806
DA:1362,2423
DA:1363,2423
DA:1367,1512520
DA:1371,1423550
DA:1372,0
DA:1374,1423550
DA:1377,88972
DA:1383,152185000
DA:1386,152185000
DA:1387,152185000
DA:1388,152185000
DA:1396,19888800
DA:1398,19888800
DA:1399,9944400
DA:1401,9944400
DA:1407,19872800
DA:1409,19872800
DA:1410,19872800
DA:1412,19872800
DA:1413,19872800
DA:1414,19872800
DA:1417,19872800
DA:1418,9936400
DA:1421,9936400
DA:1422,19872800
DA:1427,60723600
DA:1429,60723600
DA:1430,60723600
DA:1431,60723600
DA:1433,60723600
DA:1436,60723600
DA:1437,60723600
DA:1438,60723600
DA:1440,239591000
DA:1442,178867000
DA:1443,178867000
DA:1445,178867000
DA:1446,2590730
DA:1447,176276000
DA:1448,59935200
DA:1454,178867000
DA:1455,52113600
DA:1459,60723600
DA:1461,541127
DA:1462,541127
DA:1465,60723600
DA:1468,60723600
DA:1474,117351
DA:1475,23764
DA:1477,93587
DA:1480,60606200
DA:1482,129935
DA:1486,60476300
DA:1487,60476300
DA:1493,60476300
DA:1495,60723600
DA:1500,0
DA:1502,0
DA:1503,0
DA:1505,0
DA:1506,0
DA:1508,0
DA:1510,0
DA:1512,0
DA:1513,0
DA:1516,0
DA:1518,0
DA:1520,0
DA:1521,0
DA:1524,0
DA:1527,0
DA:1529,0
DA:1530,0
DA:1531,0
DA:1534,0
DA:1536,0
DA:1540,0
DA:1541,0
DA:1543,0
DA:1544,0
DA:1546,0
DA:1547,0
DA:1549,0
DA:1550,0
DA:1551,0
DA:1556,219180
DA:1558,219180
DA:1559,219180
DA:1562,219180
DA:1563,6504680
DA:1565,6323470
DA:1566,6323470
DA:1568,37969
DA:1569,37969
DA:1573,219180
DA:1575,693892
DA:1576,655923
DA:1580,181211
DA:1581,181211
DA:1583,3270790
DA:1584,3089580
DA:1586,3375230
DA:1587,3194020
DA:1589,181211
DA:1591,6464810
DA:1592,6283600
DA:1594,181211
DA:1595,181211
DA:1596,181211
DA:1599,219180
DA:1602,0
DA:1604,0
DA:1605,0
DA:1607,0
DA:1608,0
DA:1609,0
DA:1611,0
DA:1613,0
DA:1616,0
DA:1618,0
DA:1620,0
DA:1621,0
DA:1624,0
DA:1625,0
DA:1628,0
DA:1631,0
DA:1632,0
DA:1642,181211
DA:1644,181211
DA:1645,181211
DA:1648,3270790
DA:1650,3089580
DA:1653,18478100
DA:1654,17787700
DA:1657,6464810
DA:1659,9901250
DA:1661,3617650
DA:1662,3617650
DA:1665,181211
DA:1672,5805040
DA:1674,5805040
DA:1675,5805040
DA:1678,5805040
DA:1680,5805040
DA:1681,5805040
DA:1682,5805040
DA:1684,5805040
DA:1687,5805040
DA:1689,1295480
DA:1690,433420
DA:1691,862060
DA:1692,862060
DA:1695,4509560
DA:1697,29025200
DA:1698,23220200
DA:1699,29025200
DA:1700,23220200
DA:1702,11610100
DA:1704,5805040
DA:1705,862060
DA:1707,4942980
DA:1708,433420
DA:1710,4509560
DA:1712,5805040
DA:1715,29025200
DA:1716,23220200
DA:1718,5805040
DA:1720,5805040
DA:1721,5805040
DA:1722,5805040
DA:1723,5805040
DA:1725,5805040
DA:1734,5805040
DA:1736,5805040
DA:1737,5805040
DA:1744,5805040
DA:1746,71390
DA:1747,71390
DA:1751,5733650
DA:1752,5733650
DA:1755,5805040
DA:1756,5805040
DA:1757,23220200
DA:1759,17415100
DA:1761,299193
DA:1762,299193
DA:1766,17115900
DA:1767,17115900
DA:1769,17415100
DA:1771,5805040
DA:1773,5805040
DA:1775,0
DA:1777,0
DA:1778,0
DA:1782,0
DA:1783,0
DA:1785,0
DA:1790,0
DA:1792,0
DA:1794,0
DA:1795,0
DA:1798,0
DA:1799,0
DA:1801,0
DA:1805,5805040
DA:1812,0
DA:1814,0
DA:1815,0
DA:1818,0
DA:1819,0
DA:1821,0
DA:1822,0
DA:1824,0
DA:1825,0
DA:1829,0
DA:1831,0
DA:1832,0
DA:1836,0
DA:1837,0
DA:1839,0
DA:1840,0
DA:1842,0
DA:1843,0
DA:1844,0
DA:1846,0
DA:1848,0
DA:1851,0
DA:1852,0
DA:1854,0
DA:1856,0
DA:1857,0
DA:1858,0
DA:1861,0
DA:1870,0
DA:1872,0
DA:1873,0
DA:1878,0
DA:1879,0
DA:1880,0
DA:1882,0
DA:1883,0
DA:1884,0
DA:1886,0
DA:1887,0
DA:1888,0
DA:1891,0
DA:1897,16000
DA:1899,16000
DA:1900,16000
DA:1901,0
DA:1902,0
DA:1904,0
DA:1906,16000
DA:1911,16000
DA:1913,16000
DA:1915,16000
DA:1917,16000
DA:1918,8
DA:1921,16000
DA:1923,8000
DA:1924,8000
DA:1925,8000
DA:1928,16000
DA:1931,8000
DA:1934,8000
DA:1935,0
DA:1942,16000
DA:1943,16000
DA:1946,32000
DA:1949,16000
DA:1952,16000
DA:1953,0
DA:1955,16000
DA:1959,16000
DA:1960,16000
DA:1965,0
DA:1967,0
DA:1968,0
DA:1970,0
DA:1971,0
DA:1974,0
DA:1976,0
DA:1977,0
DA:1979,0
DA:1980,0
DA:1982,0
DA:1983,0
DA:1986,0
DA:1989,0
DA:1990,0
DA:1993,0
DA:1994,0
DA:1996,0
DA:1997,0
DA:2003,0
DA:2004,0
DA:2006,0
DA:2007,0
DA:2010,0
DA:2013,0
DA:2014,0
DA:2017,0
DA:2018,0
DA:2020,0
DA:2022,0
DA:2023,0
DA:2025,0
DA:2029,0
DA:2030,0
DA:2035,24000
DA:2037,24000
DA:2039,24000
DA:2042,24000
DA:2043,24000
DA:2045,0
DA:2048,0
DA:2055,8
DA:2057,8
DA:2058,8
DA:2062,131080
DA:2063,131072
DA:2065,8
DA:2067,8
DA:2068,8
DA:2070,8
DA:2074,0
DA:2075,0
DA:2077,8
DA:2078,8
DA:2084,0
DA:2086,0
DA:2087,0
DA:2088,0
DA:2091,0
DA:2092,0
DA:2095,0
DA:2097,0
DA:2100,0
DA:2103,0
DA:2104,0
DA:2106,0
DA:2107,0
DA:2112,0
DA:2113,0
DA:2116,0
DA:2118,0
DA:2119,0
DA:2122,0
DA:2124,0
DA:2126,0
DA:2127,0
DA:2128,0
DA:2129,0
DA:2130,0
DA:2131,0
DA:2132,0
DA:2133,0
DA:2135,0
DA:2139,0
DA:2143,0
DA:2145,0
DA:2146,0
DA:2148,0
DA:2151,0
DA:2152,0
DA:2153,0
DA:2155,0
DA:2156,0
DA:2157,0
DA:2159,0
DA:2161,0
DA:2163,0
DA:2165,0
DA:2167,0
DA:2170,0
DA:2173,0
DA:2174,0
DA:2177,0
DA:2178,0
DA:2181,0
DA:2182,0
DA:2184,0
DA:2186,0
DA:2189,0
DA:2190,0
DA:2192,0
DA:2193,0
DA:2195,0
DA:2196,0
DA:2198,0
DA:2199,0
DA:2202,0
DA:2206,0
DA:2207,0
DA:2211,0
DA:2221,0
DA:2222,0
DA:2224,0
DA:2225,0
DA:2228,0
DA:2229,0
DA:2230,0
DA:2232,0
DA:2237,0
DA:2238,0
DA:2239,0
DA:2240,0
DA:2241,0
DA:2242,0
DA:2246,0
DA:2247,0
DA:2248,0
DA:2249,0
DA:2250,0
DA:2251,0
DA:2255,0
DA:2256,0
DA:2257,0
DA:2258,0
DA:2260,0
DA:2261,0
DA:2264,0
DA:2265,0
DA:2269,0
DA:2273,0
DA:2278,0
DA:2280,0
DA:2283,0
DA:2284,0
DA:2285,0
DA:2288,0
DA:2289,0
DA:2291,0
DA:2293,0
DA:2294,0
DA:2300,2151
DA:2303,2151
DA:2305,732
DA:2306,732
DA:2307,732
DA:2311,2151
DA:2313,2151
DA:2314,2114
DA:2317,37
DA:2318,37
DA:2321,2151
DA:2322,2151
DA:2324,2151
DA:2326,37
DA:2328,0
DA:2333,37
DA:2334,37
DA:2335,37
DA:2336,37
DA:2341,2114
DA:2342,0
DA:2345,2114
DA:2347,2151
DA:2352,2151
DA:2355,2151
DA:2356,2151
DA:2360,65235
DA:2362,63084
DA:2366,0
DA:2368,0
DA:2369,0
DA:2371,0
DA:2375,2151
DA:2376,2151
DA:2377,2151
DA:2378,2151
DA:2379,2151
DA:2387,34
DA:2389,34
DA:2390,34
DA:2391,34
DA:2393,34
DA:2394,34
DA:2397,2198
DA:2399,2164
DA:2400,2164
DA:2402,2164
DA:2404,2151
DA:2406,149
DA:2407,149
DA:2408,149
DA:2410,2151
DA:2412,2164
DA:2414,34
DA:2421,32
DA:2423,32
DA:2424,32
DA:2425,32
DA:2426,32
DA:2427,32
DA:2435,17
DA:2437,17
DA:2438,17
DA:2442,17
DA:2443,17
DA:2444,0
DA:2448,17
DA:2450,600
DA:2452,600
DA:2454,600
DA:2456,0
DA:2457,0
DA:2459,600
DA:2461,94
DA:2463,94
DA:2465,1
DA:2466,1
DA:2470,1
DA:2471,1
DA:2475,93
DA:2476,93
DA:2480,93
DA:2481,93
DA:2485,506
DA:2486,506
DA:2489,16
DA:2495,50
DA:2498,252
DA:2501,3083
DA:2503,2881
DA:2505,0
DA:2506,0
DA:2510,50
DA:2517,4302
DA:2520,21506
DA:2521,21357
DA:2522,4153
DA:2524,149
DA:2530,149
DA:2532,149
DA:2534,149
DA:2535,149
DA:2536,149
DA:2537,149
DA:2538,149
DA:2540,149
DA:2542,149
DA:2548,33
DA:2550,33
DA:2551,33
DA:2554,181
DA:2557,148
DA:2558,0
DA:2560,148
DA:2561,148
DA:2563,33
DA:2567,0
DA:2569,33
DA:2570,33
DA:2577,67420
DA:2579,67420
DA:2580,0
DA:2581,67420
DA:2582,0
DA:2585,396260
DA:2587,328840
DA:2589,328840
DA:2590,0
DA:2593,3371560
DA:2595,3042720
DA:2596,0
DA:2599,67420
DA:2605,67436
DA:2607,67436
DA:2609,0
DA:2610,0
DA:2614,181749
DA:2617,1658480
DA:2618,1544170
DA:2619,0
DA:2626,114313
DA:2628,0
DA:2630,0
DA:2631,0
DA:2632,0
DA:2635,67436
DA:2642,168582
DA:2644,168582
DA:2645,168582
DA:2646,168582
DA:2647,168582
DA:2648,168582
DA:2650,168582
DA:2652,168582
DA:2653,168582
DA:2654,561628
DA:2656,393046
DA:2657,393046
DA:2658,393046
DA:2659,393046
DA:2661,393046
DA:2663,262656
DA:2664,262656
DA:2665,262656
DA:2667,1187360
DA:2669,924702
DA:2671,924702
DA:2673,4623510
DA:2675,3698810
DA:2676,3698810
DA:2678,1950180
DA:2679,1950180
DA:2681,3698810
DA:2682,3698810
DA:2684,262656
DA:2689,1131280
DA:2691,1000890
DA:2692,1000890
DA:2693,946680
DA:2695,1000890
DA:2696,1000890
DA:2699,393046
DA:2700,393046
DA:2702,168582
DA:2703,168582
DA:2711,0
DA:2713,0
DA:2714,0
DA:2715,0
DA:2716,0
DA:2719,0
DA:2721,0
DA:2722,0
DA:2723,0
DA:2724,0
DA:2727,0
DA:2729,0
DA:2731,0
DA:2733,0
DA:2734,0
DA:2736,0
DA:2738,0
DA:2739,0
DA:2744,0
DA:2745,0
DA:2747,0
DA:2750,0
DA:2751,0
DA:2753,0
DA:2755,0
DA:2765,8428
DA:2767,8428
DA:2768,32
DA:2771,143268
DA:2773,134840
DA:2774,101130
DA:2776,8428
DA:2782,101130
DA:2786,379810
DA:2788,278680
DA:2789,278680
DA:2791,278680
DA:2793,97982
DA:2794,0
DA:2796,97982
DA:2799,97982
DA:2800,630849
DA:2802,532867
DA:2804,532867
DA:2805,0
DA:2808,532867
DA:2810,455390
DA:2813,77477
DA:2814,77477
DA:2825,180698
DA:2826,0
DA:2828,180698
DA:2830,180698
DA:2832,2598390
DA:2834,2417690
DA:2836,2417690
DA:2837,0
DA:2839,2417690
DA:2841,2417690
DA:2843,655561
DA:2844,655561
DA:2853,278680
DA:2855,101130
DA:2856,101130
DA:2861,4214
DA:2863,4214
DA:2865,16
DA:2869,1444
DA:2871,1428
DA:2872,1428
DA:2874,13
DA:2875,13
DA:2876,13
DA:2882,71634
DA:2884,67420
DA:2885,33710
DA:2887,4214
DA:2892,33710
DA:2895,198130
DA:2897,164420
DA:2899,65680
DA:2902,131360
DA:2904,65680
DA:2906,65680
DA:2907,65680
DA:2909,65680
DA:2913,98740
DA:2914,98740
DA:2917,1554420
DA:2919,1455680
DA:2920,724663
DA:2922,1455680
DA:2924,386420
DA:2925,386420
DA:2928,98740
DA:2932,33710
DA:2944,16
DA:2946,16
DA:2947,16
DA:2949,16
DA:2952,16
DA:2954,0
DA:2955,0
DA:2963,16
DA:2964,16
DA:2967,16
DA:2968,16
DA:2974,67452
DA:2976,67436
DA:2978,0
DA:2979,0
DA:2980,0
DA:2982,67436
DA:2984,0
DA:2985,0
DA:2986,0
DA:2989,67436
DA:2991,0
DA:2992,0
DA:2999,0
DA:3004,67436
DA:3005,67436
DA:3008,67436
DA:3010,0
DA:3011,0
DA:3012,0
DA:3013,0
DA:3019,67436
DA:3020,67436
DA:3025,16
DA:3027,0
DA:3028,0
DA:3031,16
DA:3032,16
DA:3034,16
DA:3041,32
DA:3043,32
DA:3045,32
DA:3047,0
DA:3048,0
DA:3049,0
DA:3051,32
DA:3059,48
DA:3061,48
DA:3062,48
DA:3063,48
DA:3066,48
DA:3068,0
DA:3069,0
DA:3070,0
DA:3072,0
DA:3073,0
DA:3074,0
DA:3076,0
DA:3078,48
DA:3085,74214
DA:3087,74214
DA:3089,0
DA:3090,0
DA:3093,0
DA:3095,0
DA:3097,0
DA:3099,0
DA:3101,0
DA:3103,0
DA:3104,0
DA:3107,0
DA:3110,0
DA:3112,0
DA:3114,0
DA:3116,0
DA:3117,0
DA:3120,0
DA:3125,0
DA:3127,0
DA:3129,0
DA:3131,0
DA:3132,0
DA:3137,0
DA:3139,0
DA:3141,0
DA:3144,0
DA:3145,0
DA:3147,0
DA:3149,0
DA:3151,0
DA:3152,0
DA:3153,0
DA:3155,0
DA:3156,0
DA:3160,74214
DA:3166,8
DA:3169,8
DA:3170,8
DA:3172,8
DA:3173,8
DA:3174,0
DA:3176,8
DA:3178,8
DA:3179,8
DA:3186,380908
DA:3188,380908
DA:3191,896716
DA:3192,896716
DA:3194,2888740
DA:3196,2507840
DA:3198,515808
DA:3199,515808
DA:3200,515808
DA:3204,896716
DA:3205,380908
DA:3208,380908
DA:3214,443100
DA:3216,443100
DA:3218,4459630
DA:3220,4037040
DA:3222,20505
DA:3223,20505
DA:3226,443100
DA:3233,8508960
DA:3235,8508960
DA:3242,0
DA:3245,0
DA:3247,0
DA:3248,0
DA:3250,0
DA:3252,0
DA:3254,0
DA:3256,0
DA:3258,0
DA:3264,17
DA:3266,17
DA:3268,17
DA:3270,43744
DA:3271,43727
DA:3273,17
DA:3274,17
DA:3276,17
DA:3278,17
DA:3285,212326
DA:3287,212326
DA:3288,212326
DA:3290,212326
DA:3292,212326
DA:3293,212326
DA:3297,0
DA:3298,0
DA:3308,212359
DA:3310,212359
DA:3311,212326
DA:3312,212326
DA:3314,33
DA:3320,32
DA:3323,178
DA:3325,146
DA:3326,146
DA:3327,146
DA:3330,32
DA:3331,32
DA:3332,32
DA:3337,729
DA:3339,729
DA:3340,713
DA:3341,16
DA:3342,16
DA:3343,16
DA:3344,16
DA:3349,561628
DA:3351,561628
DA:3352,393046
DA:3353,168582
DA:3354,168582
DA:3355,168582
DA:3356,168582
DA:3361,48
DA:3363,48
DA:3364,0
DA:3366,48
DA:3367,48
DA:3368,48
DA:3378,4217
DA:3380,4217
DA:3382,787
DA:3384,787
DA:3387,20476
DA:3388,19689
DA:3390,787
DA:3392,20448
DA:3393,19661
DA:3395,787
DA:3397,770
DA:3398,770
DA:3399,770
DA:3403,17
DA:3404,17
DA:3407,787
DA:3409,787
DA:3410,17
DA:3412,787
DA:3414,4217
DA:3420,16
DA:3422,16
DA:3424,16
DA:3425,16
DA:3426,16
DA:3427,16
DA:3431,16
DA:3433,16
DA:3438,16
DA:3440,16
DA:3441,16
DA:3442,16
DA:3443,16
DA:3444,16
DA:3445,16
DA:3446,16
DA:3447,16
DA:3448,16
DA:3449,16
DA:3454,836
DA:3456,836
DA:3457,836
DA:3458,836
DA:3459,836
DA:3460,676
DA:3461,836
DA:3467,0
DA:3469,0
DA:3471,0
DA:3472,0
DA:3474,0
DA:3475,0
DA:3476,0
DA:3478,0
DA:3480,0
DA:3481,0
DA:3482,0
DA:3484,0
DA:3486,0
DA:3487,0
DA:3488,0
DA:3489,0
DA:3490,0
DA:3491,0
DA:3492,0
DA:3540,0
DA:3543,0
DA:3545,0
DA:3546,0
DA:3547,0
DA:3558,0
DA:3561,0
DA:3562,0
DA:3573,0
DA:3576,0
DA:3578,0
DA:3579,0
DA:3581,0
DA:3583,0
DA:3585,0
DA:3586,0
DA:3587,0
DA:3589,0
DA:3590,0
DA:3591,0
DA:3592,0
DA:3593,0
DA:3596,0
DA:3598,0
DA:3599,0
DA:3600,0
DA:3603,0
DA:3604,0
DA:3607,0
DA:3609,0
DA:3610,0
DA:3612,0
DA:3614,0
DA:3615,0
DA:3616,0
DA:3618,0
DA:3621,0
DA:3622,0
DA:3623,0
DA:3626,0
DA:3628,0
DA:3629,0
DA:3630,0
DA:3631,0
DA:3640,0
DA:3641,0
DA:3642,0
DA:3648,16910
DA:3651,16910
DA:3652,16910
DA:3658,16
DA:3660,16
end_of_record
SF:/usr/include/c++/9/cmath
FN:415,_ZSt3powIilEN9__gnu_cxx11__promote_2IT_T0_NS0_9__promoteIS2_XsrSt12__is_integerIS2_E7__valueEE6__typeENS4_IS3_XsrS5_IS3_E7__valueEE6__typeEE6__typeES2_S3_
FNDA:0,_ZSt3powIilEN9__gnu_cxx11__promote_2IT_T0_NS0_9__promoteIS2_XsrSt12__is_integerIS2_E7__valueEE6__typeENS4_IS3_XsrS5_IS3_E7__valueEE6__typeEE6__typeES2_S3_
DA:415,0
DA:418,0
end_of_record
TN:
SF:/workspace/vtr-verilog-to-routing/ODIN_II/SRC/hashtable.c
FN:39,_Z16create_hashtablei
FNDA:1500,_Z16create_hashtablei
FN:64,_Z20___hashtable_destroyP13hashtable_t_t
FNDA:1445,_Z20___hashtable_destroyP13hashtable_t_t
FN:82,_Z31___hashtable_destroy_free_itemsP13hashtable_t_t
FNDA:55,_Z31___hashtable_destroy_free_itemsP13hashtable_t_t
FN:101,_Z16___hashtable_addP13hashtable_t_tPvmS1_
FNDA:356711,_Z16___hashtable_addP13hashtable_t_tPvmS1_
FN:123,_Z19___hashtable_removeP13hashtable_t_tPvm
FNDA:0,_Z19___hashtable_removeP13hashtable_t_tPvm
FN:148,_Z16___hashtable_getP13hashtable_t_tPvm
FNDA:458325,_Z16___hashtable_getP13hashtable_t_tPvm
FN:163,_Z20___hashtable_get_allP13hashtable_t_t
FNDA:17,_Z20___hashtable_get_allP13hashtable_t_t
FN:180,_Z21___hashtable_is_emptyP13hashtable_t_t
FNDA:0,_Z21___hashtable_is_emptyP13hashtable_t_t
FN:185,_Z25___hashtable_compare_keysPvmS_m
FNDA:2119020,_Z25___hashtable_compare_keysPvmS_m
FN:191,_Z17___hashtable_hashPvmi
FNDA:815036,_Z17___hashtable_hashPvmi
DA:39,1500
DA:41,1500
DA:43,0
DA:44,0
DA:47,1500
DA:49,1500
DA:50,1500
DA:51,1500
DA:53,1500
DA:54,1500
DA:55,1500
DA:56,1500
DA:57,1500
DA:58,1500
DA:59,1500
DA:61,1500
DA:64,1445
DA:67,294833
DA:70,650061
DA:72,356673
DA:73,356673
DA:74,356673
DA:75,356673
DA:78,1445
DA:79,1445
DA:80,1445
DA:82,55
DA:85,17169
DA:88,17152
DA:90,38
DA:91,38
DA:92,38
DA:93,38
DA:94,38
DA:97,55
DA:98,55
DA:99,55
DA:101,356711
DA:103,356711
DA:105,356711
DA:106,356711
DA:107,356711
DA:108,356711
DA:110,356711
DA:112,356711
DA:113,356711
DA:115,10438400
DA:116,10081700
DA:118,356711
DA:120,356711
DA:121,356711
DA:123,0
DA:125,0
DA:127,0
DA:128,0
DA:129,0
DA:131,0
DA:132,0
DA:135,0
DA:136,0
DA:138,0
DA:139,0
DA:140,0
DA:141,0
DA:142,0
DA:145,0
DA:148,458325
DA:150,458325
DA:152,458325
DA:153,2576620
DA:154,2118290
DA:156,458325
DA:157,458325
DA:158,734
DA:160,458325
DA:163,17
DA:164,17
DA:165,17
DA:168,17017
DA:170,17000
DA:171,17000
DA:173,0
DA:174,0
DA:177,17
DA:180,0
DA:182,0
DA:185,2119020
DA:187,2119020
DA:188,2119020
DA:191,815036
DA:193,815036
DA:195,9866690
DA:196,9051650
DA:198,815036
end_of_record
TN:
SF:/workspace/vtr-verilog-to-routing/ODIN_II/SRC/queue.c
FN:35,_Z12create_queuev
FNDA:16,_Z12create_queuev
FN:52,_Z16___queue_destroyP9queue_t_t
FNDA:16,_Z16___queue_destroyP9queue_t_t
FN:58,_Z12___queue_addP9queue_t_tPv
FNDA:74214,_Z12___queue_addP9queue_t_tPv
FN:76,_Z15___queue_removeP9queue_t_t
FNDA:74246,_Z15___queue_removeP9queue_t_t
FN:96,_Z19___queue_remove_allP9queue_t_t
FNDA:0,_Z19___queue_remove_allP9queue_t_t
FN:110,_Z17___queue_is_emptyP9queue_t_t
FNDA:74246,_Z17___queue_is_emptyP9queue_t_t
DA:35,16
DA:37,16
DA:39,16
DA:40,16
DA:41,16
DA:43,16
DA:44,16
DA:45,16
DA:46,16
DA:47,16
DA:49,16
DA:52,16
DA:54,16
DA:55,16
DA:56,16
DA:58,74214
DA:60,74214
DA:62,74214
DA:63,74214
DA:65,74214
DA:66,74186
DA:68,74214
DA:70,74214
DA:71,28
DA:73,74214
DA:74,74214
DA:76,74246
DA:78,74246
DA:79,74246
DA:81,74214
DA:82,74214
DA:83,74214
DA:84,74214
DA:85,74214
DA:87,74214
DA:89,28
DA:90,28
DA:93,74246
DA:96,0
DA:98,0
DA:99,0
DA:101,0
DA:102,0
DA:104,0
DA:105,0
DA:107,0
DA:110,74246
DA:112,74246
end_of_record
TN:
SF:/workspace/vtr-verilog-to-routing/ODIN_II/SRC/memories.c
FN:50,_Z16get_sp_ram_depthP9nnode_t_t
FNDA:26,_Z16get_sp_ram_depthP9nnode_t_t
FN:58,_Z16get_dp_ram_depthP9nnode_t_t
FNDA:0,_Z16get_dp_ram_depthP9nnode_t_t
FN:67,_Z16get_sp_ram_widthP9nnode_t_t
FNDA:26,_Z16get_sp_ram_widthP9nnode_t_t
FN:75,_Z16get_dp_ram_widthP9nnode_t_t
FNDA:0,_Z16get_dp_ram_widthP9nnode_t_t
FN:84,_Z20get_memory_port_sizePKc
FNDA:1,_Z20get_memory_port_sizePKc
FN:98,_Z25copy_input_port_to_memoryP9nnode_t_tP15signal_list_t_tPKc
FNDA:0,_Z25copy_input_port_to_memoryP9nnode_t_tP15signal_list_t_tPKc
FN:105,_Z26copy_output_port_to_memoryP9nnode_t_tP15signal_list_t_tPKc
FNDA:0,_Z26copy_output_port_to_memoryP9nnode_t_tP15signal_list_t_tPKc
FN:115,_Z26remap_input_port_to_memoryP9nnode_t_tP15signal_list_t_tPKc
FNDA:0,_Z26remap_input_port_to_memoryP9nnode_t_tP15signal_list_t_tPKc
FN:149,_Z24add_input_port_to_memoryP9nnode_t_tP15signal_list_t_tPKc
FNDA:0,_Z24add_input_port_to_memoryP9nnode_t_tP15signal_list_t_tPKc
FN:186,_Z27remap_output_port_to_memoryP9nnode_t_tP15signal_list_t_tPc
FNDA:0,_Z27remap_output_port_to_memoryP9nnode_t_tP15signal_list_t_tPc
FN:220,_Z25add_output_port_to_memoryP9nnode_t_tP15signal_list_t_tPKc
FNDA:0,_Z25add_output_port_to_memoryP9nnode_t_tP15signal_list_t_tPKc
FN:254,_Z38check_memories_and_report_distributionv
FNDA:17,_Z38check_memories_and_report_distributionv
FN:338,_Z21split_sp_memory_depthP9nnode_t_ti
FNDA:1,_Z21split_sp_memory_depthP9nnode_t_ti
FN:455,_Z21split_dp_memory_depthP9nnode_t_ti
FNDA:0,_Z21split_dp_memory_depthP9nnode_t_ti
FN:621,_Z21split_sp_memory_widthP9nnode_t_ti
FNDA:1,_Z21split_sp_memory_widthP9nnode_t_ti
FN:725,_Z21split_dp_memory_widthP9nnode_t_ti
FNDA:0,_Z21split_dp_memory_widthP9nnode_t_ti
FN:901,_Z22get_sp_ram_split_depthv
FNDA:32,_Z22get_sp_ram_split_depthv
FN:923,_Z22get_dp_ram_split_depthv
FNDA:32,_Z22get_dp_ram_split_depthv
FN:945,_Z22get_sp_ram_split_widthv
FNDA:16,_Z22get_sp_ram_split_widthv
FN:964,_Z22get_dp_ram_split_widthv
FNDA:16,_Z22get_dp_ram_split_widthv
FN:984,_Z36filter_memories_by_soft_logic_cutoffv
FNDA:49,_Z36filter_memories_by_soft_logic_cutoffv
FN:1034,_Z16iterate_memoriesP11netlist_t_t
FNDA:17,_Z16iterate_memoriesP11netlist_t_t
FN:1140,_Z17free_memory_listsv
FNDA:17,_Z17free_memory_listsv
FN:1151,_Z19pad_dp_memory_widthP9nnode_t_tP11netlist_t_t
FNDA:0,_Z19pad_dp_memory_widthP9nnode_t_tP11netlist_t_t
FN:1168,_Z19pad_sp_memory_widthP9nnode_t_tP11netlist_t_t
FNDA:8,_Z19pad_sp_memory_widthP9nnode_t_tP11netlist_t_t
FN:1183,_Z22pad_memory_output_portP9nnode_t_tP11netlist_t_tP7s_modelPKc
FNDA:8,_Z22pad_memory_output_portP9nnode_t_tP11netlist_t_tP7s_modelPKc
FN:1222,_Z21pad_memory_input_portP9nnode_t_tP11netlist_t_tP7s_modelPKc
FNDA:16,_Z21pad_memory_input_portP9nnode_t_tP11netlist_t_tP7s_modelPKc
FN:1262,_Z9is_sp_ramP9nnode_t_t
FNDA:32069,_Z9is_sp_ramP9nnode_t_t
FN:1269,_Z9is_dp_ramP9nnode_t_t
FNDA:0,_Z9is_dp_ramP9nnode_t_t
FN:1276,_Z13is_ast_sp_ramP12ast_node_t_t
FNDA:32071,_Z13is_ast_sp_ramP12ast_node_t_t
FN:1285,_Z13is_ast_dp_ramP12ast_node_t_t
FNDA:0,_Z13is_ast_dp_ramP12ast_node_t_t
FN:1294,_Z18get_sp_ram_signalsP9nnode_t_t
FNDA:16053,_Z18get_sp_ram_signalsP9nnode_t_t
FN:1348,_Z19free_sp_ram_signalsP14sp_ram_signals
FNDA:16053,_Z19free_sp_ram_signalsP14sp_ram_signals
FN:1357,_Z18get_dp_ram_signalsP9nnode_t_t
FNDA:0,_Z18get_dp_ram_signalsP9nnode_t_t
FN:1428,_Z19free_dp_ram_signalsP14dp_ram_signals
FNDA:0,_Z19free_dp_ram_signalsP14dp_ram_signals
FN:1443,_Z32instantiate_soft_single_port_ramP9nnode_t_tsP11netlist_t_t
FNDA:0,_Z32instantiate_soft_single_port_ramP9nnode_t_tsP11netlist_t_t
FN:1532,_Z30instantiate_soft_dual_port_ramP9nnode_t_tsP11netlist_t_t
FNDA:0,_Z30instantiate_soft_dual_port_ramP9nnode_t_tsP11netlist_t_t
FN:1667,_Z14create_decoderP9nnode_t_tsP15signal_list_t_t
FNDA:0,_Z14create_decoderP9nnode_t_tsP15signal_list_t_t
DA:50,26
DA:52,26
DA:53,26
DA:54,26
DA:55,26
DA:58,0
DA:60,0
DA:61,0
DA:62,0
DA:63,0
DA:64,0
DA:67,26
DA:69,26
DA:70,26
DA:71,26
DA:72,26
DA:75,0
DA:77,0
DA:78,0
DA:79,0
DA:80,0
DA:81,0
DA:84,1
DA:88,1
DA:89,1
DA:91,1
DA:92,1
DA:93,0
DA:95,0
DA:98,0
DA:100,0
DA:101,0
DA:102,0
DA:103,0
DA:105,0
DA:107,0
DA:108,0
DA:109,0
DA:110,0
DA:115,0
DA:118,0
DA:121,0
DA:123,0
DA:124,0
DA:126,0
DA:132,0
DA:133,0
DA:136,0
DA:138,0
DA:139,0
DA:140,0
DA:142,0
DA:149,0
DA:152,0
DA:155,0
DA:157,0
DA:158,0
DA:160,0
DA:166,0
DA:167,0
DA:170,0
DA:172,0
DA:175,0
DA:179,0
DA:181,0
DA:186,0
DA:189,0
DA:192,0
DA:194,0
DA:195,0
DA:197,0
DA:203,0
DA:204,0
DA:207,0
DA:209,0
DA:210,0
DA:211,0
DA:213,0
DA:220,0
DA:223,0
DA:226,0
DA:228,0
DA:229,0
DA:231,0
DA:237,0
DA:238,0
DA:241,0
DA:243,0
DA:244,0
DA:245,0
DA:247,0
DA:254,17
DA:256,17
DA:257,16
DA:259,1
DA:260,1
DA:263,1
DA:264,1
DA:265,1
DA:266,1
DA:268,1
DA:269,2
DA:271,1
DA:273,1
DA:274,1
DA:276,1
DA:277,0
DA:279,1
DA:281,1
DA:283,1
DA:285,1
DA:286,1
DA:288,1
DA:289,1
DA:292,1
DA:295,1
DA:296,1
DA:298,0
DA:300,0
DA:301,0
DA:303,0
DA:304,0
DA:306,0
DA:307,0
DA:309,0
DA:310,0
DA:311,0
DA:313,0
DA:314,0
DA:317,0
DA:320,1
DA:321,1
DA:322,1
DA:323,1
DA:324,1
DA:326,1
DA:338,1
DA:340,1
DA:342,1
DA:345,1
DA:347,1
DA:348,1
DA:349,1
DA:353,0
DA:354,0
DA:355,0
DA:358,0
DA:359,0
DA:362,0
DA:363,0
DA:366,0
DA:367,0
DA:368,0
DA:369,0
DA:370,0
DA:371,0
DA:374,0
DA:375,0
DA:376,0
DA:377,0
DA:380,0
DA:381,0
DA:386,0
DA:387,0
DA:388,0
DA:390,0
DA:391,0
DA:392,0
DA:394,0
DA:395,0
DA:396,0
DA:398,0
DA:400,0
DA:401,0
DA:402,0
DA:406,0
DA:407,0
DA:408,0
DA:411,0
DA:412,0
DA:414,0
DA:415,0
DA:418,0
DA:420,0
DA:421,0
DA:422,0
DA:423,0
DA:424,0
DA:426,0
DA:427,0
DA:428,0
DA:430,0
DA:432,0
DA:433,0
DA:435,0
DA:436,0
DA:439,0
DA:440,0
DA:442,0
DA:444,0
DA:445,0
DA:455,0
DA:457,0
DA:459,0
DA:462,0
DA:464,0
DA:465,0
DA:466,0
DA:469,0
DA:472,0
DA:473,0
DA:475,0
DA:476,0
DA:477,0
DA:480,0
DA:481,0
DA:484,0
DA:485,0
DA:488,0
DA:489,0
DA:490,0
DA:491,0
DA:492,0
DA:493,0
DA:496,0
DA:497,0
DA:498,0
DA:499,0
DA:500,0
DA:501,0
DA:504,0
DA:505,0
DA:506,0
DA:507,0
DA:512,0
DA:513,0
DA:514,0
DA:516,0
DA:517,0
DA:518,0
DA:520,0
DA:521,0
DA:522,0
DA:524,0
DA:525,0
DA:526,0
DA:528,0
DA:529,0
DA:530,0
DA:531,0
DA:533,0
DA:534,0
DA:535,0
DA:537,0
DA:538,0
DA:539,0
DA:541,0
DA:543,0
DA:544,0
DA:545,0
DA:549,0
DA:550,0
DA:551,0
DA:554,0
DA:555,0
DA:556,0
DA:558,0
DA:559,0
DA:560,0
DA:563,0
DA:565,0
DA:566,0
DA:567,0
DA:568,0
DA:569,0
DA:571,0
DA:572,0
DA:573,0
DA:575,0
DA:577,0
DA:578,0
DA:580,0
DA:581,0
DA:585,0
DA:587,0
DA:588,0
DA:589,0
DA:590,0
DA:591,0
DA:593,0
DA:595,0
DA:596,0
DA:597,0
DA:599,0
DA:601,0
DA:602,0
DA:604,0
DA:605,0
DA:608,0
DA:609,0
DA:610,0
DA:611,0
DA:613,0
DA:614,0
DA:621,1
DA:623,1
DA:624,1
DA:626,1
DA:628,1
DA:630,1
DA:632,1
DA:635,0
DA:640,1
DA:641,1
DA:642,9
DA:644,8
DA:645,8
DA:646,8
DA:649,8
DA:650,8
DA:651,8
DA:652,8
DA:655,40
DA:656,32
DA:658,8
DA:660,8
DA:661,8
DA:662,40
DA:665,32
DA:668,8
DA:670,16
DA:672,8
DA:673,8
DA:674,8
DA:675,8
DA:676,8
DA:677,8
DA:679,8
DA:681,8
DA:686,80
DA:688,56
DA:689,56
DA:691,56
DA:692,49
DA:694,7
DA:695,56
DA:696,56
DA:701,8
DA:702,8
DA:703,8
DA:706,16
DA:708,8
DA:709,8
DA:710,8
DA:711,8
DA:712,8
DA:713,8
DA:717,1
DA:719,1
DA:725,0
DA:727,0
DA:728,0
DA:729,0
DA:730,0
DA:732,0
DA:733,0
DA:735,0
DA:736,0
DA:738,0
DA:739,0
DA:740,0
DA:741,0
DA:743,0
DA:744,0
DA:746,0
DA:747,0
DA:749,0
DA:750,0
DA:751,0
DA:753,0
DA:755,0
DA:758,0
DA:763,0
DA:764,0
DA:765,0
DA:766,0
DA:767,0
DA:769,0
DA:770,0
DA:771,0
DA:774,0
DA:775,0
DA:776,0
DA:777,0
DA:780,0
DA:781,0
DA:783,0
DA:784,0
DA:785,0
DA:788,0
DA:791,0
DA:793,0
DA:795,0
DA:796,0
DA:797,0
DA:798,0
DA:799,0
DA:800,0
DA:802,0
DA:804,0
DA:806,0
DA:809,0
DA:811,0
DA:813,0
DA:814,0
DA:815,0
DA:816,0
DA:817,0
DA:818,0
DA:820,0
DA:822,0
DA:827,0
DA:829,0
DA:830,0
DA:832,0
DA:833,0
DA:835,0
DA:836,0
DA:837,0
DA:842,0
DA:843,0
DA:845,0
DA:846,0
DA:847,0
DA:850,0
DA:853,0
DA:855,0
DA:857,0
DA:858,0
DA:859,0
DA:860,0
DA:861,0
DA:862,0
DA:864,0
DA:866,0
DA:868,0
DA:871,0
DA:873,0
DA:875,0
DA:876,0
DA:877,0
DA:878,0
DA:879,0
DA:880,0
DA:882,0
DA:884,0
DA:888,0
DA:893,0
DA:895,0
DA:901,32
DA:903,32
DA:905,32
DA:906,0
DA:907,32
DA:908,0
DA:909,32
DA:910,0
DA:912,32
DA:914,32
DA:916,32
DA:923,32
DA:925,32
DA:927,32
DA:928,0
DA:929,32
DA:930,0
DA:931,32
DA:932,0
DA:934,32
DA:936,32
DA:938,32
DA:945,16
DA:947,16
DA:949,0
DA:953,16
DA:954,16
DA:955,16
DA:956,16
DA:964,16
DA:966,16
DA:968,0
DA:972,16
DA:973,16
DA:974,16
DA:975,16
DA:984,49
DA:986,49
DA:988,48
DA:989,48
DA:990,65
DA:992,17
DA:993,17
DA:994,17
DA:995,17
DA:997,17
DA:998,17
DA:999,17
DA:1000,17
DA:1005,49
DA:1007,48
DA:1008,48
DA:1009,48
DA:1011,0
DA:1012,0
DA:1013,0
DA:1014,0
DA:1016,0
DA:1017,0
DA:1018,0
DA:1019,0
DA:1022,49
DA:1034,17
DA:1037,17
DA:1040,17
DA:1042,17
DA:1045,16
DA:1046,16
DA:1047,16
DA:1048,17
DA:1050,1
DA:1051,1
DA:1052,1
DA:1053,1
DA:1054,1
DA:1058,16
DA:1059,16
DA:1060,16
DA:1061,17
DA:1063,1
DA:1064,1
DA:1065,1
DA:1066,1
DA:1067,1
DA:1071,16
DA:1074,16
DA:1075,16
DA:1076,24
DA:1078,8
DA:1079,8
DA:1080,8
DA:1081,8
DA:1082,8
DA:1083,8
DA:1087,17
DA:1090,16
DA:1091,16
DA:1092,16
DA:1093,16
DA:1095,0
DA:1096,0
DA:1097,0
DA:1098,0
DA:1099,0
DA:1103,16
DA:1104,16
DA:1105,16
DA:1106,16
DA:1108,0
DA:1109,0
DA:1110,0
DA:1111,0
DA:1112,0
DA:1116,16
DA:1119,16
DA:1120,16
DA:1121,16
DA:1123,0
DA:1124,0
DA:1125,0
DA:1126,0
DA:1127,0
DA:1128,0
DA:1129,0
DA:1132,17
DA:1140,25
DA:1142,25
DA:1143,8
DA:1144,17
DA:1145,0
DA:1146,17
DA:1151,0
DA:1153,0
DA:1154,0
DA:1156,0
DA:1157,0
DA:1159,0
DA:1160,0
DA:1162,0
DA:1163,0
DA:1168,8
DA:1170,8
DA:1171,8
DA:1173,8
DA:1175,8
DA:1177,8
DA:1178,8
DA:1183,8
DA:1187,8
DA:1188,8
DA:1190,8
DA:1192,8
DA:1194,8
DA:1195,8
DA:1197,8
DA:1199,0
DA:1203,0
DA:1204,0
DA:1206,0
DA:1209,0
DA:1211,0
DA:1212,0
DA:1213,0
DA:1215,0
DA:1217,8
DA:1222,16
DA:1224,16
DA:1225,16
DA:1227,16
DA:1228,16
DA:1230,16
DA:1231,16
DA:1233,16
DA:1235,16
DA:1237,16
DA:1238,16
DA:1241,16
DA:1243,8
DA:1247,24
DA:1248,16
DA:1250,80
DA:1252,72
DA:1253,72
DA:1256,8
DA:1258,16
DA:1262,32069
DA:1264,32069
DA:1265,32069
DA:1266,32069
DA:1269,0
DA:1271,0
DA:1272,0
DA:1273,0
DA:1276,32071
DA:1278,32071
DA:1279,32071
DA:1280,32071
DA:1282,0
DA:1285,0
DA:1287,0
DA:1288,0
DA:1289,0
DA:1291,0
DA:1294,16053
DA:1296,16053
DA:1298,16053
DA:1299,16053
DA:1302,16053
DA:1303,16053
DA:1304,16053
DA:1305,16053
DA:1306,16053
DA:1309,288800
DA:1311,272747
DA:1312,272747
DA:1313,224553
DA:1314,48194
DA:1315,16088
DA:1316,32106
DA:1317,16053
DA:1318,16053
DA:1319,16053
DA:1321,0
DA:1326,16053
DA:1327,16053
DA:1328,16053
DA:1329,16053
DA:1330,16053
DA:1332,32141
DA:1334,16088
DA:1335,16088
DA:1336,16088
DA:1338,0
DA:1343,16053
DA:1345,16053
DA:1348,16053
DA:1350,16053
DA:1351,16053
DA:1352,16053
DA:1354,16053
DA:1355,16053
DA:1357,0
DA:1359,0
DA:1361,0
DA:1362,0
DA:1365,0
DA:1366,0
DA:1367,0
DA:1368,0
DA:1369,0
DA:1370,0
DA:1371,0
DA:1372,0
DA:1373,0
DA:1376,0
DA:1378,0
DA:1379,0
DA:1380,0
DA:1381,0
DA:1382,0
DA:1383,0
DA:1384,0
DA:1385,0
DA:1386,0
DA:1387,0
DA:1388,0
DA:1389,0
DA:1390,0
DA:1391,0
DA:1392,0
DA:1394,0
DA:1400,0
DA:1401,0
DA:1402,0
DA:1403,0
DA:1404,0
DA:1405,0
DA:1406,0
DA:1409,0
DA:1411,0
DA:1412,0
DA:1413,0
DA:1414,0
DA:1415,0
DA:1417,0
DA:1422,0
DA:1423,0
DA:1425,0
DA:1428,0
DA:1430,0
DA:1431,0
DA:1432,0
DA:1433,0
DA:1434,0
DA:1435,0
DA:1437,0
DA:1438,0
DA:1443,0
DA:1445,0
DA:1447,0
DA:1450,0
DA:1453,0
DA:1455,0
DA:1458,0
DA:1460,0
DA:1463,0
DA:1464,0
DA:1466,0
DA:1467,0
DA:1469,0
DA:1473,0
DA:1475,0
DA:1478,0
DA:1481,0
DA:1483,0
DA:1486,0
DA:1487,0
DA:1488,0
DA:1489,0
DA:1490,0
DA:1491,0
DA:1492,0
DA:1495,0
DA:1496,0
DA:1497,0
DA:1498,0
DA:1501,0
DA:1504,0
DA:1507,0
DA:1510,0
DA:1513,0
DA:1515,0
DA:1516,0
DA:1519,0
DA:1522,0
DA:1523,0
DA:1526,0
DA:1527,0
DA:1532,0
DA:1534,0
DA:1536,0
DA:1539,0
DA:1540,0
DA:1542,0
DA:1545,0
DA:1546,0
DA:1549,0
DA:1550,0
DA:1551,0
DA:1554,0
DA:1556,0
DA:1557,0
DA:1560,0
DA:1561,0
DA:1563,0
DA:1564,0
DA:1567,0
DA:1568,0
DA:1570,0
DA:1571,0
DA:1573,0
DA:1574,0
DA:1577,0
DA:1578,0
DA:1579,0
DA:1581,0
DA:1584,0
DA:1586,0
DA:1587,0
DA:1590,0
DA:1591,0
DA:1594,0
DA:1596,0
DA:1597,0
DA:1600,0
DA:1602,0
DA:1603,0
DA:1604,0
DA:1605,0
DA:1606,0
DA:1607,0
DA:1609,0
DA:1610,0
DA:1613,0
DA:1614,0
DA:1615,0
DA:1616,0
DA:1619,0
DA:1620,0
DA:1621,0
DA:1622,0
DA:1625,0
DA:1628,0
DA:1629,0
DA:1632,0
DA:1633,0
DA:1636,0
DA:1637,0
DA:1640,0
DA:1641,0
DA:1643,0
DA:1644,0
DA:1647,0
DA:1648,0
DA:1651,0
DA:1652,0
DA:1653,0
DA:1656,0
DA:1657,0
DA:1658,0
DA:1661,0
DA:1662,0
DA:1667,0
DA:1669,0
DA:1671,0
DA:1674,0
DA:1676,0
DA:1678,0
DA:1679,0
DA:1680,0
DA:1681,0
DA:1682,0
DA:1683,0
DA:1684,0
DA:1685,0
DA:1686,0
DA:1688,0
DA:1689,0
DA:1691,0
DA:1693,0
DA:1697,0
DA:1698,0
DA:1701,0
DA:1704,0
DA:1707,0
DA:1708,0
DA:1711,0
DA:1712,0
DA:1715,0
DA:1719,0
DA:1720,0
DA:1721,0
DA:1722,0
DA:1723,0
DA:1724,0
DA:1727,0
DA:1730,0
DA:1731,0
end_of_record
TN:
SF:/workspace/vtr-verilog-to-routing/ODIN_II/SRC/hard_blocks.c
FN:38,_Z14get_model_portP13s_model_portsPKc
FNDA:168,_Z14get_model_portP13s_model_portsPKc
FN:47,_Z22cache_hard_block_namesv
FNDA:17,_Z22cache_hard_block_namesv
FN:61,_Z20register_hard_blocksv
FNDA:17,_Z20register_hard_blocksv
FN:110,_Z22deregister_hard_blocksv
FNDA:17,_Z22deregister_hard_blocksv
FN:116,_Z15find_hard_blockPKc
FNDA:43,_Z15find_hard_blockPKc
FN:130,_Z17define_hard_blockP9nnode_t_tsP8_IO_FILE
FNDA:8,_Z17define_hard_blockP9nnode_t_tsP8_IO_FILE
FN:213,_Z18output_hard_blocksP8_IO_FILE
FNDA:17,_Z18output_hard_blocksP8_IO_FILE
FN:282,_Z22instantiate_hard_blockP9nnode_t_tsP11netlist_t_t
FNDA:8,_Z22instantiate_hard_blockP9nnode_t_tsP11netlist_t_t
FN:306,_Z20hard_block_port_sizeP7s_modelPc
FNDA:0,_Z20hard_block_port_sizeP7s_modelPc
FN:341,_Z25hard_block_port_directionP7s_modelPc
FNDA:0,_Z25hard_block_port_directionP7s_modelPc
DA:38,576
DA:40,576
DA:41,408
DA:43,168
DA:47,17
DA:49,17
DA:51,17
DA:52,17
DA:53,97
DA:55,80
DA:56,80
DA:58,17
DA:61,17
DA:63,17
DA:64,17
DA:65,17
DA:67,17
DA:71,16
DA:73,0
DA:74,0
DA:76,0
DA:77,0
DA:80,16
DA:81,16
DA:82,16
DA:85,17
DA:89,16
DA:91,0
DA:92,0
DA:93,0
DA:94,0
DA:96,0
DA:97,0
DA:98,0
DA:99,0
DA:102,16
DA:103,16
DA:104,16
DA:105,16
DA:106,16
DA:108,17
DA:110,17
DA:112,17
DA:113,17
DA:116,43
DA:120,43
DA:121,150
DA:122,148
DA:123,41
DA:125,107
DA:127,2
DA:130,8
DA:138,8
DA:139,8
DA:142,8
DA:143,0
DA:145,8
DA:146,8
DA:147,8
DA:150,8
DA:151,144
DA:154,136
DA:156,0
DA:157,0
DA:160,136
DA:161,24
DA:164,112
DA:165,0
DA:167,112
DA:170,136
DA:172,72
DA:173,72
DA:175,136
DA:177,136
DA:178,136
DA:180,32
DA:181,32
DA:186,8
DA:187,16
DA:189,8
DA:190,0
DA:192,8
DA:194,8
DA:196,8
DA:197,8
DA:199,8
DA:201,8
DA:202,8
DA:204,8
DA:205,8
DA:209,8
DA:210,8
DA:213,17
DA:221,17
DA:222,17
DA:223,97
DA:225,80
DA:228,1
DA:230,0
DA:231,0
DA:234,1
DA:235,1
DA:236,1
DA:237,5
DA:239,21
DA:241,17
DA:242,3
DA:244,14
DA:246,17
DA:247,1
DA:249,16
DA:251,4
DA:254,1
DA:255,1
DA:256,2
DA:258,2
DA:260,1
DA:261,1
DA:263,0
DA:265,1
DA:266,0
DA:268,1
DA:270,1
DA:273,1
DA:275,80
DA:278,34
DA:282,8
DA:286,8
DA:288,16
DA:290,8
DA:291,0
DA:293,8
DA:294,8
DA:296,8
DA:297,8
DA:301,8
DA:302,8
DA:306,0
DA:310,0
DA:311,0
DA:317,0
DA:318,0
DA:320,0
DA:323,0
DA:324,0
DA:325,0
DA:326,0
DA:328,0
DA:330,0
DA:331,0
DA:332,0
DA:333,0
DA:335,0
DA:337,0
DA:341,0
DA:345,0
DA:346,0
DA:348,0
DA:349,0
DA:350,0
DA:351,0
DA:353,0
DA:355,0
DA:356,0
DA:357,0
DA:358,0
DA:360,0
DA:362,0
end_of_record
TN:
SF:/workspace/vtr-verilog-to-routing/ODIN_II/SRC/string_cache.c
FN:10,_Z11string_hashP12STRING_CACHEPKc
FNDA:914949,_Z11string_hashP12STRING_CACHEPKc
FN:24,_Z16generate_sc_hashP12STRING_CACHE
FNDA:670,_Z16generate_sc_hashP12STRING_CACHE
FN:48,_Z19sc_new_string_cachev
FNDA:514,_Z19sc_new_string_cachev
FN:67,_Z16sc_lookup_stringP12STRING_CACHEPKc
FNDA:605990,_Z16sc_lookup_stringP12STRING_CACHEPKc
FN:89,_Z13sc_add_stringP12STRING_CACHEPKc
FNDA:168707,_Z13sc_add_stringP12STRING_CACHEPKc
FN:128,_Z11sc_valid_idP12STRING_CACHEl
FNDA:0,_Z11sc_valid_idP12STRING_CACHEl
FN:139,_Z11sc_do_allocll
FNDA:3194,_Z11sc_do_allocll
FN:160,_Z20sc_free_string_cacheP12STRING_CACHE
FNDA:267,_Z20sc_free_string_cacheP12STRING_CACHE
DA:10,914949
DA:15,914949
DA:16,914949
DA:17,914949
DA:18,37753400
DA:19,36838400
DA:20,914949
DA:24,670
DA:29,670
DA:30,156
DA:31,670
DA:32,156
DA:33,670
DA:34,670
DA:35,670
DA:36,670
DA:37,670
DA:38,186000
DA:40,185330
DA:41,185330
DA:42,185330
DA:44,670
DA:48,514
DA:52,514
DA:53,514
DA:54,514
DA:55,514
DA:56,514
DA:57,514
DA:58,514
DA:59,514
DA:60,514
DA:61,514
DA:62,514
DA:63,514
DA:67,605990
DA:72,605990
DA:73,13997
DA:76,591993
DA:77,591993
DA:78,696655
DA:80,465491
DA:81,360829
DA:82,104662
DA:84,231164
DA:89,168707
DA:96,168707
DA:97,168707
DA:98,31081
DA:99,137626
DA:101,156
DA:103,156
DA:104,156
DA:105,156
DA:106,156
DA:107,156
DA:109,156
DA:110,156
DA:111,156
DA:112,156
DA:113,156
DA:115,156
DA:117,137626
DA:118,137626
DA:119,137626
DA:120,137626
DA:121,137626
DA:122,137626
DA:123,137626
DA:124,137626
DA:128,0
DA:131,0
DA:132,0
DA:133,0
DA:134,0
DA:135,0
DA:139,3194
DA:144,3194
DA:145,0
DA:146,3194
DA:147,0
DA:148,3194
DA:149,3194
DA:151,0
DA:154,0
DA:155,0
DA:157,3194
DA:160,267
DA:164,267
DA:165,16625
DA:166,16358
DA:167,16358
DA:168,267
DA:169,267
DA:170,267
DA:173,267
DA:175,267
DA:177,267
DA:178,267
DA:180,267
DA:182,267
DA:183,267
DA:185,267
DA:186,267
DA:187,267
end_of_record
TN:
SF:/workspace/vtr-verilog-to-routing/ODIN_II/SRC/odin_util.c
FN:40,_Z16make_signal_namePci
FNDA:8,_Z16make_signal_namePci
FN:60,_Z18make_full_ref_namePKcPcS1_S0_l
FNDA:594212,_Z18make_full_ref_namePKcPcS1_S0_l
FN:114,_Z15twos_complementPc
FNDA:0,_Z15twos_complementPc
FN:142,_Z37convert_string_of_radix_to_bit_stringPcii
FNDA:0,_Z37convert_string_of_radix_to_bit_stringPcii
FN:171,_Z31convert_long_long_to_bit_stringxi
FNDA:30384,_Z31convert_long_long_to_bit_stringxi
FN:192,_Z39convert_dec_string_of_size_to_long_longPci
FNDA:18348,_Z39convert_dec_string_of_size_to_long_longPci
FN:205,_Z36convert_string_of_radix_to_long_longPci
FNDA:0,_Z36convert_string_of_radix_to_long_longPci
FN:223,_Z18is_string_of_radixPci
FNDA:0,_Z18is_string_of_radixPci
FN:241,_Z40convert_hex_string_of_size_to_bit_stringsPci
FNDA:23,_Z40convert_hex_string_of_size_to_bit_stringsPci
FN:347,_Z40convert_oct_string_of_size_to_bit_stringPci
FNDA:1,_Z40convert_oct_string_of_size_to_bit_stringPci
FN:400,_Z43convert_binary_string_of_size_to_bit_stringsPci
FNDA:3630,_Z43convert_binary_string_of_size_to_bit_stringsPci
FN:435,_Z13is_hex_stringPc
FNDA:23,_Z13is_hex_stringPc
FN:448,_Z19is_dont_care_stringPc
FNDA:23,_Z19is_dont_care_stringPc
FN:461,_Z17is_decimal_stringPc
FNDA:18348,_Z17is_decimal_stringPc
FN:474,_Z15is_octal_stringPc
FNDA:1,_Z15is_octal_stringPc
FN:487,_Z16is_binary_stringPc
FNDA:3630,_Z16is_binary_stringPc
FN:503,_Z12get_pin_namePc
FNDA:6479,_Z12get_pin_namePc
FN:516,_Z13get_port_namePc
FNDA:4291,_Z13get_port_namePc
FN:533,_Z14get_pin_numberPc
FNDA:2151,_Z14get_pin_numberPc
FN:551,_Z8my_powerxx
FNDA:772498,_Z8my_powerxx
FN:567,_Z23make_string_based_on_idP9nnode_t_t
FNDA:0,_Z23make_string_based_on_idP9nnode_t_t
FN:579,_Z16make_simple_namePcPKcc
FNDA:0,_Z16make_simple_namePcPKcc
FN:609,_Z16my_malloc_structm
FNDA:920922,_Z16my_malloc_structm
FN:635,_Z4pow2i
FNDA:0,_Z4pow2i
FN:651,_Z15string_to_upperPc
FNDA:0,_Z15string_to_upperPc
FN:666,_Z15string_to_lowerPc
FNDA:0,_Z15string_to_lowerPc
FN:685,_Z13append_stringPKcS0_z
FNDA:1905,_Z13append_stringPKcS0_z
FN:706,_Z14reverse_stringPci
FNDA:269964,_Z14reverse_stringPci
DA:40,8
DA:44,8
DA:45,8
DA:46,8
DA:48,0
DA:49,0
DA:50,0
DA:51,0
DA:60,594212
DA:64,594212
DA:66,384358
DA:70,209854
DA:71,209854
DA:74,594212
DA:76,16293
DA:78,16293
DA:80,16293
DA:82,16293
DA:86,16293
DA:88,594212
DA:90,383660
DA:91,383660
DA:92,383660
DA:94,210552
DA:96,209854
DA:97,209854
DA:99,594212
DA:101,353283
DA:102,353283
DA:103,353283
DA:106,594212
DA:107,594212
DA:114,0
DA:116,0
DA:118,0
DA:120,0
DA:122,0
DA:123,0
DA:125,0
DA:126,0
DA:128,0
DA:142,0
DA:144,0
DA:146,0
DA:148,0
DA:150,0
DA:151,0
DA:153,0
DA:155,0
DA:157,0
DA:159,0
DA:163,0
DA:171,30384
DA:174,30384
DA:175,30384
DA:177,125307
DA:179,94923
DA:180,56785
DA:181,94923
DA:183,30384
DA:185,30384
DA:192,18348
DA:194,18348
DA:195,0
DA:197,18348
DA:198,18348
DA:199,18348
DA:200,0
DA:202,18348
DA:205,0
DA:207,0
DA:208,0
DA:211,0
DA:212,0
DA:213,0
DA:220,0
DA:223,0
DA:225,0
DA:226,0
DA:227,0
DA:228,0
DA:229,0
DA:230,0
DA:231,0
DA:232,0
DA:234,0
DA:241,23
DA:243,23
DA:244,23
DA:245,23
DA:246,0
DA:248,23
DA:249,23
DA:250,23
DA:253,23
DA:255,23
DA:257,81
DA:259,58
DA:261,58
DA:263,290
DA:265,232
DA:266,232
DA:267,232
DA:268,232
DA:269,232
DA:272,23
DA:275,683
DA:277,660
DA:278,660
DA:279,660
DA:283,23
DA:285,23
DA:287,23
DA:288,23
DA:291,0
DA:292,0
DA:293,0
DA:294,0
DA:295,0
DA:297,0
DA:303,0
DA:307,0
DA:308,0
DA:309,0
DA:313,0
DA:315,0
DA:317,0
DA:318,0
DA:319,0
DA:322,0
DA:324,0
DA:326,0
DA:327,0
DA:340,23
DA:347,1
DA:349,1
DA:350,0
DA:352,1
DA:353,1
DA:354,1
DA:357,1
DA:359,1
DA:361,7
DA:363,6
DA:365,6
DA:367,24
DA:369,18
DA:370,18
DA:371,18
DA:372,18
DA:373,18
DA:376,1
DA:379,37
DA:381,36
DA:382,36
DA:383,36
DA:387,1
DA:389,1
DA:391,1
DA:392,1
DA:393,1
DA:400,3630
DA:402,3630
DA:403,0
DA:405,3630
DA:406,3630
DA:409,3630
DA:412,3630
DA:415,3681
DA:417,51
DA:418,51
DA:419,51
DA:423,3630
DA:425,3630
DA:427,3630
DA:428,3630
DA:429,3630
DA:435,23
DA:438,81
DA:439,58
DA:440,0
DA:442,23
DA:448,23
DA:451,23
DA:452,23
DA:456,0
DA:461,18348
DA:464,45940
DA:465,27592
DA:466,0
DA:468,18348
DA:474,1
DA:477,7
DA:478,6
DA:479,0
DA:481,1
DA:487,3630
DA:490,22959
DA:491,19329
DA:492,0
DA:494,3630
DA:503,6479
DA:505,6479
DA:506,6479
DA:508,0
DA:516,4291
DA:519,4291
DA:521,4291
DA:522,4291
DA:523,4228
DA:524,4291
DA:533,2151
DA:536,2151
DA:537,2151
DA:540,2151
DA:541,37
DA:543,2151
DA:544,2151
DA:551,772498
DA:553,772498
DA:554,192696
DA:556,579802
DA:558,1137940
DA:559,558140
DA:561,579802
DA:567,0
DA:569,0
DA:571,0
DA:573,0
DA:579,0
DA:583,0
DA:584,0
DA:586,0
DA:588,0
DA:590,0
DA:591,0
DA:593,0
DA:595,0
DA:596,0
DA:601,0
DA:603,0
DA:609,920922
DA:611,920922
DA:617,920922
DA:618,920922
DA:620,0
DA:621,0
DA:625,920922
DA:627,920922
DA:629,920922
DA:635,0
DA:638,0
DA:640,0
DA:642,0
DA:645,0
DA:651,0
DA:653,0
DA:656,0
DA:658,0
DA:661,0
DA:666,0
DA:668,0
DA:671,0
DA:673,0
DA:676,0
DA:685,1905
DA:691,1905
DA:692,1905
DA:693,1905
DA:696,1905
DA:697,1905
DA:698,1905
DA:699,1905
DA:706,269964
DA:708,269964
DA:709,269964
DA:710,672835
DA:712,402871
DA:713,402871
DA:714,402871
DA:716,269964
end_of_record
TN:
SF:/workspace/vtr-verilog-to-routing/ODIN_II/SRC/netlist_stats.c
FN:39,_Z13netlist_statsP11netlist_t_tPcS1_
FNDA:0,_Z13netlist_statsP11netlist_t_tPcS1_
FN:80,_Z22display_per_node_statsP8_IO_FILEP11netlist_t_t
FNDA:0,_Z22display_per_node_statsP8_IO_FILEP11netlist_t_t
FN:143,_Z18display_node_statsP8_IO_FILEP9nnode_t_t
FNDA:0,_Z18display_node_statsP8_IO_FILEP9nnode_t_t
FN:152,_Z20calculate_avg_fanoutP11netlist_t_t
FNDA:0,_Z20calculate_avg_fanoutP11netlist_t_t
FN:230,_Z19calculate_avg_faninP11netlist_t_t
FNDA:0,_Z19calculate_avg_faninP11netlist_t_t
FN:281,_Z30calculate_combinational_shapesP11netlist_t_t
FNDA:0,_Z30calculate_combinational_shapesP11netlist_t_t
FN:307,_Z26depth_first_traverse_statsP8_IO_FILEsP11netlist_t_t
FNDA:0,_Z26depth_first_traverse_statsP8_IO_FILEsP11netlist_t_t
FN:329,_Z39depth_first_traversal_graphcrunch_statsP9nnode_t_tP8_IO_FILEi
FNDA:0,_Z39depth_first_traversal_graphcrunch_statsP9nnode_t_tP8_IO_FILEi
FN:396,_Z25num_fanouts_on_output_pinP9nnode_t_ti
FNDA:0,_Z25num_fanouts_on_output_pinP9nnode_t_ti
FN:423,_Z19add_to_distributionPPiS_i
FNDA:0,_Z19add_to_distributionPPiS_i
DA:39,0
DA:45,0
DA:46,0
DA:49,0
DA:50,0
DA:51,0
DA:52,0
DA:53,0
DA:56,0
DA:57,0
DA:58,0
DA:59,0
DA:60,0
DA:63,0
DA:65,0
DA:67,0
DA:70,0
DA:72,0
DA:74,0
DA:75,0
DA:80,0
DA:85,0
DA:86,0
DA:87,0
DA:90,0
DA:91,0
DA:92,0
DA:96,0
DA:97,0
DA:98,0
DA:100,0
DA:105,0
DA:106,0
DA:107,0
DA:109,0
DA:114,0
DA:115,0
DA:116,0
DA:118,0
DA:123,0
DA:124,0
DA:125,0
DA:127,0
DA:132,0
DA:133,0
DA:134,0
DA:136,0
DA:138,0
DA:143,0
DA:145,0
DA:146,0
DA:147,0
DA:152,0
DA:155,0
DA:157,0
DA:165,0
DA:167,0
DA:168,0
DA:170,0
DA:172,0
DA:173,0
DA:175,0
DA:176,0
DA:177,0
DA:187,0
DA:189,0
DA:191,0
DA:192,0
DA:194,0
DA:195,0
DA:196,0
DA:203,0
DA:205,0
DA:207,0
DA:208,0
DA:210,0
DA:211,0
DA:212,0
DA:221,0
DA:222,0
DA:223,0
DA:224,0
DA:225,0
DA:230,0
DA:233,0
DA:244,0
DA:245,0
DA:247,0
DA:252,0
DA:253,0
DA:255,0
DA:260,0
DA:262,0
DA:264,0
DA:271,0
DA:272,0
DA:273,0
DA:281,0
DA:285,0
DA:286,0
DA:289,0
DA:291,0
DA:292,0
DA:297,0
DA:300,0
DA:302,0
DA:307,0
DA:312,0
DA:314,0
DA:316,0
DA:320,0
DA:321,0
DA:322,0
DA:323,0
DA:324,0
DA:329,0
DA:335,0
DA:337,0
DA:346,0
DA:348,0
DA:350,0
DA:351,0
DA:353,0
DA:354,0
DA:356,0
DA:357,0
DA:359,0
DA:360,0
DA:361,0
DA:365,0
DA:366,0
DA:368,0
DA:371,0
DA:372,0
DA:374,0
DA:377,0
DA:378,0
DA:381,0
DA:383,0
DA:384,0
DA:387,0
DA:396,0
DA:399,0
DA:402,0
DA:403,0
DA:405,0
DA:406,0
DA:408,0
DA:409,0
DA:411,0
DA:412,0
DA:414,0
DA:417,0
DA:423,0
DA:425,0
DA:428,0
DA:432,0
DA:433,0
DA:434,0
DA:436,0
end_of_record
TN:
SF:/workspace/vtr-verilog-to-routing/ODIN_II/SRC/netlist_utils.c
FN:40,_Z14allocate_nnodev
FNDA:203491,_Z14allocate_nnodev
FN:96,_Z10free_nnodeP9nnode_t_t
FNDA:89,_Z10free_nnodeP9nnode_t_t
FN:149,_Z24allocate_more_input_pinsP9nnode_t_ti
FNDA:214974,_Z24allocate_more_input_pinsP9nnode_t_ti
FN:171,_Z25allocate_more_output_pinsP9nnode_t_ti
FNDA:154034,_Z25allocate_more_output_pinsP9nnode_t_ti
FN:192,_Z27add_output_port_informationP9nnode_t_ti
FNDA:112832,_Z27add_output_port_informationP9nnode_t_ti
FN:202,_Z26add_input_port_informationP9nnode_t_ti
FNDA:205433,_Z26add_input_port_informationP9nnode_t_ti
FN:212,_Z13allocate_npinv
FNDA:520252,_Z13allocate_npinv
FN:239,_Z16copy_output_npinP8npin_t_t
FNDA:0,_Z16copy_output_npinP8npin_t_t
FN:256,_Z15copy_input_npinP8npin_t_t
FNDA:119399,_Z15copy_input_npinP8npin_t_t
FN:277,_Z9free_npinP8npin_t_t
FNDA:1912,_Z9free_npinP8npin_t_t
FN:287,_Z13allocate_nnetv
FNDA:196511,_Z13allocate_nnetv
FN:312,_Z9free_nnetP8nnet_t_t
FNDA:51824,_Z9free_nnetP8nnet_t_t
FN:323,_Z15move_output_pinP9nnode_t_tii
FNDA:0,_Z15move_output_pinP9nnode_t_tii
FN:343,_Z14move_input_pinP9nnode_t_tii
FNDA:16,_Z14move_input_pinP9nnode_t_tii
FN:363,_Z21add_input_pin_to_nodeP9nnode_t_tP8npin_t_ti
FNDA:518312,_Z21add_input_pin_to_nodeP9nnode_t_tP8npin_t_ti
FN:379,_Z21add_fanout_pin_to_netP8nnet_t_tP8npin_t_t
FNDA:547392,_Z21add_fanout_pin_to_netP8nnet_t_tP8npin_t_t
FN:397,_Z22add_output_pin_to_nodeP9nnode_t_tP8npin_t_ti
FNDA:192939,_Z22add_output_pin_to_nodeP9nnode_t_tP8npin_t_ti
FN:413,_Z21add_driver_pin_to_netP8nnet_t_tP8npin_t_t
FNDA:162190,_Z21add_driver_pin_to_netP8nnet_t_tP8npin_t_t
FN:431,_Z12combine_netsP8nnet_t_tS0_P11netlist_t_t
FNDA:51824,_Z12combine_netsP8nnet_t_tS0_P11netlist_t_t
FN:467,_Z9join_netsP8nnet_t_tS0_
FNDA:95340,_Z9join_netsP8nnet_t_tS0_
FN:495,_Z20remap_pin_to_new_netP8npin_t_tP8nnet_t_t
FNDA:0,_Z20remap_pin_to_new_netP8npin_t_tP8nnet_t_t
FN:516,_Z21remap_pin_to_new_nodeP8npin_t_tP9nnode_t_ti
FNDA:208045,_Z21remap_pin_to_new_nodeP8npin_t_tP9nnode_t_ti
FN:536,_Z13connect_nodesP9nnode_t_tiS0_i
FNDA:34691,_Z13connect_nodesP9nnode_t_tiS0_i
FN:576,_Z16init_signal_listv
FNDA:136745,_Z16init_signal_listv
FN:593,_Z22add_pin_to_signal_listP15signal_list_t_tP8npin_t_t
FNDA:557321,_Z22add_pin_to_signal_listP15signal_list_t_tP8npin_t_t
FN:603,_Z13combine_listsPP15signal_list_t_ti
FNDA:447,_Z13combine_listsPP15signal_list_t_ti
FN:621,_Z39combine_lists_without_freeing_originalsPP15signal_list_t_ti
FNDA:1530,_Z39combine_lists_without_freeing_originalsPP15signal_list_t_ti
FN:638,_Z18copy_input_signalsP15signal_list_t_t
FNDA:0,_Z18copy_input_signalsP15signal_list_t_t
FN:652,_Z19copy_output_signalsP15signal_list_t_t
FNDA:0,_Z19copy_output_signalsP15signal_list_t_t
FN:670,_ZL20compare_npin_t_namesPKvS0_
FNDA:298598,_ZL20compare_npin_t_namesPKvS0_
FN:677,_Z31sort_signal_list_alphabeticallyP15signal_list_t_t
FNDA:4054,_Z31sort_signal_list_alphabeticallyP15signal_list_t_t
FN:687,_Z34make_output_pins_for_existing_nodeP9nnode_t_ti
FNDA:2032,_Z34make_output_pins_for_existing_nodeP9nnode_t_ti
FN:720,_Z16free_signal_listP15signal_list_t_t
FNDA:128928,_Z16free_signal_listP15signal_list_t_t
FN:737,_Z34hookup_input_pins_from_signal_listP9nnode_t_tiP15signal_list_t_tiiP11netlist_t_t
FNDA:8869,_Z34hookup_input_pins_from_signal_listP9nnode_t_tiP15signal_list_t_tiiP11netlist_t_t
FN:766,_Z37hookup_hb_input_pins_from_signal_listP9nnode_t_tiP15signal_list_t_tiiP11netlist_t_t
FNDA:4,_Z37hookup_hb_input_pins_from_signal_listP9nnode_t_tiP15signal_list_t_tiiP11netlist_t_t
FN:792,_Z35hookup_output_pins_from_signal_listP9nnode_t_tiP15signal_list_t_tii
FNDA:0,_Z35hookup_output_pins_from_signal_listP9nnode_t_tiP15signal_list_t_tii
FN:821,_Z22count_nodes_in_netlistP11netlist_t_t
FNDA:0,_Z22count_nodes_in_netlistP11netlist_t_t
FN:844,_Z20depth_traverse_countP9nnode_t_tPii
FNDA:0,_Z20depth_traverse_countP9nnode_t_tPii
FN:886,_Z16allocate_netlistv
FNDA:18,_Z16allocate_netlistv
FN:935,_Z12free_netlistP11netlist_t_t
FNDA:0,_Z12free_netlistP11netlist_t_t
FN:945,_Z19add_node_to_netlistP11netlist_t_tP9nnode_t_ts
FNDA:0,_Z19add_node_to_netlistP11netlist_t_tP9nnode_t_ts
FN:998,_Z15mark_clock_nodeP11netlist_t_tPc
FNDA:0,_Z15mark_clock_nodeP11netlist_t_tPc
FN:1027,_Z33get_output_pin_index_from_mappingP9nnode_t_tPKc
FNDA:8,_Z33get_output_pin_index_from_mappingP9nnode_t_tPKc
FN:1044,_Z34get_output_port_index_from_mappingP9nnode_t_tPKc
FNDA:8,_Z34get_output_port_index_from_mappingP9nnode_t_tPKc
FN:1064,_Z32get_input_pin_index_from_mappingP9nnode_t_tPKc
FNDA:16,_Z32get_input_pin_index_from_mappingP9nnode_t_tPKc
FN:1081,_Z33get_input_port_index_from_mappingP9nnode_t_tPKc
FNDA:17,_Z33get_input_port_index_from_mappingP9nnode_t_tPKc
FN:1098,_Z19allocate_chain_infov
FNDA:650,_Z19allocate_chain_infov
FN:1110,_Z27remove_fanout_pins_from_netP8nnet_t_tP8npin_t_ti
FNDA:26,_Z27remove_fanout_pins_from_netP8nnet_t_tP8npin_t_ti
DA:40,203491
DA:43,203491
DA:45,203491
DA:46,203491
DA:47,203491
DA:48,203491
DA:49,203491
DA:51,203491
DA:52,203491
DA:53,203491
DA:54,203491
DA:56,203491
DA:57,203491
DA:58,203491
DA:59,203491
DA:61,203491
DA:62,203491
DA:64,203491
DA:65,203491
DA:66,203491
DA:67,203491
DA:69,203491
DA:71,203491
DA:73,203491
DA:74,203491
DA:76,203491
DA:77,203491
DA:79,203491
DA:81,203491
DA:82,203491
DA:84,203491
DA:86,203491
DA:87,203491
DA:90,203491
DA:96,89
DA:100,89
DA:104,1354
DA:106,1265
DA:108,1250
DA:109,1250
DA:112,89
DA:114,89
DA:115,89
DA:118,785
DA:120,696
DA:122,662
DA:123,662
DA:126,89
DA:128,89
DA:129,89
DA:132,89
DA:133,63
DA:134,89
DA:135,63
DA:137,89
DA:138,0
DA:141,89
DA:143,89
DA:149,214974
DA:153,214974
DA:155,0
DA:156,0
DA:159,214974
DA:160,720011
DA:162,505037
DA:164,214974
DA:171,154034
DA:175,154034
DA:177,0
DA:178,0
DA:181,154034
DA:182,333938
DA:184,179904
DA:186,154034
DA:192,112832
DA:194,112832
DA:195,112832
DA:196,112832
DA:197,112832
DA:202,205433
DA:204,205433
DA:205,205433
DA:206,205433
DA:207,205433
DA:212,520252
DA:215,520252
DA:217,520252
DA:218,520252
DA:219,520252
DA:220,520252
DA:221,520252
DA:222,520252
DA:223,520252
DA:225,520252
DA:226,520252
DA:228,520252
DA:230,520252
DA:231,520252
DA:233,520252
DA:239,0
DA:241,0
DA:242,0
DA:244,0
DA:245,0
DA:246,0
DA:247,0
DA:248,0
DA:249,0
DA:256,119399
DA:258,119399
DA:259,119399
DA:261,119399
DA:262,119399
DA:263,119399
DA:264,119399
DA:265,119399
DA:267,119399
DA:270,119399
DA:277,1912
DA:279,1912
DA:280,1912
DA:282,1912
DA:287,196511
DA:291,196511
DA:293,196511
DA:294,196511
DA:295,196511
DA:296,196511
DA:297,196511
DA:299,196511
DA:300,196511
DA:302,196511
DA:303,196511
DA:305,196511
DA:312,51824
DA:314,51824
DA:316,51824
DA:318,51824
DA:323,0
DA:327,0
DA:328,0
DA:329,0
DA:331,0
DA:332,0
DA:333,0
DA:335,0
DA:336,0
DA:337,0
DA:338,0
DA:343,16
DA:347,16
DA:348,16
DA:349,16
DA:351,16
DA:352,16
DA:353,16
DA:355,16
DA:356,16
DA:357,16
DA:358,16
DA:363,518312
DA:365,518312
DA:366,518312
DA:367,518312
DA:369,518312
DA:371,518312
DA:372,518312
DA:373,518312
DA:374,518312
DA:379,547392
DA:381,547392
DA:382,547392
DA:383,547392
DA:385,547392
DA:386,547392
DA:387,547392
DA:389,547392
DA:390,547392
DA:391,547392
DA:392,547392
DA:397,192939
DA:399,192939
DA:400,192939
DA:401,192939
DA:403,192939
DA:405,192939
DA:406,192939
DA:407,192939
DA:408,192939
DA:413,162190
DA:415,162190
DA:416,162190
DA:417,162190
DA:419,162190
DA:421,162190
DA:422,162190
DA:423,162190
DA:431,51824
DA:435,51824
DA:438,27877
DA:441,51824
DA:443,51824
DA:446,51824
DA:447,51824
DA:450,51824
DA:452,0
DA:454,51824
DA:456,0
DA:460,51824
DA:461,51824
DA:467,95340
DA:469,95340
DA:471,0
DA:472,0
DA:474,0
DA:475,0
DA:476,0
DA:478,0
DA:483,281931
DA:485,186591
DA:487,163458
DA:490,95340
DA:495,0
DA:497,0
DA:500,0
DA:502,0
DA:504,0
DA:507,0
DA:509,0
DA:511,0
DA:516,208045
DA:518,208045
DA:520,150151
DA:522,150151
DA:524,57894
DA:526,57894
DA:528,57894
DA:530,208045
DA:536,34691
DA:540,34691
DA:541,34691
DA:543,34691
DA:546,34691
DA:548,34691
DA:553,27508
DA:554,27508
DA:557,27508
DA:559,27508
DA:561,27508
DA:567,7183
DA:569,34691
DA:576,136745
DA:579,136745
DA:581,136745
DA:582,136745
DA:583,136745
DA:584,136745
DA:586,136745
DA:593,557321
DA:595,557321
DA:596,557321
DA:597,557321
DA:598,557321
DA:603,447
DA:606,1398
DA:609,19933
DA:610,18982
DA:612,951
DA:615,447
DA:621,1530
DA:623,1530
DA:626,4881
DA:629,48175
DA:630,44824
DA:633,1530
DA:638,0
DA:640,0
DA:642,0
DA:644,0
DA:645,0
DA:646,0
DA:648,0
DA:652,0
DA:654,0
DA:656,0
DA:658,0
DA:659,0
DA:661,0
DA:670,298598
DA:672,298598
DA:673,298598
DA:674,298598
DA:677,4054
DA:679,4054
DA:680,4054
DA:687,2032
DA:689,2032
DA:692,2032
DA:694,4064
DA:699,2032
DA:700,2032
DA:701,2032
DA:702,2032
DA:704,2032
DA:706,2032
DA:708,2032
DA:711,2032
DA:714,2032
DA:720,128928
DA:722,128928
DA:723,1
DA:725,128927
DA:726,124836
DA:728,128927
DA:730,128927
DA:737,8869
DA:741,57186
DA:743,48317
DA:745,47953
DA:746,47953
DA:747,47953
DA:753,364
DA:755,364
DA:756,0
DA:759,8869
DA:766,4
DA:770,19
DA:772,15
DA:774,15
DA:775,15
DA:780,0
DA:782,0
DA:783,0
DA:786,4
DA:792,0
DA:797,0
DA:799,0
DA:802,0
DA:804,0
DA:807,0
DA:811,0
DA:815,0
DA:821,0
DA:824,0
DA:827,0
DA:828,0
DA:829,0
DA:832,0
DA:833,0
DA:834,0
DA:838,0
DA:844,0
DA:850,0
DA:852,0
DA:857,0
DA:860,0
DA:862,0
DA:864,0
DA:865,0
DA:867,0
DA:868,0
DA:870,0
DA:871,0
DA:872,0
DA:873,0
DA:874,0
DA:877,0
DA:886,18
DA:890,18
DA:892,18
DA:893,18
DA:894,18
DA:895,18
DA:896,18
DA:897,18
DA:898,18
DA:899,18
DA:900,18
DA:901,18
DA:902,18
DA:903,18
DA:904,18
DA:905,18
DA:906,18
DA:907,18
DA:909,18
DA:910,18
DA:911,18
DA:912,18
DA:913,18
DA:914,18
DA:915,18
DA:916,18
DA:917,18
DA:918,18
DA:919,18
DA:920,18
DA:923,18
DA:924,18
DA:925,18
DA:927,18
DA:929,18
DA:935,0
DA:937,0
DA:938,0
DA:939,0
DA:940,0
DA:945,0
DA:952,0
DA:953,0
DA:954,0
DA:956,0
DA:959,0
DA:963,0
DA:964,0
DA:965,0
DA:967,0
DA:970,0
DA:971,0
DA:972,0
DA:974,0
DA:976,0
DA:977,0
DA:978,0
DA:980,0
DA:982,0
DA:983,0
DA:984,0
DA:988,0
DA:989,0
DA:990,0
DA:992,0
DA:998,0
DA:1008,0
DA:1010,0
DA:1012,0
DA:1013,0
DA:1015,0
DA:1016,0
DA:1017,0
DA:1020,0
DA:1021,0
DA:1027,8
DA:1030,8
DA:1032,8
DA:1033,8
DA:1034,8
DA:1037,0
DA:1044,8
DA:1047,8
DA:1048,8
DA:1051,8
DA:1053,8
DA:1054,8
DA:1055,8
DA:1058,0
DA:1064,16
DA:1067,80
DA:1069,80
DA:1070,80
DA:1071,16
DA:1074,0
DA:1081,17
DA:1084,17
DA:1085,52
DA:1088,123
DA:1090,88
DA:1091,88
DA:1092,17
DA:1095,0
DA:1098,650
DA:1102,650
DA:1104,650
DA:1105,650
DA:1107,650
DA:1110,26
DA:1114,44169
DA:1116,44143
DA:1117,44143
DA:1118,44143
DA:1120,26
DA:1121,26
DA:1122,26
end_of_record
TN:
SF:/workspace/vtr-verilog-to-routing/ODIN_II/SRC/node_creation_library.c
FN:40,_Z11get_pad_pinP11netlist_t_t
FNDA:72,_Z11get_pad_pinP11netlist_t_t
FN:52,_Z12get_zero_pinP11netlist_t_t
FNDA:3555,_Z12get_zero_pinP11netlist_t_t
FN:64,_Z11get_one_pinP11netlist_t_t
FNDA:0,_Z11get_one_pinP11netlist_t_t
FN:77,_Z24make_not_gate_with_inputP8npin_t_tP9nnode_t_ts
FNDA:9334,_Z24make_not_gate_with_inputP8npin_t_tP9nnode_t_ts
FN:94,_Z13make_not_gateP9nnode_t_ts
FNDA:9503,_Z13make_not_gateP9nnode_t_ts
FN:115,_Z15make_1port_gate14operation_listiiP9nnode_t_ts
FNDA:3908,_Z15make_1port_gate14operation_listiiP9nnode_t_ts
FN:138,_Z21make_1port_logic_gate14operation_listiP9nnode_t_ts
FNDA:3842,_Z21make_1port_logic_gate14operation_listiP9nnode_t_ts
FN:149,_Z33make_1port_logic_gate_with_inputs14operation_listiP15signal_list_t_tP9nnode_t_ts
FNDA:2,_Z33make_1port_logic_gate_with_inputs14operation_listiP15signal_list_t_tP9nnode_t_ts
FN:169,_Z15make_3port_gate14operation_listiiiiP9nnode_t_ts
FNDA:4283,_Z15make_3port_gate14operation_listiiiiP9nnode_t_ts
FN:196,_Z15make_2port_gate14operation_listiiiP9nnode_t_ts
FNDA:37539,_Z15make_2port_gate14operation_listiiiP9nnode_t_ts
FN:220,_Z15make_nport_gate14operation_listiiiP9nnode_t_ts
FNDA:9925,_Z15make_nport_gate14operation_listiiiP9nnode_t_ts
FN:290,_Z21node_name_based_on_opP9nnode_t_t
FNDA:112248,_Z21node_name_based_on_opP9nnode_t_t
FN:434,_Z14hard_node_nameP9nnode_t_tPcS1_S1_
FNDA:1,_Z14hard_node_nameP9nnode_t_tPcS1_S1_
FN:450,_Z9node_nameP9nnode_t_tPc
FNDA:112248,_Z9node_nameP9nnode_t_tPc
FN:468,_Z15make_mult_blockP9nnode_t_ts
FNDA:0,_Z15make_mult_blockP9nnode_t_ts
DA:40,72
DA:42,72
DA:43,72
DA:44,72
DA:45,72
DA:52,3555
DA:54,3555
DA:55,3555
DA:56,3555
DA:57,3555
DA:64,0
DA:66,0
DA:67,0
DA:68,0
DA:69,0
DA:77,9334
DA:81,9334
DA:84,9334
DA:86,9334
DA:94,9503
DA:98,9503
DA:99,9503
DA:100,9503
DA:101,9503
DA:102,9503
DA:104,9503
DA:105,9503
DA:107,9503
DA:115,3908
DA:119,3908
DA:120,3908
DA:121,3908
DA:122,3908
DA:123,3908
DA:126,3908
DA:127,3908
DA:129,3908
DA:130,3908
DA:132,3908
DA:138,3842
DA:140,3842
DA:142,3842
DA:149,2
DA:154,2
DA:157,28
DA:159,26
DA:162,2
DA:169,4283
DA:171,4283
DA:172,4283
DA:173,4283
DA:174,4283
DA:175,4283
DA:178,4283
DA:179,4283
DA:180,4283
DA:181,4283
DA:182,4283
DA:183,4283
DA:185,4283
DA:186,4283
DA:188,4283
DA:196,37539
DA:198,37539
DA:199,37539
DA:200,37539
DA:201,37539
DA:202,37539
DA:205,37539
DA:206,37539
DA:207,37539
DA:208,37539
DA:210,37539
DA:211,37539
DA:213,37539
DA:220,9925
DA:223,9925
DA:224,9925
DA:225,9925
DA:226,9925
DA:227,9925
DA:230,29775
DA:231,19850
DA:232,19850
DA:237,9925
DA:238,9925
DA:240,9925
DA:290,112248
DA:294,112248
DA:296,2045
DA:297,2045
DA:298,2045
DA:299,0
DA:300,0
DA:301,0
DA:302,40528
DA:303,40528
DA:304,40528
DA:305,0
DA:306,0
DA:307,0
DA:308,0
DA:309,0
DA:310,0
DA:311,0
DA:312,0
DA:313,0
DA:314,0
DA:315,0
DA:316,0
DA:317,0
DA:318,0
DA:319,0
DA:320,269
DA:321,269
DA:322,269
DA:323,444
DA:324,444
DA:325,444
DA:326,158
DA:327,158
DA:328,158
DA:329,121
DA:330,121
DA:331,121
DA:332,536
DA:333,536
DA:334,536
DA:335,1
DA:336,1
DA:337,1
DA:338,2
DA:339,2
DA:340,2
DA:341,1
DA:342,1
DA:343,1
DA:344,558
DA:345,558
DA:346,558
DA:347,9559
DA:348,9559
DA:349,9559
DA:350,5324
DA:351,5324
DA:352,5324
DA:353,2407
DA:354,2407
DA:355,2407
DA:356,6
DA:357,6
DA:358,6
DA:359,4
DA:360,4
DA:361,4
DA:362,4843
DA:363,4843
DA:364,4843
DA:365,7409
DA:366,7409
DA:367,7409
DA:368,99
DA:369,99
DA:370,99
DA:371,0
DA:372,0
DA:373,0
DA:374,0
DA:375,0
DA:376,0
DA:377,326
DA:378,326
DA:379,326
DA:380,4328
DA:381,4328
DA:382,4328
DA:383,2189
DA:384,2189
DA:385,2189
DA:386,1
DA:387,1
DA:388,1
DA:389,39
DA:390,39
DA:391,39
DA:392,13
DA:393,13
DA:394,13
DA:395,64
DA:396,64
DA:397,64
DA:398,0
DA:399,0
DA:400,0
DA:401,0
DA:402,0
DA:403,0
DA:404,0
DA:405,0
DA:406,0
DA:407,3
DA:408,3
DA:409,3
DA:410,3
DA:411,3
DA:412,3
DA:413,30968
DA:414,30968
DA:415,30968
DA:416,0
DA:417,0
DA:418,0
DA:419,0
DA:420,0
DA:421,0
DA:422,0
DA:423,0
DA:424,0
DA:425,0
DA:427,112248
DA:434,1
DA:439,1
DA:441,1
DA:443,1
DA:450,112248
DA:455,112248
DA:459,112248
DA:461,112248
DA:468,0
DA:472,0
DA:473,0
DA:474,0
DA:475,0
DA:476,0
DA:477,0
DA:478,0
DA:479,0
DA:480,0
DA:482,0
DA:483,0
DA:485,0
end_of_record
TN:
SF:/workspace/vtr-verilog-to-routing/ODIN_II/SRC/errors.c
FN:36,_Z13error_messagesiiPKcz
FNDA:1,_Z13error_messagesiiPKcz
FN:63,_Z15warning_messagesiiPKcz
FNDA:1,_Z15warning_messagesiiPKcz
DA:36,1
DA:40,1
DA:42,1
DA:43,1
DA:44,0
DA:45,1
DA:46,0
DA:47,1
DA:49,1
DA:50,1
DA:51,1
DA:52,1
DA:55,1
DA:57,1
DA:63,1
DA:68,1
DA:70,1
DA:71,1
DA:72,1
DA:75,1
DA:76,1
DA:77,0
DA:78,1
DA:79,0
DA:80,1
DA:81,1
DA:83,1
DA:84,1
DA:85,1
DA:88,1
DA:89,1
end_of_record
TN:
SF:/workspace/vtr-verilog-to-routing/ODIN_II/SRC/partial_map.c
FN:67,_Z15partial_map_topP11netlist_t_t
FNDA:17,_Z15partial_map_topP11netlist_t_t
FN:80,_Z36depth_first_traversal_to_partial_mapsP11netlist_t_t
FNDA:17,_Z36depth_first_traversal_to_partial_mapsP11netlist_t_t
FN:101,_Z32depth_first_traverse_parital_mapP9nnode_t_tiP11netlist_t_t
FNDA:422415,_Z32depth_first_traverse_parital_mapP9nnode_t_tiP11netlist_t_t
FN:146,_Z16partial_map_nodeP9nnode_t_tsP11netlist_t_t
FNDA:71531,_Z16partial_map_nodeP9nnode_t_tsP11netlist_t_t
FN:330,_Z26instantiate_soft_logic_ramP9nnode_t_tsP11netlist_t_t
FNDA:0,_Z26instantiate_soft_logic_ramP9nnode_t_tsP11netlist_t_t
FN:345,_Z26instantiate_multi_port_muxP9nnode_t_tsP11netlist_t_t
FNDA:2045,_Z26instantiate_multi_port_muxP9nnode_t_tsP11netlist_t_t
FN:394,_Z21instantiate_not_logicP9nnode_t_tsP11netlist_t_t
FNDA:158,_Z21instantiate_not_logicP9nnode_t_tsP11netlist_t_t
FN:422,_Z18instantiate_bufferP9nnode_t_tsP11netlist_t_t
FNDA:40528,_Z18instantiate_bufferP9nnode_t_tsP11netlist_t_t
FN:443,_Z25instantiate_logical_logicP9nnode_t_t14operation_listsP11netlist_t_t
FNDA:243,_Z25instantiate_logical_logicP9nnode_t_t14operation_listsP11netlist_t_t
FN:506,_Z29instantiate_bitwise_reductionP9nnode_t_t14operation_listsP11netlist_t_t
FNDA:494,_Z29instantiate_bitwise_reductionP9nnode_t_t14operation_listsP11netlist_t_t
FN:575,_Z25instantiate_bitwise_logicP9nnode_t_t14operation_listsP11netlist_t_t
FNDA:3292,_Z25instantiate_bitwise_logicP9nnode_t_t14operation_listsP11netlist_t_t
FN:663,_Z23instantiate_add_w_carryP9nnode_t_tsP11netlist_t_t
FNDA:1,_Z23instantiate_add_w_carryP9nnode_t_tsP11netlist_t_t
FN:786,_Z23instantiate_sub_w_carryP9nnode_t_tsP11netlist_t_t
FNDA:0,_Z23instantiate_sub_w_carryP9nnode_t_tsP11netlist_t_t
FN:917,_Z21instantiate_unary_subP9nnode_t_tsP11netlist_t_t
FNDA:0,_Z21instantiate_unary_subP9nnode_t_tsP11netlist_t_t
FN:1027,_Z17instantiate_EQUALP9nnode_t_tssP11netlist_t_t
FNDA:2190,_Z17instantiate_EQUALP9nnode_t_tssP11netlist_t_t
FN:1113,_Z14instantiate_GTP9nnode_t_tssP11netlist_t_t
FNDA:377,_Z14instantiate_GTP9nnode_t_tssP11netlist_t_t
FN:1263,_Z14instantiate_GEP9nnode_t_tssP11netlist_t_t
FNDA:52,_Z14instantiate_GEP9nnode_t_tssP11netlist_t_t
FN:1344,_Z31instantiate_shift_left_or_rightP9nnode_t_tssP11netlist_t_t
FNDA:64,_Z31instantiate_shift_left_or_rightP9nnode_t_tssP11netlist_t_t
DA:67,17
DA:70,17
DA:73,17
DA:75,17
DA:80,17
DA:85,1451
DA:87,1434
DA:89,1434
DA:93,17
DA:94,17
DA:95,17
DA:96,17
DA:101,422415
DA:107,422415
DA:109,350884
DA:116,71531
DA:118,189172
DA:120,117641
DA:121,1893
DA:123,115748
DA:124,595541
DA:126,479793
DA:127,2744
DA:129,477049
DA:130,477049
DA:131,56119
DA:134,420930
DA:139,71531
DA:146,71531
DA:148,71531
DA:150,158
DA:151,158
DA:152,158
DA:153,40464
DA:154,40464
DA:155,40464
DA:157,733
DA:163,733
DA:165,725
DA:167,8
DA:169,8
DA:172,0
DA:173,733
DA:175,245
DA:181,245
DA:183,243
DA:185,245
DA:187,9364
DA:189,9364
DA:191,985
DA:193,985
DA:196,984
DA:197,984
DA:199,0
DA:203,1
DA:204,985
DA:205,2007
DA:207,2007
DA:209,2007
DA:211,2007
DA:212,2007
DA:213,2007
DA:215,0
DA:217,0
DA:219,0
DA:221,0
DA:223,0
DA:226,0
DA:231,0
DA:233,0
DA:235,0
DA:237,0
DA:240,0
DA:243,2007
DA:244,2138
DA:246,2138
DA:247,2138
DA:248,52
DA:250,52
DA:251,52
DA:252,325
DA:254,325
DA:255,325
DA:256,64
DA:258,64
DA:259,64
DA:260,2045
DA:261,2045
DA:262,2045
DA:263,99
DA:265,99
DA:267,99
DA:268,99
DA:272,0
DA:273,99
DA:275,8
DA:278,8
DA:279,8
DA:280,8
DA:282,8
DA:283,8
DA:286,8
DA:288,8
DA:292,0
DA:293,0
DA:298,0
DA:301,8
DA:303,0
DA:305,0
DA:307,0
DA:308,12844
DA:319,12844
DA:320,0
DA:325,0
DA:326,0
DA:328,71531
DA:330,0
DA:332,0
DA:333,0
DA:334,0
DA:335,0
DA:337,0
DA:338,0
DA:345,2045
DA:354,2045
DA:355,2045
DA:356,2045
DA:358,2045
DA:359,33013
DA:361,30968
DA:364,33013
DA:366,30968
DA:368,6426
DA:371,4381
DA:373,4381
DA:378,126160
DA:381,97237
DA:383,97237
DA:387,30968
DA:389,2045
DA:394,158
DA:396,158
DA:400,158
DA:402,327
DA:404,169
DA:408,327
DA:411,169
DA:412,169
DA:415,158
DA:416,158
DA:422,40528
DA:424,40528
DA:428,83736
DA:430,43208
DA:433,43208
DA:436,43208
DA:438,40528
DA:443,243
DA:453,243
DA:454,243
DA:455,243
DA:457,243
DA:458,243
DA:459,243
DA:462,243
DA:463,243
DA:464,243
DA:467,486
DA:470,243
DA:472,243
DA:477,0
DA:480,486
DA:483,243
DA:485,243
DA:490,0
DA:494,243
DA:495,243
DA:497,243
DA:498,243
DA:500,243
DA:501,243
DA:506,494
DA:513,494
DA:514,494
DA:515,494
DA:517,494
DA:519,494
DA:521,1
DA:523,1
DA:524,1
DA:525,492
DA:527,492
DA:528,492
DA:529,0
DA:531,0
DA:532,0
DA:533,1
DA:535,1
DA:536,1
DA:537,0
DA:539,0
DA:540,0
DA:541,0
DA:543,0
DA:544,0
DA:545,0
DA:546,0
DA:547,0
DA:548,0
DA:551,494
DA:554,1116
DA:557,622
DA:559,622
DA:564,0
DA:568,494
DA:569,494
DA:575,3292
DA:585,3292
DA:586,3292
DA:587,3292
DA:589,3292
DA:590,9876
DA:591,6584
DA:593,3292
DA:595,3292
DA:597,120
DA:598,120
DA:599,120
DA:600,44
DA:601,44
DA:602,44
DA:603,1
DA:604,1
DA:605,1
DA:606,1
DA:607,1
DA:608,1
DA:609,2190
DA:610,2190
DA:611,2190
DA:612,936
DA:613,936
DA:614,936
DA:615,0
DA:616,0
DA:617,0
DA:618,0
DA:620,3292
DA:621,13217
DA:624,9925
DA:628,13217
DA:631,29775
DA:632,19850
DA:633,19850
DA:634,59550
DA:635,39700
DA:636,19850
DA:637,0
DA:641,19850
DA:643,19850
DA:646,0
DA:651,9925
DA:654,3292
DA:655,3292
DA:663,1
DA:672,1
DA:674,1
DA:675,1
DA:677,0
DA:678,1
DA:679,1
DA:681,1
DA:682,1
DA:685,4
DA:687,3
DA:689,3
DA:694,1
DA:696,1
DA:697,1
DA:699,1
DA:704,0
DA:705,0
DA:707,0
DA:713,4
DA:715,3
DA:718,2
DA:719,2
DA:720,2
DA:724,1
DA:725,1
DA:726,0
DA:729,3
DA:732,2
DA:733,2
DA:734,2
DA:738,1
DA:739,1
DA:740,0
DA:744,3
DA:745,3
DA:748,0
DA:750,0
DA:751,0
DA:754,0
DA:755,0
DA:759,0
DA:760,0
DA:763,0
DA:764,0
DA:770,3
DA:772,2
DA:773,2
DA:774,1
DA:777,1
DA:778,1
DA:779,1
DA:786,0
DA:796,0
DA:797,0
DA:798,0
DA:799,0
DA:800,0
DA:802,0
DA:803,0
DA:804,0
DA:807,0
DA:809,0
DA:810,0
DA:811,0
DA:813,0
DA:818,0
DA:819,0
DA:821,0
DA:825,0
DA:827,0
DA:830,0
DA:831,0
DA:832,0
DA:836,0
DA:837,0
DA:838,0
DA:841,0
DA:844,0
DA:848,0
DA:854,0
DA:856,0
DA:857,0
DA:859,0
DA:860,0
DA:864,0
DA:866,0
DA:867,0
DA:869,0
DA:870,0
DA:874,0
DA:876,0
DA:880,0
DA:882,0
DA:883,0
DA:884,0
DA:886,0
DA:888,0
DA:889,0
DA:890,0
DA:893,0
DA:897,0
DA:901,0
DA:903,0
DA:904,0
DA:905,0
DA:908,0
DA:909,0
DA:910,0
DA:911,0
DA:917,0
DA:925,0
DA:926,0
DA:927,0
DA:929,0
DA:930,0
DA:931,0
DA:934,0
DA:936,0
DA:937,0
DA:938,0
DA:940,0
DA:945,0
DA:946,0
DA:948,0
DA:952,0
DA:955,0
DA:958,0
DA:960,0
DA:961,0
DA:963,0
DA:964,0
DA:968,0
DA:970,0
DA:971,0
DA:973,0
DA:974,0
DA:978,0
DA:981,0
DA:985,0
DA:987,0
DA:988,0
DA:989,0
DA:991,0
DA:993,0
DA:994,0
DA:995,0
DA:998,0
DA:1001,0
DA:1002,0
DA:1003,0
DA:1006,0
DA:1010,0
DA:1012,0
DA:1013,0
DA:1014,0
DA:1017,0
DA:1018,0
DA:1019,0
DA:1020,0
DA:1027,2190
DA:1037,2190
DA:1038,2190
DA:1039,2190
DA:1040,2190
DA:1041,2190
DA:1042,2190
DA:1043,2190
DA:1046,2190
DA:1048,2189
DA:1049,2189
DA:1053,1
DA:1054,1
DA:1060,7410
DA:1063,5220
DA:1065,5220
DA:1068,5220
DA:1073,0
DA:1077,5220
DA:1079,5220
DA:1083,5220
DA:1088,0
DA:1093,5220
DA:1097,2190
DA:1099,2190
DA:1100,2189
DA:1102,1
DA:1105,2190
DA:1106,2190
DA:1113,377
DA:1123,377
DA:1129,377
DA:1130,377
DA:1131,377
DA:1132,377
DA:1133,377
DA:1134,377
DA:1135,377
DA:1138,377
DA:1140,51
DA:1141,51
DA:1142,51
DA:1143,51
DA:1145,326
DA:1147,326
DA:1148,326
DA:1149,326
DA:1150,326
DA:1154,0
DA:1155,0
DA:1156,0
DA:1157,0
DA:1158,0
DA:1162,377
DA:1164,377
DA:1166,377
DA:1168,377
DA:1170,4654
DA:1172,4277
DA:1173,4277
DA:1175,3900
DA:1180,4654
DA:1183,4277
DA:1186,4277
DA:1187,4277
DA:1188,3900
DA:1193,0
DA:1194,0
DA:1195,0
DA:1198,4277
DA:1202,4277
DA:1203,4277
DA:1204,3900
DA:1209,0
DA:1210,0
DA:1211,0
DA:1214,4277
DA:1217,3900
DA:1220,3523
DA:1225,377
DA:1229,3900
DA:1230,3900
DA:1236,377
DA:1240,4277
DA:1242,4277
DA:1244,3900
DA:1249,377
DA:1250,377
DA:1252,377
DA:1253,377
DA:1254,377
DA:1255,377
DA:1256,377
DA:1263,52
DA:1275,52
DA:1276,52
DA:1277,52
DA:1278,52
DA:1279,52
DA:1280,52
DA:1281,52
DA:1282,52
DA:1284,52
DA:1285,52
DA:1288,52
DA:1290,52
DA:1291,39
DA:1293,52
DA:1296,718
DA:1299,666
DA:1302,666
DA:1303,666
DA:1308,0
DA:1309,0
DA:1312,666
DA:1316,666
DA:1317,666
DA:1322,0
DA:1323,0
DA:1326,52
DA:1327,52
DA:1330,52
DA:1331,52
DA:1334,52
DA:1336,52
DA:1337,39
DA:1338,52
DA:1344,64
DA:1352,64
DA:1354,64
DA:1357,64
DA:1361,0
DA:1362,0
DA:1365,64
DA:1367,64
DA:1372,0
DA:1375,0
DA:1379,0
DA:1382,0
DA:1385,0
DA:1388,0
DA:1389,0
DA:1397,2744
DA:1400,2680
DA:1404,128
DA:1407,64
DA:1409,128
DA:1412,64
DA:1413,64
DA:1417,2808
DA:1419,2744
DA:1422,64
DA:1423,64
end_of_record
TN:
SF:/workspace/vtr-verilog-to-routing/ODIN_II/SRC/multipliers.c
FN:63,_Z34instantiate_simple_soft_multiplierP9nnode_t_tsP11netlist_t_t
FNDA:0,_Z34instantiate_simple_soft_multiplierP9nnode_t_tsP11netlist_t_t
FN:246,_Z22init_mult_distributionv
FNDA:16,_Z22init_mult_distributionv
FN:261,_Z24record_mult_distributionP9nnode_t_t
FNDA:99,_Z24record_mult_distributionP9nnode_t_t
FN:278,_Z24report_mult_distributionv
FNDA:17,_Z24report_mult_distributionv
FN:307,_Z21find_hard_multipliersv
FNDA:17,_Z21find_hard_multipliersv
FN:330,_Z23declare_hard_multiplierP9nnode_t_t
FNDA:99,_Z23declare_hard_multiplierP9nnode_t_t
FN:371,_Z27instantiate_hard_multiplierP9nnode_t_tsP11netlist_t_t
FNDA:99,_Z27instantiate_hard_multiplierP9nnode_t_tsP11netlist_t_t
FN:414,_Z26add_the_blackbox_for_multsP8_IO_FILE
FNDA:17,_Z26add_the_blackbox_for_multsP8_IO_FILE
FN:495,_Z20define_mult_functionP9nnode_t_tsP8_IO_FILE
FNDA:99,_Z20define_mult_functionP9nnode_t_tsP8_IO_FILE
FN:590,_Z21init_split_multiplierP9nnode_t_tS0_iiii
FNDA:0,_Z21init_split_multiplierP9nnode_t_tS0_iiii
FN:638,_Z18init_cascade_adderP9nnode_t_tS0_i
FNDA:0,_Z18init_cascade_adderP9nnode_t_tS0_i
FN:702,_Z16split_multiplierP9nnode_t_tiiii
FNDA:0,_Z16split_multiplierP9nnode_t_tiiii
FN:808,_Z18split_multiplier_aP9nnode_t_tiii
FNDA:0,_Z18split_multiplier_aP9nnode_t_tiii
FN:884,_Z18split_multiplier_bP9nnode_t_tiii
FNDA:0,_Z18split_multiplier_bP9nnode_t_tiii
FN:951,_Z14pad_multiplierP9nnode_t_tP11netlist_t_t
FNDA:0,_Z14pad_multiplierP9nnode_t_tP11netlist_t_t
FN:1067,_Z19iterate_multipliersP11netlist_t_t
FNDA:17,_Z19iterate_multipliersP11netlist_t_t
FN:1153,_Z17clean_multipliersv
FNDA:17,_Z17clean_multipliersv
DA:63,0
DA:80,0
DA:81,0
DA:82,0
DA:83,0
DA:84,0
DA:85,0
DA:86,0
DA:87,0
DA:88,0
DA:90,0
DA:91,0
DA:93,0
DA:96,0
DA:99,0
DA:102,0
DA:104,0
DA:106,0
DA:109,0
DA:112,0
DA:117,0
DA:119,0
DA:122,0
DA:125,0
DA:130,0
DA:134,0
DA:137,0
DA:142,0
DA:148,0
DA:150,0
DA:153,0
DA:156,0
DA:159,0
DA:164,0
DA:167,0
DA:170,0
DA:174,0
DA:177,0
DA:180,0
DA:184,0
DA:189,0
DA:191,0
DA:193,0
DA:196,0
DA:198,0
DA:201,0
DA:203,0
DA:206,0
DA:211,0
DA:212,0
DA:217,0
DA:219,0
DA:223,0
DA:225,0
DA:228,0
DA:231,0
DA:233,0
DA:236,0
DA:238,0
DA:240,0
DA:246,16
DA:250,16
DA:251,16
DA:252,608
DA:253,22496
DA:254,21904
DA:255,16
DA:261,99
DA:265,99
DA:266,99
DA:268,99
DA:269,99
DA:271,99
DA:272,99
DA:278,17
DA:281,17
DA:283,17
DA:284,1
DA:286,16
DA:287,16
DA:288,608
DA:290,21904
DA:292,21312
DA:294,17
DA:295,17
DA:299,16
DA:300,16
DA:301,16
DA:307,17
DA:309,17
DA:310,17
DA:311,81
DA:313,80
DA:315,16
DA:316,16
DA:320,64
DA:324,1
DA:330,99
DA:336,99
DA:338,0
DA:340,99
DA:341,99
DA:342,99
DA:343,99
DA:344,99
DA:346,26
DA:347,26
DA:348,26
DA:350,117
DA:352,100
DA:353,82
DA:355,18
DA:359,17
DA:360,17
DA:361,17
DA:362,17
DA:363,17
DA:364,17
DA:365,17
DA:371,99
DA:376,99
DA:379,99
DA:380,99
DA:381,99
DA:384,99
DA:385,4
DA:387,95
DA:389,99
DA:390,0
DA:393,3380
DA:395,3281
DA:397,0
DA:399,3281
DA:400,3281
DA:401,3281
DA:402,3281
DA:404,99
DA:405,99
DA:406,99
DA:407,99
DA:414,17
DA:425,17
DA:426,8
DA:429,16
DA:430,16
DA:431,16
DA:432,16
DA:433,16
DA:436,16
DA:437,16
DA:438,7
DA:441,26
DA:444,17
DA:445,0
DA:447,17
DA:450,17
DA:451,17
DA:452,672
DA:454,655
DA:456,382
DA:460,273
DA:463,655
DA:464,45
DA:466,610
DA:468,17
DA:471,17
DA:472,672
DA:474,655
DA:475,655
DA:477,60
DA:478,60
DA:481,595
DA:483,17
DA:484,17
DA:485,17
DA:486,17
DA:488,17
DA:495,99
DA:501,99
DA:502,99
DA:503,99
DA:504,99
DA:505,99
DA:507,99
DA:509,99
DA:511,0
DA:515,99
DA:517,8
DA:518,4
DA:520,4
DA:524,190
DA:525,95
DA:527,95
DA:531,3380
DA:533,3281
DA:535,1729
DA:536,1729
DA:537,132
DA:539,1729
DA:540,1560
DA:542,169
DA:546,1552
DA:547,1552
DA:548,68
DA:550,1552
DA:551,1552
DA:552,68
DA:554,1552
DA:555,1520
DA:557,32
DA:560,3281
DA:562,1262
DA:563,1262
DA:565,3281
DA:569,3380
DA:571,3281
DA:572,3281
DA:574,2494
DA:575,2494
DA:577,3281
DA:580,99
DA:581,198
DA:590,0
DA:595,0
DA:596,0
DA:597,0
DA:598,0
DA:601,0
DA:602,0
DA:603,0
DA:604,0
DA:605,0
DA:606,0
DA:607,0
DA:610,0
DA:611,0
DA:612,0
DA:614,0
DA:615,0
DA:617,0
DA:619,0
DA:620,0
DA:624,0
DA:625,0
DA:626,0
DA:627,0
DA:629,0
DA:638,0
DA:642,0
DA:643,0
DA:644,0
DA:645,0
DA:648,0
DA:649,0
DA:652,0
DA:653,0
DA:654,0
DA:655,0
DA:656,0
DA:657,0
DA:658,0
DA:661,0
DA:662,0
DA:663,0
DA:664,0
DA:665,0
DA:668,0
DA:669,0
DA:670,0
DA:671,0
DA:673,0
DA:674,0
DA:702,0
DA:708,0
DA:709,0
DA:712,0
DA:713,0
DA:714,0
DA:715,0
DA:716,0
DA:717,0
DA:720,0
DA:721,0
DA:722,0
DA:723,0
DA:724,0
DA:725,0
DA:728,0
DA:729,0
DA:730,0
DA:731,0
DA:732,0
DA:733,0
DA:736,0
DA:737,0
DA:738,0
DA:739,0
DA:740,0
DA:741,0
DA:744,0
DA:745,0
DA:746,0
DA:747,0
DA:748,0
DA:751,0
DA:752,0
DA:753,0
DA:754,0
DA:755,0
DA:756,0
DA:759,0
DA:760,0
DA:761,0
DA:762,0
DA:765,0
DA:766,0
DA:767,0
DA:768,0
DA:769,0
DA:770,0
DA:771,0
DA:772,0
DA:775,0
DA:776,0
DA:779,0
DA:780,0
DA:781,0
DA:784,0
DA:785,0
DA:786,0
DA:788,0
DA:808,0
DA:814,0
DA:815,0
DA:818,0
DA:819,0
DA:820,0
DA:821,0
DA:822,0
DA:823,0
DA:826,0
DA:827,0
DA:828,0
DA:829,0
DA:830,0
DA:831,0
DA:834,0
DA:835,0
DA:836,0
DA:837,0
DA:838,0
DA:841,0
DA:842,0
DA:843,0
DA:844,0
DA:845,0
DA:846,0
DA:849,0
DA:850,0
DA:852,0
DA:853,0
DA:856,0
DA:857,0
DA:858,0
DA:861,0
DA:862,0
DA:863,0
DA:864,0
DA:884,0
DA:890,0
DA:891,0
DA:894,0
DA:895,0
DA:896,0
DA:897,0
DA:898,0
DA:899,0
DA:902,0
DA:903,0
DA:904,0
DA:905,0
DA:906,0
DA:907,0
DA:910,0
DA:911,0
DA:912,0
DA:913,0
DA:914,0
DA:917,0
DA:918,0
DA:919,0
DA:920,0
DA:921,0
DA:922,0
DA:925,0
DA:926,0
DA:928,0
DA:929,0
DA:932,0
DA:933,0
DA:934,0
DA:937,0
DA:938,0
DA:939,0
DA:940,0
DA:951,0
DA:961,0
DA:962,0
DA:964,0
DA:965,0
DA:966,0
DA:967,0
DA:970,0
DA:971,0
DA:972,0
DA:974,0
DA:975,0
DA:977,0
DA:978,0
DA:979,0
DA:981,0
DA:983,0
DA:984,0
DA:986,0
DA:987,0
DA:988,0
DA:989,0
DA:990,0
DA:991,0
DA:993,0
DA:994,0
DA:995,0
DA:1001,0
DA:1003,0
DA:1006,0
DA:1008,0
DA:1010,0
DA:1014,0
DA:1016,0
DA:1017,0
DA:1019,0
DA:1022,0
DA:1025,0
DA:1028,0
DA:1030,0
DA:1031,0
DA:1033,0
DA:1036,0
DA:1041,0
DA:1043,0
DA:1044,0
DA:1047,0
DA:1049,0
DA:1050,0
DA:1052,0
DA:1055,0
DA:1067,17
DA:1075,17
DA:1076,1
DA:1078,16
DA:1079,16
DA:1080,16
DA:1082,0
DA:1083,0
DA:1084,0
DA:1087,115
DA:1089,99
DA:1090,99
DA:1092,99
DA:1094,99
DA:1095,0
DA:1097,99
DA:1099,99
DA:1100,99
DA:1101,99
DA:1103,26
DA:1104,26
DA:1105,26
DA:1109,99
DA:1111,0
DA:1112,0
DA:1113,0
DA:1114,0
DA:1115,0
DA:1117,99
DA:1119,0
DA:1120,0
DA:1121,0
DA:1123,99
DA:1125,0
DA:1126,0
DA:1127,0
DA:1129,99
DA:1132,99
DA:1133,0
DA:1140,99
DA:1144,16
DA:1153,17
DA:1155,17
DA:1156,0
DA:1157,17
end_of_record
TN:
SF:/workspace/vtr-verilog-to-routing/ODIN_II/SRC/netlist_visualizer.c
FN:42,_Z21graphVizOutputNetlistPcPKcsP11netlist_t_t
FNDA:0,_Z21graphVizOutputNetlistPcPKcsP11netlist_t_t
FN:64,_Z35depth_first_traversal_graph_displayP8_IO_FILEsP11netlist_t_t
FNDA:0,_Z35depth_first_traversal_graph_displayP8_IO_FILEsP11netlist_t_t
FN:86,_Z30depth_first_traverse_visualizeP9nnode_t_tP8_IO_FILEi
FNDA:0,_Z30depth_first_traverse_visualizeP9nnode_t_tP8_IO_FILEi
FN:180,_Z30graphVizOutputCombinationalNetPcPKcsP9nnode_t_t
FNDA:0,_Z30graphVizOutputCombinationalNetPcPKcsP9nnode_t_t
FN:203,_Z35forward_traversal_net_graph_displayP8_IO_FILEsP9nnode_t_t
FNDA:0,_Z35forward_traversal_net_graph_displayP8_IO_FILEsP9nnode_t_t
FN:305,_Z36backward_traversal_net_graph_displayP8_IO_FILEsP9nnode_t_t
FNDA:0,_Z36backward_traversal_net_graph_displayP8_IO_FILEsP9nnode_t_t
DA:42,0
DA:48,0
DA:49,0
DA:52,0
DA:54,0
DA:57,0
DA:58,0
DA:59,0
DA:64,0
DA:69,0
DA:71,0
DA:73,0
DA:77,0
DA:78,0
DA:79,0
DA:80,0
DA:81,0
DA:86,0
DA:92,0
DA:94,0
DA:103,0
DA:105,0
DA:106,0
DA:108,0
DA:110,0
DA:112,0
DA:114,0
DA:116,0
DA:118,0
DA:120,0
DA:124,0
DA:126,0
DA:128,0
DA:130,0
DA:131,0
DA:134,0
DA:135,0
DA:137,0
DA:138,0
DA:139,0
DA:146,0
DA:147,0
DA:149,0
DA:152,0
DA:153,0
DA:155,0
DA:158,0
DA:159,0
DA:162,0
DA:163,0
DA:164,0
DA:165,0
DA:167,0
DA:168,0
DA:171,0
DA:180,0
DA:186,0
DA:187,0
DA:190,0
DA:192,0
DA:193,0
DA:196,0
DA:197,0
DA:198,0
DA:203,0
DA:207,0
DA:208,0
DA:212,0
DA:213,0
DA:215,0
DA:217,0
DA:220,0
DA:223,0
DA:224,0
DA:226,0
DA:228,0
DA:230,0
DA:232,0
DA:234,0
DA:236,0
DA:238,0
DA:240,0
DA:242,0
DA:246,0
DA:248,0
DA:251,0
DA:253,0
DA:254,0
DA:256,0
DA:258,0
DA:259,0
DA:262,0
DA:264,0
DA:265,0
DA:267,0
DA:268,0
DA:269,0
DA:272,0
DA:273,0
DA:275,0
DA:278,0
DA:279,0
DA:282,0
DA:284,0
DA:285,0
DA:287,0
DA:290,0
DA:291,0
DA:292,0
DA:298,0
DA:300,0
DA:305,0
DA:311,0
DA:312,0
DA:314,0
DA:315,0
DA:317,0
DA:319,0
DA:322,0
DA:325,0
DA:326,0
DA:328,0
DA:330,0
DA:332,0
DA:334,0
DA:336,0
DA:338,0
DA:340,0
DA:342,0
DA:346,0
DA:349,0
DA:352,0
DA:354,0
DA:355,0
DA:357,0
DA:358,0
DA:361,0
DA:363,0
DA:364,0
DA:366,0
DA:367,0
DA:369,0
DA:371,0
DA:372,0
DA:374,0
DA:377,0
DA:378,0
DA:379,0
DA:384,0
DA:386,0
end_of_record
TN:
SF:/workspace/vtr-verilog-to-routing/ODIN_II/SRC/verilog_flex.l
DA:45,550
DA:46,0
DA:47,2706
DA:48,3098
DA:49,392
DA:50,15
DA:51,15
DA:52,0
DA:53,1
DA:54,67
DA:55,66
DA:56,0
DA:57,0
DA:58,661
DA:59,1053
DA:60,407
DA:61,15
DA:62,53
DA:63,53
DA:64,0
DA:65,0
DA:66,1488
DA:67,1488
DA:68,0
DA:69,624
DA:70,624
DA:71,0
DA:72,53
DA:73,53
DA:74,0
DA:75,2
DA:76,2
DA:77,0
DA:78,9
DA:79,265
DA:80,257
DA:81,1
DA:82,550
DA:83,1418
DA:84,868
DA:85,0
DA:86,0
DA:87,0
DA:88,0
DA:89,0
DA:90,0
DA:91,0
DA:92,0
DA:93,2679
DA:94,2679
DA:95,0
DA:96,0
DA:98,16
DA:99,227
DA:100,2369
DA:101,2142
DA:102,13
DA:103,13
DA:104,38
DA:105,1855
DA:106,1818
DA:107,1
DA:108,0
DA:109,0
DA:110,1
DA:111,2
DA:112,3
DA:113,2
DA:114,23444
DA:115,0
DA:116,3654
DA:117,14705
DA:118,11051
DA:119,0
DA:121,48213
DA:124,35264
DA:125,17591
DA:126,17591
DA:127,0
DA:128,0
DA:129,0
DA:130,0
DA:131,0
DA:132,0
DA:133,0
DA:134,0
DA:135,0
DA:136,0
end_of_record
SF:/workspace/vtr-verilog-to-routing/ODIN_II/SRC/verilog_flex.c
FN:870,_Z5yylexv
FNDA:101952,_Z5yylexv
FN:1521,_ZL18yy_get_next_bufferv
FNDA:68,_ZL18yy_get_next_bufferv
FN:1659,_ZL21yy_get_previous_statev
FNDA:51,_ZL21yy_get_previous_statev
FN:1691,_ZL16yy_try_NUL_transi
FNDA:0,_ZL16yy_try_NUL_transi
FN:1716,_ZL7yyunputiPc
FNDA:0,_ZL7yyunputiPc
FN:1757,_ZL7yyinputv
FNDA:0,_ZL7yyinputv
FN:1834,_Z9yyrestartP8_IO_FILE
FNDA:17,_Z9yyrestartP8_IO_FILE
FN:1851,_Z19yy_switch_to_bufferP15yy_buffer_state
FNDA:0,_Z19yy_switch_to_bufferP15yy_buffer_state
FN:1882,_ZL20yy_load_buffer_statev
FNDA:51,_ZL20yy_load_buffer_statev
FN:1896,_Z16yy_create_bufferP8_IO_FILEi
FNDA:17,_Z16yy_create_bufferP8_IO_FILEi
FN:1924,_Z16yy_delete_bufferP15yy_buffer_state
FNDA:0,_Z16yy_delete_bufferP15yy_buffer_state
FN:1943,_ZL14yy_init_bufferP15yy_buffer_stateP8_IO_FILE
FNDA:34,_ZL14yy_init_bufferP15yy_buffer_stateP8_IO_FILE
FN:1971,_Z15yy_flush_bufferP15yy_buffer_state
FNDA:34,_Z15yy_flush_bufferP15yy_buffer_state
FN:2000,_Z19yypush_buffer_stateP15yy_buffer_state
FNDA:0,_Z19yypush_buffer_stateP15yy_buffer_state
FN:2030,_Z18yypop_buffer_statev
FNDA:0,_Z18yypop_buffer_statev
FN:2049,_ZL21yyensure_buffer_stackv
FNDA:17,_ZL21yyensure_buffer_stackv
FN:2098,_Z14yy_scan_bufferPcm
FNDA:0,_Z14yy_scan_bufferPcm
FN:2135,_Z14yy_scan_stringPKc
FNDA:0,_Z14yy_scan_stringPKc
FN:2148,_Z13yy_scan_bytesPKci
FNDA:0,_Z13yy_scan_bytesPKci
FN:2182,_ZL14yy_fatal_errorPKc
FNDA:0,_ZL14yy_fatal_errorPKc
FN:2210,_Z12yyget_linenov
FNDA:0,_Z12yyget_linenov
FN:2219,_Z8yyget_inv
FNDA:0,_Z8yyget_inv
FN:2227,_Z9yyget_outv
FNDA:0,_Z9yyget_outv
FN:2235,_Z10yyget_lengv
FNDA:0,_Z10yyget_lengv
FN:2244,_Z10yyget_textv
FNDA:0,_Z10yyget_textv
FN:2253,_Z12yyset_linenoi
FNDA:0,_Z12yyset_linenoi
FN:2265,_Z8yyset_inP8_IO_FILE
FNDA:0,_Z8yyset_inP8_IO_FILE
FN:2270,_Z9yyset_outP8_IO_FILE
FNDA:0,_Z9yyset_outP8_IO_FILE
FN:2275,_Z11yyget_debugv
FNDA:0,_Z11yyget_debugv
FN:2280,_Z11yyset_debugi
FNDA:0,_Z11yyset_debugi
FN:2285,_ZL15yy_init_globalsv
FNDA:0,_ZL15yy_init_globalsv
FN:2314,_Z13yylex_destroyv
FNDA:0,_Z13yylex_destroyv
FN:2360,_Z7yyallocm
FNDA:51,_Z7yyallocm
FN:2365,_Z9yyreallocPvm
FNDA:0,_Z9yyreallocPvm
FN:2378,_Z6yyfreePv
FNDA:0,_Z6yyfreePv
DA:870,101952
DA:876,101952
DA:878,17
DA:884,17
DA:885,17
DA:887,17
DA:888,0
DA:890,17
DA:891,17
DA:893,17
DA:894,17
DA:895,34
DA:896,17
DA:899,17
DA:912,154873
DA:915,154873
DA:920,154873
DA:922,154873
DA:923,419398
DA:924,264474
DA:926,419398
DA:927,419398
DA:929,260849
DA:930,260849
DA:932,656279
DA:934,236881
DA:935,236881
DA:936,146042
DA:938,419398
DA:939,419398
DA:941,419398
DA:943,154924
DA:944,154924
DA:945,154924
DA:947,90839
DA:948,90839
DA:949,90839
DA:952,154924
DA:954,154941
DA:956,154941
DA:958,0
DA:960,0
DA:961,0
DA:962,0
DA:963,0
DA:965,550
DA:1380,17
DA:1382,17
DA:1384,68
DA:1387,68
DA:1390,68
DA:1393,68
DA:1404,17
DA:1405,17
DA:1406,17
DA:1416,68
DA:1420,0
DA:1422,0
DA:1433,0
DA:1435,0
DA:1437,0
DA:1440,0
DA:1441,0
DA:1442,0
DA:1447,0
DA:1448,0
DA:1452,68
DA:1454,17
DA:1456,17
DA:1469,17
DA:1471,17
DA:1472,17
DA:1483,51
DA:1484,51
DA:1485,51
DA:1487,51
DA:1489,51
DA:1490,51
DA:1491,51
DA:1493,0
DA:1494,0
DA:1495,0
DA:1497,0
DA:1499,0
DA:1500,0
DA:1501,0
DA:1503,0
DA:1506,0
DA:1507,0
DA:1508,52921
DA:1510,52921
DA:1521,68
DA:1523,68
DA:1524,68
DA:1528,68
DA:1529,0
DA:1532,68
DA:1534,0
DA:1539,0
DA:1547,0
DA:1554,68
DA:1556,152
DA:1557,84
DA:1559,68
DA:1563,0
DA:1567,68
DA:1568,68
DA:1570,68
DA:1574,0
DA:1576,0
DA:1577,0
DA:1579,0
DA:1581,0
DA:1583,0
DA:1584,0
DA:1586,0
DA:1588,0
DA:1590,0
DA:1591,0
DA:1595,0
DA:1597,0
DA:1598,0
DA:1601,0
DA:1603,0
DA:1608,68
DA:1609,68
DA:1612,68
DA:1615,68
DA:1618,68
DA:1620,17
DA:1622,17
DA:1623,17
DA:1628,0
DA:1629,0
DA:1635,51
DA:1637,68
DA:1639,0
DA:1640,0
DA:1641,0
DA:1642,0
DA:1643,0
DA:1645,0
DA:1648,68
DA:1649,68
DA:1650,68
DA:1652,68
DA:1654,68
DA:1659,51
DA:1664,51
DA:1666,135
DA:1668,84
DA:1669,84
DA:1671,54
DA:1672,54
DA:1674,125
DA:1676,41
DA:1677,41
DA:1678,41
DA:1680,84
DA:1683,51
DA:1691,0
DA:1694,0
DA:1696,0
DA:1697,0
DA:1699,0
DA:1700,0
DA:1702,0
DA:1704,0
DA:1705,0
DA:1706,0
DA:1708,0
DA:1709,0
DA:1711,0
DA:1716,0
DA:1720,0
DA:1723,0
DA:1725,0
DA:1728,0
DA:1729,0
DA:1730,0
DA:1731,0
DA:1732,0
DA:1734,0
DA:1735,0
DA:1737,0
DA:1738,0
DA:1739,0
DA:1740,0
DA:1742,0
DA:1743,0
DA:1746,0
DA:1748,0
DA:1749,0
DA:1750,0
DA:1751,0
DA:1757,0
DA:1765,0
DA:1767,0
DA:1773,0
DA:1775,0
DA:1779,0
DA:1780,0
DA:1782,0
DA:1784,0
DA:1796,0
DA:1800,0
DA:1803,0
DA:1814,0
DA:1815,0
DA:1816,0
DA:1821,0
DA:1822,0
DA:1823,0
DA:1825,0
DA:1834,17
DA:1837,17
DA:1838,0
DA:1839,0
DA:1840,0
DA:1843,17
DA:1844,17
DA:1845,17
DA:1851,0
DA:1859,0
DA:1860,0
DA:1861,0
DA:1863,0
DA:1866,0
DA:1867,0
DA:1868,0
DA:1871,0
DA:1872,0
DA:1879,0
DA:1882,51
DA:1884,51
DA:1885,51
DA:1886,51
DA:1887,51
DA:1888,51
DA:1896,17
DA:1900,17
DA:1901,17
DA:1902,0
DA:1904,17
DA:1909,17
DA:1910,17
DA:1911,0
DA:1913,17
DA:1915,17
DA:1917,17
DA:1924,0
DA:1927,0
DA:1928,0
DA:1930,0
DA:1931,0
DA:1933,0
DA:1934,0
DA:1936,0
DA:1943,34
DA:1946,34
DA:1948,34
DA:1950,34
DA:1951,34
DA:1957,34
DA:1958,17
DA:1959,17
DA:1962,34
DA:1964,34
DA:1965,34
DA:1971,34
DA:1973,34
DA:1974,0
DA:1976,34
DA:1982,34
DA:1983,34
DA:1985,34
DA:1987,34
DA:1988,34
DA:1990,34
DA:1991,17
DA:2000,0
DA:2002,0
DA:2003,0
DA:2005,0
DA:2008,0
DA:2011,0
DA:2012,0
DA:2013,0
DA:2017,0
DA:2018,0
DA:2019,0
DA:2022,0
DA:2023,0
DA:2030,0
DA:2032,0
DA:2033,0
DA:2035,0
DA:2036,0
DA:2037,0
DA:2038,0
DA:2040,0
DA:2041,0
DA:2042,0
DA:2049,17
DA:2053,17
DA:2059,17
DA:2060,17
DA:2061,17
DA:2063,17
DA:2064,0
DA:2066,17
DA:2068,17
DA:2069,17
DA:2070,17
DA:2073,0
DA:2076,0
DA:2078,0
DA:2079,0
DA:2080,0
DA:2083,0
DA:2084,0
DA:2087,0
DA:2088,0
DA:2098,0
DA:2102,0
DA:2103,0
DA:2104,0
DA:2106,0
DA:2108,0
DA:2109,0
DA:2110,0
DA:2112,0
DA:2113,0
DA:2114,0
DA:2115,0
DA:2116,0
DA:2117,0
DA:2118,0
DA:2119,0
DA:2120,0
DA:2122,0
DA:2124,0
DA:2135,0
DA:2138,0
DA:2148,0
DA:2156,0
DA:2157,0
DA:2158,0
DA:2159,0
DA:2161,0
DA:2162,0
DA:2164,0
DA:2166,0
DA:2167,0
DA:2168,0
DA:2173,0
DA:2175,0
DA:2182,0
DA:2184,0
DA:2185,0
DA:2210,0
DA:2213,0
DA:2219,0
DA:2221,0
DA:2227,0
DA:2229,0
DA:2235,0
DA:2237,0
DA:2244,0
DA:2246,0
DA:2253,0
DA:2256,0
DA:2257,0
DA:2265,0
DA:2267,0
DA:2268,0
DA:2270,0
DA:2272,0
DA:2273,0
DA:2275,0
DA:2277,0
DA:2280,0
DA:2282,0
DA:2283,0
DA:2285,0
DA:2291,0
DA:2292,0
DA:2293,0
DA:2294,0
DA:2295,0
DA:2296,0
DA:2303,0
DA:2304,0
DA:2310,0
DA:2314,0
DA:2318,0
DA:2319,0
DA:2320,0
DA:2321,0
DA:2325,0
DA:2326,0
DA:2330,0
DA:2332,0
DA:2360,51
DA:2362,51
DA:2365,0
DA:2375,0
DA:2378,0
DA:2380,0
DA:2381,0
end_of_record
TN:
SF:/workspace/vtr-verilog-to-routing/ODIN_II/SRC/verilog_bison.y
FN:47,_Z7yyerrorPKc
FNDA:0,_Z7yyerrorPKc
FN:54,_Z6yywrapv
FNDA:0,_Z6yywrapv
DA:47,0
DA:49,0
DA:50,0
DA:54,0
DA:56,0
DA:126,17
DA:130,36
DA:132,36
DA:136,0
DA:139,0
DA:140,17
DA:141,0
DA:144,0
DA:147,53
DA:148,0
DA:149,0
DA:152,7672
DA:153,53
DA:156,1
DA:157,624
DA:158,256
DA:159,0
DA:160,3547
DA:161,0
DA:162,2706
DA:163,0
DA:164,41
DA:165,0
DA:166,0
DA:167,550
DA:168,0
DA:169,0
DA:173,0
DA:177,0
DA:181,0
DA:184,0
DA:185,0
DA:188,0
DA:189,0
DA:190,0
DA:191,0
DA:192,0
DA:193,0
DA:194,0
DA:197,0
DA:200,1
DA:203,0
DA:206,624
DA:209,256
DA:212,0
DA:215,2679
DA:216,868
DA:218,0
DA:220,0
DA:222,0
DA:223,0
DA:225,991
DA:226,0
DA:227,4481
DA:230,0
DA:231,0
DA:233,1986
DA:234,3474
DA:235,0
DA:237,0
DA:239,12
DA:242,0
DA:244,0
DA:247,0
DA:250,2706
DA:252,0
DA:253,2706
DA:257,0
DA:258,0
DA:259,0
DA:260,0
DA:261,0
DA:262,0
DA:263,0
DA:267,0
DA:268,0
DA:270,0
DA:271,0
DA:273,0
DA:274,0
DA:278,0
DA:279,0
DA:284,0
DA:285,0
DA:289,41
DA:294,0
DA:295,41
DA:298,0
DA:303,0
DA:305,41
DA:306,0
DA:307,0
DA:308,0
DA:310,0
DA:311,0
DA:313,712
DA:314,41
DA:317,51
DA:318,702
DA:321,0
DA:322,0
DA:325,0
DA:326,0
DA:330,550
DA:333,0
DA:334,392
DA:335,200
DA:336,2103
DA:337,827
DA:338,661
DA:339,15
DA:340,0
DA:341,0
DA:342,0
DA:345,0
DA:346,0
DA:349,0
DA:351,2906
DA:352,0
DA:355,2103
DA:356,0
DA:359,0
DA:360,306
DA:361,15
DA:364,320
DA:365,1
DA:368,392
DA:371,786
DA:372,392
DA:375,550
DA:376,0
DA:380,9
DA:381,550
DA:384,7
DA:385,550
DA:386,2
DA:389,28297
DA:390,0
DA:391,7
DA:392,158
DA:393,1
DA:394,6
DA:395,0
DA:396,1
DA:397,0
DA:398,29
DA:399,0
DA:400,558
DA:401,96
DA:402,0
DA:403,0
DA:404,330
DA:405,530
DA:406,120
DA:407,44
DA:408,1
DA:409,1
DA:410,1
DA:411,287
DA:412,38
DA:413,38
DA:414,0
DA:415,1817
DA:416,1
DA:417,39
DA:418,13
DA:419,0
DA:420,0
DA:421,227
DA:422,16
DA:423,515
DA:424,0
DA:425,721
DA:429,0
DA:430,0
DA:433,14705
DA:434,13552
DA:435,3518
DA:436,164
DA:437,1386
DA:440,3345
DA:441,1386
end_of_record
SF:/workspace/vtr-verilog-to-routing/ODIN_II/SRC/verilog_bison.c
FN:1413,_ZL21yy_symbol_value_printP8_IO_FILEiPK7YYSTYPE
FNDA:0,_ZL21yy_symbol_value_printP8_IO_FILEiPK7YYSTYPE
FN:1434,_ZL15yy_symbol_printP8_IO_FILEiPK7YYSTYPE
FNDA:0,_ZL15yy_symbol_printP8_IO_FILEiPK7YYSTYPE
FN:1449,_ZL14yy_stack_printPsS_
FNDA:0,_ZL14yy_stack_printPsS_
FN:1472,_ZL15yy_reduce_printPsP7YYSTYPEi
FNDA:0,_ZL15yy_reduce_printPsP7YYSTYPEi
FN:1572,_ZL9yytnamerrPcPKc
FNDA:0,_ZL9yytnamerrPcPKc
FN:1623,_ZL14yysyntax_errorPlPPcPsi
FNDA:0,_ZL14yysyntax_errorPlPPcPsi
FN:1762,_ZL10yydestructPKciP7YYSTYPE
FNDA:34,_ZL10yydestructPKciP7YYSTYPE
FN:1791,_Z7yyparsev
FNDA:17,_Z7yyparsev
DA:1413,0
DA:1415,0
DA:1417,0
DA:1418,0
DA:1434,0
DA:1436,0
DA:1437,0
DA:1439,0
DA:1440,0
DA:1441,0
DA:1449,0
DA:1451,0
DA:1452,0
DA:1454,0
DA:1455,0
DA:1457,0
DA:1458,0
DA:1472,0
DA:1474,0
DA:1475,0
DA:1477,0
DA:1480,0
DA:1482,0
DA:1483,0
DA:1484,0
DA:1485,0
DA:1487,0
DA:1489,0
DA:1572,0
DA:1574,0
DA:1576,0
DA:1577,0
DA:1580,0
DA:1582,0
DA:1584,0
DA:1586,0
DA:1587,0
DA:1588,0
DA:1590,0
DA:1592,0
DA:1594,0
DA:1595,0
DA:1596,0
DA:1597,0
DA:1599,0
DA:1600,0
DA:1601,0
DA:1602,0
DA:1604,0
DA:1607,0
DA:1608,0
DA:1610,0
DA:1623,0
DA:1628,0
DA:1633,0
DA:1635,0
DA:1660,0
DA:1662,0
DA:1663,0
DA:1664,0
DA:1665,0
DA:1666,0
DA:1671,0
DA:1673,0
DA:1674,0
DA:1677,0
DA:1678,0
DA:1681,0
DA:1683,0
DA:1684,0
DA:1685,0
DA:1687,0
DA:1690,0
DA:1691,0
DA:1692,0
DA:1694,0
DA:1700,0
DA:1706,0
DA:1707,0
DA:1708,0
DA:1709,0
DA:1710,0
DA:1711,0
DA:1712,0
DA:1719,0
DA:1720,0
DA:1721,0
DA:1723,0
DA:1726,0
DA:1728,0
DA:1729,0
DA:1731,0
DA:1732,0
DA:1739,0
DA:1740,0
DA:1741,0
DA:1742,0
DA:1744,0
DA:1745,0
DA:1749,0
DA:1750,0
DA:1753,0
DA:1762,34
DA:1765,34
DA:1766,0
DA:1767,34
DA:1772,34
DA:1791,17
DA:1819,17
DA:1827,17
DA:1828,17
DA:1835,17
DA:1837,17
DA:1838,17
DA:1839,17
DA:1841,17
DA:1843,17
DA:1844,17
DA:1845,17
DA:1846,17
DA:1847,17
DA:1853,225523
DA:1856,225523
DA:1862,225540
DA:1863,225540
DA:1866,225540
DA:1869,225540
DA:1875,0
DA:1898,0
DA:1899,0
DA:1900,0
DA:1901,0
DA:1902,0
DA:1905,0
DA:1907,0
DA:1909,0
DA:1910,0
DA:1911,0
DA:1912,0
DA:1914,0
DA:1915,0
DA:1919,0
DA:1920,0
DA:1923,0
DA:1927,0
DA:1928,0
DA:1932,225540
DA:1933,17
DA:1935,225523
DA:1941,225523
DA:1946,225523
DA:1947,225523
DA:1948,88697
DA:1953,136826
DA:1955,101952
DA:1956,101952
DA:1959,136826
DA:1961,34
DA:1962,34
DA:1966,136792
DA:1967,136792
DA:1972,136826
DA:1973,136826
DA:1974,34874
DA:1975,101952
DA:1976,101952
DA:1980,0
DA:1981,0
DA:1986,101952
DA:1987,0
DA:1990,101952
DA:1991,101952
DA:1993,101952
DA:1997,101952
DA:1998,101952
DA:2004,123571
DA:2005,123571
DA:2006,123571
DA:2007,0
DA:2008,123571
DA:2014,123571
DA:2016,123571
DA:2026,123571
DA:2029,123571
DA:2030,123571
DA:2032,17
DA:2036,17
DA:2038,36
DA:2051,36
DA:2053,0
DA:2057,0
DA:2059,17
DA:2063,17
DA:2065,0
DA:2069,0
DA:2071,0
DA:2075,0
DA:2077,53
DA:2081,53
DA:2083,0
DA:2087,0
DA:2089,0
DA:2093,0
DA:2095,7672
DA:2099,7672
DA:2101,53
DA:2105,53
DA:2107,1
DA:2111,1
DA:2113,624
DA:2117,624
DA:2119,256
DA:2123,256
DA:2125,0
DA:2129,0
DA:2131,3547
DA:2135,3547
DA:2137,0
DA:2141,0
DA:2143,2706
DA:2147,2706
DA:2149,0
DA:2153,0
DA:2155,41
DA:2159,41
DA:2161,0
DA:2165,0
DA:2167,0
DA:2171,0
DA:2173,550
DA:2177,550
DA:2179,0
DA:2183,0
DA:2185,0
DA:2189,0
DA:2191,0
DA:2195,0
DA:2197,0
DA:2201,0
DA:2203,0
DA:2207,0
DA:2209,0
DA:2213,0
DA:2215,0
DA:2219,0
DA:2221,0
DA:2225,0
DA:2227,0
DA:2231,0
DA:2233,0
DA:2237,0
DA:2239,0
DA:2243,0
DA:2245,0
DA:2249,0
DA:2251,0
DA:2255,0
DA:2257,0
DA:2261,0
DA:2263,0
DA:2267,0
DA:2269,1
DA:2273,1
DA:2275,0
DA:2279,0
DA:2281,624
DA:2285,624
DA:2287,256
DA:2291,256
DA:2293,0
DA:2297,0
DA:2299,2679
DA:2303,2679
DA:2305,868
DA:2309,868
DA:2311,0
DA:2315,0
DA:2317,0
DA:2321,0
DA:2323,0
DA:2327,0
DA:2329,0
DA:2333,0
DA:2335,991
DA:2339,991
DA:2341,0
DA:2345,0
DA:2347,4481
DA:2351,4481
DA:2353,0
DA:2357,0
DA:2359,0
DA:2363,0
DA:2365,1986
DA:2369,1986
DA:2371,3474
DA:2375,3474
DA:2377,0
DA:2381,0
DA:2383,0
DA:2387,0
DA:2389,12
DA:2393,12
DA:2395,0
DA:2399,0
DA:2401,0
DA:2405,0
DA:2407,0
DA:2411,0
DA:2413,2706
DA:2417,2706
DA:2419,0
DA:2423,0
DA:2425,2706
DA:2429,2706
DA:2431,0
DA:2435,0
DA:2437,0
DA:2441,0
DA:2443,0
DA:2447,0
DA:2449,0
DA:2453,0
DA:2455,0
DA:2459,0
DA:2461,0
DA:2465,0
DA:2467,0
DA:2471,0
DA:2473,0
DA:2477,0
DA:2479,0
DA:2483,0
DA:2485,0
DA:2489,0
DA:2491,0
DA:2495,0
DA:2497,0
DA:2501,0
DA:2503,0
DA:2507,0
DA:2509,0
DA:2513,0
DA:2515,0
DA:2519,0
DA:2521,0
DA:2525,0
DA:2527,0
DA:2531,0
DA:2533,41
DA:2537,41
DA:2539,0
DA:2543,0
DA:2545,41
DA:2549,41
DA:2551,0
DA:2555,0
DA:2557,0
DA:2561,0
DA:2563,41
DA:2567,41
DA:2569,0
DA:2573,0
DA:2575,0
DA:2579,0
DA:2581,0
DA:2585,0
DA:2587,0
DA:2591,0
DA:2593,0
DA:2597,0
DA:2599,712
DA:2603,712
DA:2605,41
DA:2609,41
DA:2611,51
DA:2615,51
DA:2617,702
DA:2621,702
DA:2623,0
DA:2627,0
DA:2629,0
DA:2633,0
DA:2635,0
DA:2639,0
DA:2641,0
DA:2645,0
DA:2647,550
DA:2651,550
DA:2653,0
DA:2657,0
DA:2659,392
DA:2663,392
DA:2665,200
DA:2669,200
DA:2671,2103
DA:2675,2103
DA:2677,827
DA:2681,827
DA:2683,661
DA:2687,661
DA:2689,15
DA:2693,15
DA:2695,0
DA:2699,0
DA:2701,0
DA:2705,0
DA:2707,0
DA:2711,0
DA:2713,0
DA:2717,0
DA:2719,0
DA:2723,0
DA:2725,0
DA:2729,0
DA:2731,2906
DA:2735,2906
DA:2737,0
DA:2741,0
DA:2743,2103
DA:2747,2103
DA:2749,0
DA:2753,0
DA:2755,0
DA:2759,0
DA:2761,306
DA:2765,306
DA:2767,15
DA:2771,15
DA:2773,320
DA:2777,320
DA:2779,1
DA:2783,1
DA:2785,392
DA:2789,392
DA:2791,786
DA:2795,786
DA:2797,392
DA:2801,392
DA:2803,550
DA:2807,550
DA:2809,0
DA:2813,0
DA:2815,9
DA:2819,9
DA:2821,550
DA:2825,550
DA:2827,7
DA:2831,7
DA:2833,550
DA:2837,550
DA:2839,2
DA:2843,2
DA:2845,28297
DA:2849,28297
DA:2851,0
DA:2855,0
DA:2857,7
DA:2861,7
DA:2863,158
DA:2867,158
DA:2869,1
DA:2873,1
DA:2875,6
DA:2879,6
DA:2881,0
DA:2885,0
DA:2887,1
DA:2891,1
DA:2893,0
DA:2897,0
DA:2899,29
DA:2903,29
DA:2905,0
DA:2909,0
DA:2911,558
DA:2915,558
DA:2917,96
DA:2921,96
DA:2923,0
DA:2927,0
DA:2929,0
DA:2933,0
DA:2935,330
DA:2939,330
DA:2941,530
DA:2945,530
DA:2947,120
DA:2951,120
DA:2953,44
DA:2957,44
DA:2959,1
DA:2963,1
DA:2965,1
DA:2969,1
DA:2971,1
DA:2975,1
DA:2977,287
DA:2981,287
DA:2983,38
DA:2987,38
DA:2989,38
DA:2993,38
DA:2995,0
DA:2999,0
DA:3001,1817
DA:3005,1817
DA:3007,1
DA:3011,1
DA:3013,39
DA:3017,39
DA:3019,13
DA:3023,13
DA:3025,0
DA:3029,0
DA:3031,0
DA:3035,0
DA:3037,227
DA:3041,227
DA:3043,16
DA:3047,16
DA:3049,515
DA:3053,515
DA:3055,0
DA:3059,0
DA:3061,721
DA:3065,721
DA:3067,0
DA:3071,0
DA:3073,0
DA:3077,0
DA:3079,14705
DA:3083,14705
DA:3085,13552
DA:3089,13552
DA:3091,3518
DA:3095,3518
DA:3097,164
DA:3101,164
DA:3103,1386
DA:3107,1386
DA:3109,3345
DA:3113,3345
DA:3115,1386
DA:3119,1386
DA:3124,0
DA:3137,123571
DA:3139,123571
DA:3140,123571
DA:3141,123571
DA:3143,123571
DA:3149,123571
DA:3150,123571
DA:3151,117790
DA:3152,190717
DA:3153,56425
DA:3156,123571
DA:3162,0
DA:3165,0
DA:3168,0
DA:3170,0
DA:3177,0
DA:3179,0
DA:3180,0
DA:3181,0
DA:3182,0
DA:3184,0
DA:3185,0
DA:3186,0
DA:3187,0
DA:3189,0
DA:3190,0
DA:3191,0
DA:3195,0
DA:3196,0
DA:3199,0
DA:3200,0
DA:3201,0
DA:3209,0
DA:3214,0
DA:3217,0
DA:3218,0
DA:3222,0
DA:3224,0
DA:3230,0
DA:3254,0
DA:3255,0
DA:3259,0
DA:3260,0
DA:3262,0
DA:3263,0
DA:3265,0
DA:3266,0
DA:3267,0
DA:3272,0
DA:3273,0
DA:3276,0
DA:3277,0
DA:3278,0
DA:3279,0
DA:3280,0
DA:3284,0
DA:3289,0
DA:3291,0
DA:3292,0
DA:3298,17
DA:3299,17
DA:3300,17
DA:3306,0
DA:3307,0
DA:3308,0
DA:3315,0
DA:3316,0
DA:3317,0
DA:3325,17
DA:3326,17
DA:3330,0
DA:3331,0
DA:3336,17
DA:3337,17
DA:3338,51
DA:3340,34
DA:3341,34
DA:3342,34
DA:3345,17
DA:3346,0
DA:3349,17
DA:3350,0
DA:3352,17
end_of_record
