TN:
SF:/usr/include/c++/9/bits/char_traits.h
DA:299,0
DA:300,0
DA:315,0
DA:317,0
DA:325,0
DA:361,0
DA:363,0
DA:365,0
end_of_record
SF:/usr/include/c++/9/bits/allocator.h
DA:141,0
DA:142,0
DA:151,0
DA:153,0
end_of_record
SF:/usr/include/c++/9/ext/alloc_traits.h
DA:97,0
DA:98,0
end_of_record
SF:/usr/include/c++/9/bits/stl_function.h
DA:355,0
DA:356,0
end_of_record
SF:/usr/include/c++/9/bits/basic_string.tcc
FN:206,_ZNSt7__cxx1112basic_stringIcSt11char_traitsIcESaIcEE12_M_constructIPcEEvT_S7_St20forward_iterator_tag
FNDA:0,_ZNSt7__cxx1112basic_stringIcSt11char_traitsIcESaIcEE12_M_constructIPcEEvT_S7_St20forward_iterator_tag
DA:206,0
DA:211,0
DA:212,0
DA:215,0
DA:217,0
DA:219,0
DA:220,0
DA:225,0
DA:232,0
DA:233,0
end_of_record
SF:/usr/include/c++/9/bits/basic_string.h
FN:6149,_ZSteqIcEN9__gnu_cxx11__enable_ifIXsrSt9__is_charIT_E7__valueEbE6__typeERKNSt7__cxx1112basic_stringIS3_St11char_traitsIS3_ESaIS3_EEESE_
FNDA:0,_ZSteqIcEN9__gnu_cxx11__enable_ifIXsrSt9__is_charIT_E7__valueEbE6__typeERKNSt7__cxx1112basic_stringIS3_St11char_traitsIS3_ESaIS3_EEESE_
DA:150,0
DA:159,0
DA:160,0
DA:178,0
DA:179,0
DA:182,0
DA:183,0
DA:186,0
DA:190,0
DA:193,0
DA:200,0
DA:203,0
DA:210,0
DA:211,0
DA:214,0
DA:216,0
DA:217,0
DA:221,0
DA:222,0
DA:229,0
DA:231,0
DA:232,0
DA:236,0
DA:237,0
DA:243,0
DA:247,0
DA:263,0
DA:266,0
DA:286,0
DA:287,0
DA:290,0
DA:291,0
DA:346,0
DA:348,0
DA:349,0
DA:351,0
DA:392,0
DA:393,0
DA:448,0
DA:450,0
DA:451,0
DA:657,0
DA:658,0
DA:930,0
DA:936,0
DA:2312,0
DA:2313,0
DA:6149,0
DA:6151,0
DA:6152,0
DA:6153,0
DA:6734,0
DA:6735,0
end_of_record
SF:/usr/include/c++/9/tuple
DA:125,0
DA:126,0
DA:160,0
DA:334,0
DA:343,0
DA:344,0
DA:358,0
DA:360,0
DA:588,0
DA:589,0
DA:642,0
DA:1309,0
DA:1310,0
DA:1320,0
DA:1321,0
DA:1658,0
DA:1663,0
DA:1670,0
DA:1673,0
DA:1674,0
end_of_record
SF:/usr/include/c++/9/ext/new_allocator.h
DA:80,0
DA:83,0
DA:89,0
DA:102,0
DA:104,0
DA:114,0
DA:119,0
DA:128,0
DA:132,0
DA:144,0
DA:147,0
end_of_record
SF:/usr/include/c++/9/iostream
end_of_record
SF:/usr/include/c++/9/ext/aligned_buffer.h
DA:102,0
DA:104,0
DA:114,0
DA:115,0
end_of_record
SF:/usr/include/c++/9/bits/hashtable_policy.h
FN:689,_ZNSt8__detail9_Map_baseINSt7__cxx1112basic_stringIcSt11char_traitsIcESaIcEEESt4pairIKS6_PvESaISA_ENS_10_Select1stESt8equal_toIS6_ESt4hashIS6_ENS_18_Mod_range_hashingENS_20_Default_ranged_hashENS_20_Prime_rehash_policyENS_17_Hashtable_traitsILb1ELb0ELb1EEELb1EEixERS8_
FNDA:0,_ZNSt8__detail9_Map_baseINSt7__cxx1112basic_stringIcSt11char_traitsIcESaIcEEESt4pairIKS6_PvESaISA_ENS_10_Select1stESt8equal_toIS6_ESt4hashIS6_ENS_18_Mod_range_hashingENS_20_Default_ranged_hashENS_20_Prime_rehash_policyENS_17_Hashtable_traitsILb1ELb0ELb1EEELb1EEixERS8_
FN:2079,_ZNSt8__detail16_Hashtable_allocISaINS_10_Hash_nodeISt4pairIKNSt7__cxx1112basic_stringIcSt11char_traitsIcESaIcEEEPvELb1EEEEE16_M_allocate_nodeIJSB_EEEPSC_DpOT_
FNDA:0,_ZNSt8__detail16_Hashtable_allocISaINS_10_Hash_nodeISt4pairIKNSt7__cxx1112basic_stringIcSt11char_traitsIcESaIcEEEPvELb1EEEEE16_M_allocate_nodeIJSB_EEEPSC_DpOT_
FN:2079,_ZNSt8__detail16_Hashtable_allocISaINS_10_Hash_nodeISt4pairIKNSt7__cxx1112basic_stringIcSt11char_traitsIcESaIcEEEPvELb1EEEEE16_M_allocate_nodeIJRKSt21piecewise_construct_tSt5tupleIJRS9_EESJ_IJEEEEEPSC_DpOT_
FNDA:0,_ZNSt8__detail16_Hashtable_allocISaINS_10_Hash_nodeISt4pairIKNSt7__cxx1112basic_stringIcSt11char_traitsIcESaIcEEEPvELb1EEEEE16_M_allocate_nodeIJRKSt21piecewise_construct_tSt5tupleIJRS9_EESJ_IJEEEEEPSC_DpOT_
DA:92,0
DA:94,0
DA:218,0
DA:229,0
DA:236,0
DA:237,0
DA:244,0
DA:245,0
DA:264,0
DA:269,0
DA:294,0
DA:295,0
DA:298,0
DA:299,0
DA:311,0
DA:340,0
DA:341,0
DA:344,0
DA:345,0
DA:348,0
DA:349,0
DA:352,0
DA:354,0
DA:355,0
DA:431,0
DA:433,0
DA:476,0
DA:477,0
DA:484,0
DA:485,0
DA:689,0
DA:694,0
DA:695,0
DA:696,0
DA:697,0
DA:699,0
DA:701,0
DA:704,0
DA:707,0
DA:805,0
DA:1002,0
DA:1004,0
DA:1005,0
DA:1104,0
DA:1108,0
DA:1380,0
DA:1384,0
DA:1388,0
DA:1390,0
DA:1393,0
DA:1396,0
DA:1399,0
DA:1400,0
DA:1415,0
DA:1418,0
DA:1421,0
DA:1427,0
DA:1448,0
DA:1450,0
DA:1829,0
DA:1834,0
DA:1846,0
DA:2046,0
DA:2047,0
DA:2079,0
DA:2081,0
DA:2082,0
DA:2085,0
DA:2086,0
DA:2089,0
DA:2091,0
DA:2093,0
DA:2094,0
DA:2079,0
DA:2081,0
DA:2082,0
DA:2085,0
DA:2086,0
DA:2089,0
DA:2091,0
DA:2093,0
DA:2094,0
DA:2142,0
DA:2146,0
DA:2147,0
DA:2148,0
DA:2149,0
end_of_record
SF:/usr/include/c++/9/utility
DA:174,0
DA:175,0
DA:219,0
DA:220,0
end_of_record
SF:/usr/include/c++/9/bits/hashtable.h
FN:1412,_ZNSt10_HashtableINSt7__cxx1112basic_stringIcSt11char_traitsIcESaIcEEESt4pairIKS5_PvESaIS9_ENSt8__detail10_Select1stESt8equal_toIS5_ESt4hashIS5_ENSB_18_Mod_range_hashingENSB_20_Default_ranged_hashENSB_20_Prime_rehash_policyENSB_17_Hashtable_traitsILb1ELb0ELb1EEEE4findERS7_
FNDA:0,_ZNSt10_HashtableINSt7__cxx1112basic_stringIcSt11char_traitsIcESaIcEEESt4pairIKS5_PvESaIS9_ENSt8__detail10_Select1stESt8equal_toIS5_ESt4hashIS5_ENSB_18_Mod_range_hashingENSB_20_Default_ranged_hashENSB_20_Prime_rehash_policyENSB_17_Hashtable_traitsILb1ELb0ELb1EEEE4findERS7_
FN:1532,_ZNKSt10_HashtableINSt7__cxx1112basic_stringIcSt11char_traitsIcESaIcEEESt4pairIKS5_PvESaIS9_ENSt8__detail10_Select1stESt8equal_toIS5_ESt4hashIS5_ENSB_18_Mod_range_hashingENSB_20_Default_ranged_hashENSB_20_Prime_rehash_policyENSB_17_Hashtable_traitsILb1ELb0ELb1EEEE19_M_find_before_nodeEmRS7_m
FNDA:0,_ZNKSt10_HashtableINSt7__cxx1112basic_stringIcSt11char_traitsIcESaIcEEESt4pairIKS5_PvESaIS9_ENSt8__detail10_Select1stESt8equal_toIS5_ESt4hashIS5_ENSB_18_Mod_range_hashingENSB_20_Default_ranged_hashENSB_20_Prime_rehash_policyENSB_17_Hashtable_traitsILb1ELb0ELb1EEEE19_M_find_before_nodeEmRS7_m
FN:1560,_ZNSt10_HashtableINSt7__cxx1112basic_stringIcSt11char_traitsIcESaIcEEESt4pairIKS5_PvESaIS9_ENSt8__detail10_Select1stESt8equal_toIS5_ESt4hashIS5_ENSB_18_Mod_range_hashingENSB_20_Default_ranged_hashENSB_20_Prime_rehash_policyENSB_17_Hashtable_traitsILb1ELb0ELb1EEEE22_M_insert_bucket_beginEmPNSB_10_Hash_nodeIS9_Lb1EEE
FNDA:0,_ZNSt10_HashtableINSt7__cxx1112basic_stringIcSt11char_traitsIcESaIcEEESt4pairIKS5_PvESaIS9_ENSt8__detail10_Select1stESt8equal_toIS5_ESt4hashIS5_ENSB_18_Mod_range_hashingENSB_20_Default_ranged_hashENSB_20_Prime_rehash_policyENSB_17_Hashtable_traitsILb1ELb0ELb1EEEE22_M_insert_bucket_beginEmPNSB_10_Hash_nodeIS9_Lb1EEE
FN:1591,_ZNSt10_HashtableINSt7__cxx1112basic_stringIcSt11char_traitsIcESaIcEEESt4pairIKS5_PvESaIS9_ENSt8__detail10_Select1stESt8equal_toIS5_ESt4hashIS5_ENSB_18_Mod_range_hashingENSB_20_Default_ranged_hashENSB_20_Prime_rehash_policyENSB_17_Hashtable_traitsILb1ELb0ELb1EEEE22_M_remove_bucket_beginEmPNSB_10_Hash_nodeIS9_Lb1EEEm
FNDA:0,_ZNSt10_HashtableINSt7__cxx1112basic_stringIcSt11char_traitsIcESaIcEEESt4pairIKS5_PvESaIS9_ENSt8__detail10_Select1stESt8equal_toIS5_ESt4hashIS5_ENSB_18_Mod_range_hashingENSB_20_Default_ranged_hashENSB_20_Prime_rehash_policyENSB_17_Hashtable_traitsILb1ELb0ELb1EEEE22_M_remove_bucket_beginEmPNSB_10_Hash_nodeIS9_Lb1EEEm
FN:1632,_ZNSt10_HashtableINSt7__cxx1112basic_stringIcSt11char_traitsIcESaIcEEESt4pairIKS5_PvESaIS9_ENSt8__detail10_Select1stESt8equal_toIS5_ESt4hashIS5_ENSB_18_Mod_range_hashingENSB_20_Default_ranged_hashENSB_20_Prime_rehash_policyENSB_17_Hashtable_traitsILb1ELb0ELb1EEEE10_M_emplaceIJS9_EEES6_INSB_14_Node_iteratorIS9_Lb0ELb1EEEbESt17integral_constantIbLb1EEDpOT_
FNDA:0,_ZNSt10_HashtableINSt7__cxx1112basic_stringIcSt11char_traitsIcESaIcEEESt4pairIKS5_PvESaIS9_ENSt8__detail10_Select1stESt8equal_toIS5_ESt4hashIS5_ENSB_18_Mod_range_hashingENSB_20_Default_ranged_hashENSB_20_Prime_rehash_policyENSB_17_Hashtable_traitsILb1ELb0ELb1EEEE10_M_emplaceIJS9_EEES6_INSB_14_Node_iteratorIS9_Lb0ELb1EEEbESt17integral_constantIbLb1EEDpOT_
FN:1698,_ZNSt10_HashtableINSt7__cxx1112basic_stringIcSt11char_traitsIcESaIcEEESt4pairIKS5_PvESaIS9_ENSt8__detail10_Select1stESt8equal_toIS5_ESt4hashIS5_ENSB_18_Mod_range_hashingENSB_20_Default_ranged_hashENSB_20_Prime_rehash_policyENSB_17_Hashtable_traitsILb1ELb0ELb1EEEE21_M_insert_unique_nodeEmmPNSB_10_Hash_nodeIS9_Lb1EEEm
FNDA:0,_ZNSt10_HashtableINSt7__cxx1112basic_stringIcSt11char_traitsIcESaIcEEESt4pairIKS5_PvESaIS9_ENSt8__detail10_Select1stESt8equal_toIS5_ESt4hashIS5_ENSB_18_Mod_range_hashingENSB_20_Default_ranged_hashENSB_20_Prime_rehash_policyENSB_17_Hashtable_traitsILb1ELb0ELb1EEEE21_M_insert_unique_nodeEmmPNSB_10_Hash_nodeIS9_Lb1EEEm
FN:1869,_ZNSt10_HashtableINSt7__cxx1112basic_stringIcSt11char_traitsIcESaIcEEESt4pairIKS5_PvESaIS9_ENSt8__detail10_Select1stESt8equal_toIS5_ESt4hashIS5_ENSB_18_Mod_range_hashingENSB_20_Default_ranged_hashENSB_20_Prime_rehash_policyENSB_17_Hashtable_traitsILb1ELb0ELb1EEEE8_M_eraseEmPNSB_15_Hash_node_baseEPNSB_10_Hash_nodeIS9_Lb1EEE
FNDA:0,_ZNSt10_HashtableINSt7__cxx1112basic_stringIcSt11char_traitsIcESaIcEEESt4pairIKS5_PvESaIS9_ENSt8__detail10_Select1stESt8equal_toIS5_ESt4hashIS5_ENSB_18_Mod_range_hashingENSB_20_Default_ranged_hashENSB_20_Prime_rehash_policyENSB_17_Hashtable_traitsILb1ELb0ELb1EEEE8_M_eraseEmPNSB_15_Hash_node_baseEPNSB_10_Hash_nodeIS9_Lb1EEE
FN:2061,_ZNSt10_HashtableINSt7__cxx1112basic_stringIcSt11char_traitsIcESaIcEEESt4pairIKS5_PvESaIS9_ENSt8__detail10_Select1stESt8equal_toIS5_ESt4hashIS5_ENSB_18_Mod_range_hashingENSB_20_Default_ranged_hashENSB_20_Prime_rehash_policyENSB_17_Hashtable_traitsILb1ELb0ELb1EEEE9_M_rehashEmRKm
FNDA:0,_ZNSt10_HashtableINSt7__cxx1112basic_stringIcSt11char_traitsIcESaIcEEESt4pairIKS5_PvESaIS9_ENSt8__detail10_Select1stESt8equal_toIS5_ESt4hashIS5_ENSB_18_Mod_range_hashingENSB_20_Default_ranged_hashENSB_20_Prime_rehash_policyENSB_17_Hashtable_traitsILb1ELb0ELb1EEEE9_M_rehashEmRKm
FN:2084,_ZNSt10_HashtableINSt7__cxx1112basic_stringIcSt11char_traitsIcESaIcEEESt4pairIKS5_PvESaIS9_ENSt8__detail10_Select1stESt8equal_toIS5_ESt4hashIS5_ENSB_18_Mod_range_hashingENSB_20_Default_ranged_hashENSB_20_Prime_rehash_policyENSB_17_Hashtable_traitsILb1ELb0ELb1EEEE13_M_rehash_auxEmSt17integral_constantIbLb1EE
FNDA:0,_ZNSt10_HashtableINSt7__cxx1112basic_stringIcSt11char_traitsIcESaIcEEESt4pairIKS5_PvESaIS9_ENSt8__detail10_Select1stESt8equal_toIS5_ESt4hashIS5_ENSB_18_Mod_range_hashingENSB_20_Default_ranged_hashENSB_20_Prime_rehash_policyENSB_17_Hashtable_traitsILb1ELb0ELb1EEEE13_M_rehash_auxEmSt17integral_constantIbLb1EE
DA:342,0
DA:343,0
DA:353,0
DA:355,0
DA:357,0
DA:358,0
DA:361,0
DA:365,0
DA:367,0
DA:370,0
DA:374,0
DA:375,0
DA:383,0
DA:504,0
DA:505,0
DA:512,0
DA:513,0
DA:528,0
DA:639,0
DA:640,0
DA:643,0
DA:644,0
DA:652,0
DA:655,0
DA:656,0
DA:657,0
DA:771,0
DA:772,0
DA:1412,0
DA:1417,0
DA:1418,0
DA:1419,0
DA:1420,0
DA:1532,0
DA:1538,0
DA:1539,0
DA:1542,0
DA:1545,0
DA:1546,0
DA:1548,0
DA:1560,0
DA:1564,0
DA:1568,0
DA:1569,0
DA:1576,0
DA:1577,0
DA:1578,0
DA:1581,0
DA:1582,0
DA:1584,0
DA:1591,0
DA:1596,0
DA:1600,0
DA:1601,0
DA:1604,0
DA:1605,0
DA:1606,0
DA:1608,0
DA:1632,0
DA:1638,0
DA:1639,0
DA:1643,0
DA:1651,0
DA:1652,0
DA:1655,0
DA:1656,0
DA:1660,0
DA:1698,0
DA:1704,0
DA:1705,0
DA:1711,0
DA:1713,0
DA:1714,0
DA:1717,0
DA:1720,0
DA:1721,0
DA:1722,0
DA:1724,0
DA:1726,0
DA:1727,0
DA:1869,0
DA:1874,0
DA:1875,0
DA:1876,0
DA:1877,0
DA:1879,0
DA:1880,0
DA:1881,0
DA:1884,0
DA:1885,0
DA:1886,0
DA:1887,0
DA:1889,0
DA:2061,0
DA:2067,0
DA:2069,0
DA:2073,0
DA:2074,0
DA:2076,0
DA:2084,0
DA:2088,0
DA:2089,0
DA:2090,0
DA:2091,0
DA:2092,0
DA:2094,0
DA:2095,0
DA:2096,0
DA:2098,0
DA:2099,0
DA:2100,0
DA:2101,0
DA:2102,0
DA:2107,0
DA:2108,0
DA:2113,0
DA:2114,0
DA:2115,0
DA:2116,0
end_of_record
SF:/usr/include/c++/9/new
DA:173,0
DA:174,0
end_of_record
SF:/usr/include/c++/9/bits/stl_pair.h
DA:208,0
DA:303,0
DA:304,0
DA:341,0
DA:342,0
DA:524,0
DA:529,0
end_of_record
SF:/usr/include/c++/9/bits/move.h
DA:47,0
DA:74,0
DA:99,0
DA:138,0
DA:139,0
end_of_record
SF:/usr/include/c++/9/bits/functional_hash.h
DA:195,0
DA:197,0
end_of_record
SF:/workspace/vtr-verilog-to-routing/ODIN_II/SRC/Hashtable.cpp
FN:31,_ZN9Hashtable18destroy_free_itemsEv
FNDA:0,_ZN9Hashtable18destroy_free_itemsEv
FN:36,_ZN9Hashtable3addENSt7__cxx1112basic_stringIcSt11char_traitsIcESaIcEEEPv
FNDA:0,_ZN9Hashtable3addENSt7__cxx1112basic_stringIcSt11char_traitsIcESaIcEEEPv
FN:40,_ZN9Hashtable6removeENSt7__cxx1112basic_stringIcSt11char_traitsIcESaIcEEE
FNDA:0,_ZN9Hashtable6removeENSt7__cxx1112basic_stringIcSt11char_traitsIcESaIcEEE
FN:50,_ZN9Hashtable3getENSt7__cxx1112basic_stringIcSt11char_traitsIcESaIcEEE
FNDA:0,_ZN9Hashtable3getENSt7__cxx1112basic_stringIcSt11char_traitsIcESaIcEEE
FN:59,_ZN9Hashtable8is_emptyEv
FNDA:0,_ZN9Hashtable8is_emptyEv
DA:31,0
DA:32,0
DA:33,0
DA:34,0
DA:36,0
DA:37,0
DA:38,0
DA:40,0
DA:41,0
DA:42,0
DA:43,0
DA:44,0
DA:45,0
DA:47,0
DA:50,0
DA:51,0
DA:52,0
DA:53,0
DA:54,0
DA:56,0
DA:59,0
DA:60,0
end_of_record
SF:/usr/include/c++/9/ext/type_traits.h
DA:152,0
end_of_record
SF:/usr/include/c++/9/bits/alloc_traits.h
DA:443,0
DA:444,0
DA:469,0
DA:470,0
DA:482,0
DA:484,0
DA:514,0
DA:515,0
end_of_record
SF:/usr/include/c++/9/bits/ptr_traits.h
DA:146,0
DA:147,0
DA:156,0
end_of_record
SF:/usr/include/c++/9/bits/stl_iterator_base_funcs.h
DA:98,0
DA:104,0
DA:138,0
DA:141,0
end_of_record
SF:/usr/include/c++/9/bits/unordered_map.h
DA:309,0
DA:310,0
DA:324,0
DA:325,0
DA:346,0
DA:347,0
DA:585,0
DA:586,0
DA:814,0
DA:815,0
DA:920,0
DA:921,0
DA:984,0
DA:985,0
end_of_record
TN:
SF:/usr/include/x86_64-linux-gnu/bits/stdio2.h
DA:64,0
DA:67,0
DA:98,0
DA:100,0
DA:105,0
DA:107,0
end_of_record
SF:/usr/include/c++/9/bits/locale_facets.h
FN:872,_ZNKSt5ctypeIcE5widenEc
FNDA:0,_ZNKSt5ctypeIcE5widenEc
FN:1084,_ZNKSt5ctypeIcE8do_widenEc
FNDA:0,_ZNKSt5ctypeIcE8do_widenEc
DA:872,0
DA:874,0
DA:875,0
DA:876,0
DA:877,0
DA:1084,0
DA:1085,0
end_of_record
SF:/usr/include/c++/9/ext/new_allocator.h
DA:80,0
DA:83,0
DA:89,0
DA:119,0
DA:128,0
end_of_record
SF:/usr/include/c++/9/iostream
end_of_record
SF:/usr/include/c++/9/ostream
DA:108,0
DA:113,0
DA:565,0
DA:568,0
DA:570,0
DA:571,0
end_of_record
SF:/usr/include/c++/9/ext/string_conversions.h
FN:99,_ZN9__gnu_cxx12__to_xstringINSt7__cxx1112basic_stringIcSt11char_traitsIcESaIcEEEcEET_PFiPT0_mPKS8_P13__va_list_tagEmSB_z
FNDA:0,_ZN9__gnu_cxx12__to_xstringINSt7__cxx1112basic_stringIcSt11char_traitsIcESaIcEEEcEET_PFiPT0_mPKS8_P13__va_list_tagEmSB_z
DA:99,0
DA:105,0
DA:109,0
DA:111,0
DA:113,0
DA:115,0
end_of_record
SF:/usr/include/c++/9/bits/char_traits.h
DA:299,0
DA:300,0
DA:329,0
DA:335,0
DA:361,0
DA:363,0
DA:365,0
end_of_record
SF:/usr/include/c++/9/bits/allocator.h
DA:138,0
DA:141,0
DA:142,0
DA:153,0
end_of_record
SF:/usr/include/c++/9/bits/basic_string.h
FN:6109,_ZStplIcSt11char_traitsIcESaIcEENSt7__cxx1112basic_stringIT_T0_T1_EEPKS5_OS8_
FNDA:0,_ZStplIcSt11char_traitsIcESaIcEENSt7__cxx1112basic_stringIT_T0_T1_EEPKS5_OS8_
DA:150,0
DA:156,0
DA:157,0
DA:159,0
DA:160,0
DA:178,0
DA:179,0
DA:182,0
DA:183,0
DA:186,0
DA:190,0
DA:193,0
DA:200,0
DA:203,0
DA:210,0
DA:211,0
DA:214,0
DA:216,0
DA:217,0
DA:221,0
DA:222,0
DA:229,0
DA:231,0
DA:232,0
DA:236,0
DA:237,0
DA:243,0
DA:247,0
DA:263,0
DA:266,0
DA:286,0
DA:287,0
DA:346,0
DA:348,0
DA:349,0
DA:351,0
DA:392,0
DA:393,0
DA:396,0
DA:398,0
DA:540,0
DA:541,0
DA:542,0
DA:552,0
DA:553,0
DA:555,0
DA:557,0
DA:562,0
DA:563,0
DA:569,0
DA:570,0
DA:571,0
DA:625,0
DA:627,0
DA:628,0
DA:657,0
DA:658,0
DA:930,0
DA:936,0
DA:2312,0
DA:2313,0
DA:6109,0
DA:6111,0
DA:6416,0
DA:6421,0
DA:6546,0
DA:6547,0
DA:6548,0
DA:6557,0
DA:6558,0
DA:6559,0
end_of_record
SF:/workspace/vtr-verilog-to-routing/libs/librtlnumber/src/include/internal_bits.hpp
FN:308,_ZN8BitSpaceL13bits_to_hex_cEsb
FNDA:0,_ZN8BitSpaceL13bits_to_hex_cEsb
FN:505,_ZN8BitSpace11VerilogBits9to_stringB5cxx11Ebb
FNDA:0,_ZN8BitSpace11VerilogBits9to_stringB5cxx11Ebb
FN:520,_ZN8BitSpace11VerilogBits10to_UstringB5cxx11Eb
FNDA:0,_ZN8BitSpace11VerilogBits10to_UstringB5cxx11Eb
FN:535,_ZN8BitSpace11VerilogBits12to_log2radixB5cxx11Esb
FNDA:0,_ZN8BitSpace11VerilogBits12to_log2radixB5cxx11Esb
FN:554,_ZN8BitSpace11VerilogBits12to_printableB5cxx11Ev
FNDA:0,_ZN8BitSpace11VerilogBits12to_printableB5cxx11Ev
FN:778,_ZN7VNumber9get_valueEv
FNDA:0,_ZN7VNumber9get_valueEv
FN:812,_ZN7VNumber10to_vstringB5cxx11Ec
FNDA:0,_ZN7VNumber10to_vstringB5cxx11Ec
FN:972,_ZN7VNumber16get_bit_from_msbEm
FNDA:0,_ZN7VNumber16get_bit_from_msbEm
DA:286,0
DA:287,0
DA:290,0
DA:291,0
DA:292,0
DA:293,0
DA:294,0
DA:295,0
DA:299,0
DA:300,0
DA:303,0
DA:304,0
DA:308,0
DA:309,0
DA:312,0
DA:313,0
DA:314,0
DA:315,0
DA:316,0
DA:317,0
DA:318,0
DA:319,0
DA:320,0
DA:321,0
DA:322,0
DA:323,0
DA:324,0
DA:325,0
DA:326,0
DA:327,0
DA:328,0
DA:329,0
DA:330,0
DA:331,0
DA:332,0
DA:333,0
DA:334,0
DA:335,0
DA:336,0
DA:337,0
DA:338,0
DA:339,0
DA:340,0
DA:341,0
DA:342,0
DA:343,0
DA:346,0
DA:349,0
DA:371,0
DA:372,0
DA:373,0
DA:374,0
DA:385,0
DA:386,0
DA:387,0
DA:389,0
DA:411,0
DA:413,0
DA:414,0
DA:420,0
DA:435,0
DA:436,0
DA:465,0
DA:466,0
DA:473,0
DA:481,0
DA:484,0
DA:492,0
DA:505,0
DA:507,0
DA:508,0
DA:509,0
DA:510,0
DA:511,0
DA:513,0
DA:517,0
DA:520,0
DA:522,0
DA:523,0
DA:524,0
DA:525,0
DA:526,0
DA:528,0
DA:532,0
DA:535,0
DA:536,0
DA:539,0
DA:540,0
DA:541,0
DA:543,0
DA:545,0
DA:546,0
DA:551,0
DA:554,0
DA:555,0
DA:557,0
DA:558,0
DA:561,0
DA:565,0
DA:566,0
DA:778,0
DA:779,0
DA:781,0
DA:784,0
DA:785,0
DA:786,0
DA:787,0
DA:790,0
DA:791,0
DA:793,0
DA:794,0
DA:795,0
DA:796,0
DA:798,0
DA:801,0
DA:812,0
DA:813,0
DA:814,0
DA:817,0
DA:822,0
DA:823,0
DA:824,0
DA:825,0
DA:826,0
DA:827,0
DA:828,0
DA:829,0
DA:830,0
DA:831,0
DA:832,0
DA:833,0
DA:834,0
DA:835,0
DA:836,0
DA:837,0
DA:838,0
DA:839,0
DA:840,0
DA:841,0
DA:842,0
DA:843,0
DA:844,0
DA:845,0
DA:846,0
DA:847,0
DA:848,0
DA:850,0
DA:851,0
DA:852,0
DA:854,0
DA:856,0
DA:965,0
DA:966,0
DA:972,0
DA:973,0
DA:974,0
DA:995,0
DA:996,0
DA:999,0
DA:1000,0
DA:1003,0
DA:1004,0
end_of_record
SF:/usr/include/c++/9/bits/basic_string.tcc
FN:206,_ZNSt7__cxx1112basic_stringIcSt11char_traitsIcESaIcEE12_M_constructIPcEEvT_S7_St20forward_iterator_tag
FNDA:0,_ZNSt7__cxx1112basic_stringIcSt11char_traitsIcESaIcEE12_M_constructIPcEEvT_S7_St20forward_iterator_tag
FN:206,_ZNSt7__cxx1112basic_stringIcSt11char_traitsIcESaIcEE12_M_constructIPKcEEvT_S8_St20forward_iterator_tag
FNDA:0,_ZNSt7__cxx1112basic_stringIcSt11char_traitsIcESaIcEE12_M_constructIPKcEEvT_S8_St20forward_iterator_tag
DA:206,0
DA:211,0
DA:212,0
DA:215,0
DA:217,0
DA:219,0
DA:220,0
DA:225,0
DA:232,0
DA:233,0
DA:206,0
DA:211,0
DA:212,0
DA:215,0
DA:217,0
DA:219,0
DA:220,0
DA:225,0
DA:232,0
DA:233,0
end_of_record
SF:/workspace/vtr-verilog-to-routing/ODIN_II/SRC/adders.cpp
FN:66,_Z21init_add_distributionv
FNDA:0,_Z21init_add_distributionv
FN:76,_Z23record_add_distributionP7nnode_t
FNDA:0,_Z23record_add_distributionP7nnode_t
FN:95,_Z23report_add_distributionv
FNDA:0,_Z23report_add_distributionv
FN:122,_Z16find_hard_addersv
FNDA:0,_Z16find_hard_addersv
FN:143,_Z18declare_hard_adderP7nnode_t
FNDA:0,_Z18declare_hard_adderP7nnode_t
FN:178,_Z22instantiate_hard_adderP7nnode_tsP9netlist_t
FNDA:0,_Z22instantiate_hard_adderP7nnode_tsP9netlist_t
FN:218,_Z25add_the_blackbox_for_addsP8_IO_FILE
FNDA:0,_Z25add_the_blackbox_for_addsP8_IO_FILE
FN:303,_Z19define_add_functionP7nnode_tP8_IO_FILE
FNDA:0,_Z19define_add_functionP7nnode_tP8_IO_FILE
FN:374,_Z16init_split_adderP7nnode_tS0_iiiiiiiiP9netlist_t
FNDA:0,_Z16init_split_adderP7nnode_tS0_iiiiiiiiP9netlist_t
FN:613,_Z11split_adderP7nnode_tiiiiiiiP9netlist_t
FNDA:0,_Z11split_adderP7nnode_tiiiiiiiP9netlist_t
FN:798,_Z14iterate_addersP9netlist_t
FNDA:0,_Z14iterate_addersP9netlist_t
FN:861,_Z12clean_addersv
FNDA:0,_Z12clean_addersv
FN:872,_Z17reduce_operationsP9netlist_t14operation_list
FNDA:0,_Z17reduce_operationsP9netlist_t14operation_list
FN:904,_Z13traverse_list14operation_listPN3vtr13t_linked_vptrE
FNDA:0,_Z13traverse_list14operation_listPN3vtr13t_linked_vptrE
FN:914,_Z10match_nodePN3vtr13t_linked_vptrE14operation_list
FNDA:0,_Z10match_nodePN3vtr13t_linked_vptrE14operation_list
FN:952,_Z11match_portsP7nnode_tS0_14operation_list
FNDA:0,_Z11match_portsP7nnode_tS0_14operation_list
FN:1018,_Z23traverse_operation_nodeP10ast_node_tPPc14operation_listPi
FNDA:0,_Z23traverse_operation_nodeP10ast_node_tPPc14operation_listPi
FN:1047,_Z11merge_nodesP7nnode_tS0_
FNDA:0,_Z11merge_nodesP7nnode_tS0_
FN:1056,_Z16remove_list_nodePN3vtr13t_linked_vptrES1_
FNDA:0,_Z16remove_list_nodePN3vtr13t_linked_vptrES1_
FN:1067,_Z18remove_fanout_pinsP7nnode_t
FNDA:0,_Z18remove_fanout_pinsP7nnode_t
FN:1087,_Z15reallocate_pinsP7nnode_tS0_
FNDA:0,_Z15reallocate_pinsP7nnode_tS0_
FN:1111,_Z13free_op_nodesP7nnode_t
FNDA:0,_Z13free_op_nodesP7nnode_t
FN:1123,_Z10match_pinsP7nnode_tS0_
FNDA:0,_Z10match_pinsP7nnode_tS0_
FN:1150,_ZL26connect_output_pin_to_nodePiiiP7nnode_tS1_s
FNDA:0,_ZL26connect_output_pin_to_nodePiiiP7nnode_tS1_s
FN:1168,_ZL10make_adder14operation_listP7nnode_tS1_PiiP9netlist_tS1_ss
FNDA:0,_ZL10make_adder14operation_listP7nnode_tS1_PiiP9netlist_tS1_ss
FN:1241,_Z29instantiate_add_w_carry_blockPiP7nnode_tsP9netlist_ts
FNDA:0,_Z29instantiate_add_w_carry_blockPiP7nnode_tsP9netlist_ts
FN:1257,_Z12is_ast_adderP10ast_node_t
FNDA:0,_Z12is_ast_adderP10ast_node_t
DA:66,0
DA:67,0
DA:69,0
DA:70,0
DA:71,0
DA:76,0
DA:77,0
DA:78,0
DA:79,0
DA:80,0
DA:95,0
DA:96,0
DA:99,0
DA:100,0
DA:101,0
DA:102,0
DA:104,0
DA:105,0
DA:107,0
DA:108,0
DA:110,0
DA:111,0
DA:113,0
DA:114,0
DA:116,0
DA:122,0
DA:123,0
DA:126,0
DA:128,0
DA:129,0
DA:130,0
DA:131,0
DA:133,0
DA:143,0
DA:144,0
DA:145,0
DA:148,0
DA:149,0
DA:151,0
DA:152,0
DA:153,0
DA:154,0
DA:156,0
DA:157,0
DA:160,0
DA:164,0
DA:165,0
DA:166,0
DA:167,0
DA:168,0
DA:169,0
DA:170,0
DA:171,0
DA:172,0
DA:178,0
DA:179,0
DA:180,0
DA:182,0
DA:185,0
DA:186,0
DA:187,0
DA:193,0
DA:195,0
DA:196,0
DA:198,0
DA:199,0
DA:202,0
DA:203,0
DA:204,0
DA:205,0
DA:206,0
DA:207,0
DA:211,0
DA:212,0
DA:218,0
DA:219,0
DA:220,0
DA:221,0
DA:222,0
DA:223,0
DA:224,0
DA:225,0
DA:228,0
DA:229,0
DA:232,0
DA:233,0
DA:234,0
DA:235,0
DA:236,0
DA:237,0
DA:239,0
DA:240,0
DA:241,0
DA:242,0
DA:245,0
DA:246,0
DA:250,0
DA:255,0
DA:258,0
DA:259,0
DA:260,0
DA:261,0
DA:262,0
DA:263,0
DA:264,0
DA:266,0
DA:268,0
DA:269,0
DA:271,0
DA:273,0
DA:276,0
DA:277,0
DA:278,0
DA:279,0
DA:280,0
DA:282,0
DA:285,0
DA:286,0
DA:287,0
DA:289,0
DA:291,0
DA:292,0
DA:293,0
DA:294,0
DA:296,0
DA:303,0
DA:304,0
DA:305,0
DA:306,0
DA:308,0
DA:309,0
DA:310,0
DA:311,0
DA:312,0
DA:313,0
DA:314,0
DA:317,0
DA:320,0
DA:321,0
DA:323,0
DA:324,0
DA:325,0
DA:327,0
DA:328,0
DA:329,0
DA:330,0
DA:332,0
DA:334,0
DA:335,0
DA:337,0
DA:340,0
DA:341,0
DA:344,0
DA:348,0
DA:349,0
DA:350,0
DA:352,0
DA:353,0
DA:354,0
DA:357,0
DA:360,0
DA:361,0
DA:374,0
DA:375,0
DA:376,0
DA:377,0
DA:378,0
DA:383,0
DA:386,0
DA:387,0
DA:388,0
DA:389,0
DA:390,0
DA:393,0
DA:396,0
DA:397,0
DA:399,0
DA:401,0
DA:405,0
DA:406,0
DA:407,0
DA:410,0
DA:412,0
DA:416,0
DA:417,0
DA:418,0
DA:421,0
DA:424,0
DA:425,0
DA:428,0
DA:432,0
DA:433,0
DA:434,0
DA:435,0
DA:436,0
DA:437,0
DA:438,0
DA:439,0
DA:442,0
DA:443,0
DA:445,0
DA:448,0
DA:449,0
DA:451,0
DA:452,0
DA:453,0
DA:454,0
DA:455,0
DA:456,0
DA:457,0
DA:458,0
DA:459,0
DA:460,0
DA:461,0
DA:463,0
DA:464,0
DA:467,0
DA:468,0
DA:469,0
DA:470,0
DA:472,0
DA:473,0
DA:476,0
DA:477,0
DA:478,0
DA:479,0
DA:480,0
DA:481,0
DA:482,0
DA:483,0
DA:487,0
DA:488,0
DA:489,0
DA:490,0
DA:494,0
DA:495,0
DA:497,0
DA:498,0
DA:499,0
DA:502,0
DA:503,0
DA:505,0
DA:506,0
DA:507,0
DA:508,0
DA:509,0
DA:516,0
DA:517,0
DA:518,0
DA:519,0
DA:520,0
DA:521,0
DA:522,0
DA:523,0
DA:524,0
DA:525,0
DA:526,0
DA:528,0
DA:529,0
DA:532,0
DA:533,0
DA:534,0
DA:535,0
DA:537,0
DA:538,0
DA:541,0
DA:542,0
DA:543,0
DA:544,0
DA:545,0
DA:546,0
DA:547,0
DA:548,0
DA:552,0
DA:553,0
DA:554,0
DA:555,0
DA:559,0
DA:560,0
DA:561,0
DA:562,0
DA:563,0
DA:566,0
DA:567,0
DA:569,0
DA:570,0
DA:571,0
DA:572,0
DA:573,0
DA:581,0
DA:582,0
DA:586,0
DA:587,0
DA:588,0
DA:590,0
DA:592,0
DA:593,0
DA:594,0
DA:595,0
DA:597,0
DA:613,0
DA:614,0
DA:615,0
DA:616,0
DA:617,0
DA:618,0
DA:623,0
DA:626,0
DA:627,0
DA:629,0
DA:631,0
DA:632,0
DA:633,0
DA:634,0
DA:635,0
DA:637,0
DA:638,0
DA:640,0
DA:644,0
DA:645,0
DA:648,0
DA:650,0
DA:651,0
DA:654,0
DA:655,0
DA:659,0
DA:662,0
DA:665,0
DA:667,0
DA:668,0
DA:670,0
DA:671,0
DA:672,0
DA:673,0
DA:676,0
DA:678,0
DA:679,0
DA:681,0
DA:682,0
DA:685,0
DA:687,0
DA:688,0
DA:690,0
DA:693,0
DA:694,0
DA:695,0
DA:696,0
DA:701,0
DA:702,0
DA:703,0
DA:704,0
DA:705,0
DA:709,0
DA:711,0
DA:715,0
DA:716,0
DA:719,0
DA:720,0
DA:721,0
DA:722,0
DA:723,0
DA:725,0
DA:726,0
DA:729,0
DA:730,0
DA:733,0
DA:734,0
DA:735,0
DA:739,0
DA:740,0
DA:742,0
DA:743,0
DA:744,0
DA:747,0
DA:748,0
DA:750,0
DA:751,0
DA:753,0
DA:755,0
DA:759,0
DA:761,0
DA:763,0
DA:765,0
DA:766,0
DA:767,0
DA:769,0
DA:771,0
DA:777,0
DA:778,0
DA:779,0
DA:782,0
DA:783,0
DA:784,0
DA:785,0
DA:786,0
DA:798,0
DA:799,0
DA:800,0
DA:801,0
DA:802,0
DA:803,0
DA:807,0
DA:810,0
DA:813,0
DA:814,0
DA:815,0
DA:817,0
DA:819,0
DA:820,0
DA:821,0
DA:822,0
DA:823,0
DA:824,0
DA:826,0
DA:828,0
DA:829,0
DA:830,0
DA:831,0
DA:832,0
DA:837,0
DA:839,0
DA:841,0
DA:844,0
DA:845,0
DA:846,0
DA:850,0
DA:861,0
DA:862,0
DA:863,0
DA:864,0
DA:872,0
DA:873,0
DA:874,0
DA:875,0
DA:876,0
DA:877,0
DA:878,0
DA:879,0
DA:881,0
DA:882,0
DA:883,0
DA:884,0
DA:886,0
DA:887,0
DA:888,0
DA:889,0
DA:896,0
DA:897,0
DA:904,0
DA:905,0
DA:906,0
DA:907,0
DA:909,0
DA:914,0
DA:915,0
DA:916,0
DA:917,0
DA:918,0
DA:919,0
DA:920,0
DA:921,0
DA:922,0
DA:923,0
DA:924,0
DA:925,0
DA:926,0
DA:927,0
DA:928,0
DA:929,0
DA:930,0
DA:931,0
DA:932,0
DA:933,0
DA:934,0
DA:935,0
DA:940,0
DA:941,0
DA:943,0
DA:944,0
DA:947,0
DA:952,0
DA:953,0
DA:954,0
DA:955,0
DA:956,0
DA:957,0
DA:958,0
DA:959,0
DA:960,0
DA:961,0
DA:962,0
DA:963,0
DA:964,0
DA:965,0
DA:966,0
DA:967,0
DA:968,0
DA:969,0
DA:970,0
DA:971,0
DA:972,0
DA:973,0
DA:974,0
DA:976,0
DA:977,0
DA:982,0
DA:983,0
DA:984,0
DA:985,0
DA:993,0
DA:994,0
DA:998,0
DA:999,0
DA:1000,0
DA:1003,0
DA:1004,0
DA:1005,0
DA:1010,0
DA:1018,0
DA:1019,0
DA:1021,0
DA:1024,0
DA:1025,0
DA:1026,0
DA:1027,0
DA:1028,0
DA:1029,0
DA:1031,0
DA:1032,0
DA:1033,0
DA:1034,0
DA:1035,0
DA:1036,0
DA:1037,0
DA:1047,0
DA:1048,0
DA:1049,0
DA:1050,0
DA:1051,0
DA:1056,0
DA:1057,0
DA:1058,0
DA:1060,0
DA:1061,0
DA:1062,0
DA:1067,0
DA:1068,0
DA:1069,0
DA:1070,0
DA:1071,0
DA:1072,0
DA:1075,0
DA:1076,0
DA:1077,0
DA:1079,0
DA:1080,0
DA:1082,0
DA:1087,0
DA:1088,0
DA:1089,0
DA:1090,0
DA:1091,0
DA:1092,0
DA:1093,0
DA:1094,0
DA:1095,0
DA:1096,0
DA:1097,0
DA:1098,0
DA:1099,0
DA:1100,0
DA:1102,0
DA:1106,0
DA:1111,0
DA:1112,0
DA:1113,0
DA:1114,0
DA:1117,0
DA:1118,0
DA:1123,0
DA:1124,0
DA:1125,0
DA:1126,0
DA:1127,0
DA:1128,0
DA:1129,0
DA:1130,0
DA:1131,0
DA:1135,0
DA:1140,0
DA:1144,0
DA:1150,0
DA:1152,0
DA:1153,0
DA:1155,0
DA:1156,0
DA:1157,0
DA:1159,0
DA:1160,0
DA:1163,0
DA:1168,0
DA:1170,0
DA:1171,0
DA:1173,0
DA:1174,0
DA:1175,0
DA:1176,0
DA:1177,0
DA:1178,0
DA:1179,0
DA:1180,0
DA:1181,0
DA:1182,0
DA:1184,0
DA:1185,0
DA:1186,0
DA:1190,0
DA:1191,0
DA:1192,0
DA:1197,0
DA:1198,0
DA:1199,0
DA:1200,0
DA:1201,0
DA:1202,0
DA:1203,0
DA:1204,0
DA:1206,0
DA:1209,0
DA:1213,0
DA:1215,0
DA:1216,0
DA:1217,0
DA:1218,0
DA:1219,0
DA:1220,0
DA:1221,0
DA:1222,0
DA:1223,0
DA:1225,0
DA:1226,0
DA:1227,0
DA:1228,0
DA:1230,0
DA:1234,0
DA:1235,0
DA:1238,0
DA:1241,0
DA:1242,0
DA:1244,0
DA:1246,0
DA:1249,0
DA:1250,0
DA:1251,0
DA:1253,0
DA:1255,0
DA:1257,0
DA:1258,0
DA:1259,0
DA:1260,0
DA:1261,0
DA:1263,0
DA:1264,0
DA:1266,0
DA:1267,0
DA:1269,0
DA:1276,0
end_of_record
SF:/workspace/vtr-verilog-to-routing/libs/librtlnumber/src/include/rtl_utils.hpp
FN:46,_Z12_assert_WerrbPKciNSt7__cxx1112basic_stringIcSt11char_traitsIcESaIcEEE
FNDA:0,_Z12_assert_WerrbPKciNSt7__cxx1112basic_stringIcSt11char_traitsIcESaIcEEE
DA:46,0
DA:47,0
DA:48,0
DA:49,0
DA:50,0
DA:51,0
DA:53,0
end_of_record
SF:/usr/include/c++/9/bits/ptr_traits.h
DA:146,0
DA:147,0
end_of_record
SF:/usr/include/c++/9/bits/stl_iterator_base_funcs.h
DA:98,0
DA:104,0
DA:138,0
DA:141,0
end_of_record
SF:/usr/include/c++/9/bits/alloc_traits.h
DA:469,0
DA:470,0
end_of_record
SF:/usr/include/c++/9/ext/type_traits.h
DA:152,0
end_of_record
SF:/usr/include/c++/9/bits/move.h
DA:47,0
DA:99,0
DA:138,0
DA:139,0
end_of_record
SF:/usr/include/c++/9/bits/stl_vector.h
DA:1040,0
DA:1043,0
end_of_record
TN:
SF:/usr/include/c++/9/ostream
DA:108,0
DA:113,0
DA:565,0
DA:568,0
DA:570,0
DA:571,0
end_of_record
SF:/usr/include/c++/9/ext/string_conversions.h
FN:99,_ZN9__gnu_cxx12__to_xstringINSt7__cxx1112basic_stringIcSt11char_traitsIcESaIcEEEcEET_PFiPT0_mPKS8_P13__va_list_tagEmSB_z
FNDA:0,_ZN9__gnu_cxx12__to_xstringINSt7__cxx1112basic_stringIcSt11char_traitsIcESaIcEEEcEET_PFiPT0_mPKS8_P13__va_list_tagEmSB_z
DA:99,0
DA:105,0
DA:109,0
DA:111,0
DA:113,0
DA:115,0
end_of_record
SF:/usr/include/c++/9/bits/stl_uninitialized.h
FN:76,_ZNSt20__uninitialized_copyILb0EE13__uninit_copyIPK7VNumberPS2_EET0_T_S7_S6_
FNDA:0,_ZNSt20__uninitialized_copyILb0EE13__uninit_copyIPK7VNumberPS2_EET0_T_S7_S6_
DA:76,0
DA:79,0
DA:82,0
DA:83,0
DA:84,0
DA:86,0
DA:88,0
DA:89,0
DA:115,0
DA:134,0
DA:140,0
DA:305,0
DA:307,0
DA:905,0
DA:912,0
DA:913,0
DA:949,0
DA:950,0
DA:964,0
end_of_record
SF:/usr/include/c++/9/bits/locale_facets.h
FN:872,_ZNKSt5ctypeIcE5widenEc
FNDA:0,_ZNKSt5ctypeIcE5widenEc
FN:1084,_ZNKSt5ctypeIcE8do_widenEc
FNDA:0,_ZNKSt5ctypeIcE8do_widenEc
DA:872,0
DA:874,0
DA:875,0
DA:876,0
DA:877,0
DA:1084,0
DA:1085,0
end_of_record
SF:/usr/include/x86_64-linux-gnu/bits/stdio2.h
DA:105,0
DA:107,0
end_of_record
SF:/usr/include/c++/9/iostream
end_of_record
SF:/usr/include/c++/9/ext/new_allocator.h
DA:80,0
DA:83,0
DA:89,0
DA:119,0
DA:128,0
DA:132,0
DA:144,0
DA:147,0
DA:151,0
end_of_record
SF:/workspace/vtr-verilog-to-routing/libs/librtlnumber/src/include/internal_bits.hpp
FN:308,_ZN8BitSpaceL13bits_to_hex_cEsb
FNDA:0,_ZN8BitSpaceL13bits_to_hex_cEsb
FN:449,_ZN8BitSpace11VerilogBitsC2Emh
FNDA:0,_ZN8BitSpace11VerilogBitsC2Emh
FN:505,_ZN8BitSpace11VerilogBits9to_stringB5cxx11Ebb
FNDA:0,_ZN8BitSpace11VerilogBits9to_stringB5cxx11Ebb
FN:520,_ZN8BitSpace11VerilogBits10to_UstringB5cxx11Eb
FNDA:0,_ZN8BitSpace11VerilogBits10to_UstringB5cxx11Eb
FN:535,_ZN8BitSpace11VerilogBits12to_log2radixB5cxx11Esb
FNDA:0,_ZN8BitSpace11VerilogBits12to_log2radixB5cxx11Esb
FN:554,_ZN8BitSpace11VerilogBits12to_printableB5cxx11Ev
FNDA:0,_ZN8BitSpace11VerilogBits12to_printableB5cxx11Ev
FN:648,_ZN8BitSpace11VerilogBits6resizeEhm
FNDA:0,_ZN8BitSpace11VerilogBits6resizeEhm
FN:749,_ZN7VNumberC2ERKS_
FNDA:0,_ZN7VNumberC2ERKS_
FN:755,_ZN7VNumberC2ES_m
FNDA:0,_ZN7VNumberC2ES_m
FN:778,_ZN7VNumber9get_valueEv
FNDA:0,_ZN7VNumber9get_valueEv
FN:812,_ZN7VNumber10to_vstringB5cxx11Ec
FNDA:0,_ZN7VNumber10to_vstringB5cxx11Ec
FN:972,_ZN7VNumber16get_bit_from_msbEm
FNDA:0,_ZN7VNumber16get_bit_from_msbEm
DA:286,0
DA:287,0
DA:290,0
DA:291,0
DA:292,0
DA:293,0
DA:294,0
DA:295,0
DA:299,0
DA:300,0
DA:303,0
DA:304,0
DA:308,0
DA:309,0
DA:312,0
DA:313,0
DA:314,0
DA:315,0
DA:316,0
DA:317,0
DA:318,0
DA:319,0
DA:320,0
DA:321,0
DA:322,0
DA:323,0
DA:324,0
DA:325,0
DA:326,0
DA:327,0
DA:328,0
DA:329,0
DA:330,0
DA:331,0
DA:332,0
DA:333,0
DA:334,0
DA:335,0
DA:336,0
DA:337,0
DA:338,0
DA:339,0
DA:340,0
DA:341,0
DA:342,0
DA:343,0
DA:346,0
DA:349,0
DA:371,0
DA:372,0
DA:373,0
DA:374,0
DA:379,0
DA:380,0
DA:385,0
DA:386,0
DA:387,0
DA:389,0
DA:393,0
DA:394,0
DA:396,0
DA:397,0
DA:399,0
DA:400,0
DA:401,0
DA:403,0
DA:404,0
DA:411,0
DA:413,0
DA:414,0
DA:420,0
DA:430,0
DA:435,0
DA:436,0
DA:449,0
DA:450,0
DA:451,0
DA:453,0
DA:455,0
DA:456,0
DA:458,0
DA:465,0
DA:466,0
DA:473,0
DA:481,0
DA:484,0
DA:492,0
DA:495,0
DA:502,0
DA:505,0
DA:507,0
DA:508,0
DA:509,0
DA:510,0
DA:511,0
DA:513,0
DA:517,0
DA:520,0
DA:522,0
DA:523,0
DA:524,0
DA:525,0
DA:526,0
DA:528,0
DA:532,0
DA:535,0
DA:536,0
DA:539,0
DA:540,0
DA:541,0
DA:543,0
DA:545,0
DA:546,0
DA:551,0
DA:554,0
DA:555,0
DA:557,0
DA:558,0
DA:561,0
DA:564,0
DA:565,0
DA:566,0
DA:648,0
DA:652,0
DA:653,0
DA:654,0
DA:656,0
DA:657,0
DA:658,0
DA:660,0
DA:661,0
DA:662,0
DA:668,0
DA:671,0
DA:673,0
DA:675,0
DA:676,0
DA:677,0
DA:680,0
DA:681,0
DA:682,0
DA:685,0
DA:707,0
DA:749,0
DA:750,0
DA:751,0
DA:752,0
DA:753,0
DA:755,0
DA:756,0
DA:757,0
DA:759,0
DA:778,0
DA:779,0
DA:781,0
DA:784,0
DA:785,0
DA:786,0
DA:787,0
DA:790,0
DA:791,0
DA:793,0
DA:794,0
DA:795,0
DA:796,0
DA:798,0
DA:801,0
DA:812,0
DA:813,0
DA:814,0
DA:817,0
DA:822,0
DA:823,0
DA:824,0
DA:825,0
DA:826,0
DA:827,0
DA:828,0
DA:829,0
DA:830,0
DA:831,0
DA:832,0
DA:833,0
DA:834,0
DA:835,0
DA:836,0
DA:837,0
DA:838,0
DA:839,0
DA:840,0
DA:841,0
DA:842,0
DA:843,0
DA:844,0
DA:845,0
DA:846,0
DA:847,0
DA:848,0
DA:850,0
DA:851,0
DA:852,0
DA:854,0
DA:856,0
DA:965,0
DA:966,0
DA:972,0
DA:973,0
DA:974,0
DA:995,0
DA:996,0
DA:999,0
DA:1000,0
DA:1003,0
DA:1004,0
DA:1015,0
DA:1016,0
end_of_record
SF:/workspace/vtr-verilog-to-routing/ODIN_II/SRC/ast_elaborate.cpp
FN:155,_Z15find_top_moduleP5ast_t
FNDA:0,_Z15find_top_moduleP5ast_t
FN:225,_Z19simplify_ast_modulePP10ast_node_tP12sc_hierarchy
FNDA:0,_Z19simplify_ast_modulePP10ast_node_tP12sc_hierarchy
FN:285,_Z15build_hierarchyP10ast_node_tS0_iP12sc_hierarchybbP6e_data
FNDA:0,_Z15build_hierarchyP10ast_node_tS0_iP12sc_hierarchybbP6e_data
FN:1128,_Z12finalize_astP10ast_node_tS0_P12sc_hierarchybb
FNDA:0,_Z12finalize_astP10ast_node_tS0_P12sc_hierarchybb
FN:1771,_Z18reduce_expressionsP10ast_node_tP12sc_hierarchyPll
FNDA:0,_Z18reduce_expressionsP10ast_node_tP12sc_hierarchyPll
FN:2111,_Z20update_string_cachesP12sc_hierarchy
FNDA:0,_Z20update_string_cachesP12sc_hierarchy
FN:2160,_Z31update_instance_parameter_tableP10ast_node_tP12STRING_CACHE
FNDA:0,_Z31update_instance_parameter_tableP10ast_node_tP12STRING_CACHE
FN:2252,_Z37override_parameters_for_all_instancesP10ast_node_tP12sc_hierarchy
FNDA:0,_Z37override_parameters_for_all_instancesP10ast_node_tP12sc_hierarchy
FN:2287,_Z22convert_2D_to_1D_arrayPP10ast_node_t
FNDA:0,_Z22convert_2D_to_1D_arrayPP10ast_node_t
FN:2336,_Z26convert_2D_to_1D_array_refPP10ast_node_tP12sc_hierarchy
FNDA:0,_Z26convert_2D_to_1D_array_refPP10ast_node_tP12sc_hierarchy
FN:2363,_Z15verify_terminalP10ast_node_tS0_
FNDA:0,_Z15verify_terminalP10ast_node_tS0_
FN:2379,_Z14verify_genvarsP10ast_node_tP12sc_hierarchyPPPci
FNDA:0,_Z14verify_genvarsP10ast_node_tP12sc_hierarchyPPPci
FN:2428,_Z28look_for_matching_hard_blockP10ast_node_tPcP12sc_hierarchy
FNDA:0,_Z28look_for_matching_hard_blockP10ast_node_tPcP12sc_hierarchy
FN:2620,_Z28look_for_matching_soft_logicP10ast_node_tPc
FNDA:0,_Z28look_for_matching_soft_logicP10ast_node_tPc
FN:2642,_Z28create_param_table_for_scopeP10ast_node_tP12sc_hierarchy
FNDA:0,_Z28create_param_table_for_scopeP10ast_node_tP12sc_hierarchy
DA:155,0
DA:156,0
DA:158,0
DA:161,0
DA:162,0
DA:163,0
DA:165,0
DA:166,0
DA:167,0
DA:168,0
DA:171,0
DA:172,0
DA:174,0
DA:175,0
DA:177,0
DA:178,0
DA:181,0
DA:182,0
DA:184,0
DA:185,0
DA:186,0
DA:187,0
DA:188,0
DA:189,0
DA:194,0
DA:196,0
DA:198,0
DA:200,0
DA:201,0
DA:203,0
DA:204,0
DA:212,0
DA:213,0
DA:216,0
DA:217,0
DA:219,0
DA:222,0
DA:225,0
DA:227,0
DA:230,0
DA:232,0
DA:233,0
DA:234,0
DA:236,0
DA:237,0
DA:238,0
DA:240,0
DA:245,0
DA:246,0
DA:249,0
DA:252,0
DA:253,0
DA:254,0
DA:255,0
DA:256,0
DA:257,0
DA:259,0
DA:260,0
DA:264,0
DA:265,0
DA:266,0
DA:268,0
DA:269,0
DA:270,0
DA:271,0
DA:272,0
DA:274,0
DA:275,0
DA:285,0
DA:286,0
DA:287,0
DA:289,0
DA:290,0
DA:292,0
DA:293,0
DA:294,0
DA:298,0
DA:302,0
DA:305,0
DA:307,0
DA:308,0
DA:309,0
DA:312,0
DA:315,0
DA:316,0
DA:317,0
DA:318,0
DA:323,0
DA:324,0
DA:327,0
DA:329,0
DA:330,0
DA:331,0
DA:332,0
DA:333,0
DA:334,0
DA:336,0
DA:337,0
DA:338,0
DA:344,0
DA:345,0
DA:347,0
DA:348,0
DA:350,0
DA:351,0
DA:353,0
DA:354,0
DA:356,0
DA:357,0
DA:359,0
DA:360,0
DA:362,0
DA:363,0
DA:367,0
DA:370,0
DA:371,0
DA:372,0
DA:375,0
DA:376,0
DA:377,0
DA:380,0
DA:381,0
DA:382,0
DA:383,0
DA:384,0
DA:386,0
DA:387,0
DA:388,0
DA:390,0
DA:391,0
DA:393,0
DA:394,0
DA:395,0
DA:396,0
DA:401,0
DA:402,0
DA:403,0
DA:404,0
DA:408,0
DA:409,0
DA:411,0
DA:412,0
DA:414,0
DA:415,0
DA:417,0
DA:418,0
DA:420,0
DA:421,0
DA:423,0
DA:424,0
DA:426,0
DA:427,0
DA:431,0
DA:433,0
DA:434,0
DA:435,0
DA:436,0
DA:438,0
DA:439,0
DA:440,0
DA:441,0
DA:442,0
DA:443,0
DA:444,0
DA:445,0
DA:448,0
DA:449,0
DA:451,0
DA:452,0
DA:456,0
DA:457,0
DA:460,0
DA:461,0
DA:463,0
DA:464,0
DA:466,0
DA:468,0
DA:469,0
DA:470,0
DA:473,0
DA:474,0
DA:475,0
DA:477,0
DA:478,0
DA:479,0
DA:480,0
DA:484,0
DA:485,0
DA:491,0
DA:492,0
DA:494,0
DA:495,0
DA:497,0
DA:498,0
DA:500,0
DA:501,0
DA:503,0
DA:504,0
DA:506,0
DA:507,0
DA:509,0
DA:510,0
DA:514,0
DA:516,0
DA:517,0
DA:518,0
DA:519,0
DA:520,0
DA:521,0
DA:522,0
DA:523,0
DA:524,0
DA:526,0
DA:527,0
DA:531,0
DA:532,0
DA:533,0
DA:534,0
DA:535,0
DA:536,0
DA:537,0
DA:539,0
DA:540,0
DA:549,0
DA:550,0
DA:553,0
DA:554,0
DA:556,0
DA:557,0
DA:559,0
DA:561,0
DA:562,0
DA:563,0
DA:566,0
DA:567,0
DA:568,0
DA:570,0
DA:571,0
DA:572,0
DA:573,0
DA:577,0
DA:578,0
DA:581,0
DA:582,0
DA:583,0
DA:585,0
DA:588,0
DA:589,0
DA:595,0
DA:596,0
DA:597,0
DA:598,0
DA:599,0
DA:601,0
DA:602,0
DA:606,0
DA:607,0
DA:608,0
DA:609,0
DA:610,0
DA:611,0
DA:615,0
DA:616,0
DA:617,0
DA:619,0
DA:620,0
DA:624,0
DA:625,0
DA:626,0
DA:627,0
DA:628,0
DA:630,0
DA:631,0
DA:632,0
DA:636,0
DA:637,0
DA:638,0
DA:639,0
DA:641,0
DA:642,0
DA:646,0
DA:647,0
DA:652,0
DA:653,0
DA:655,0
DA:656,0
DA:658,0
DA:659,0
DA:661,0
DA:662,0
DA:664,0
DA:665,0
DA:666,0
DA:667,0
DA:668,0
DA:669,0
DA:676,0
DA:677,0
DA:681,0
DA:682,0
DA:684,0
DA:685,0
DA:686,0
DA:692,0
DA:696,0
DA:697,0
DA:698,0
DA:700,0
DA:701,0
DA:702,0
DA:704,0
DA:707,0
DA:711,0
DA:712,0
DA:713,0
DA:714,0
DA:718,0
DA:719,0
DA:720,0
DA:725,0
DA:727,0
DA:732,0
DA:733,0
DA:734,0
DA:737,0
DA:738,0
DA:741,0
DA:742,0
DA:743,0
DA:744,0
DA:746,0
DA:747,0
DA:754,0
DA:755,0
DA:756,0
DA:758,0
DA:759,0
DA:761,0
DA:762,0
DA:763,0
DA:766,0
DA:768,0
DA:769,0
DA:775,0
DA:780,0
DA:781,0
DA:783,0
DA:784,0
DA:785,0
DA:788,0
DA:790,0
DA:791,0
DA:796,0
DA:798,0
DA:799,0
DA:800,0
DA:801,0
DA:804,0
DA:805,0
DA:806,0
DA:807,0
DA:808,0
DA:809,0
DA:812,0
DA:813,0
DA:814,0
DA:815,0
DA:818,0
DA:821,0
DA:824,0
DA:829,0
DA:830,0
DA:832,0
DA:833,0
DA:834,0
DA:837,0
DA:839,0
DA:840,0
DA:845,0
DA:847,0
DA:848,0
DA:849,0
DA:850,0
DA:853,0
DA:854,0
DA:855,0
DA:856,0
DA:857,0
DA:860,0
DA:861,0
DA:862,0
DA:863,0
DA:866,0
DA:869,0
DA:874,0
DA:878,0
DA:879,0
DA:880,0
DA:881,0
DA:882,0
DA:883,0
DA:884,0
DA:885,0
DA:887,0
DA:888,0
DA:890,0
DA:891,0
DA:893,0
DA:894,0
DA:895,0
DA:896,0
DA:897,0
DA:898,0
DA:902,0
DA:903,0
DA:904,0
DA:907,0
DA:908,0
DA:910,0
DA:911,0
DA:912,0
DA:918,0
DA:919,0
DA:921,0
DA:922,0
DA:923,0
DA:926,0
DA:928,0
DA:929,0
DA:934,0
DA:936,0
DA:937,0
DA:938,0
DA:940,0
DA:943,0
DA:944,0
DA:945,0
DA:947,0
DA:948,0
DA:949,0
DA:950,0
DA:953,0
DA:954,0
DA:955,0
DA:956,0
DA:959,0
DA:962,0
DA:964,0
DA:967,0
DA:971,0
DA:972,0
DA:974,0
DA:977,0
DA:978,0
DA:979,0
DA:980,0
DA:981,0
DA:982,0
DA:983,0
DA:985,0
DA:986,0
DA:988,0
DA:989,0
DA:993,0
DA:994,0
DA:996,0
DA:1001,0
DA:1002,0
DA:1003,0
DA:1005,0
DA:1006,0
DA:1008,0
DA:1011,0
DA:1013,0
DA:1015,0
DA:1020,0
DA:1021,0
DA:1023,0
DA:1028,0
DA:1029,0
DA:1030,0
DA:1032,0
DA:1034,0
DA:1036,0
DA:1040,0
DA:1042,0
DA:1043,0
DA:1044,0
DA:1045,0
DA:1046,0
DA:1051,0
DA:1052,0
DA:1057,0
DA:1058,0
DA:1060,0
DA:1061,0
DA:1062,0
DA:1064,0
DA:1066,0
DA:1068,0
DA:1069,0
DA:1070,0
DA:1071,0
DA:1072,0
DA:1073,0
DA:1075,0
DA:1078,0
DA:1080,0
DA:1083,0
DA:1088,0
DA:1089,0
DA:1090,0
DA:1091,0
DA:1092,0
DA:1103,0
DA:1111,0
DA:1112,0
DA:1115,0
DA:1128,0
DA:1129,0
DA:1130,0
DA:1132,0
DA:1133,0
DA:1135,0
DA:1136,0
DA:1137,0
DA:1141,0
DA:1142,0
DA:1143,0
DA:1146,0
DA:1148,0
DA:1150,0
DA:1151,0
DA:1152,0
DA:1156,0
DA:1158,0
DA:1159,0
DA:1160,0
DA:1164,0
DA:1167,0
DA:1168,0
DA:1169,0
DA:1170,0
DA:1179,0
DA:1180,0
DA:1181,0
DA:1185,0
DA:1187,0
DA:1188,0
DA:1189,0
DA:1193,0
DA:1196,0
DA:1197,0
DA:1198,0
DA:1199,0
DA:1200,0
DA:1201,0
DA:1210,0
DA:1212,0
DA:1213,0
DA:1215,0
DA:1216,0
DA:1217,0
DA:1219,0
DA:1220,0
DA:1221,0
DA:1223,0
DA:1224,0
DA:1226,0
DA:1232,0
DA:1233,0
DA:1234,0
DA:1235,0
DA:1237,0
DA:1238,0
DA:1239,0
DA:1240,0
DA:1241,0
DA:1243,0
DA:1244,0
DA:1245,0
DA:1249,0
DA:1250,0
DA:1251,0
DA:1252,0
DA:1254,0
DA:1255,0
DA:1259,0
DA:1260,0
DA:1265,0
DA:1266,0
DA:1269,0
DA:1270,0
DA:1271,0
DA:1274,0
DA:1275,0
DA:1276,0
DA:1279,0
DA:1280,0
DA:1281,0
DA:1282,0
DA:1283,0
DA:1285,0
DA:1286,0
DA:1287,0
DA:1289,0
DA:1290,0
DA:1292,0
DA:1293,0
DA:1294,0
DA:1295,0
DA:1300,0
DA:1301,0
DA:1302,0
DA:1304,0
DA:1305,0
DA:1306,0
DA:1307,0
DA:1308,0
DA:1310,0
DA:1311,0
DA:1313,0
DA:1314,0
DA:1316,0
DA:1317,0
DA:1318,0
DA:1320,0
DA:1329,0
DA:1330,0
DA:1331,0
DA:1332,0
DA:1334,0
DA:1335,0
DA:1339,0
DA:1340,0
DA:1341,0
DA:1342,0
DA:1343,0
DA:1344,0
DA:1348,0
DA:1349,0
DA:1350,0
DA:1352,0
DA:1353,0
DA:1355,0
DA:1360,0
DA:1361,0
DA:1371,0
DA:1375,0
DA:1376,0
DA:1378,0
DA:1379,0
DA:1380,0
DA:1386,0
DA:1390,0
DA:1391,0
DA:1392,0
DA:1394,0
DA:1395,0
DA:1396,0
DA:1398,0
DA:1401,0
DA:1405,0
DA:1406,0
DA:1407,0
DA:1408,0
DA:1412,0
DA:1413,0
DA:1414,0
DA:1420,0
DA:1424,0
DA:1425,0
DA:1430,0
DA:1431,0
DA:1433,0
DA:1434,0
DA:1435,0
DA:1438,0
DA:1441,0
DA:1443,0
DA:1446,0
DA:1447,0
DA:1452,0
DA:1454,0
DA:1455,0
DA:1456,0
DA:1459,0
DA:1460,0
DA:1461,0
DA:1462,0
DA:1463,0
DA:1466,0
DA:1467,0
DA:1468,0
DA:1469,0
DA:1471,0
DA:1474,0
DA:1477,0
DA:1478,0
DA:1481,0
DA:1482,0
DA:1485,0
DA:1488,0
DA:1493,0
DA:1494,0
DA:1496,0
DA:1497,0
DA:1498,0
DA:1501,0
DA:1502,0
DA:1503,0
DA:1505,0
DA:1508,0
DA:1509,0
DA:1512,0
DA:1513,0
DA:1516,0
DA:1519,0
DA:1524,0
DA:1525,0
DA:1527,0
DA:1528,0
DA:1529,0
DA:1533,0
DA:1534,0
DA:1535,0
DA:1537,0
DA:1540,0
DA:1541,0
DA:1544,0
DA:1545,0
DA:1548,0
DA:1553,0
DA:1557,0
DA:1558,0
DA:1559,0
DA:1560,0
DA:1561,0
DA:1562,0
DA:1563,0
DA:1564,0
DA:1566,0
DA:1567,0
DA:1569,0
DA:1570,0
DA:1572,0
DA:1573,0
DA:1574,0
DA:1575,0
DA:1576,0
DA:1577,0
DA:1581,0
DA:1582,0
DA:1583,0
DA:1586,0
DA:1590,0
DA:1592,0
DA:1593,0
DA:1594,0
DA:1595,0
DA:1600,0
DA:1601,0
DA:1603,0
DA:1608,0
DA:1609,0
DA:1610,0
DA:1612,0
DA:1613,0
DA:1615,0
DA:1618,0
DA:1620,0
DA:1622,0
DA:1627,0
DA:1628,0
DA:1630,0
DA:1635,0
DA:1636,0
DA:1637,0
DA:1639,0
DA:1641,0
DA:1643,0
DA:1647,0
DA:1649,0
DA:1650,0
DA:1651,0
DA:1652,0
DA:1653,0
DA:1655,0
DA:1656,0
DA:1661,0
DA:1662,0
DA:1664,0
DA:1665,0
DA:1666,0
DA:1668,0
DA:1670,0
DA:1672,0
DA:1673,0
DA:1674,0
DA:1675,0
DA:1676,0
DA:1677,0
DA:1679,0
DA:1682,0
DA:1684,0
DA:1687,0
DA:1692,0
DA:1693,0
DA:1694,0
DA:1695,0
DA:1696,0
DA:1702,0
DA:1703,0
DA:1704,0
DA:1705,0
DA:1708,0
DA:1709,0
DA:1710,0
DA:1713,0
DA:1717,0
DA:1723,0
DA:1724,0
DA:1725,0
DA:1726,0
DA:1729,0
DA:1730,0
DA:1731,0
DA:1732,0
DA:1736,0
DA:1738,0
DA:1739,0
DA:1740,0
DA:1743,0
DA:1749,0
DA:1757,0
DA:1758,0
DA:1762,0
DA:1771,0
DA:1772,0
DA:1773,0
DA:1775,0
DA:1776,0
DA:1778,0
DA:1780,0
DA:1781,0
DA:1784,0
DA:1785,0
DA:1786,0
DA:1788,0
DA:1789,0
DA:1791,0
DA:1792,0
DA:1793,0
DA:1795,0
DA:1796,0
DA:1797,0
DA:1799,0
DA:1800,0
DA:1801,0
DA:1803,0
DA:1804,0
DA:1806,0
DA:1807,0
DA:1809,0
DA:1810,0
DA:1812,0
DA:1813,0
DA:1814,0
DA:1816,0
DA:1820,0
DA:1821,0
DA:1822,0
DA:1825,0
DA:1828,0
DA:1829,0
DA:1830,0
DA:1831,0
DA:1833,0
DA:1836,0
DA:1837,0
DA:1838,0
DA:1839,0
DA:1840,0
DA:1841,0
DA:1842,0
DA:1843,0
DA:1858,0
DA:1859,0
DA:1860,0
DA:1862,0
DA:1863,0
DA:1865,0
DA:1866,0
DA:1867,0
DA:1898,0
DA:1906,0
DA:1907,0
DA:1908,0
DA:1910,0
DA:1911,0
DA:1912,0
DA:1914,0
DA:1916,0
DA:1920,0
DA:1921,0
DA:1922,0
DA:1923,0
DA:1927,0
DA:1928,0
DA:1929,0
DA:1935,0
DA:1940,0
DA:1945,0
DA:1946,0
DA:1948,0
DA:1949,0
DA:1950,0
DA:1953,0
DA:1955,0
DA:1956,0
DA:1959,0
DA:1960,0
DA:1963,0
DA:1966,0
DA:1971,0
DA:1972,0
DA:1974,0
DA:1975,0
DA:1976,0
DA:1979,0
DA:1981,0
DA:1982,0
DA:1985,0
DA:1986,0
DA:1989,0
DA:1994,0
DA:1995,0
DA:1996,0
DA:1998,0
DA:1999,0
DA:2001,0
DA:2005,0
DA:2006,0
DA:2008,0
DA:2009,0
DA:2011,0
DA:2013,0
DA:2014,0
DA:2020,0
DA:2022,0
DA:2024,0
DA:2025,0
DA:2027,0
DA:2028,0
DA:2030,0
DA:2034,0
DA:2035,0
DA:2037,0
DA:2038,0
DA:2040,0
DA:2042,0
DA:2043,0
DA:2049,0
DA:2051,0
DA:2053,0
DA:2054,0
DA:2056,0
DA:2058,0
DA:2060,0
DA:2061,0
DA:2062,0
DA:2063,0
DA:2065,0
DA:2066,0
DA:2068,0
DA:2069,0
DA:2071,0
DA:2072,0
DA:2075,0
DA:2078,0
DA:2079,0
DA:2080,0
DA:2081,0
DA:2088,0
DA:2089,0
DA:2090,0
DA:2091,0
DA:2092,0
DA:2103,0
DA:2104,0
DA:2108,0
DA:2111,0
DA:2112,0
DA:2113,0
DA:2114,0
DA:2116,0
DA:2118,0
DA:2119,0
DA:2120,0
DA:2121,0
DA:2122,0
DA:2123,0
DA:2124,0
DA:2125,0
DA:2126,0
DA:2129,0
DA:2130,0
DA:2131,0
DA:2134,0
DA:2138,0
DA:2139,0
DA:2140,0
DA:2141,0
DA:2143,0
DA:2144,0
DA:2148,0
DA:2149,0
DA:2150,0
DA:2151,0
DA:2152,0
DA:2153,0
DA:2154,0
DA:2155,0
DA:2158,0
DA:2160,0
DA:2161,0
DA:2162,0
DA:2163,0
DA:2164,0
DA:2166,0
DA:2167,0
DA:2170,0
DA:2171,0
DA:2172,0
DA:2173,0
DA:2174,0
DA:2176,0
DA:2177,0
DA:2179,0
DA:2180,0
DA:2181,0
DA:2187,0
DA:2188,0
DA:2189,0
DA:2194,0
DA:2195,0
DA:2196,0
DA:2199,0
DA:2200,0
DA:2204,0
DA:2205,0
DA:2211,0
DA:2212,0
DA:2213,0
DA:2214,0
DA:2215,0
DA:2220,0
DA:2221,0
DA:2222,0
DA:2224,0
DA:2225,0
DA:2230,0
DA:2232,0
DA:2233,0
DA:2240,0
DA:2246,0
DA:2247,0
DA:2250,0
DA:2252,0
DA:2253,0
DA:2254,0
DA:2256,0
DA:2257,0
DA:2262,0
DA:2263,0
DA:2265,0
DA:2266,0
DA:2267,0
DA:2270,0
DA:2272,0
DA:2274,0
DA:2276,0
DA:2279,0
DA:2280,0
DA:2283,0
DA:2285,0
DA:2287,0
DA:2288,0
DA:2289,0
DA:2291,0
DA:2292,0
DA:2294,0
DA:2295,0
DA:2297,0
DA:2298,0
DA:2300,0
DA:2301,0
DA:2303,0
DA:2304,0
DA:2306,0
DA:2307,0
DA:2311,0
DA:2313,0
DA:2314,0
DA:2318,0
DA:2320,0
DA:2322,0
DA:2324,0
DA:2325,0
DA:2327,0
DA:2328,0
DA:2330,0
DA:2331,0
DA:2333,0
DA:2334,0
DA:2336,0
DA:2337,0
DA:2339,0
DA:2342,0
DA:2343,0
DA:2345,0
DA:2347,0
DA:2349,0
DA:2350,0
DA:2353,0
DA:2354,0
DA:2356,0
DA:2358,0
DA:2359,0
DA:2360,0
DA:2361,0
DA:2363,0
DA:2364,0
DA:2365,0
DA:2366,0
DA:2367,0
DA:2368,0
DA:2369,0
DA:2370,0
DA:2372,0
DA:2379,0
DA:2380,0
DA:2381,0
DA:2382,0
DA:2383,0
DA:2384,0
DA:2385,0
DA:2387,0
DA:2389,0
DA:2393,0
DA:2395,0
DA:2396,0
DA:2398,0
DA:2399,0
DA:2404,0
DA:2405,0
DA:2406,0
DA:2411,0
DA:2412,0
DA:2413,0
DA:2416,0
DA:2417,0
DA:2421,0
DA:2422,0
DA:2426,0
DA:2428,0
DA:2429,0
DA:2430,0
DA:2432,0
DA:2434,0
DA:2436,0
DA:2437,0
DA:2439,0
DA:2440,0
DA:2442,0
DA:2443,0
DA:2444,0
DA:2447,0
DA:2448,0
DA:2449,0
DA:2452,0
DA:2455,0
DA:2459,0
DA:2463,0
DA:2464,0
DA:2465,0
DA:2466,0
DA:2467,0
DA:2469,0
DA:2470,0
DA:2473,0
DA:2474,0
DA:2475,0
DA:2479,0
DA:2482,0
DA:2487,0
DA:2490,0
DA:2495,0
DA:2498,0
DA:2499,0
DA:2500,0
DA:2502,0
DA:2503,0
DA:2506,0
DA:2511,0
DA:2512,0
DA:2513,0
DA:2516,0
DA:2518,0
DA:2521,0
DA:2522,0
DA:2523,0
DA:2524,0
DA:2525,0
DA:2527,0
DA:2528,0
DA:2530,0
DA:2531,0
DA:2532,0
DA:2534,0
DA:2535,0
DA:2538,0
DA:2539,0
DA:2541,0
DA:2542,0
DA:2543,0
DA:2545,0
DA:2546,0
DA:2553,0
DA:2554,0
DA:2555,0
DA:2556,0
DA:2557,0
DA:2558,0
DA:2560,0
DA:2561,0
DA:2563,0
DA:2564,0
DA:2565,0
DA:2567,0
DA:2568,0
DA:2571,0
DA:2572,0
DA:2574,0
DA:2575,0
DA:2576,0
DA:2578,0
DA:2579,0
DA:2588,0
DA:2589,0
DA:2590,0
DA:2594,0
DA:2595,0
DA:2596,0
DA:2597,0
DA:2598,0
DA:2599,0
DA:2601,0
DA:2602,0
DA:2603,0
DA:2604,0
DA:2605,0
DA:2610,0
DA:2611,0
DA:2612,0
DA:2614,0
DA:2616,0
DA:2620,0
DA:2621,0
DA:2623,0
DA:2627,0
DA:2628,0
DA:2629,0
DA:2630,0
DA:2642,0
DA:2644,0
DA:2645,0
DA:2646,0
DA:2647,0
DA:2649,0
DA:2650,0
DA:2653,0
DA:2654,0
DA:2655,0
DA:2657,0
DA:2658,0
DA:2661,0
DA:2662,0
DA:2666,0
DA:2667,0
DA:2669,0
DA:2671,0
DA:2673,0
DA:2678,0
DA:2680,0
DA:2682,0
DA:2684,0
DA:2685,0
DA:2690,0
DA:2693,0
DA:2695,0
DA:2696,0
DA:2701,0
DA:2704,0
DA:2706,0
DA:2707,0
DA:2708,0
DA:2711,0
DA:2712,0
DA:2713,0
DA:2718,0
DA:2720,0
end_of_record
SF:/usr/include/c++/9/bits/basic_string.tcc
FN:206,_ZNSt7__cxx1112basic_stringIcSt11char_traitsIcESaIcEE12_M_constructIPcEEvT_S7_St20forward_iterator_tag
FNDA:0,_ZNSt7__cxx1112basic_stringIcSt11char_traitsIcESaIcEE12_M_constructIPcEEvT_S7_St20forward_iterator_tag
FN:206,_ZNSt7__cxx1112basic_stringIcSt11char_traitsIcESaIcEE12_M_constructIPKcEEvT_S8_St20forward_iterator_tag
FNDA:0,_ZNSt7__cxx1112basic_stringIcSt11char_traitsIcESaIcEE12_M_constructIPKcEEvT_S8_St20forward_iterator_tag
DA:206,0
DA:211,0
DA:212,0
DA:215,0
DA:217,0
DA:219,0
DA:220,0
DA:225,0
DA:232,0
DA:233,0
DA:206,0
DA:211,0
DA:212,0
DA:215,0
DA:217,0
DA:219,0
DA:220,0
DA:225,0
DA:232,0
DA:233,0
end_of_record
SF:/usr/include/c++/9/bits/cpp_type_traits.h
DA:428,0
end_of_record
SF:/usr/include/c++/9/bits/basic_string.h
FN:6057,_ZStplIcSt11char_traitsIcESaIcEENSt7__cxx1112basic_stringIT_T0_T1_EERKS8_PKS5_
FNDA:0,_ZStplIcSt11char_traitsIcESaIcEENSt7__cxx1112basic_stringIT_T0_T1_EERKS8_PKS5_
FN:6085,_ZStplIcSt11char_traitsIcESaIcEENSt7__cxx1112basic_stringIT_T0_T1_EEOS8_RKS8_
FNDA:0,_ZStplIcSt11char_traitsIcESaIcEENSt7__cxx1112basic_stringIT_T0_T1_EEOS8_RKS8_
FN:6109,_ZStplIcSt11char_traitsIcESaIcEENSt7__cxx1112basic_stringIT_T0_T1_EEPKS5_OS8_
FNDA:0,_ZStplIcSt11char_traitsIcESaIcEENSt7__cxx1112basic_stringIT_T0_T1_EEPKS5_OS8_
FN:6149,_ZSteqIcEN9__gnu_cxx11__enable_ifIXsrSt9__is_charIT_E7__valueEbE6__typeERKNSt7__cxx1112basic_stringIS3_St11char_traitsIS3_ESaIS3_EEESE_
FNDA:0,_ZSteqIcEN9__gnu_cxx11__enable_ifIXsrSt9__is_charIT_E7__valueEbE6__typeERKNSt7__cxx1112basic_stringIS3_St11char_traitsIS3_ESaIS3_EEESE_
DA:150,0
DA:156,0
DA:157,0
DA:159,0
DA:160,0
DA:178,0
DA:179,0
DA:182,0
DA:183,0
DA:186,0
DA:190,0
DA:193,0
DA:200,0
DA:203,0
DA:210,0
DA:211,0
DA:214,0
DA:216,0
DA:217,0
DA:221,0
DA:222,0
DA:229,0
DA:231,0
DA:232,0
DA:236,0
DA:237,0
DA:243,0
DA:247,0
DA:263,0
DA:266,0
DA:286,0
DA:287,0
DA:290,0
DA:291,0
DA:346,0
DA:348,0
DA:349,0
DA:351,0
DA:392,0
DA:393,0
DA:396,0
DA:398,0
DA:448,0
DA:450,0
DA:451,0
DA:540,0
DA:541,0
DA:542,0
DA:552,0
DA:553,0
DA:555,0
DA:557,0
DA:562,0
DA:563,0
DA:569,0
DA:570,0
DA:571,0
DA:625,0
DA:627,0
DA:628,0
DA:657,0
DA:658,0
DA:704,0
DA:705,0
DA:930,0
DA:936,0
DA:1168,0
DA:1169,0
DA:1177,0
DA:1178,0
DA:1221,0
DA:1222,0
DA:2300,0
DA:2301,0
DA:2312,0
DA:2313,0
DA:2571,0
DA:2572,0
DA:2655,0
DA:2656,0
DA:6057,0
DA:6060,0
DA:6061,0
DA:6062,0
DA:6085,0
DA:6087,0
DA:6109,0
DA:6111,0
DA:6149,0
DA:6151,0
DA:6152,0
DA:6153,0
DA:6175,0
DA:6177,0
DA:6213,0
DA:6215,0
DA:6416,0
DA:6421,0
DA:6546,0
DA:6547,0
DA:6548,0
DA:6557,0
DA:6558,0
DA:6559,0
end_of_record
SF:/usr/include/c++/9/bits/allocator.h
DA:138,0
DA:141,0
DA:142,0
DA:153,0
end_of_record
SF:/usr/include/c++/9/ext/alloc_traits.h
DA:97,0
DA:98,0
end_of_record
SF:/usr/include/c++/9/bits/char_traits.h
DA:299,0
DA:300,0
DA:315,0
DA:317,0
DA:325,0
DA:329,0
DA:335,0
DA:361,0
DA:363,0
DA:365,0
end_of_record
SF:/usr/include/c++/9/initializer_list
DA:71,0
DA:75,0
DA:79,0
end_of_record
SF:/workspace/vtr-verilog-to-routing/libs/EXTERNAL/libargparse/src/argparse_value.hpp
DA:50,0
DA:56,0
end_of_record
SF:/usr/include/c++/9/bits/stl_algobase.h
DA:198,0
DA:222,0
DA:227,0
DA:228,0
DA:280,0
DA:289,0
DA:290,0
DA:295,0
DA:375,0
DA:384,0
DA:385,0
DA:386,0
DA:387,0
DA:393,0
DA:398,0
DA:404,0
DA:438,0
DA:440,0
DA:465,0
DA:474,0
end_of_record
SF:/usr/include/c++/9/bits/alloc_traits.h
DA:469,0
DA:470,0
DA:482,0
DA:484,0
DA:495,0
DA:497,0
DA:505,0
DA:506,0
DA:514,0
DA:515,0
DA:545,0
DA:546,0
DA:553,0
DA:557,0
end_of_record
SF:/usr/include/c++/9/ext/type_traits.h
DA:152,0
end_of_record
SF:/usr/include/c++/9/bits/ptr_traits.h
DA:146,0
DA:147,0
end_of_record
SF:/workspace/vtr-verilog-to-routing/libs/librtlnumber/src/include/rtl_utils.hpp
FN:46,_Z12_assert_WerrbPKciNSt7__cxx1112basic_stringIcSt11char_traitsIcESaIcEEE
FNDA:0,_Z12_assert_WerrbPKciNSt7__cxx1112basic_stringIcSt11char_traitsIcESaIcEEE
DA:46,0
DA:47,0
DA:48,0
DA:49,0
DA:50,0
DA:51,0
DA:53,0
end_of_record
SF:/usr/include/c++/9/bits/stl_iterator_base_funcs.h
DA:98,0
DA:104,0
DA:138,0
DA:141,0
end_of_record
SF:/usr/include/c++/9/bits/vector.tcc
FN:109,_ZNSt6vectorIN8BitSpace9BitFieldsItEESaIS2_EE12emplace_backIJS2_EEEvDpOT_
FNDA:0,_ZNSt6vectorIN8BitSpace9BitFieldsItEESaIS2_EE12emplace_backIJS2_EEEvDpOT_
FN:198,_ZNSt6vectorIN8BitSpace9BitFieldsItEESaIS2_EEaSERKS4_
FNDA:0,_ZNSt6vectorIN8BitSpace9BitFieldsItEESaIS2_EEaSERKS4_
FN:426,_ZNSt6vectorIN8BitSpace9BitFieldsItEESaIS2_EE17_M_realloc_insertIJS2_EEEvN9__gnu_cxx17__normal_iteratorIPS2_S4_EEDpOT_
FNDA:0,_ZNSt6vectorIN8BitSpace9BitFieldsItEESaIS2_EE17_M_realloc_insertIJS2_EEEvN9__gnu_cxx17__normal_iteratorIPS2_S4_EEDpOT_
DA:109,0
DA:112,0
DA:115,0
DA:117,0
DA:121,0
DA:125,0
DA:198,0
DA:201,0
DA:223,0
DA:224,0
DA:226,0
DA:228,0
DA:229,0
DA:230,0
DA:231,0
DA:232,0
DA:233,0
DA:234,0
DA:236,0
DA:238,0
DA:239,0
DA:243,0
DA:245,0
DA:246,0
DA:248,0
DA:250,0
DA:252,0
DA:426,0
DA:435,0
DA:437,0
DA:438,0
DA:439,0
DA:440,0
DA:441,0
DA:449,0
DA:450,0
DA:456,0
DA:461,0
DA:462,0
DA:464,0
DA:466,0
DA:467,0
DA:500,0
DA:501,0
DA:502,0
DA:503,0
DA:504,0
DA:505,0
end_of_record
SF:/usr/include/c++/9/bits/stl_iterator.h
DA:806,0
DA:819,0
DA:827,0
DA:829,0
DA:859,0
DA:860,0
DA:871,0
DA:907,0
DA:910,0
DA:989,0
DA:992,0
DA:1010,0
DA:1012,0
end_of_record
SF:/usr/include/c++/9/bits/stl_construct.h
DA:74,0
DA:75,0
DA:97,0
DA:98,0
DA:105,0
DA:107,0
DA:108,0
DA:117,0
DA:127,0
DA:137,0
DA:203,0
DA:206,0
end_of_record
SF:/usr/include/c++/9/bits/move.h
DA:47,0
DA:74,0
DA:99,0
DA:138,0
DA:139,0
end_of_record
SF:/usr/include/c++/9/bits/stl_vector.h
FN:622,_ZNSt6vectorI7VNumberSaIS0_EEC2ESt16initializer_listIS0_ERKS1_
FNDA:0,_ZNSt6vectorI7VNumberSaIS0_EEC2ESt16initializer_listIS0_ERKS1_
FN:675,_ZNSt6vectorI7VNumberSaIS0_EED2Ev
FNDA:0,_ZNSt6vectorI7VNumberSaIS0_EED2Ev
FN:1753,_ZNKSt6vectorIN8BitSpace9BitFieldsItEESaIS2_EE12_M_check_lenEmPKc
FNDA:0,_ZNKSt6vectorIN8BitSpace9BitFieldsItEESaIS2_EE12_M_check_lenEmPKc
DA:94,0
DA:95,0
DA:106,0
DA:108,0
DA:109,0
DA:110,0
DA:114,0
DA:118,0
DA:119,0
DA:120,0
DA:121,0
DA:125,0
DA:128,0
DA:130,0
DA:133,0
DA:134,0
DA:273,0
DA:274,0
DA:277,0
DA:278,0
DA:281,0
DA:282,0
DA:285,0
DA:290,0
DA:291,0
DA:330,0
DA:332,0
DA:333,0
DA:334,0
DA:347,0
DA:350,0
DA:351,0
DA:453,0
DA:462,0
DA:466,0
DA:484,0
DA:494,0
DA:495,0
DA:622,0
DA:624,0
DA:626,0
DA:628,0
DA:675,0
DA:677,0
DA:678,0
DA:680,0
DA:706,0
DA:708,0
DA:711,0
DA:808,0
DA:809,0
DA:817,0
DA:818,0
DA:826,0
DA:827,0
DA:835,0
DA:836,0
DA:915,0
DA:916,0
DA:920,0
DA:921,0
DA:995,0
DA:997,0
DA:1040,0
DA:1043,0
DA:1200,0
DA:1201,0
DA:1505,0
DA:1508,0
DA:1511,0
DA:1512,0
DA:1753,0
DA:1755,0
DA:1756,0
DA:1758,0
DA:1759,0
DA:1773,0
DA:1780,0
DA:1781,0
DA:1812,0
DA:1814,0
DA:1815,0
DA:1816,0
DA:1817,0
end_of_record
SF:/usr/include/c++/9/new
DA:173,0
DA:174,0
end_of_record
TN:
SF:/usr/include/c++/9/bits/locale_facets.h
FN:872,_ZNKSt5ctypeIcE5widenEc
FNDA:0,_ZNKSt5ctypeIcE5widenEc
FN:1084,_ZNKSt5ctypeIcE8do_widenEc
FNDA:0,_ZNKSt5ctypeIcE8do_widenEc
DA:872,0
DA:874,0
DA:875,0
DA:876,0
DA:877,0
DA:1084,0
DA:1085,0
end_of_record
SF:/usr/include/x86_64-linux-gnu/bits/stdio2.h
DA:105,0
DA:107,0
end_of_record
SF:/usr/include/c++/9/ext/new_allocator.h
DA:80,0
DA:83,0
DA:89,0
DA:119,0
DA:128,0
DA:132,0
DA:144,0
DA:147,0
DA:151,0
end_of_record
SF:/usr/include/c++/9/iostream
end_of_record
SF:/usr/include/c++/9/ostream
DA:108,0
DA:113,0
DA:565,0
DA:568,0
DA:570,0
DA:571,0
end_of_record
SF:/usr/include/c++/9/ext/string_conversions.h
FN:99,_ZN9__gnu_cxx12__to_xstringINSt7__cxx1112basic_stringIcSt11char_traitsIcESaIcEEEcEET_PFiPT0_mPKS8_P13__va_list_tagEmSB_z
FNDA:0,_ZN9__gnu_cxx12__to_xstringINSt7__cxx1112basic_stringIcSt11char_traitsIcESaIcEEEcEET_PFiPT0_mPKS8_P13__va_list_tagEmSB_z
DA:99,0
DA:105,0
DA:109,0
DA:111,0
DA:113,0
DA:115,0
end_of_record
SF:/usr/include/c++/9/bits/stl_uninitialized.h
DA:905,0
DA:912,0
DA:913,0
DA:949,0
DA:950,0
DA:964,0
end_of_record
SF:/usr/include/c++/9/bits/allocator.h
DA:138,0
DA:141,0
DA:142,0
DA:153,0
end_of_record
SF:/usr/include/c++/9/ext/alloc_traits.h
DA:97,0
DA:98,0
end_of_record
SF:/usr/include/c++/9/bits/char_traits.h
DA:299,0
DA:300,0
DA:329,0
DA:335,0
DA:361,0
DA:363,0
DA:365,0
end_of_record
SF:/workspace/vtr-verilog-to-routing/ODIN_II/SRC/ast_loop_unroll.cpp
FN:19,_Z15unroll_for_loopP10ast_node_tS0_PiP12sc_hierarchyb
FNDA:0,_Z15unroll_for_loopP10ast_node_tS0_PiP12sc_hierarchyb
FN:120,_Z11resolve_forP10ast_node_t
FNDA:0,_Z11resolve_forP10ast_node_t
FN:175,_Z21resolve_pre_conditionP10ast_node_tPS0_
FNDA:0,_Z21resolve_pre_conditionP10ast_node_tPS0_
FN:196,_Z24is_unsupported_conditionP10ast_node_tS0_
FNDA:0,_Z24is_unsupported_conditionP10ast_node_tS0_
FN:212,_Z17resolve_conditionP10ast_node_tS0_Pi
FNDA:0,_Z17resolve_conditionP10ast_node_tS0_Pi
FN:239,_ZZ17resolve_conditionP10ast_node_tS0_PiENKUllE_clEl
FNDA:0,_ZZ17resolve_conditionP10ast_node_tS0_PiENKUllE_clEl
FN:249,_ZZ17resolve_conditionP10ast_node_tS0_PiENKUllE0_clEl
FNDA:0,_ZZ17resolve_conditionP10ast_node_tS0_PiENKUllE0_clEl
FN:256,_ZZ17resolve_conditionP10ast_node_tS0_PiENKUllE1_clEl
FNDA:0,_ZZ17resolve_conditionP10ast_node_tS0_PiENKUllE1_clEl
FN:264,_ZZ17resolve_conditionP10ast_node_tS0_PiENKUllE2_clEl.isra.0
FNDA:0,_ZZ17resolve_conditionP10ast_node_tS0_PiENKUllE2_clEl.isra.0
FN:289,_Z19is_unsupported_postP10ast_node_tS0_
FNDA:0,_Z19is_unsupported_postP10ast_node_tS0_
FN:293,_Z24resolve_binary_operationP10ast_node_t
FNDA:0,_Z24resolve_binary_operationP10ast_node_t
FN:307,_ZZ24resolve_binary_operationP10ast_node_tENKUllE1_clEl.isra.0
FNDA:0,_ZZ24resolve_binary_operationP10ast_node_tENKUllE1_clEl.isra.0
FN:332,_Z22resolve_post_conditionP10ast_node_tS0_Pi
FNDA:0,_Z22resolve_post_conditionP10ast_node_tS0_Pi
FN:358,_Z17dup_and_fill_bodyP10ast_node_tS0_PS0_Pi
FNDA:0,_Z17dup_and_fill_bodyP10ast_node_tS0_PS0_Pi
DA:19,0
DA:20,0
DA:22,0
DA:23,0
DA:25,0
DA:28,0
DA:29,0
DA:30,0
DA:31,0
DA:33,0
DA:34,0
DA:35,0
DA:36,0
DA:39,0
DA:40,0
DA:44,0
DA:45,0
DA:47,0
DA:48,0
DA:50,0
DA:51,0
DA:52,0
DA:53,0
DA:56,0
DA:57,0
DA:58,0
DA:59,0
DA:61,0
DA:62,0
DA:65,0
DA:66,0
DA:67,0
DA:68,0
DA:69,0
DA:73,0
DA:74,0
DA:75,0
DA:77,0
DA:78,0
DA:80,0
DA:81,0
DA:83,0
DA:84,0
DA:85,0
DA:88,0
DA:89,0
DA:90,0
DA:91,0
DA:93,0
DA:94,0
DA:97,0
DA:98,0
DA:102,0
DA:103,0
DA:105,0
DA:109,0
DA:110,0
DA:113,0
DA:114,0
DA:120,0
DA:121,0
DA:122,0
DA:123,0
DA:125,0
DA:126,0
DA:127,0
DA:128,0
DA:130,0
DA:131,0
DA:132,0
DA:135,0
DA:136,0
DA:137,0
DA:138,0
DA:141,0
DA:142,0
DA:143,0
DA:146,0
DA:147,0
DA:148,0
DA:149,0
DA:150,0
DA:153,0
DA:154,0
DA:155,0
DA:157,0
DA:159,0
DA:162,0
DA:163,0
DA:175,0
DA:183,0
DA:186,0
DA:187,0
DA:188,0
DA:196,0
DA:197,0
DA:199,0
DA:201,0
DA:203,0
DA:205,0
DA:212,0
DA:222,0
DA:223,0
DA:224,0
DA:226,0
DA:228,0
DA:229,0
DA:230,0
DA:231,0
DA:232,0
DA:233,0
DA:234,0
DA:235,0
DA:236,0
DA:237,0
DA:238,0
DA:239,0
DA:240,0
DA:241,0
DA:242,0
DA:243,0
DA:244,0
DA:245,0
DA:246,0
DA:247,0
DA:248,0
DA:249,0
DA:250,0
DA:251,0
DA:252,0
DA:253,0
DA:254,0
DA:255,0
DA:256,0
DA:257,0
DA:258,0
DA:259,0
DA:260,0
DA:261,0
DA:264,0
DA:265,0
DA:266,0
DA:267,0
DA:268,0
DA:269,0
DA:270,0
DA:271,0
DA:272,0
DA:273,0
DA:274,0
DA:275,0
DA:276,0
DA:277,0
DA:281,0
DA:289,0
DA:290,0
DA:293,0
DA:294,0
DA:295,0
DA:300,0
DA:301,0
DA:302,0
DA:303,0
DA:304,0
DA:305,0
DA:307,0
DA:308,0
DA:309,0
DA:310,0
DA:311,0
DA:312,0
DA:313,0
DA:314,0
DA:315,0
DA:316,0
DA:317,0
DA:318,0
DA:322,0
DA:332,0
DA:344,0
DA:346,0
DA:347,0
DA:350,0
DA:351,0
DA:352,0
DA:354,0
DA:355,0
DA:358,0
DA:359,0
DA:360,0
DA:361,0
DA:362,0
DA:363,0
DA:365,0
DA:366,0
DA:367,0
DA:368,0
DA:369,0
DA:371,0
DA:373,0
DA:374,0
DA:375,0
DA:377,0
DA:380,0
DA:381,0
DA:382,0
DA:383,0
DA:386,0
DA:387,0
DA:392,0
end_of_record
SF:/workspace/vtr-verilog-to-routing/libs/librtlnumber/src/include/internal_bits.hpp
FN:308,_ZN8BitSpaceL13bits_to_hex_cEsb
FNDA:0,_ZN8BitSpaceL13bits_to_hex_cEsb
FN:352,_ZN8BitSpaceL8c_to_bitEc
FNDA:0,_ZN8BitSpaceL8c_to_bitEc
FN:449,_ZN8BitSpace11VerilogBitsC2Emh
FNDA:0,_ZN8BitSpace11VerilogBitsC2Emh
FN:505,_ZN8BitSpace11VerilogBits9to_stringB5cxx11Ebb
FNDA:0,_ZN8BitSpace11VerilogBits9to_stringB5cxx11Ebb
FN:520,_ZN8BitSpace11VerilogBits10to_UstringB5cxx11Eb
FNDA:0,_ZN8BitSpace11VerilogBits10to_UstringB5cxx11Eb
FN:535,_ZN8BitSpace11VerilogBits12to_log2radixB5cxx11Esb
FNDA:0,_ZN8BitSpace11VerilogBits12to_log2radixB5cxx11Esb
FN:554,_ZN8BitSpace11VerilogBits12to_printableB5cxx11Ev
FNDA:0,_ZN8BitSpace11VerilogBits12to_printableB5cxx11Ev
FN:648,_ZN8BitSpace11VerilogBits6resizeEhm
FNDA:0,_ZN8BitSpace11VerilogBits6resizeEhm
FN:765,_ZN7VNumberC2El
FNDA:0,_ZN7VNumberC2El
FN:778,_ZN7VNumber9get_valueEv
FNDA:0,_ZN7VNumber9get_valueEv
FN:812,_ZN7VNumber10to_vstringB5cxx11Ec
FNDA:0,_ZN7VNumber10to_vstringB5cxx11Ec
FN:867,_ZN7VNumber9set_valueERKNSt7__cxx1112basic_stringIcSt11char_traitsIcESaIcEEE
FNDA:0,_ZN7VNumber9set_valueERKNSt7__cxx1112basic_stringIcSt11char_traitsIcESaIcEEE
FN:961,_ZN7VNumber9set_valueEl
FNDA:0,_ZN7VNumber9set_valueEl
FN:972,_ZN7VNumber16get_bit_from_msbEm
FNDA:0,_ZN7VNumber16get_bit_from_msbEm
DA:286,0
DA:287,0
DA:290,0
DA:291,0
DA:292,0
DA:293,0
DA:294,0
DA:295,0
DA:299,0
DA:300,0
DA:303,0
DA:304,0
DA:308,0
DA:309,0
DA:312,0
DA:313,0
DA:314,0
DA:315,0
DA:316,0
DA:317,0
DA:318,0
DA:319,0
DA:320,0
DA:321,0
DA:322,0
DA:323,0
DA:324,0
DA:325,0
DA:326,0
DA:327,0
DA:328,0
DA:329,0
DA:330,0
DA:331,0
DA:332,0
DA:333,0
DA:334,0
DA:335,0
DA:336,0
DA:337,0
DA:338,0
DA:339,0
DA:340,0
DA:341,0
DA:342,0
DA:343,0
DA:346,0
DA:349,0
DA:352,0
DA:353,0
DA:356,0
DA:357,0
DA:358,0
DA:359,0
DA:360,0
DA:361,0
DA:371,0
DA:372,0
DA:373,0
DA:374,0
DA:379,0
DA:380,0
DA:385,0
DA:386,0
DA:387,0
DA:389,0
DA:393,0
DA:394,0
DA:396,0
DA:397,0
DA:399,0
DA:400,0
DA:401,0
DA:403,0
DA:404,0
DA:411,0
DA:413,0
DA:414,0
DA:420,0
DA:430,0
DA:435,0
DA:436,0
DA:449,0
DA:450,0
DA:451,0
DA:453,0
DA:455,0
DA:456,0
DA:458,0
DA:465,0
DA:466,0
DA:473,0
DA:481,0
DA:484,0
DA:492,0
DA:495,0
DA:502,0
DA:505,0
DA:507,0
DA:508,0
DA:509,0
DA:510,0
DA:511,0
DA:513,0
DA:517,0
DA:520,0
DA:522,0
DA:523,0
DA:524,0
DA:525,0
DA:526,0
DA:528,0
DA:532,0
DA:535,0
DA:536,0
DA:539,0
DA:540,0
DA:541,0
DA:543,0
DA:545,0
DA:546,0
DA:551,0
DA:554,0
DA:555,0
DA:557,0
DA:558,0
DA:561,0
DA:565,0
DA:566,0
DA:648,0
DA:652,0
DA:653,0
DA:654,0
DA:656,0
DA:657,0
DA:658,0
DA:660,0
DA:661,0
DA:662,0
DA:668,0
DA:671,0
DA:673,0
DA:675,0
DA:676,0
DA:677,0
DA:680,0
DA:681,0
DA:682,0
DA:685,0
DA:707,0
DA:765,0
DA:766,0
DA:767,0
DA:778,0
DA:779,0
DA:781,0
DA:784,0
DA:785,0
DA:786,0
DA:787,0
DA:790,0
DA:791,0
DA:793,0
DA:794,0
DA:795,0
DA:796,0
DA:798,0
DA:801,0
DA:812,0
DA:813,0
DA:814,0
DA:817,0
DA:822,0
DA:823,0
DA:824,0
DA:825,0
DA:826,0
DA:827,0
DA:828,0
DA:829,0
DA:830,0
DA:831,0
DA:832,0
DA:833,0
DA:834,0
DA:835,0
DA:836,0
DA:837,0
DA:838,0
DA:839,0
DA:840,0
DA:841,0
DA:842,0
DA:843,0
DA:844,0
DA:845,0
DA:846,0
DA:847,0
DA:848,0
DA:850,0
DA:851,0
DA:852,0
DA:854,0
DA:856,0
DA:867,0
DA:868,0
DA:869,0
DA:872,0
DA:877,0
DA:878,0
DA:879,0
DA:880,0
DA:883,0
DA:884,0
DA:887,0
DA:890,0
DA:891,0
DA:893,0
DA:894,0
DA:897,0
DA:898,0
DA:899,0
DA:901,0
DA:902,0
DA:903,0
DA:907,0
DA:908,0
DA:909,0
DA:910,0
DA:913,0
DA:914,0
DA:917,0
DA:918,0
DA:922,0
DA:923,0
DA:924,0
DA:925,0
DA:926,0
DA:927,0
DA:928,0
DA:929,0
DA:930,0
DA:931,0
DA:932,0
DA:934,0
DA:938,0
DA:939,0
DA:944,0
DA:946,0
DA:947,0
DA:948,0
DA:952,0
DA:953,0
DA:954,0
DA:955,0
DA:958,0
DA:961,0
DA:962,0
DA:963,0
DA:965,0
DA:966,0
DA:972,0
DA:973,0
DA:974,0
DA:995,0
DA:996,0
DA:999,0
DA:1000,0
DA:1003,0
DA:1004,0
end_of_record
SF:/usr/include/c++/9/bits/std_function.h
FN:196,_ZNSt14_Function_base13_Base_managerIZ24resolve_binary_operationP10ast_node_tEUllE1_E10_M_managerERSt9_Any_dataRKS5_St18_Manager_operation
FNDA:0,_ZNSt14_Function_base13_Base_managerIZ24resolve_binary_operationP10ast_node_tEUllE1_E10_M_managerERSt9_Any_dataRKS5_St18_Manager_operation
FN:196,_ZNSt14_Function_base13_Base_managerIZ24resolve_binary_operationP10ast_node_tEUllE0_E10_M_managerERSt9_Any_dataRKS5_St18_Manager_operation
FNDA:0,_ZNSt14_Function_base13_Base_managerIZ24resolve_binary_operationP10ast_node_tEUllE0_E10_M_managerERSt9_Any_dataRKS5_St18_Manager_operation
FN:196,_ZNSt14_Function_base13_Base_managerIZ24resolve_binary_operationP10ast_node_tEUllE_E10_M_managerERSt9_Any_dataRKS5_St18_Manager_operation
FNDA:0,_ZNSt14_Function_base13_Base_managerIZ24resolve_binary_operationP10ast_node_tEUllE_E10_M_managerERSt9_Any_dataRKS5_St18_Manager_operation
FN:196,_ZNSt14_Function_base13_Base_managerIZ17resolve_conditionP10ast_node_tS2_PiEUllE_E10_M_managerERSt9_Any_dataRKS6_St18_Manager_operation
FNDA:0,_ZNSt14_Function_base13_Base_managerIZ17resolve_conditionP10ast_node_tS2_PiEUllE_E10_M_managerERSt9_Any_dataRKS6_St18_Manager_operation
FN:196,_ZNSt14_Function_base13_Base_managerIZ17resolve_conditionP10ast_node_tS2_PiEUllE2_E10_M_managerERSt9_Any_dataRKS6_St18_Manager_operation
FNDA:0,_ZNSt14_Function_base13_Base_managerIZ17resolve_conditionP10ast_node_tS2_PiEUllE2_E10_M_managerERSt9_Any_dataRKS6_St18_Manager_operation
FN:196,_ZNSt14_Function_base13_Base_managerIZ17resolve_conditionP10ast_node_tS2_PiEUllE1_E10_M_managerERSt9_Any_dataRKS6_St18_Manager_operation
FNDA:0,_ZNSt14_Function_base13_Base_managerIZ17resolve_conditionP10ast_node_tS2_PiEUllE1_E10_M_managerERSt9_Any_dataRKS6_St18_Manager_operation
FN:196,_ZNSt14_Function_base13_Base_managerIZ17resolve_conditionP10ast_node_tS2_PiEUllE0_E10_M_managerERSt9_Any_dataRKS6_St18_Manager_operation
FNDA:0,_ZNSt14_Function_base13_Base_managerIZ17resolve_conditionP10ast_node_tS2_PiEUllE0_E10_M_managerERSt9_Any_dataRKS6_St18_Manager_operation
FN:283,_ZNSt17_Function_handlerIFllEZ24resolve_binary_operationP10ast_node_tEUllE1_E9_M_invokeERKSt9_Any_dataOl
FNDA:0,_ZNSt17_Function_handlerIFllEZ24resolve_binary_operationP10ast_node_tEUllE1_E9_M_invokeERKSt9_Any_dataOl
FN:283,_ZNSt17_Function_handlerIFblEZ17resolve_conditionP10ast_node_tS2_PiEUllE_E9_M_invokeERKSt9_Any_dataOl
FNDA:0,_ZNSt17_Function_handlerIFblEZ17resolve_conditionP10ast_node_tS2_PiEUllE_E9_M_invokeERKSt9_Any_dataOl
FN:283,_ZNSt17_Function_handlerIFblEZ17resolve_conditionP10ast_node_tS2_PiEUllE0_E9_M_invokeERKSt9_Any_dataOl
FNDA:0,_ZNSt17_Function_handlerIFblEZ17resolve_conditionP10ast_node_tS2_PiEUllE0_E9_M_invokeERKSt9_Any_dataOl
FN:283,_ZNSt17_Function_handlerIFblEZ17resolve_conditionP10ast_node_tS2_PiEUllE1_E9_M_invokeERKSt9_Any_dataOl
FNDA:0,_ZNSt17_Function_handlerIFblEZ17resolve_conditionP10ast_node_tS2_PiEUllE1_E9_M_invokeERKSt9_Any_dataOl
FN:283,_ZNSt17_Function_handlerIFblEZ17resolve_conditionP10ast_node_tS2_PiEUllE2_E9_M_invokeERKSt9_Any_dataOl
FNDA:0,_ZNSt17_Function_handlerIFblEZ17resolve_conditionP10ast_node_tS2_PiEUllE2_E9_M_invokeERKSt9_Any_dataOl
FN:283,_ZNSt17_Function_handlerIFllEZ24resolve_binary_operationP10ast_node_tEUllE_E9_M_invokeERKSt9_Any_dataOl
FNDA:0,_ZNSt17_Function_handlerIFllEZ24resolve_binary_operationP10ast_node_tEUllE_E9_M_invokeERKSt9_Any_dataOl
FN:283,_ZNSt17_Function_handlerIFllEZ24resolve_binary_operationP10ast_node_tEUllE0_E9_M_invokeERKSt9_Any_dataOl
FNDA:0,_ZNSt17_Function_handlerIFllEZ24resolve_binary_operationP10ast_node_tEUllE0_E9_M_invokeERKSt9_Any_dataOl
FN:480,_ZNSt8functionIFblEEaSEOS1_
FNDA:0,_ZNSt8functionIFblEEaSEOS1_
FN:653,_ZNSt8functionIFblEEC2ERKS1_
FNDA:0,_ZNSt8functionIFblEEC2ERKS1_
FN:667,_ZNSt8functionIFblEEC2IZ17resolve_conditionP10ast_node_tS4_PiEUllE1_vvEET_
FNDA:0,_ZNSt8functionIFblEEC2IZ17resolve_conditionP10ast_node_tS4_PiEUllE1_vvEET_
FN:667,_ZNSt8functionIFblEEC2IZ17resolve_conditionP10ast_node_tS4_PiEUllE0_vvEET_
FNDA:0,_ZNSt8functionIFblEEC2IZ17resolve_conditionP10ast_node_tS4_PiEUllE0_vvEET_
FN:667,_ZNSt8functionIFblEEC2IZ17resolve_conditionP10ast_node_tS4_PiEUllE_vvEET_
FNDA:0,_ZNSt8functionIFblEEC2IZ17resolve_conditionP10ast_node_tS4_PiEUllE_vvEET_
DA:87,0
DA:88,0
DA:92,0
DA:93,0
DA:97,0
DA:98,0
DA:151,0
DA:155,0
DA:156,0
DA:159,0
DA:165,0
DA:167,0
DA:168,0
DA:182,0
DA:184,0
DA:185,0
DA:196,0
DA:199,0
DA:202,0
DA:203,0
DA:204,0
DA:206,0
DA:207,0
DA:208,0
DA:211,0
DA:215,0
DA:218,0
DA:196,0
DA:199,0
DA:202,0
DA:203,0
DA:204,0
DA:206,0
DA:207,0
DA:208,0
DA:215,0
DA:218,0
DA:196,0
DA:199,0
DA:202,0
DA:203,0
DA:204,0
DA:206,0
DA:207,0
DA:208,0
DA:211,0
DA:215,0
DA:218,0
DA:196,0
DA:199,0
DA:202,0
DA:203,0
DA:204,0
DA:206,0
DA:207,0
DA:208,0
DA:211,0
DA:215,0
DA:218,0
DA:196,0
DA:199,0
DA:202,0
DA:203,0
DA:204,0
DA:206,0
DA:207,0
DA:208,0
DA:210,0
DA:211,0
DA:214,0
DA:215,0
DA:216,0
DA:218,0
DA:196,0
DA:199,0
DA:202,0
DA:203,0
DA:204,0
DA:206,0
DA:207,0
DA:208,0
DA:210,0
DA:211,0
DA:214,0
DA:215,0
DA:216,0
DA:218,0
DA:196,0
DA:199,0
DA:202,0
DA:203,0
DA:204,0
DA:206,0
DA:207,0
DA:208,0
DA:210,0
DA:211,0
DA:214,0
DA:215,0
DA:216,0
DA:218,0
DA:222,0
DA:223,0
DA:242,0
DA:247,0
DA:248,0
DA:251,0
DA:252,0
DA:255,0
DA:257,0
DA:258,0
DA:259,0
DA:260,0
DA:263,0
DA:283,0
DA:285,0
DA:286,0
DA:283,0
DA:285,0
DA:286,0
DA:283,0
DA:285,0
DA:286,0
DA:283,0
DA:285,0
DA:286,0
DA:283,0
DA:285,0
DA:286,0
DA:283,0
DA:285,0
DA:286,0
DA:283,0
DA:285,0
DA:286,0
DA:369,0
DA:403,0
DA:404,0
DA:423,0
DA:425,0
DA:480,0
DA:482,0
DA:483,0
DA:547,0
DA:549,0
DA:550,0
DA:551,0
DA:564,0
DA:565,0
DA:653,0
DA:655,0
DA:657,0
DA:659,0
DA:660,0
DA:661,0
DA:663,0
DA:667,0
DA:669,0
DA:673,0
DA:675,0
DA:676,0
DA:677,0
DA:679,0
DA:667,0
DA:669,0
DA:673,0
DA:675,0
DA:676,0
DA:677,0
DA:679,0
DA:667,0
DA:669,0
DA:673,0
DA:675,0
DA:676,0
DA:677,0
DA:679,0
DA:667,0
DA:669,0
DA:673,0
DA:675,0
DA:676,0
DA:677,0
DA:679,0
DA:683,0
DA:686,0
DA:687,0
DA:688,0
end_of_record
SF:/usr/include/c++/9/bits/predefined_ops.h
DA:234,0
DA:240,0
DA:241,0
DA:246,0
DA:247,0
end_of_record
SF:/usr/include/c++/9/bits/basic_string.tcc
FN:206,_ZNSt7__cxx1112basic_stringIcSt11char_traitsIcESaIcEE12_M_constructIPcEEvT_S7_St20forward_iterator_tag
FNDA:0,_ZNSt7__cxx1112basic_stringIcSt11char_traitsIcESaIcEE12_M_constructIPcEEvT_S7_St20forward_iterator_tag
FN:206,_ZNSt7__cxx1112basic_stringIcSt11char_traitsIcESaIcEE12_M_constructIPKcEEvT_S8_St20forward_iterator_tag
FNDA:0,_ZNSt7__cxx1112basic_stringIcSt11char_traitsIcESaIcEE12_M_constructIPKcEEvT_S8_St20forward_iterator_tag
FN:1158,_ZStplIcSt11char_traitsIcESaIcEENSt7__cxx1112basic_stringIT_T0_T1_EEPKS5_RKS8_
FNDA:0,_ZStplIcSt11char_traitsIcESaIcEENSt7__cxx1112basic_stringIT_T0_T1_EEPKS5_RKS8_
DA:206,0
DA:211,0
DA:212,0
DA:215,0
DA:217,0
DA:219,0
DA:220,0
DA:225,0
DA:232,0
DA:233,0
DA:206,0
DA:211,0
DA:212,0
DA:215,0
DA:217,0
DA:219,0
DA:220,0
DA:225,0
DA:232,0
DA:233,0
DA:1158,0
DA:1164,0
DA:1165,0
DA:1166,0
DA:1167,0
DA:1168,0
DA:1169,0
end_of_record
SF:/usr/include/c++/9/bits/basic_string.h
FN:6057,_ZStplIcSt11char_traitsIcESaIcEENSt7__cxx1112basic_stringIT_T0_T1_EERKS8_PKS5_
FNDA:0,_ZStplIcSt11char_traitsIcESaIcEENSt7__cxx1112basic_stringIT_T0_T1_EERKS8_PKS5_
FN:6091,_ZStplIcSt11char_traitsIcESaIcEENSt7__cxx1112basic_stringIT_T0_T1_EERKS8_OS8_
FNDA:0,_ZStplIcSt11char_traitsIcESaIcEENSt7__cxx1112basic_stringIT_T0_T1_EERKS8_OS8_
FN:6097,_ZStplIcSt11char_traitsIcESaIcEENSt7__cxx1112basic_stringIT_T0_T1_EEOS8_S9_
FNDA:0,_ZStplIcSt11char_traitsIcESaIcEENSt7__cxx1112basic_stringIT_T0_T1_EEOS8_S9_
FN:6109,_ZStplIcSt11char_traitsIcESaIcEENSt7__cxx1112basic_stringIT_T0_T1_EEPKS5_OS8_
FNDA:0,_ZStplIcSt11char_traitsIcESaIcEENSt7__cxx1112basic_stringIT_T0_T1_EEPKS5_OS8_
FN:6121,_ZStplIcSt11char_traitsIcESaIcEENSt7__cxx1112basic_stringIT_T0_T1_EEOS8_PKS5_
FNDA:0,_ZStplIcSt11char_traitsIcESaIcEENSt7__cxx1112basic_stringIT_T0_T1_EEOS8_PKS5_
DA:150,0
DA:156,0
DA:157,0
DA:159,0
DA:160,0
DA:178,0
DA:179,0
DA:182,0
DA:183,0
DA:186,0
DA:190,0
DA:193,0
DA:200,0
DA:203,0
DA:210,0
DA:211,0
DA:214,0
DA:216,0
DA:217,0
DA:221,0
DA:222,0
DA:229,0
DA:231,0
DA:232,0
DA:236,0
DA:237,0
DA:243,0
DA:247,0
DA:263,0
DA:266,0
DA:286,0
DA:287,0
DA:290,0
DA:291,0
DA:346,0
DA:348,0
DA:349,0
DA:351,0
DA:392,0
DA:393,0
DA:396,0
DA:398,0
DA:431,0
DA:433,0
DA:434,0
DA:448,0
DA:450,0
DA:451,0
DA:540,0
DA:541,0
DA:542,0
DA:552,0
DA:553,0
DA:555,0
DA:557,0
DA:562,0
DA:563,0
DA:569,0
DA:570,0
DA:571,0
DA:625,0
DA:627,0
DA:628,0
DA:657,0
DA:658,0
DA:826,0
DA:827,0
DA:842,0
DA:843,0
DA:930,0
DA:936,0
DA:993,0
DA:995,0
DA:1063,0
DA:1070,0
DA:1143,0
DA:1146,0
DA:1221,0
DA:1222,0
DA:1639,0
DA:1641,0
DA:1864,0
DA:1867,0
DA:2300,0
DA:2301,0
DA:2312,0
DA:2313,0
DA:2393,0
DA:2396,0
DA:6057,0
DA:6060,0
DA:6061,0
DA:6062,0
DA:6091,0
DA:6093,0
DA:6097,0
DA:6100,0
DA:6101,0
DA:6102,0
DA:6103,0
DA:6104,0
DA:6109,0
DA:6111,0
DA:6121,0
DA:6123,0
DA:6416,0
DA:6421,0
DA:6546,0
DA:6547,0
DA:6548,0
DA:6557,0
DA:6558,0
DA:6559,0
end_of_record
SF:/usr/include/c++/9/bits/stl_iterator.h
DA:806,0
DA:811,0
DA:815,0
DA:819,0
DA:827,0
DA:829,0
DA:830,0
DA:871,0
DA:893,0
DA:896,0
DA:907,0
DA:910,0
DA:989,0
DA:992,0
end_of_record
SF:/usr/include/c++/9/bits/stl_construct.h
DA:117,0
DA:127,0
DA:137,0
DA:203,0
DA:206,0
end_of_record
SF:/usr/include/c++/9/bits/stl_algo.h
FN:112,_ZSt9__find_ifIN9__gnu_cxx17__normal_iteratorIPcNSt7__cxx1112basic_stringIcSt11char_traitsIcESaIcEEEEENS0_5__ops16_Iter_equals_valIKcEEET_SE_SE_T0_St26random_access_iterator_tag
FNDA:0,_ZSt9__find_ifIN9__gnu_cxx17__normal_iteratorIPcNSt7__cxx1112basic_stringIcSt11char_traitsIcESaIcEEEEENS0_5__ops16_Iter_equals_valIKcEEET_SE_SE_T0_St26random_access_iterator_tag
FN:860,_ZSt11__remove_ifIN9__gnu_cxx17__normal_iteratorIPcNSt7__cxx1112basic_stringIcSt11char_traitsIcESaIcEEEEENS0_5__ops16_Iter_equals_valIKcEEET_SE_SE_T0_
FNDA:0,_ZSt11__remove_ifIN9__gnu_cxx17__normal_iteratorIPcNSt7__cxx1112basic_stringIcSt11char_traitsIcESaIcEEEEENS0_5__ops16_Iter_equals_valIKcEEET_SE_SE_T0_
DA:112,0
DA:116,0
DA:118,0
DA:120,0
DA:121,0
DA:122,0
DA:124,0
DA:125,0
DA:126,0
DA:128,0
DA:129,0
DA:130,0
DA:132,0
DA:133,0
DA:134,0
DA:137,0
DA:139,0
DA:140,0
DA:141,0
DA:142,0
DA:143,0
DA:144,0
DA:145,0
DA:146,0
DA:147,0
DA:148,0
DA:149,0
DA:150,0
DA:151,0
DA:153,0
DA:159,0
DA:161,0
DA:860,0
DA:863,0
DA:864,0
DA:865,0
DA:866,0
DA:867,0
DA:868,0
DA:869,0
DA:871,0
DA:872,0
DA:874,0
DA:896,0
DA:906,0
end_of_record
SF:/usr/include/c++/9/bits/stl_algobase.h
DA:198,0
DA:222,0
DA:227,0
DA:228,0
end_of_record
SF:/usr/include/c++/9/ext/type_traits.h
DA:152,0
end_of_record
SF:/usr/include/c++/9/bits/alloc_traits.h
DA:469,0
DA:470,0
DA:482,0
DA:484,0
DA:495,0
DA:497,0
DA:505,0
DA:506,0
DA:514,0
DA:515,0
DA:545,0
DA:546,0
DA:553,0
DA:557,0
end_of_record
SF:/usr/include/c++/9/bits/ptr_traits.h
DA:146,0
DA:147,0
end_of_record
SF:/workspace/vtr-verilog-to-routing/libs/librtlnumber/src/include/rtl_utils.hpp
FN:46,_Z12_assert_WerrbPKciNSt7__cxx1112basic_stringIcSt11char_traitsIcESaIcEEE
FNDA:0,_Z12_assert_WerrbPKciNSt7__cxx1112basic_stringIcSt11char_traitsIcESaIcEEE
DA:46,0
DA:47,0
DA:48,0
DA:49,0
DA:50,0
DA:51,0
DA:53,0
end_of_record
SF:/usr/include/c++/9/bits/stl_iterator_base_funcs.h
DA:98,0
DA:104,0
DA:138,0
DA:141,0
end_of_record
SF:/usr/include/c++/9/bits/vector.tcc
FN:109,_ZNSt6vectorIN8BitSpace9BitFieldsItEESaIS2_EE12emplace_backIJS2_EEEvDpOT_
FNDA:0,_ZNSt6vectorIN8BitSpace9BitFieldsItEESaIS2_EE12emplace_backIJS2_EEEvDpOT_
FN:426,_ZNSt6vectorIN8BitSpace9BitFieldsItEESaIS2_EE17_M_realloc_insertIJS2_EEEvN9__gnu_cxx17__normal_iteratorIPS2_S4_EEDpOT_
FNDA:0,_ZNSt6vectorIN8BitSpace9BitFieldsItEESaIS2_EE17_M_realloc_insertIJS2_EEEvN9__gnu_cxx17__normal_iteratorIPS2_S4_EEDpOT_
DA:109,0
DA:112,0
DA:115,0
DA:117,0
DA:121,0
DA:125,0
DA:426,0
DA:435,0
DA:437,0
DA:438,0
DA:439,0
DA:440,0
DA:441,0
DA:449,0
DA:450,0
DA:456,0
DA:461,0
DA:462,0
DA:464,0
DA:466,0
DA:467,0
DA:500,0
DA:501,0
DA:502,0
DA:503,0
DA:504,0
DA:505,0
end_of_record
SF:/usr/include/c++/9/new
DA:173,0
DA:174,0
end_of_record
SF:/workspace/vtr-verilog-to-routing/ODIN_II/SRC/include/ast_loop_unroll.h
DA:20,0
DA:21,0
DA:25,0
DA:26,0
end_of_record
SF:/usr/include/c++/9/bits/move.h
DA:47,0
DA:74,0
DA:99,0
DA:138,0
DA:139,0
DA:182,0
DA:193,0
DA:194,0
DA:195,0
end_of_record
SF:/usr/include/c++/9/bits/stl_vector.h
FN:1753,_ZNKSt6vectorIN8BitSpace9BitFieldsItEESaIS2_EE12_M_check_lenEmPKc
FNDA:0,_ZNKSt6vectorIN8BitSpace9BitFieldsItEESaIS2_EE12_M_check_lenEmPKc
DA:94,0
DA:95,0
DA:106,0
DA:108,0
DA:109,0
DA:110,0
DA:114,0
DA:118,0
DA:119,0
DA:120,0
DA:121,0
DA:125,0
DA:128,0
DA:130,0
DA:133,0
DA:134,0
DA:273,0
DA:274,0
DA:277,0
DA:278,0
DA:281,0
DA:282,0
DA:285,0
DA:290,0
DA:291,0
DA:330,0
DA:332,0
DA:333,0
DA:334,0
DA:347,0
DA:350,0
DA:351,0
DA:453,0
DA:462,0
DA:466,0
DA:484,0
DA:494,0
DA:495,0
DA:675,0
DA:677,0
DA:678,0
DA:680,0
DA:706,0
DA:708,0
DA:711,0
DA:808,0
DA:809,0
DA:826,0
DA:827,0
DA:915,0
DA:916,0
DA:920,0
DA:921,0
DA:1040,0
DA:1043,0
DA:1200,0
DA:1201,0
DA:1753,0
DA:1755,0
DA:1756,0
DA:1758,0
DA:1759,0
DA:1773,0
DA:1780,0
DA:1781,0
DA:1812,0
DA:1814,0
DA:1815,0
DA:1816,0
DA:1817,0
end_of_record
TN:
SF:/usr/include/c++/9/bits/stl_iterator_base_funcs.h
DA:98,0
DA:104,0
DA:138,0
DA:141,0
end_of_record
SF:/usr/include/c++/9/bits/vector.tcc
FN:109,_ZNSt6vectorIN8BitSpace9BitFieldsItEESaIS2_EE12emplace_backIJS2_EEEvDpOT_
FNDA:0,_ZNSt6vectorIN8BitSpace9BitFieldsItEESaIS2_EE12emplace_backIJS2_EEEvDpOT_
FN:198,_ZNSt6vectorIN8BitSpace9BitFieldsItEESaIS2_EEaSERKS4_
FNDA:0,_ZNSt6vectorIN8BitSpace9BitFieldsItEESaIS2_EEaSERKS4_
FN:426,_ZNSt6vectorIN8BitSpace9BitFieldsItEESaIS2_EE17_M_realloc_insertIJS2_EEEvN9__gnu_cxx17__normal_iteratorIPS2_S4_EEDpOT_
FNDA:0,_ZNSt6vectorIN8BitSpace9BitFieldsItEESaIS2_EE17_M_realloc_insertIJS2_EEEvN9__gnu_cxx17__normal_iteratorIPS2_S4_EEDpOT_
DA:109,0
DA:112,0
DA:115,0
DA:117,0
DA:121,0
DA:125,0
DA:198,0
DA:201,0
DA:223,0
DA:224,0
DA:226,0
DA:228,0
DA:229,0
DA:230,0
DA:231,0
DA:232,0
DA:233,0
DA:234,0
DA:236,0
DA:238,0
DA:239,0
DA:243,0
DA:245,0
DA:246,0
DA:248,0
DA:250,0
DA:252,0
DA:426,0
DA:435,0
DA:437,0
DA:438,0
DA:439,0
DA:440,0
DA:441,0
DA:449,0
DA:450,0
DA:456,0
DA:461,0
DA:462,0
DA:464,0
DA:466,0
DA:467,0
DA:500,0
DA:501,0
DA:502,0
DA:503,0
DA:504,0
DA:505,0
end_of_record
SF:/usr/include/c++/9/bits/ptr_traits.h
DA:146,0
DA:147,0
end_of_record
SF:/workspace/vtr-verilog-to-routing/libs/librtlnumber/src/include/rtl_utils.hpp
FN:46,_Z12_assert_WerrbPKciNSt7__cxx1112basic_stringIcSt11char_traitsIcESaIcEEE
FNDA:0,_Z12_assert_WerrbPKciNSt7__cxx1112basic_stringIcSt11char_traitsIcESaIcEEE
DA:46,0
DA:47,0
DA:48,0
DA:49,0
DA:50,0
DA:51,0
DA:53,0
end_of_record
SF:/usr/include/c++/9/cmath
DA:415,0
DA:418,0
end_of_record
SF:/usr/include/c++/9/ext/type_traits.h
DA:152,0
end_of_record
SF:/usr/include/c++/9/bits/alloc_traits.h
DA:469,0
DA:470,0
DA:482,0
DA:484,0
DA:495,0
DA:497,0
DA:505,0
DA:506,0
DA:514,0
DA:515,0
DA:545,0
DA:546,0
DA:553,0
DA:557,0
end_of_record
SF:/workspace/vtr-verilog-to-routing/libs/EXTERNAL/libargparse/src/argparse_value.hpp
DA:53,0
end_of_record
SF:/usr/include/c++/9/bits/stl_algobase.h
DA:198,0
DA:222,0
DA:227,0
DA:228,0
DA:280,0
DA:289,0
DA:290,0
DA:295,0
DA:375,0
DA:384,0
DA:385,0
DA:386,0
DA:387,0
DA:393,0
DA:398,0
DA:404,0
DA:438,0
DA:440,0
DA:465,0
DA:474,0
end_of_record
SF:/usr/include/c++/9/bits/std_abs.h
DA:56,0
end_of_record
SF:/usr/include/c++/9/bits/stl_algo.h
FN:112,_ZSt9__find_ifIN9__gnu_cxx17__normal_iteratorIPcNSt7__cxx1112basic_stringIcSt11char_traitsIcESaIcEEEEENS0_5__ops16_Iter_equals_valIKcEEET_SE_SE_T0_St26random_access_iterator_tag
FNDA:0,_ZSt9__find_ifIN9__gnu_cxx17__normal_iteratorIPcNSt7__cxx1112basic_stringIcSt11char_traitsIcESaIcEEEEENS0_5__ops16_Iter_equals_valIKcEEET_SE_SE_T0_St26random_access_iterator_tag
FN:860,_ZSt11__remove_ifIN9__gnu_cxx17__normal_iteratorIPcNSt7__cxx1112basic_stringIcSt11char_traitsIcESaIcEEEEENS0_5__ops16_Iter_equals_valIKcEEET_SE_SE_T0_
FNDA:0,_ZSt11__remove_ifIN9__gnu_cxx17__normal_iteratorIPcNSt7__cxx1112basic_stringIcSt11char_traitsIcESaIcEEEEENS0_5__ops16_Iter_equals_valIKcEEET_SE_SE_T0_
DA:112,0
DA:116,0
DA:118,0
DA:120,0
DA:121,0
DA:122,0
DA:124,0
DA:125,0
DA:126,0
DA:128,0
DA:129,0
DA:130,0
DA:132,0
DA:133,0
DA:134,0
DA:137,0
DA:139,0
DA:140,0
DA:141,0
DA:142,0
DA:143,0
DA:144,0
DA:145,0
DA:146,0
DA:147,0
DA:148,0
DA:149,0
DA:150,0
DA:151,0
DA:153,0
DA:159,0
DA:161,0
DA:860,0
DA:863,0
DA:864,0
DA:865,0
DA:866,0
DA:867,0
DA:868,0
DA:869,0
DA:871,0
DA:872,0
DA:874,0
DA:896,0
DA:906,0
end_of_record
SF:/usr/include/c++/9/bits/stl_construct.h
DA:74,0
DA:75,0
DA:117,0
DA:127,0
DA:137,0
DA:203,0
DA:206,0
end_of_record
SF:/usr/include/c++/9/bits/stl_iterator.h
DA:806,0
DA:811,0
DA:815,0
DA:819,0
DA:827,0
DA:829,0
DA:830,0
DA:859,0
DA:860,0
DA:871,0
DA:893,0
DA:896,0
DA:907,0
DA:910,0
DA:989,0
DA:992,0
DA:1010,0
DA:1012,0
end_of_record
SF:/usr/include/c++/9/bits/stl_vector.h
FN:622,_ZNSt6vectorIP10ast_node_tSaIS1_EEC2ESt16initializer_listIS1_ERKS2_
FNDA:0,_ZNSt6vectorIP10ast_node_tSaIS1_EEC2ESt16initializer_listIS1_ERKS2_
FN:1753,_ZNKSt6vectorIN8BitSpace9BitFieldsItEESaIS2_EE12_M_check_lenEmPKc
FNDA:0,_ZNKSt6vectorIN8BitSpace9BitFieldsItEESaIS2_EE12_M_check_lenEmPKc
DA:94,0
DA:95,0
DA:106,0
DA:108,0
DA:109,0
DA:110,0
DA:114,0
DA:118,0
DA:119,0
DA:120,0
DA:121,0
DA:125,0
DA:128,0
DA:130,0
DA:133,0
DA:134,0
DA:273,0
DA:274,0
DA:277,0
DA:278,0
DA:281,0
DA:282,0
DA:285,0
DA:290,0
DA:291,0
DA:330,0
DA:332,0
DA:333,0
DA:334,0
DA:347,0
DA:350,0
DA:351,0
DA:453,0
DA:462,0
DA:466,0
DA:484,0
DA:494,0
DA:495,0
DA:622,0
DA:624,0
DA:626,0
DA:628,0
DA:675,0
DA:677,0
DA:678,0
DA:680,0
DA:706,0
DA:708,0
DA:711,0
DA:808,0
DA:809,0
DA:817,0
DA:818,0
DA:826,0
DA:827,0
DA:835,0
DA:836,0
DA:915,0
DA:916,0
DA:920,0
DA:921,0
DA:995,0
DA:997,0
DA:1040,0
DA:1043,0
DA:1200,0
DA:1201,0
DA:1505,0
DA:1508,0
DA:1511,0
DA:1512,0
DA:1753,0
DA:1755,0
DA:1756,0
DA:1758,0
DA:1759,0
DA:1773,0
DA:1780,0
DA:1781,0
DA:1812,0
DA:1814,0
DA:1815,0
DA:1816,0
DA:1817,0
end_of_record
SF:/usr/include/c++/9/bits/move.h
DA:47,0
DA:74,0
DA:99,0
DA:138,0
DA:139,0
end_of_record
SF:/usr/include/c++/9/new
DA:173,0
DA:174,0
end_of_record
SF:/usr/include/x86_64-linux-gnu/bits/string_fortified.h
DA:31,0
DA:34,0
end_of_record
SF:/usr/include/c++/9/bits/stl_uninitialized.h
DA:76,0
DA:79,0
DA:82,0
DA:83,0
DA:115,0
DA:134,0
DA:140,0
DA:305,0
DA:307,0
DA:905,0
DA:912,0
DA:913,0
DA:949,0
DA:950,0
DA:964,0
end_of_record
SF:/usr/include/c++/9/ext/string_conversions.h
FN:99,_ZN9__gnu_cxx12__to_xstringINSt7__cxx1112basic_stringIcSt11char_traitsIcESaIcEEEcEET_PFiPT0_mPKS8_P13__va_list_tagEmSB_z
FNDA:0,_ZN9__gnu_cxx12__to_xstringINSt7__cxx1112basic_stringIcSt11char_traitsIcESaIcEEEcEET_PFiPT0_mPKS8_P13__va_list_tagEmSB_z
DA:99,0
DA:105,0
DA:109,0
DA:111,0
DA:113,0
DA:115,0
end_of_record
SF:/usr/include/c++/9/ostream
DA:108,0
DA:113,0
DA:565,0
DA:568,0
DA:570,0
DA:571,0
end_of_record
SF:/usr/include/c++/9/ext/new_allocator.h
DA:80,0
DA:83,0
DA:89,0
DA:119,0
DA:128,0
DA:132,0
DA:144,0
DA:147,0
DA:151,0
end_of_record
SF:/usr/include/c++/9/iostream
end_of_record
SF:/usr/include/c++/9/bits/locale_facets.h
FN:872,_ZNKSt5ctypeIcE5widenEc
FNDA:0,_ZNKSt5ctypeIcE5widenEc
FN:1084,_ZNKSt5ctypeIcE8do_widenEc
FNDA:0,_ZNKSt5ctypeIcE8do_widenEc
DA:872,0
DA:874,0
DA:875,0
DA:876,0
DA:877,0
DA:1084,0
DA:1085,0
end_of_record
SF:/usr/include/x86_64-linux-gnu/bits/stdio2.h
DA:105,0
DA:107,0
end_of_record
SF:/usr/include/c++/9/bits/basic_string.h
FN:6109,_ZStplIcSt11char_traitsIcESaIcEENSt7__cxx1112basic_stringIT_T0_T1_EEPKS5_OS8_
FNDA:0,_ZStplIcSt11char_traitsIcESaIcEENSt7__cxx1112basic_stringIT_T0_T1_EEPKS5_OS8_
DA:150,0
DA:156,0
DA:157,0
DA:159,0
DA:160,0
DA:178,0
DA:179,0
DA:182,0
DA:183,0
DA:186,0
DA:190,0
DA:193,0
DA:200,0
DA:203,0
DA:210,0
DA:211,0
DA:214,0
DA:216,0
DA:217,0
DA:221,0
DA:222,0
DA:229,0
DA:231,0
DA:232,0
DA:236,0
DA:237,0
DA:243,0
DA:247,0
DA:263,0
DA:266,0
DA:286,0
DA:287,0
DA:290,0
DA:291,0
DA:346,0
DA:348,0
DA:349,0
DA:351,0
DA:392,0
DA:393,0
DA:396,0
DA:398,0
DA:431,0
DA:433,0
DA:434,0
DA:448,0
DA:450,0
DA:451,0
DA:540,0
DA:541,0
DA:542,0
DA:552,0
DA:553,0
DA:555,0
DA:557,0
DA:562,0
DA:563,0
DA:569,0
DA:570,0
DA:571,0
DA:625,0
DA:627,0
DA:628,0
DA:657,0
DA:658,0
DA:704,0
DA:705,0
DA:826,0
DA:827,0
DA:842,0
DA:843,0
DA:930,0
DA:936,0
DA:1031,0
DA:1032,0
DA:1063,0
DA:1070,0
DA:1143,0
DA:1146,0
DA:1221,0
DA:1222,0
DA:1864,0
DA:1867,0
DA:2300,0
DA:2301,0
DA:2312,0
DA:2313,0
DA:2393,0
DA:2396,0
DA:2551,0
DA:2555,0
DA:2571,0
DA:2572,0
DA:6109,0
DA:6111,0
DA:6175,0
DA:6177,0
DA:6416,0
DA:6421,0
DA:6546,0
DA:6547,0
DA:6548,0
DA:6557,0
DA:6558,0
DA:6559,0
end_of_record
SF:/usr/include/c++/9/bits/predefined_ops.h
DA:234,0
DA:240,0
DA:241,0
DA:246,0
DA:247,0
end_of_record
SF:/usr/include/c++/9/bits/basic_string.tcc
FN:206,_ZNSt7__cxx1112basic_stringIcSt11char_traitsIcESaIcEE12_M_constructIPcEEvT_S7_St20forward_iterator_tag
FNDA:0,_ZNSt7__cxx1112basic_stringIcSt11char_traitsIcESaIcEE12_M_constructIPcEEvT_S7_St20forward_iterator_tag
FN:206,_ZNSt7__cxx1112basic_stringIcSt11char_traitsIcESaIcEE12_M_constructIPKcEEvT_S8_St20forward_iterator_tag
FNDA:0,_ZNSt7__cxx1112basic_stringIcSt11char_traitsIcESaIcEE12_M_constructIPKcEEvT_S8_St20forward_iterator_tag
FN:1158,_ZStplIcSt11char_traitsIcESaIcEENSt7__cxx1112basic_stringIT_T0_T1_EEPKS5_RKS8_
FNDA:0,_ZStplIcSt11char_traitsIcESaIcEENSt7__cxx1112basic_stringIT_T0_T1_EEPKS5_RKS8_
DA:206,0
DA:211,0
DA:212,0
DA:215,0
DA:217,0
DA:219,0
DA:220,0
DA:225,0
DA:232,0
DA:233,0
DA:206,0
DA:211,0
DA:212,0
DA:215,0
DA:217,0
DA:219,0
DA:220,0
DA:225,0
DA:232,0
DA:233,0
DA:1158,0
DA:1164,0
DA:1165,0
DA:1166,0
DA:1167,0
DA:1168,0
DA:1169,0
end_of_record
SF:/usr/include/c++/9/bits/cpp_type_traits.h
DA:428,0
end_of_record
SF:/workspace/vtr-verilog-to-routing/libs/librtlnumber/src/include/internal_bits.hpp
FN:308,_ZN8BitSpaceL13bits_to_hex_cEsb
FNDA:0,_ZN8BitSpaceL13bits_to_hex_cEsb
FN:352,_ZN8BitSpaceL8c_to_bitEc
FNDA:0,_ZN8BitSpaceL8c_to_bitEc
FN:449,_ZN8BitSpace11VerilogBitsC2Emh
FNDA:0,_ZN8BitSpace11VerilogBitsC2Emh
FN:505,_ZN8BitSpace11VerilogBits9to_stringB5cxx11Ebb
FNDA:0,_ZN8BitSpace11VerilogBits9to_stringB5cxx11Ebb
FN:520,_ZN8BitSpace11VerilogBits10to_UstringB5cxx11Eb
FNDA:0,_ZN8BitSpace11VerilogBits10to_UstringB5cxx11Eb
FN:535,_ZN8BitSpace11VerilogBits12to_log2radixB5cxx11Esb
FNDA:0,_ZN8BitSpace11VerilogBits12to_log2radixB5cxx11Esb
FN:554,_ZN8BitSpace11VerilogBits12to_printableB5cxx11Ev
FNDA:0,_ZN8BitSpace11VerilogBits12to_printableB5cxx11Ev
FN:648,_ZN8BitSpace11VerilogBits6resizeEhm
FNDA:0,_ZN8BitSpace11VerilogBits6resizeEhm
FN:707,_ZN7VNumberaSEOS_
FNDA:0,_ZN7VNumberaSEOS_
FN:739,_ZN7VNumberC2Ev
FNDA:0,_ZN7VNumberC2Ev
FN:749,_ZN7VNumberC2ERKS_
FNDA:0,_ZN7VNumberC2ERKS_
FN:761,_ZN7VNumberC2ERKNSt7__cxx1112basic_stringIcSt11char_traitsIcESaIcEEE
FNDA:0,_ZN7VNumberC2ERKNSt7__cxx1112basic_stringIcSt11char_traitsIcESaIcEEE
FN:765,_ZN7VNumberC2El
FNDA:0,_ZN7VNumberC2El
FN:778,_ZN7VNumber9get_valueEv
FNDA:0,_ZN7VNumber9get_valueEv
FN:812,_ZN7VNumber10to_vstringB5cxx11Ec
FNDA:0,_ZN7VNumber10to_vstringB5cxx11Ec
FN:867,_ZN7VNumber9set_valueERKNSt7__cxx1112basic_stringIcSt11char_traitsIcESaIcEEE
FNDA:0,_ZN7VNumber9set_valueERKNSt7__cxx1112basic_stringIcSt11char_traitsIcESaIcEEE
FN:961,_ZN7VNumber9set_valueEl
FNDA:0,_ZN7VNumber9set_valueEl
FN:972,_ZN7VNumber16get_bit_from_msbEm
FNDA:0,_ZN7VNumber16get_bit_from_msbEm
FN:977,_ZN7VNumber16get_bit_from_lsbEm
FNDA:0,_ZN7VNumber16get_bit_from_lsbEm
DA:286,0
DA:287,0
DA:290,0
DA:291,0
DA:292,0
DA:293,0
DA:294,0
DA:295,0
DA:299,0
DA:300,0
DA:303,0
DA:304,0
DA:308,0
DA:309,0
DA:312,0
DA:313,0
DA:314,0
DA:315,0
DA:316,0
DA:317,0
DA:318,0
DA:319,0
DA:320,0
DA:321,0
DA:322,0
DA:323,0
DA:324,0
DA:325,0
DA:326,0
DA:327,0
DA:328,0
DA:329,0
DA:330,0
DA:331,0
DA:332,0
DA:333,0
DA:334,0
DA:335,0
DA:336,0
DA:337,0
DA:338,0
DA:339,0
DA:340,0
DA:341,0
DA:342,0
DA:343,0
DA:346,0
DA:349,0
DA:352,0
DA:353,0
DA:356,0
DA:357,0
DA:358,0
DA:359,0
DA:360,0
DA:361,0
DA:371,0
DA:372,0
DA:373,0
DA:374,0
DA:379,0
DA:380,0
DA:385,0
DA:386,0
DA:387,0
DA:389,0
DA:393,0
DA:394,0
DA:396,0
DA:397,0
DA:399,0
DA:400,0
DA:401,0
DA:403,0
DA:404,0
DA:411,0
DA:413,0
DA:414,0
DA:420,0
DA:430,0
DA:435,0
DA:436,0
DA:449,0
DA:450,0
DA:451,0
DA:453,0
DA:455,0
DA:456,0
DA:458,0
DA:465,0
DA:466,0
DA:473,0
DA:481,0
DA:484,0
DA:492,0
DA:495,0
DA:502,0
DA:505,0
DA:507,0
DA:508,0
DA:509,0
DA:510,0
DA:511,0
DA:513,0
DA:517,0
DA:520,0
DA:522,0
DA:523,0
DA:524,0
DA:525,0
DA:526,0
DA:528,0
DA:532,0
DA:535,0
DA:536,0
DA:539,0
DA:540,0
DA:541,0
DA:543,0
DA:545,0
DA:546,0
DA:551,0
DA:554,0
DA:555,0
DA:557,0
DA:558,0
DA:561,0
DA:565,0
DA:566,0
DA:648,0
DA:652,0
DA:653,0
DA:654,0
DA:656,0
DA:657,0
DA:658,0
DA:660,0
DA:661,0
DA:662,0
DA:668,0
DA:671,0
DA:673,0
DA:675,0
DA:676,0
DA:677,0
DA:680,0
DA:681,0
DA:682,0
DA:685,0
DA:707,0
DA:739,0
DA:740,0
DA:741,0
DA:742,0
DA:743,0
DA:749,0
DA:750,0
DA:751,0
DA:752,0
DA:753,0
DA:761,0
DA:762,0
DA:763,0
DA:765,0
DA:766,0
DA:767,0
DA:778,0
DA:779,0
DA:781,0
DA:784,0
DA:785,0
DA:786,0
DA:787,0
DA:790,0
DA:791,0
DA:793,0
DA:794,0
DA:795,0
DA:796,0
DA:798,0
DA:801,0
DA:812,0
DA:813,0
DA:814,0
DA:817,0
DA:822,0
DA:823,0
DA:824,0
DA:825,0
DA:826,0
DA:827,0
DA:828,0
DA:829,0
DA:830,0
DA:831,0
DA:832,0
DA:833,0
DA:834,0
DA:835,0
DA:836,0
DA:837,0
DA:838,0
DA:839,0
DA:840,0
DA:841,0
DA:842,0
DA:843,0
DA:844,0
DA:845,0
DA:846,0
DA:847,0
DA:848,0
DA:850,0
DA:851,0
DA:852,0
DA:854,0
DA:856,0
DA:859,0
DA:860,0
DA:861,0
DA:867,0
DA:868,0
DA:869,0
DA:872,0
DA:877,0
DA:878,0
DA:879,0
DA:880,0
DA:883,0
DA:884,0
DA:887,0
DA:890,0
DA:891,0
DA:893,0
DA:894,0
DA:897,0
DA:898,0
DA:899,0
DA:901,0
DA:902,0
DA:903,0
DA:907,0
DA:908,0
DA:909,0
DA:910,0
DA:913,0
DA:914,0
DA:917,0
DA:918,0
DA:922,0
DA:923,0
DA:924,0
DA:925,0
DA:926,0
DA:927,0
DA:928,0
DA:929,0
DA:930,0
DA:931,0
DA:932,0
DA:934,0
DA:938,0
DA:939,0
DA:944,0
DA:946,0
DA:947,0
DA:948,0
DA:952,0
DA:953,0
DA:954,0
DA:955,0
DA:958,0
DA:961,0
DA:962,0
DA:963,0
DA:965,0
DA:966,0
DA:972,0
DA:973,0
DA:974,0
DA:977,0
DA:978,0
DA:979,0
DA:981,0
DA:995,0
DA:996,0
DA:999,0
DA:1000,0
DA:1003,0
DA:1004,0
DA:1007,0
DA:1008,0
end_of_record
SF:/usr/include/c++/9/initializer_list
DA:71,0
DA:75,0
DA:79,0
end_of_record
SF:/usr/include/c++/9/bits/allocator.h
DA:138,0
DA:141,0
DA:142,0
DA:153,0
end_of_record
SF:/usr/include/c++/9/ext/alloc_traits.h
DA:97,0
DA:98,0
end_of_record
SF:/usr/include/c++/9/bits/char_traits.h
DA:299,0
DA:300,0
DA:329,0
DA:335,0
DA:361,0
DA:363,0
DA:365,0
end_of_record
SF:/workspace/vtr-verilog-to-routing/ODIN_II/SRC/ast_util.cpp
FN:53,_Z15update_tree_tagP10ast_node_tii
FNDA:0,_Z15update_tree_tagP10ast_node_tii
FN:73,_Z12add_tag_dataP5ast_t
FNDA:0,_Z12add_tag_dataP5ast_t
FN:97,_Z12allocate_astv
FNDA:0,_Z12allocate_astv
FN:112,_Z8free_astP5ast_t
FNDA:0,_Z8free_astP5ast_t
FN:121,_Z21add_top_module_to_astP5ast_tP10ast_node_t
FNDA:0,_Z21add_top_module_to_astP5ast_tP10ast_node_t
FN:135,_ZL18create_node_w_type3idsiib
FNDA:0,_ZL18create_node_w_type3idsiib
FN:153,_Z27create_node_w_type_no_count3idsii
FNDA:0,_Z27create_node_w_type_no_count3idsii
FN:160,_Z18create_node_w_type3idsii
FNDA:0,_Z18create_node_w_type3idsii
FN:168,_Z34free_assignement_of_node_keep_treeP10ast_node_t
FNDA:0,_Z34free_assignement_of_node_keep_treeP10ast_node_t
FN:195,_Z16free_single_nodeP10ast_node_t
FNDA:0,_Z16free_single_nodeP10ast_node_t
FN:207,_Z17free_all_childrenP10ast_node_t
FNDA:0,_Z17free_all_childrenP10ast_node_t
FN:222,_Z22free_resolved_childrenP10ast_node_t
FNDA:0,_Z22free_resolved_childrenP10ast_node_t
FN:240,_Z15free_whole_treeP10ast_node_t
FNDA:0,_Z15free_whole_treeP10ast_node_t
FN:248,_Z18free_resolved_treeP10ast_node_t
FNDA:0,_Z18free_resolved_treeP10ast_node_t
FN:260,_Z19create_tree_node_idPcii
FNDA:0,_Z19create_tree_node_idPcii
FN:270,_Z23create_tree_node_stringPcii
FNDA:0,_Z23create_tree_node_stringPcii
FN:280,_Z23create_tree_node_numberPcii
FNDA:0,_Z23create_tree_node_numberPcii
FN:290,_Z23create_tree_node_numberR7VNumberii
FNDA:0,_Z23create_tree_node_numberR7VNumberii
FN:300,_Z23create_tree_node_numberlii
FNDA:0,_Z23create_tree_node_numberlii
FN:310,_Z25allocate_children_to_nodeP10ast_node_tSt6vectorIS0_SaIS0_EE
FNDA:0,_Z25allocate_children_to_nodeP10ast_node_tSt6vectorIS0_SaIS0_EE
FN:323,_Z17add_child_to_nodeP10ast_node_tS0_
FNDA:0,_Z17add_child_to_nodeP10ast_node_tS0_
FN:337,_Z26add_child_to_node_at_indexP10ast_node_tS0_i
FNDA:0,_Z26add_child_to_node_at_indexP10ast_node_tS0_i
FN:353,_Z31remove_child_from_node_at_indexP10ast_node_ti
FNDA:0,_Z31remove_child_from_node_at_indexP10ast_node_ti
FN:373,_Z19expand_node_list_atPP10ast_node_tlll
FNDA:0,_Z19expand_node_list_atPP10ast_node_tlll
FN:391,_Z32make_concat_into_list_of_stringsP10ast_node_tPcP12sc_hierarchy
FNDA:0,_Z32make_concat_into_list_of_stringsP10ast_node_tPcP12sc_hierarchy
FN:480,_Z21change_to_number_nodeP10ast_node_tl
FNDA:0,_Z21change_to_number_nodeP10ast_node_tl
FN:489,_Z21change_to_number_nodeP10ast_node_t7VNumber
FNDA:0,_Z21change_to_number_nodeP10ast_node_t7VNumber
FN:506,_Z30get_name_of_var_declare_at_bitP10ast_node_ti
FNDA:0,_Z30get_name_of_var_declare_at_bitP10ast_node_ti
FN:528,_Z14get_identifierP10ast_node_t
FNDA:0,_Z14get_identifierP10ast_node_t
FN:541,_Z22get_name_of_pin_at_bitP10ast_node_tiPcP12sc_hierarchy
FNDA:0,_Z22get_name_of_pin_at_bitP10ast_node_tiPcP12sc_hierarchy
FN:611,_Z23get_name_of_pins_numberP10ast_node_tii
FNDA:0,_Z23get_name_of_pins_numberP10ast_node_tii
FN:623,_Z22get_name_of_pin_numberP10ast_node_ti
FNDA:0,_Z22get_name_of_pin_numberP10ast_node_ti
FN:657,_Z16get_name_of_pinsP10ast_node_tPcP12sc_hierarchy
FNDA:0,_Z16get_name_of_pinsP10ast_node_tPcP12sc_hierarchy
FN:758,_Z28get_name_of_pins_with_prefixP10ast_node_tPcP12sc_hierarchy
FNDA:0,_Z28get_name_of_pins_with_prefixP10ast_node_tPcP12sc_hierarchy
FN:779,_Z20get_size_of_variableP10ast_node_tP12sc_hierarchy
FNDA:0,_Z20get_size_of_variableP10ast_node_tP12sc_hierarchy
FN:856,_Z13move_ast_nodeP10ast_node_tS0_S0_
FNDA:0,_Z13move_ast_nodeP10ast_node_tS0_S0_
FN:876,_Z18ast_node_deep_copyP10ast_node_t
FNDA:0,_Z18ast_node_deep_copyP10ast_node_t
FN:897,_Z13ast_node_copyP10ast_node_t
FNDA:0,_Z13ast_node_copyP10ast_node_t
FN:922,_ZL12expand_powerPP10ast_node_t
FNDA:0,_ZL12expand_powerPP10ast_node_t
FN:986,_ZL22check_binary_operationPP10ast_node_t
FNDA:0,_ZL22check_binary_operationPP10ast_node_t
FN:1018,_Z10fold_unaryPP10ast_node_t
FNDA:0,_Z10fold_unaryPP10ast_node_t
FN:1118,_Z11fold_binaryPP10ast_node_t
FNDA:0,_Z11fold_binaryPP10ast_node_t
FN:1276,_Z16node_is_constantP10ast_node_t
FNDA:0,_Z16node_is_constantP10ast_node_t
FN:1286,_Z12initial_nodeP10ast_node_t3idsiii
FNDA:0,_Z12initial_nodeP10ast_node_t3idsiii
FN:1319,_Z32assert_constant_positionnal_argsP10ast_node_tl
FNDA:0,_Z32assert_constant_positionnal_argsP10ast_node_tl
FN:1340,_Z14c_simple_printNSt7__cxx1112basic_stringIcSt11char_traitsIcESaIcEEE
FNDA:0,_Z14c_simple_printNSt7__cxx1112basic_stringIcSt11char_traitsIcESaIcEEE
FN:1380,_Z9c_displayP10ast_node_t
FNDA:0,_Z9c_displayP10ast_node_t
FN:1461,_Z8c_finishP10ast_node_t
FNDA:0,_Z8c_finishP10ast_node_t
FN:1470,_Z5clog2li
FNDA:0,_Z5clog2li
FN:1492,_Z20resolve_concat_sizesP10ast_node_tP12sc_hierarchy
FNDA:0,_Z20resolve_concat_sizesP10ast_node_tP12sc_hierarchy
DA:53,0
DA:54,0
DA:55,0
DA:56,0
DA:57,0
DA:58,0
DA:60,0
DA:61,0
DA:62,0
DA:65,0
DA:66,0
DA:68,0
DA:73,0
DA:74,0
DA:75,0
DA:77,0
DA:78,0
DA:80,0
DA:82,0
DA:87,0
DA:88,0
DA:90,0
DA:97,0
DA:98,0
DA:100,0
DA:101,0
DA:103,0
DA:104,0
DA:106,0
DA:112,0
DA:113,0
DA:114,0
DA:115,0
DA:121,0
DA:122,0
DA:123,0
DA:124,0
DA:125,0
DA:126,0
DA:128,0
DA:130,0
DA:135,0
DA:136,0
DA:138,0
DA:140,0
DA:142,0
DA:143,0
DA:145,0
DA:147,0
DA:148,0
DA:150,0
DA:153,0
DA:154,0
DA:160,0
DA:161,0
DA:168,0
DA:169,0
DA:170,0
DA:171,0
DA:172,0
DA:173,0
DA:174,0
DA:175,0
DA:176,0
DA:177,0
DA:180,0
DA:181,0
DA:182,0
DA:184,0
DA:190,0
DA:195,0
DA:196,0
DA:197,0
DA:198,0
DA:199,0
DA:201,0
DA:207,0
DA:208,0
DA:210,0
DA:211,0
DA:212,0
DA:213,0
DA:214,0
DA:215,0
DA:217,0
DA:222,0
DA:223,0
DA:225,0
DA:226,0
DA:227,0
DA:228,0
DA:231,0
DA:232,0
DA:233,0
DA:235,0
DA:240,0
DA:241,0
DA:242,0
DA:248,0
DA:249,0
DA:250,0
DA:251,0
DA:254,0
DA:260,0
DA:261,0
DA:262,0
DA:264,0
DA:270,0
DA:271,0
DA:272,0
DA:273,0
DA:274,0
DA:280,0
DA:281,0
DA:282,0
DA:284,0
DA:290,0
DA:291,0
DA:292,0
DA:294,0
DA:300,0
DA:301,0
DA:302,0
DA:304,0
DA:310,0
DA:312,0
DA:313,0
DA:315,0
DA:316,0
DA:318,0
DA:323,0
DA:325,0
DA:329,0
DA:330,0
DA:331,0
DA:337,0
DA:338,0
DA:341,0
DA:342,0
DA:343,0
DA:346,0
DA:347,0
DA:353,0
DA:354,0
DA:357,0
DA:358,0
DA:359,0
DA:362,0
DA:363,0
DA:364,0
DA:367,0
DA:373,0
DA:374,0
DA:375,0
DA:376,0
DA:378,0
DA:379,0
DA:380,0
DA:391,0
DA:392,0
DA:393,0
DA:394,0
DA:396,0
DA:397,0
DA:400,0
DA:401,0
DA:402,0
DA:406,0
DA:407,0
DA:408,0
DA:409,0
DA:410,0
DA:411,0
DA:413,0
DA:414,0
DA:415,0
DA:416,0
DA:417,0
DA:419,0
DA:420,0
DA:421,0
DA:423,0
DA:424,0
DA:425,0
DA:426,0
DA:428,0
DA:429,0
DA:432,0
DA:433,0
DA:434,0
DA:435,0
DA:436,0
DA:437,0
DA:438,0
DA:439,0
DA:440,0
DA:441,0
DA:442,0
DA:446,0
DA:447,0
DA:448,0
DA:449,0
DA:451,0
DA:452,0
DA:454,0
DA:455,0
DA:456,0
DA:457,0
DA:460,0
DA:462,0
DA:464,0
DA:465,0
DA:466,0
DA:467,0
DA:470,0
DA:473,0
DA:480,0
DA:481,0
DA:489,0
DA:490,0
DA:491,0
DA:492,0
DA:494,0
DA:495,0
DA:497,0
DA:498,0
DA:499,0
DA:500,0
DA:506,0
DA:507,0
DA:510,0
DA:511,0
DA:512,0
DA:513,0
DA:514,0
DA:515,0
DA:516,0
DA:518,0
DA:521,0
DA:528,0
DA:529,0
DA:530,0
DA:532,0
DA:533,0
DA:541,0
DA:542,0
DA:543,0
DA:547,0
DA:548,0
DA:549,0
DA:550,0
DA:551,0
DA:552,0
DA:554,0
DA:555,0
DA:557,0
DA:558,0
DA:559,0
DA:560,0
DA:562,0
DA:563,0
DA:564,0
DA:565,0
DA:566,0
DA:567,0
DA:569,0
DA:570,0
DA:573,0
DA:575,0
DA:576,0
DA:577,0
DA:579,0
DA:581,0
DA:582,0
DA:583,0
DA:584,0
DA:585,0
DA:586,0
DA:587,0
DA:589,0
DA:590,0
DA:592,0
DA:595,0
DA:596,0
DA:603,0
DA:605,0
DA:608,0
DA:611,0
DA:612,0
DA:613,0
DA:615,0
DA:616,0
DA:617,0
DA:618,0
DA:620,0
DA:623,0
DA:624,0
DA:625,0
DA:627,0
DA:628,0
DA:630,0
DA:631,0
DA:632,0
DA:633,0
DA:634,0
DA:635,0
DA:636,0
DA:637,0
DA:638,0
DA:639,0
DA:640,0
DA:641,0
DA:642,0
DA:643,0
DA:644,0
DA:645,0
DA:646,0
DA:649,0
DA:657,0
DA:658,0
DA:659,0
DA:660,0
DA:661,0
DA:662,0
DA:664,0
DA:665,0
DA:666,0
DA:668,0
DA:669,0
DA:670,0
DA:672,0
DA:673,0
DA:674,0
DA:675,0
DA:676,0
DA:678,0
DA:679,0
DA:680,0
DA:681,0
DA:682,0
DA:683,0
DA:685,0
DA:686,0
DA:688,0
DA:691,0
DA:692,0
DA:694,0
DA:695,0
DA:698,0
DA:700,0
DA:701,0
DA:702,0
DA:703,0
DA:704,0
DA:705,0
DA:706,0
DA:708,0
DA:709,0
DA:710,0
DA:712,0
DA:713,0
DA:715,0
DA:716,0
DA:717,0
DA:718,0
DA:722,0
DA:723,0
DA:726,0
DA:727,0
DA:728,0
DA:729,0
DA:730,0
DA:731,0
DA:733,0
DA:734,0
DA:737,0
DA:738,0
DA:739,0
DA:741,0
DA:742,0
DA:746,0
DA:749,0
DA:750,0
DA:752,0
DA:758,0
DA:759,0
DA:760,0
DA:761,0
DA:764,0
DA:766,0
DA:767,0
DA:768,0
DA:769,0
DA:770,0
DA:773,0
DA:779,0
DA:780,0
DA:781,0
DA:782,0
DA:784,0
DA:786,0
DA:787,0
DA:788,0
DA:789,0
DA:790,0
DA:792,0
DA:793,0
DA:795,0
DA:798,0
DA:799,0
DA:802,0
DA:803,0
DA:808,0
DA:809,0
DA:811,0
DA:812,0
DA:813,0
DA:818,0
DA:819,0
DA:825,0
DA:826,0
DA:827,0
DA:830,0
DA:831,0
DA:832,0
DA:835,0
DA:837,0
DA:838,0
DA:839,0
DA:841,0
DA:842,0
DA:843,0
DA:845,0
DA:848,0
DA:849,0
DA:856,0
DA:857,0
DA:858,0
DA:859,0
DA:860,0
DA:861,0
DA:862,0
DA:863,0
DA:864,0
DA:865,0
DA:869,0
DA:870,0
DA:876,0
DA:877,0
DA:879,0
DA:881,0
DA:884,0
DA:885,0
DA:886,0
DA:890,0
DA:897,0
DA:898,0
DA:900,0
DA:905,0
DA:906,0
DA:909,0
DA:910,0
DA:912,0
DA:913,0
DA:915,0
DA:922,0
DA:924,0
DA:926,0
DA:927,0
DA:930,0
DA:931,0
DA:932,0
DA:933,0
DA:934,0
DA:936,0
DA:937,0
DA:939,0
DA:940,0
DA:941,0
DA:942,0
DA:944,0
DA:945,0
DA:949,0
DA:950,0
DA:951,0
DA:986,0
DA:987,0
DA:988,0
DA:989,0
DA:990,0
DA:991,0
DA:992,0
DA:993,0
DA:995,0
DA:996,0
DA:997,0
DA:998,0
DA:999,0
DA:1001,0
DA:1002,0
DA:1003,0
DA:1004,0
DA:1005,0
DA:1010,0
DA:1018,0
DA:1019,0
DA:1022,0
DA:1023,0
DA:1025,0
DA:1026,0
DA:1027,0
DA:1028,0
DA:1030,0
DA:1031,0
DA:1032,0
DA:1033,0
DA:1034,0
DA:1036,0
DA:1037,0
DA:1038,0
DA:1039,0
DA:1041,0
DA:1042,0
DA:1043,0
DA:1044,0
DA:1046,0
DA:1047,0
DA:1048,0
DA:1049,0
DA:1051,0
DA:1052,0
DA:1053,0
DA:1054,0
DA:1056,0
DA:1057,0
DA:1058,0
DA:1059,0
DA:1061,0
DA:1062,0
DA:1063,0
DA:1064,0
DA:1066,0
DA:1067,0
DA:1068,0
DA:1069,0
DA:1071,0
DA:1072,0
DA:1073,0
DA:1074,0
DA:1076,0
DA:1077,0
DA:1078,0
DA:1079,0
DA:1081,0
DA:1082,0
DA:1083,0
DA:1085,0
DA:1086,0
DA:1087,0
DA:1089,0
DA:1090,0
DA:1091,0
DA:1092,0
DA:1094,0
DA:1095,0
DA:1096,0
DA:1097,0
DA:1103,0
DA:1104,0
DA:1105,0
DA:1107,0
DA:1109,0
DA:1118,0
DA:1119,0
DA:1122,0
DA:1123,0
DA:1124,0
DA:1126,0
DA:1127,0
DA:1128,0
DA:1129,0
DA:1130,0
DA:1132,0
DA:1133,0
DA:1134,0
DA:1135,0
DA:1136,0
DA:1138,0
DA:1139,0
DA:1140,0
DA:1141,0
DA:1143,0
DA:1144,0
DA:1145,0
DA:1146,0
DA:1148,0
DA:1149,0
DA:1150,0
DA:1151,0
DA:1153,0
DA:1154,0
DA:1155,0
DA:1156,0
DA:1158,0
DA:1159,0
DA:1160,0
DA:1161,0
DA:1163,0
DA:1164,0
DA:1165,0
DA:1166,0
DA:1168,0
DA:1169,0
DA:1170,0
DA:1171,0
DA:1173,0
DA:1174,0
DA:1175,0
DA:1176,0
DA:1178,0
DA:1179,0
DA:1180,0
DA:1181,0
DA:1183,0
DA:1184,0
DA:1185,0
DA:1186,0
DA:1188,0
DA:1189,0
DA:1190,0
DA:1191,0
DA:1193,0
DA:1194,0
DA:1195,0
DA:1196,0
DA:1198,0
DA:1199,0
DA:1200,0
DA:1201,0
DA:1203,0
DA:1204,0
DA:1205,0
DA:1206,0
DA:1208,0
DA:1209,0
DA:1210,0
DA:1211,0
DA:1213,0
DA:1214,0
DA:1215,0
DA:1216,0
DA:1218,0
DA:1219,0
DA:1220,0
DA:1221,0
DA:1223,0
DA:1224,0
DA:1225,0
DA:1226,0
DA:1228,0
DA:1229,0
DA:1230,0
DA:1231,0
DA:1233,0
DA:1234,0
DA:1235,0
DA:1236,0
DA:1238,0
DA:1239,0
DA:1240,0
DA:1241,0
DA:1243,0
DA:1244,0
DA:1245,0
DA:1246,0
DA:1248,0
DA:1249,0
DA:1250,0
DA:1251,0
DA:1253,0
DA:1254,0
DA:1255,0
DA:1256,0
DA:1262,0
DA:1263,0
DA:1264,0
DA:1267,0
DA:1268,0
DA:1276,0
DA:1277,0
DA:1278,0
DA:1286,0
DA:1287,0
DA:1288,0
DA:1289,0
DA:1290,0
DA:1291,0
DA:1292,0
DA:1293,0
DA:1294,0
DA:1295,0
DA:1296,0
DA:1297,0
DA:1298,0
DA:1299,0
DA:1300,0
DA:1302,0
DA:1303,0
DA:1304,0
DA:1305,0
DA:1306,0
DA:1307,0
DA:1308,0
DA:1309,0
DA:1310,0
DA:1311,0
DA:1312,0
DA:1313,0
DA:1314,0
DA:1315,0
DA:1316,0
DA:1317,0
DA:1319,0
DA:1320,0
DA:1321,0
DA:1323,0
DA:1324,0
DA:1327,0
DA:1328,0
DA:1329,0
DA:1334,0
DA:1340,0
DA:1341,0
DA:1342,0
DA:1343,0
DA:1344,0
DA:1345,0
DA:1347,0
DA:1349,0
DA:1350,0
DA:1351,0
DA:1352,0
DA:1353,0
DA:1354,0
DA:1355,0
DA:1356,0
DA:1357,0
DA:1359,0
DA:1361,0
DA:1362,0
DA:1363,0
DA:1364,0
DA:1366,0
DA:1367,0
DA:1369,0
DA:1371,0
DA:1378,0
DA:1380,0
DA:1381,0
DA:1387,0
DA:1388,0
DA:1389,0
DA:1390,0
DA:1391,0
DA:1392,0
DA:1393,0
DA:1394,0
DA:1397,0
DA:1398,0
DA:1400,0
DA:1401,0
DA:1402,0
DA:1403,0
DA:1406,0
DA:1407,0
DA:1409,0
DA:1410,0
DA:1411,0
DA:1412,0
DA:1413,0
DA:1414,0
DA:1415,0
DA:1416,0
DA:1420,0
DA:1421,0
DA:1423,0
DA:1424,0
DA:1426,0
DA:1430,0
DA:1435,0
DA:1436,0
DA:1440,0
DA:1441,0
DA:1442,0
DA:1447,0
DA:1450,0
DA:1451,0
DA:1455,0
DA:1459,0
DA:1461,0
DA:1462,0
DA:1464,0
DA:1470,0
DA:1471,0
DA:1473,0
DA:1476,0
DA:1478,0
DA:1479,0
DA:1480,0
DA:1482,0
DA:1483,0
DA:1492,0
DA:1493,0
DA:1495,0
DA:1496,0
DA:1498,0
DA:1499,0
DA:1503,0
DA:1504,0
DA:1505,0
DA:1506,0
DA:1507,0
DA:1512,0
DA:1513,0
DA:1514,0
DA:1519,0
DA:1521,0
DA:1522,0
DA:1523,0
DA:1526,0
DA:1528,0
DA:1529,0
DA:1531,0
DA:1532,0
DA:1534,0
DA:1535,0
DA:1540,0
end_of_record
TN:
SF:/workspace/vtr-verilog-to-routing/ODIN_II/SRC/enum_str.cpp
end_of_record
SF:/usr/include/c++/9/iostream
end_of_record
TN:
SF:/usr/include/x86_64-linux-gnu/bits/stdio2.h
DA:98,0
DA:100,0
end_of_record
SF:/usr/include/c++/9/iostream
end_of_record
SF:/workspace/vtr-verilog-to-routing/ODIN_II/SRC/hard_blocks.cpp
FN:40,_Z21register_hb_port_sizeP13t_model_portsi
FNDA:0,_Z21register_hb_port_sizeP13t_model_portsi
FN:49,_Z14get_model_portP13t_model_portsPKc
FNDA:0,_Z14get_model_portP13t_model_portsPKc
FN:56,_Z22cache_hard_block_namesv
FNDA:0,_Z22cache_hard_block_namesv
FN:67,_Z20register_hard_blocksv
FNDA:0,_Z20register_hard_blocksv
FN:107,_Z22deregister_hard_blocksv
FNDA:0,_Z22deregister_hard_blocksv
FN:112,_Z15find_hard_blockPKc
FNDA:0,_Z15find_hard_blockPKc
FN:125,_Z17define_hard_blockP7nnode_tP8_IO_FILE
FNDA:0,_Z17define_hard_blockP7nnode_tP8_IO_FILE
FN:202,_Z18output_hard_blocksP8_IO_FILE
FNDA:0,_Z18output_hard_blocksP8_IO_FILE
FN:263,_Z22instantiate_hard_blockP7nnode_tsP9netlist_t
FNDA:0,_Z22instantiate_hard_blockP7nnode_tsP9netlist_t
FN:283,_Z20hard_block_port_sizeP7t_modelPc
FNDA:0,_Z20hard_block_port_sizeP7t_modelPc
FN:315,_Z25hard_block_port_directionP7t_modelPc
FNDA:0,_Z25hard_block_port_directionP7t_modelPc
DA:40,0
DA:41,0
DA:42,0
DA:47,0
DA:49,0
DA:50,0
DA:51,0
DA:53,0
DA:56,0
DA:57,0
DA:59,0
DA:60,0
DA:61,0
DA:62,0
DA:63,0
DA:65,0
DA:67,0
DA:68,0
DA:69,0
DA:70,0
DA:72,0
DA:73,0
DA:74,0
DA:77,0
DA:81,0
DA:82,0
DA:85,0
DA:86,0
DA:87,0
DA:89,0
DA:92,0
DA:94,0
DA:98,0
DA:100,0
DA:102,0
DA:105,0
DA:107,0
DA:108,0
DA:109,0
DA:112,0
DA:113,0
DA:115,0
DA:116,0
DA:117,0
DA:118,0
DA:120,0
DA:125,0
DA:126,0
DA:127,0
DA:128,0
DA:129,0
DA:132,0
DA:133,0
DA:136,0
DA:139,0
DA:140,0
DA:141,0
DA:144,0
DA:145,0
DA:147,0
DA:148,0
DA:149,0
DA:150,0
DA:151,0
DA:152,0
DA:155,0
DA:156,0
DA:158,0
DA:159,0
DA:161,0
DA:164,0
DA:165,0
DA:168,0
DA:170,0
DA:171,0
DA:172,0
DA:173,0
DA:179,0
DA:180,0
DA:181,0
DA:183,0
DA:185,0
DA:186,0
DA:189,0
DA:191,0
DA:192,0
DA:193,0
DA:194,0
DA:198,0
DA:202,0
DA:203,0
DA:204,0
DA:205,0
DA:206,0
DA:207,0
DA:209,0
DA:210,0
DA:211,0
DA:212,0
DA:215,0
DA:216,0
DA:220,0
DA:221,0
DA:222,0
DA:223,0
DA:224,0
DA:225,0
DA:226,0
DA:228,0
DA:230,0
DA:231,0
DA:233,0
DA:235,0
DA:238,0
DA:239,0
DA:240,0
DA:241,0
DA:242,0
DA:243,0
DA:245,0
DA:247,0
DA:248,0
DA:250,0
DA:252,0
DA:255,0
DA:257,0
DA:260,0
DA:263,0
DA:264,0
DA:266,0
DA:268,0
DA:269,0
DA:270,0
DA:272,0
DA:273,0
DA:279,0
DA:280,0
DA:283,0
DA:284,0
DA:286,0
DA:293,0
DA:297,0
DA:298,0
DA:299,0
DA:300,0
DA:302,0
DA:304,0
DA:305,0
DA:306,0
DA:307,0
DA:309,0
DA:315,0
DA:316,0
DA:318,0
DA:321,0
DA:322,0
DA:323,0
DA:324,0
DA:326,0
DA:328,0
DA:329,0
DA:330,0
DA:331,0
DA:333,0
end_of_record
TN:
SF:/usr/include/c++/9/bits/alloc_traits.h
DA:469,0
DA:470,0
DA:514,0
DA:515,0
end_of_record
SF:/usr/include/c++/9/ext/type_traits.h
DA:152,0
end_of_record
SF:/usr/include/c++/9/bits/ptr_traits.h
DA:146,0
DA:147,0
end_of_record
SF:/usr/include/c++/9/bits/stl_iterator_base_funcs.h
DA:98,0
DA:104,0
DA:138,0
DA:141,0
end_of_record
SF:/workspace/vtr-verilog-to-routing/ODIN_II/SRC/hierarchy_util.cpp
FN:10,_Z17init_sc_hierarchyv
FNDA:0,_Z17init_sc_hierarchyv
FN:44,_Z17copy_sc_hierarchyP12sc_hierarchy
FNDA:0,_Z17copy_sc_hierarchyP12sc_hierarchy
FN:72,_Z19copy_param_table_scP12STRING_CACHE
FNDA:0,_Z19copy_param_table_scP12STRING_CACHE
FN:88,_Z17free_sc_hierarchyP12sc_hierarchy
FNDA:0,_Z17free_sc_hierarchyP12sc_hierarchy
FN:141,_Z35resolve_hierarchical_name_referenceP12sc_hierarchyPc
FNDA:0,_Z35resolve_hierarchical_name_referenceP12sc_hierarchyPc
FN:211,_Z50resolve_hierarchical_name_reference_by_path_searchP12sc_hierarchyNSt7__cxx1112basic_stringIcSt11char_traitsIcESaIcEEE
FNDA:0,_Z50resolve_hierarchical_name_reference_by_path_searchP12sc_hierarchyNSt7__cxx1112basic_stringIcSt11char_traitsIcESaIcEEE
FN:278,_Z52resolve_hierarchical_name_reference_by_upward_searchP12sc_hierarchyNSt7__cxx1112basic_stringIcSt11char_traitsIcESaIcEEE
FNDA:0,_Z52resolve_hierarchical_name_reference_by_upward_searchP12sc_hierarchyNSt7__cxx1112basic_stringIcSt11char_traitsIcESaIcEEE
DA:10,0
DA:11,0
DA:12,0
DA:14,0
DA:15,0
DA:16,0
DA:17,0
DA:19,0
DA:20,0
DA:21,0
DA:22,0
DA:24,0
DA:26,0
DA:27,0
DA:29,0
DA:31,0
DA:32,0
DA:33,0
DA:35,0
DA:36,0
DA:38,0
DA:44,0
DA:45,0
DA:46,0
DA:47,0
DA:48,0
DA:50,0
DA:51,0
DA:52,0
DA:54,0
DA:55,0
DA:57,0
DA:58,0
DA:59,0
DA:62,0
DA:63,0
DA:66,0
DA:72,0
DA:73,0
DA:75,0
DA:77,0
DA:78,0
DA:79,0
DA:82,0
DA:88,0
DA:89,0
DA:91,0
DA:92,0
DA:94,0
DA:96,0
DA:97,0
DA:99,0
DA:101,0
DA:102,0
DA:104,0
DA:106,0
DA:107,0
DA:109,0
DA:111,0
DA:112,0
DA:113,0
DA:115,0
DA:118,0
DA:119,0
DA:121,0
DA:122,0
DA:123,0
DA:125,0
DA:126,0
DA:128,0
DA:130,0
DA:131,0
DA:132,0
DA:133,0
DA:135,0
DA:136,0
DA:141,0
DA:145,0
DA:146,0
DA:147,0
DA:149,0
DA:150,0
DA:151,0
DA:154,0
DA:155,0
DA:160,0
DA:161,0
DA:165,0
DA:166,0
DA:167,0
DA:168,0
DA:171,0
DA:172,0
DA:173,0
DA:174,0
DA:177,0
DA:178,0
DA:179,0
DA:180,0
DA:183,0
DA:184,0
DA:185,0
DA:186,0
DA:192,0
DA:193,0
DA:197,0
DA:198,0
DA:202,0
DA:211,0
DA:212,0
DA:213,0
DA:215,0
DA:216,0
DA:218,0
DA:219,0
DA:221,0
DA:223,0
DA:224,0
DA:225,0
DA:228,0
DA:229,0
DA:230,0
DA:231,0
DA:232,0
DA:236,0
DA:241,0
DA:242,0
DA:244,0
DA:245,0
DA:246,0
DA:250,0
DA:251,0
DA:252,0
DA:256,0
DA:257,0
DA:258,0
DA:262,0
DA:263,0
DA:264,0
DA:269,0
DA:278,0
DA:279,0
DA:280,0
DA:282,0
DA:283,0
DA:285,0
DA:287,0
DA:288,0
DA:289,0
DA:292,0
DA:293,0
DA:294,0
DA:295,0
DA:296,0
DA:300,0
DA:302,0
DA:305,0
end_of_record
SF:/usr/include/c++/9/bits/move.h
DA:47,0
DA:99,0
DA:138,0
DA:139,0
end_of_record
SF:/usr/include/c++/9/iostream
end_of_record
SF:/usr/include/c++/9/ext/new_allocator.h
DA:80,0
DA:83,0
DA:89,0
DA:119,0
DA:128,0
end_of_record
SF:/usr/include/c++/9/bits/basic_string.tcc
FN:206,_ZNSt7__cxx1112basic_stringIcSt11char_traitsIcESaIcEE12_M_constructIPcEEvT_S7_St20forward_iterator_tag
FNDA:0,_ZNSt7__cxx1112basic_stringIcSt11char_traitsIcESaIcEE12_M_constructIPcEEvT_S7_St20forward_iterator_tag
FN:206,_ZNSt7__cxx1112basic_stringIcSt11char_traitsIcESaIcEE12_M_constructIPKcEEvT_S8_St20forward_iterator_tag
FNDA:0,_ZNSt7__cxx1112basic_stringIcSt11char_traitsIcESaIcEE12_M_constructIPKcEEvT_S8_St20forward_iterator_tag
DA:206,0
DA:211,0
DA:212,0
DA:215,0
DA:217,0
DA:219,0
DA:220,0
DA:225,0
DA:232,0
DA:233,0
DA:206,0
DA:211,0
DA:212,0
DA:215,0
DA:217,0
DA:219,0
DA:220,0
DA:225,0
DA:232,0
DA:233,0
end_of_record
SF:/usr/include/c++/9/bits/basic_string.h
DA:150,0
DA:159,0
DA:160,0
DA:178,0
DA:179,0
DA:182,0
DA:183,0
DA:186,0
DA:190,0
DA:193,0
DA:200,0
DA:203,0
DA:210,0
DA:211,0
DA:214,0
DA:216,0
DA:217,0
DA:221,0
DA:222,0
DA:229,0
DA:231,0
DA:232,0
DA:236,0
DA:237,0
DA:243,0
DA:247,0
DA:263,0
DA:266,0
DA:286,0
DA:287,0
DA:290,0
DA:291,0
DA:346,0
DA:348,0
DA:349,0
DA:351,0
DA:392,0
DA:393,0
DA:396,0
DA:398,0
DA:448,0
DA:450,0
DA:451,0
DA:657,0
DA:658,0
DA:665,0
DA:696,0
DA:930,0
DA:936,0
DA:1031,0
DA:1032,0
DA:1364,0
DA:1366,0
DA:2300,0
DA:2301,0
DA:2571,0
DA:2572,0
DA:6163,0
DA:6165,0
end_of_record
SF:/usr/include/c++/9/ext/alloc_traits.h
DA:97,0
DA:98,0
end_of_record
SF:/usr/include/c++/9/bits/allocator.h
DA:138,0
DA:141,0
DA:142,0
DA:153,0
end_of_record
SF:/usr/include/c++/9/bits/char_traits.h
DA:299,0
DA:300,0
DA:361,0
DA:363,0
DA:365,0
end_of_record
TN:
SF:/usr/include/c++/9/ext/type_traits.h
DA:152,0
end_of_record
SF:/usr/include/c++/9/bits/alloc_traits.h
DA:443,0
DA:444,0
DA:469,0
DA:470,0
DA:482,0
DA:484,0
DA:514,0
DA:515,0
DA:545,0
DA:546,0
DA:553,0
DA:557,0
end_of_record
SF:/usr/include/c++/9/bits/unordered_map.h
DA:102,0
DA:141,0
DA:304,0
DA:305,0
DA:324,0
DA:325,0
DA:346,0
DA:347,0
DA:585,0
DA:586,0
DA:842,0
DA:843,0
DA:920,0
DA:921,0
end_of_record
SF:/usr/include/c++/9/bits/stl_iterator_base_funcs.h
DA:98,0
DA:104,0
DA:138,0
DA:141,0
end_of_record
SF:/usr/include/c++/9/bits/ptr_traits.h
DA:146,0
DA:147,0
DA:156,0
end_of_record
SF:/usr/include/c++/9/bits/hashtable.h
FN:1176,_ZNSt10_HashtableINSt7__cxx1112basic_stringIcSt11char_traitsIcESaIcEEESt4pairIKS5_P15implicit_memoryESaISA_ENSt8__detail10_Select1stESt8equal_toIS5_ESt4hashIS5_ENSC_18_Mod_range_hashingENSC_20_Default_ranged_hashENSC_20_Prime_rehash_policyENSC_17_Hashtable_traitsILb1ELb0ELb1EEEE14_M_move_assignEOSN_St17integral_constantIbLb1EE
FNDA:0,_ZNSt10_HashtableINSt7__cxx1112basic_stringIcSt11char_traitsIcESaIcEEESt4pairIKS5_P15implicit_memoryESaISA_ENSt8__detail10_Select1stESt8equal_toIS5_ESt4hashIS5_ENSC_18_Mod_range_hashingENSC_20_Default_ranged_hashENSC_20_Prime_rehash_policyENSC_17_Hashtable_traitsILb1ELb0ELb1EEEE14_M_move_assignEOSN_St17integral_constantIbLb1EE
FN:1348,_ZNSt10_HashtableINSt7__cxx1112basic_stringIcSt11char_traitsIcESaIcEEESt4pairIKS5_P15implicit_memoryESaISA_ENSt8__detail10_Select1stESt8equal_toIS5_ESt4hashIS5_ENSC_18_Mod_range_hashingENSC_20_Default_ranged_hashENSC_20_Prime_rehash_policyENSC_17_Hashtable_traitsILb1ELb0ELb1EEEED2Ev
FNDA:0,_ZNSt10_HashtableINSt7__cxx1112basic_stringIcSt11char_traitsIcESaIcEEESt4pairIKS5_P15implicit_memoryESaISA_ENSt8__detail10_Select1stESt8equal_toIS5_ESt4hashIS5_ENSC_18_Mod_range_hashingENSC_20_Default_ranged_hashENSC_20_Prime_rehash_policyENSC_17_Hashtable_traitsILb1ELb0ELb1EEEED2Ev
FN:1412,_ZNSt10_HashtableINSt7__cxx1112basic_stringIcSt11char_traitsIcESaIcEEESt4pairIKS5_P15implicit_memoryESaISA_ENSt8__detail10_Select1stESt8equal_toIS5_ESt4hashIS5_ENSC_18_Mod_range_hashingENSC_20_Default_ranged_hashENSC_20_Prime_rehash_policyENSC_17_Hashtable_traitsILb1ELb0ELb1EEEE4findERS7_
FNDA:0,_ZNSt10_HashtableINSt7__cxx1112basic_stringIcSt11char_traitsIcESaIcEEESt4pairIKS5_P15implicit_memoryESaISA_ENSt8__detail10_Select1stESt8equal_toIS5_ESt4hashIS5_ENSC_18_Mod_range_hashingENSC_20_Default_ranged_hashENSC_20_Prime_rehash_policyENSC_17_Hashtable_traitsILb1ELb0ELb1EEEE4findERS7_
FN:1532,_ZNKSt10_HashtableINSt7__cxx1112basic_stringIcSt11char_traitsIcESaIcEEESt4pairIKS5_P15implicit_memoryESaISA_ENSt8__detail10_Select1stESt8equal_toIS5_ESt4hashIS5_ENSC_18_Mod_range_hashingENSC_20_Default_ranged_hashENSC_20_Prime_rehash_policyENSC_17_Hashtable_traitsILb1ELb0ELb1EEEE19_M_find_before_nodeEmRS7_m
FNDA:0,_ZNKSt10_HashtableINSt7__cxx1112basic_stringIcSt11char_traitsIcESaIcEEESt4pairIKS5_P15implicit_memoryESaISA_ENSt8__detail10_Select1stESt8equal_toIS5_ESt4hashIS5_ENSC_18_Mod_range_hashingENSC_20_Default_ranged_hashENSC_20_Prime_rehash_policyENSC_17_Hashtable_traitsILb1ELb0ELb1EEEE19_M_find_before_nodeEmRS7_m
FN:1560,_ZNSt10_HashtableINSt7__cxx1112basic_stringIcSt11char_traitsIcESaIcEEESt4pairIKS5_P15implicit_memoryESaISA_ENSt8__detail10_Select1stESt8equal_toIS5_ESt4hashIS5_ENSC_18_Mod_range_hashingENSC_20_Default_ranged_hashENSC_20_Prime_rehash_policyENSC_17_Hashtable_traitsILb1ELb0ELb1EEEE22_M_insert_bucket_beginEmPNSC_10_Hash_nodeISA_Lb1EEE
FNDA:0,_ZNSt10_HashtableINSt7__cxx1112basic_stringIcSt11char_traitsIcESaIcEEESt4pairIKS5_P15implicit_memoryESaISA_ENSt8__detail10_Select1stESt8equal_toIS5_ESt4hashIS5_ENSC_18_Mod_range_hashingENSC_20_Default_ranged_hashENSC_20_Prime_rehash_policyENSC_17_Hashtable_traitsILb1ELb0ELb1EEEE22_M_insert_bucket_beginEmPNSC_10_Hash_nodeISA_Lb1EEE
FN:1632,_ZNSt10_HashtableINSt7__cxx1112basic_stringIcSt11char_traitsIcESaIcEEESt4pairIKS5_P15implicit_memoryESaISA_ENSt8__detail10_Select1stESt8equal_toIS5_ESt4hashIS5_ENSC_18_Mod_range_hashingENSC_20_Default_ranged_hashENSC_20_Prime_rehash_policyENSC_17_Hashtable_traitsILb1ELb0ELb1EEEE10_M_emplaceIJSA_EEES6_INSC_14_Node_iteratorISA_Lb0ELb1EEEbESt17integral_constantIbLb1EEDpOT_
FNDA:0,_ZNSt10_HashtableINSt7__cxx1112basic_stringIcSt11char_traitsIcESaIcEEESt4pairIKS5_P15implicit_memoryESaISA_ENSt8__detail10_Select1stESt8equal_toIS5_ESt4hashIS5_ENSC_18_Mod_range_hashingENSC_20_Default_ranged_hashENSC_20_Prime_rehash_policyENSC_17_Hashtable_traitsILb1ELb0ELb1EEEE10_M_emplaceIJSA_EEES6_INSC_14_Node_iteratorISA_Lb0ELb1EEEbESt17integral_constantIbLb1EEDpOT_
FN:1698,_ZNSt10_HashtableINSt7__cxx1112basic_stringIcSt11char_traitsIcESaIcEEESt4pairIKS5_P15implicit_memoryESaISA_ENSt8__detail10_Select1stESt8equal_toIS5_ESt4hashIS5_ENSC_18_Mod_range_hashingENSC_20_Default_ranged_hashENSC_20_Prime_rehash_policyENSC_17_Hashtable_traitsILb1ELb0ELb1EEEE21_M_insert_unique_nodeEmmPNSC_10_Hash_nodeISA_Lb1EEEm
FNDA:0,_ZNSt10_HashtableINSt7__cxx1112basic_stringIcSt11char_traitsIcESaIcEEESt4pairIKS5_P15implicit_memoryESaISA_ENSt8__detail10_Select1stESt8equal_toIS5_ESt4hashIS5_ENSC_18_Mod_range_hashingENSC_20_Default_ranged_hashENSC_20_Prime_rehash_policyENSC_17_Hashtable_traitsILb1ELb0ELb1EEEE21_M_insert_unique_nodeEmmPNSC_10_Hash_nodeISA_Lb1EEEm
FN:2024,_ZNSt10_HashtableINSt7__cxx1112basic_stringIcSt11char_traitsIcESaIcEEESt4pairIKS5_P15implicit_memoryESaISA_ENSt8__detail10_Select1stESt8equal_toIS5_ESt4hashIS5_ENSC_18_Mod_range_hashingENSC_20_Default_ranged_hashENSC_20_Prime_rehash_policyENSC_17_Hashtable_traitsILb1ELb0ELb1EEEE5clearEv
FNDA:0,_ZNSt10_HashtableINSt7__cxx1112basic_stringIcSt11char_traitsIcESaIcEEESt4pairIKS5_P15implicit_memoryESaISA_ENSt8__detail10_Select1stESt8equal_toIS5_ESt4hashIS5_ENSC_18_Mod_range_hashingENSC_20_Default_ranged_hashENSC_20_Prime_rehash_policyENSC_17_Hashtable_traitsILb1ELb0ELb1EEEE5clearEv
FN:2061,_ZNSt10_HashtableINSt7__cxx1112basic_stringIcSt11char_traitsIcESaIcEEESt4pairIKS5_P15implicit_memoryESaISA_ENSt8__detail10_Select1stESt8equal_toIS5_ESt4hashIS5_ENSC_18_Mod_range_hashingENSC_20_Default_ranged_hashENSC_20_Prime_rehash_policyENSC_17_Hashtable_traitsILb1ELb0ELb1EEEE9_M_rehashEmRKm
FNDA:0,_ZNSt10_HashtableINSt7__cxx1112basic_stringIcSt11char_traitsIcESaIcEEESt4pairIKS5_P15implicit_memoryESaISA_ENSt8__detail10_Select1stESt8equal_toIS5_ESt4hashIS5_ENSC_18_Mod_range_hashingENSC_20_Default_ranged_hashENSC_20_Prime_rehash_policyENSC_17_Hashtable_traitsILb1ELb0ELb1EEEE9_M_rehashEmRKm
FN:2084,_ZNSt10_HashtableINSt7__cxx1112basic_stringIcSt11char_traitsIcESaIcEEESt4pairIKS5_P15implicit_memoryESaISA_ENSt8__detail10_Select1stESt8equal_toIS5_ESt4hashIS5_ENSC_18_Mod_range_hashingENSC_20_Default_ranged_hashENSC_20_Prime_rehash_policyENSC_17_Hashtable_traitsILb1ELb0ELb1EEEE13_M_rehash_auxEmSt17integral_constantIbLb1EE
FNDA:0,_ZNSt10_HashtableINSt7__cxx1112basic_stringIcSt11char_traitsIcESaIcEEESt4pairIKS5_P15implicit_memoryESaISA_ENSt8__detail10_Select1stESt8equal_toIS5_ESt4hashIS5_ENSC_18_Mod_range_hashingENSC_20_Default_ranged_hashENSC_20_Prime_rehash_policyENSC_17_Hashtable_traitsILb1ELb0ELb1EEEE13_M_rehash_auxEmSt17integral_constantIbLb1EE
DA:342,0
DA:343,0
DA:346,0
DA:347,0
DA:353,0
DA:355,0
DA:357,0
DA:358,0
DA:361,0
DA:365,0
DA:367,0
DA:370,0
DA:374,0
DA:375,0
DA:383,0
DA:414,0
DA:473,0
DA:478,0
DA:481,0
DA:504,0
DA:505,0
DA:512,0
DA:513,0
DA:528,0
DA:532,0
DA:533,0
DA:639,0
DA:640,0
DA:643,0
DA:644,0
DA:652,0
DA:655,0
DA:656,0
DA:657,0
DA:1159,0
DA:1163,0
DA:1164,0
DA:1165,0
DA:1166,0
DA:1167,0
DA:1168,0
DA:1176,0
DA:1180,0
DA:1181,0
DA:1182,0
DA:1183,0
DA:1184,0
DA:1185,0
DA:1188,0
DA:1189,0
DA:1191,0
DA:1192,0
DA:1193,0
DA:1194,0
DA:1198,0
DA:1199,0
DA:1200,0
DA:1201,0
DA:1348,0
DA:1352,0
DA:1353,0
DA:1354,0
DA:1412,0
DA:1417,0
DA:1418,0
DA:1419,0
DA:1420,0
DA:1532,0
DA:1538,0
DA:1539,0
DA:1542,0
DA:1545,0
DA:1546,0
DA:1548,0
DA:1560,0
DA:1564,0
DA:1568,0
DA:1569,0
DA:1576,0
DA:1577,0
DA:1578,0
DA:1581,0
DA:1582,0
DA:1584,0
DA:1632,0
DA:1638,0
DA:1639,0
DA:1643,0
DA:1651,0
DA:1652,0
DA:1655,0
DA:1656,0
DA:1660,0
DA:1698,0
DA:1704,0
DA:1705,0
DA:1711,0
DA:1713,0
DA:1714,0
DA:1717,0
DA:1720,0
DA:1721,0
DA:1722,0
DA:1724,0
DA:1726,0
DA:1727,0
DA:2024,0
DA:2028,0
DA:2029,0
DA:2030,0
DA:2031,0
DA:2032,0
DA:2061,0
DA:2067,0
DA:2069,0
DA:2073,0
DA:2074,0
DA:2076,0
DA:2084,0
DA:2088,0
DA:2089,0
DA:2090,0
DA:2091,0
DA:2092,0
DA:2094,0
DA:2095,0
DA:2096,0
DA:2098,0
DA:2099,0
DA:2100,0
DA:2101,0
DA:2102,0
DA:2107,0
DA:2108,0
DA:2113,0
DA:2114,0
DA:2115,0
DA:2116,0
end_of_record
SF:/usr/include/c++/9/new
DA:173,0
DA:174,0
end_of_record
SF:/usr/include/c++/9/bits/stl_pair.h
DA:208,0
DA:303,0
DA:304,0
DA:341,0
DA:342,0
DA:524,0
DA:529,0
end_of_record
SF:/usr/include/c++/9/bits/functional_hash.h
DA:195,0
DA:197,0
end_of_record
SF:/usr/include/c++/9/bits/move.h
DA:47,0
DA:74,0
DA:99,0
DA:138,0
DA:139,0
end_of_record
SF:/usr/include/c++/9/iostream
end_of_record
SF:/usr/include/c++/9/ext/aligned_buffer.h
DA:102,0
DA:104,0
DA:114,0
DA:115,0
end_of_record
SF:/usr/include/c++/9/ext/new_allocator.h
DA:80,0
DA:83,0
DA:89,0
DA:102,0
DA:104,0
DA:114,0
DA:119,0
DA:128,0
DA:132,0
DA:144,0
DA:147,0
end_of_record
SF:/usr/include/c++/9/bits/hashtable_policy.h
FN:2079,_ZNSt8__detail16_Hashtable_allocISaINS_10_Hash_nodeISt4pairIKNSt7__cxx1112basic_stringIcSt11char_traitsIcESaIcEEEP15implicit_memoryELb1EEEEE16_M_allocate_nodeIJSC_EEEPSD_DpOT_
FNDA:0,_ZNSt8__detail16_Hashtable_allocISaINS_10_Hash_nodeISt4pairIKNSt7__cxx1112basic_stringIcSt11char_traitsIcESaIcEEEP15implicit_memoryELb1EEEEE16_M_allocate_nodeIJSC_EEEPSD_DpOT_
DA:92,0
DA:94,0
DA:218,0
DA:229,0
DA:236,0
DA:237,0
DA:244,0
DA:245,0
DA:264,0
DA:269,0
DA:294,0
DA:295,0
DA:298,0
DA:299,0
DA:304,0
DA:311,0
DA:340,0
DA:341,0
DA:344,0
DA:345,0
DA:352,0
DA:354,0
DA:355,0
DA:391,0
DA:393,0
DA:400,0
DA:401,0
DA:431,0
DA:433,0
DA:449,0
DA:450,0
DA:476,0
DA:477,0
DA:480,0
DA:481,0
DA:484,0
DA:485,0
DA:805,0
DA:1002,0
DA:1004,0
DA:1005,0
DA:1093,0
DA:1096,0
DA:1104,0
DA:1108,0
DA:1380,0
DA:1384,0
DA:1388,0
DA:1390,0
DA:1393,0
DA:1396,0
DA:1399,0
DA:1400,0
DA:1415,0
DA:1418,0
DA:1421,0
DA:1427,0
DA:1448,0
DA:1450,0
DA:1829,0
DA:1834,0
DA:1846,0
DA:2017,0
DA:2036,0
DA:2046,0
DA:2047,0
DA:2079,0
DA:2081,0
DA:2082,0
DA:2085,0
DA:2086,0
DA:2089,0
DA:2091,0
DA:2093,0
DA:2094,0
DA:2118,0
DA:2120,0
DA:2122,0
DA:2123,0
DA:2124,0
DA:2142,0
DA:2146,0
DA:2147,0
DA:2148,0
DA:2149,0
end_of_record
SF:/usr/include/c++/9/utility
DA:174,0
DA:175,0
DA:219,0
DA:220,0
end_of_record
SF:/usr/include/c++/9/ext/alloc_traits.h
DA:97,0
DA:98,0
end_of_record
SF:/usr/include/c++/9/bits/allocator.h
DA:138,0
DA:141,0
DA:142,0
DA:151,0
DA:153,0
end_of_record
SF:/usr/include/c++/9/bits/char_traits.h
DA:299,0
DA:300,0
DA:315,0
DA:317,0
DA:325,0
DA:361,0
DA:363,0
DA:365,0
end_of_record
SF:/workspace/vtr-verilog-to-routing/ODIN_II/SRC/implicit_memory.cpp
FN:50,_Z26init_implicit_memory_indexv
FNDA:0,_Z26init_implicit_memory_indexv
FN:58,_Z22lookup_implicit_memoryPcS_
FNDA:0,_Z22lookup_implicit_memoryPcS_
FN:74,_Z36lookup_implicit_memory_reference_astPcP10ast_node_t
FNDA:0,_Z36lookup_implicit_memory_reference_astPcP10ast_node_t
FN:88,_Z38is_valid_implicit_memory_reference_astPcP10ast_node_t
FNDA:0,_Z38is_valid_implicit_memory_reference_astPcP10ast_node_t
FN:102,_Z28create_implicit_memory_blockilPcS_
FNDA:0,_Z28create_implicit_memory_blockilPcS_
FN:151,_Z33add_input_port_to_implicit_memoryP15implicit_memoryP13signal_list_tPKc
FNDA:0,_Z33add_input_port_to_implicit_memoryP15implicit_memoryP13signal_list_tPKc
FN:160,_Z34add_output_port_to_implicit_memoryP15implicit_memoryP13signal_list_tPKc
FNDA:0,_Z34add_output_port_to_implicit_memoryP15implicit_memoryP13signal_list_tPKc
FN:169,_Z28lookup_implicit_memory_inputPc
FNDA:0,_Z28lookup_implicit_memory_inputPc
FN:182,_Z30register_implicit_memory_inputPcP15implicit_memory
FNDA:0,_Z30register_implicit_memory_inputPcP15implicit_memory
FN:194,_Z48free_implicit_memory_index_and_finalize_memoriesv
FNDA:0,_Z48free_implicit_memory_index_and_finalize_memoriesv
FN:211,_Z39add_dummy_input_port_to_implicit_memoryP15implicit_memoryiPKc
FNDA:0,_Z39add_dummy_input_port_to_implicit_memoryP15implicit_memoryiPKc
FN:226,_Z40add_dummy_output_port_to_implicit_memoryP15implicit_memoryiPKc
FNDA:0,_Z40add_dummy_output_port_to_implicit_memoryP15implicit_memoryiPKc
FN:247,_Z24finalize_implicit_memoryP15implicit_memory
FNDA:0,_Z24finalize_implicit_memoryP15implicit_memory
FN:344,_Z43collapse_implicit_memory_to_single_port_ramP15implicit_memory
FNDA:0,_Z43collapse_implicit_memory_to_single_port_ramP15implicit_memory
DA:50,0
DA:51,0
DA:52,0
DA:53,0
DA:58,0
DA:59,0
DA:61,0
DA:63,0
DA:65,0
DA:68,0
DA:74,0
DA:75,0
DA:76,0
DA:77,0
DA:78,0
DA:79,0
DA:80,0
DA:88,0
DA:89,0
DA:90,0
DA:92,0
DA:93,0
DA:96,0
DA:102,0
DA:103,0
DA:105,0
DA:111,0
DA:112,0
DA:113,0
DA:117,0
DA:118,0
DA:122,0
DA:123,0
DA:124,0
DA:127,0
DA:128,0
DA:129,0
DA:130,0
DA:132,0
DA:134,0
DA:135,0
DA:136,0
DA:137,0
DA:138,0
DA:139,0
DA:140,0
DA:141,0
DA:143,0
DA:145,0
DA:151,0
DA:152,0
DA:154,0
DA:155,0
DA:160,0
DA:161,0
DA:163,0
DA:164,0
DA:169,0
DA:170,0
DA:172,0
DA:175,0
DA:182,0
DA:183,0
DA:184,0
DA:186,0
DA:187,0
DA:194,0
DA:195,0
DA:197,0
DA:198,0
DA:199,0
DA:200,0
DA:201,0
DA:204,0
DA:205,0
DA:211,0
DA:212,0
DA:213,0
DA:214,0
DA:215,0
DA:217,0
DA:219,0
DA:220,0
DA:226,0
DA:227,0
DA:228,0
DA:229,0
DA:230,0
DA:231,0
DA:233,0
DA:234,0
DA:237,0
DA:239,0
DA:240,0
DA:247,0
DA:248,0
DA:250,0
DA:251,0
DA:252,0
DA:253,0
DA:254,0
DA:255,0
DA:256,0
DA:257,0
DA:258,0
DA:261,0
DA:262,0
DA:263,0
DA:264,0
DA:266,0
DA:268,0
DA:270,0
DA:272,0
DA:274,0
DA:276,0
DA:277,0
DA:281,0
DA:282,0
DA:283,0
DA:285,0
DA:286,0
DA:289,0
DA:290,0
DA:291,0
DA:294,0
DA:295,0
DA:297,0
DA:298,0
DA:299,0
DA:300,0
DA:301,0
DA:304,0
DA:305,0
DA:306,0
DA:307,0
DA:308,0
DA:311,0
DA:312,0
DA:314,0
DA:315,0
DA:324,0
DA:325,0
DA:326,0
DA:327,0
DA:328,0
DA:329,0
DA:330,0
DA:332,0
DA:335,0
DA:344,0
DA:345,0
DA:349,0
DA:350,0
DA:351,0
DA:352,0
DA:353,0
DA:358,0
DA:359,0
DA:360,0
DA:363,0
DA:364,0
DA:365,0
DA:366,0
end_of_record
SF:/usr/include/c++/9/bits/stl_function.h
DA:355,0
DA:356,0
end_of_record
SF:/usr/include/c++/9/bits/basic_string.tcc
FN:206,_ZNSt7__cxx1112basic_stringIcSt11char_traitsIcESaIcEE12_M_constructIPcEEvT_S7_St20forward_iterator_tag
FNDA:0,_ZNSt7__cxx1112basic_stringIcSt11char_traitsIcESaIcEE12_M_constructIPcEEvT_S7_St20forward_iterator_tag
FN:206,_ZNSt7__cxx1112basic_stringIcSt11char_traitsIcESaIcEE12_M_constructIPKcEEvT_S8_St20forward_iterator_tag
FNDA:0,_ZNSt7__cxx1112basic_stringIcSt11char_traitsIcESaIcEE12_M_constructIPKcEEvT_S8_St20forward_iterator_tag
DA:206,0
DA:211,0
DA:212,0
DA:215,0
DA:217,0
DA:219,0
DA:220,0
DA:225,0
DA:232,0
DA:233,0
DA:206,0
DA:211,0
DA:212,0
DA:215,0
DA:217,0
DA:219,0
DA:220,0
DA:225,0
DA:232,0
DA:233,0
end_of_record
SF:/usr/include/c++/9/bits/basic_string.h
FN:6149,_ZSteqIcEN9__gnu_cxx11__enable_ifIXsrSt9__is_charIT_E7__valueEbE6__typeERKNSt7__cxx1112basic_stringIS3_St11char_traitsIS3_ESaIS3_EEESE_
FNDA:0,_ZSteqIcEN9__gnu_cxx11__enable_ifIXsrSt9__is_charIT_E7__valueEbE6__typeERKNSt7__cxx1112basic_stringIS3_St11char_traitsIS3_ESaIS3_EEESE_
DA:150,0
DA:159,0
DA:160,0
DA:178,0
DA:179,0
DA:182,0
DA:183,0
DA:186,0
DA:190,0
DA:193,0
DA:200,0
DA:203,0
DA:210,0
DA:211,0
DA:214,0
DA:216,0
DA:217,0
DA:221,0
DA:222,0
DA:229,0
DA:231,0
DA:232,0
DA:236,0
DA:237,0
DA:243,0
DA:247,0
DA:263,0
DA:266,0
DA:286,0
DA:287,0
DA:290,0
DA:291,0
DA:346,0
DA:348,0
DA:349,0
DA:351,0
DA:392,0
DA:393,0
DA:396,0
DA:398,0
DA:448,0
DA:450,0
DA:451,0
DA:552,0
DA:553,0
DA:555,0
DA:557,0
DA:562,0
DA:563,0
DA:569,0
DA:570,0
DA:571,0
DA:657,0
DA:658,0
DA:930,0
DA:936,0
DA:2312,0
DA:2313,0
DA:6149,0
DA:6151,0
DA:6152,0
DA:6153,0
DA:6734,0
DA:6735,0
end_of_record
TN:
SF:/usr/include/c++/9/iostream
end_of_record
SF:/usr/include/x86_64-linux-gnu/bits/stdio2.h
DA:105,0
DA:107,0
end_of_record
SF:/workspace/vtr-verilog-to-routing/ODIN_II/SRC/memories.cpp
FN:63,_Z16get_sp_ram_depthP7nnode_t
FNDA:0,_Z16get_sp_ram_depthP7nnode_t
FN:70,_Z16get_dp_ram_depthP7nnode_t
FNDA:0,_Z16get_dp_ram_depthP7nnode_t
FN:78,_Z16get_sp_ram_widthP7nnode_t
FNDA:0,_Z16get_sp_ram_widthP7nnode_t
FN:85,_Z16get_dp_ram_widthP7nnode_t
FNDA:0,_Z16get_dp_ram_widthP7nnode_t
FN:93,_Z20get_memory_port_sizePKc
FNDA:0,_Z20get_memory_port_sizePKc
FN:105,_Z25copy_input_port_to_memoryP7nnode_tP13signal_list_tPKc
FNDA:0,_Z25copy_input_port_to_memoryP7nnode_tP13signal_list_tPKc
FN:111,_Z26copy_output_port_to_memoryP7nnode_tP13signal_list_tPKc
FNDA:0,_Z26copy_output_port_to_memoryP7nnode_tP13signal_list_tPKc
FN:120,_Z26remap_input_port_to_memoryP7nnode_tP13signal_list_tPKc
FNDA:0,_Z26remap_input_port_to_memoryP7nnode_tP13signal_list_tPKc
FN:152,_Z24add_input_port_to_memoryP7nnode_tP13signal_list_tPKc
FNDA:0,_Z24add_input_port_to_memoryP7nnode_tP13signal_list_tPKc
FN:188,_Z27remap_output_port_to_memoryP7nnode_tP13signal_list_tPc
FNDA:0,_Z27remap_output_port_to_memoryP7nnode_tP13signal_list_tPc
FN:220,_Z25add_output_port_to_memoryP7nnode_tP13signal_list_tPKc
FNDA:0,_Z25add_output_port_to_memoryP7nnode_tP13signal_list_tPKc
FN:253,_Z38check_memories_and_report_distributionv
FNDA:0,_Z38check_memories_and_report_distributionv
FN:332,_Z21split_sp_memory_depthP7nnode_ti
FNDA:0,_Z21split_sp_memory_depthP7nnode_ti
FN:457,_Z21split_dp_memory_depthP7nnode_ti
FNDA:0,_Z21split_dp_memory_depthP7nnode_ti
FN:643,_Z21split_sp_memory_widthP7nnode_ti
FNDA:0,_Z21split_sp_memory_widthP7nnode_ti
FN:735,_Z21split_dp_memory_widthP7nnode_ti
FNDA:0,_Z21split_dp_memory_widthP7nnode_ti
FN:889,_Z22get_sp_ram_split_depthv
FNDA:0,_Z22get_sp_ram_split_depthv
FN:910,_Z22get_dp_ram_split_depthv
FNDA:0,_Z22get_dp_ram_split_depthv
FN:931,_Z22get_sp_ram_split_widthv
FNDA:0,_Z22get_sp_ram_split_widthv
FN:946,_Z22get_dp_ram_split_widthv
FNDA:0,_Z22get_dp_ram_split_widthv
FN:961,_Z36filter_memories_by_soft_logic_cutoffv
FNDA:0,_Z36filter_memories_by_soft_logic_cutoffv
FN:1005,_Z16iterate_memoriesP9netlist_t
FNDA:0,_Z16iterate_memoriesP9netlist_t
FN:1102,_Z17free_memory_listsv
FNDA:0,_Z17free_memory_listsv
FN:1112,_Z19pad_dp_memory_widthP7nnode_tP9netlist_t
FNDA:0,_Z19pad_dp_memory_widthP7nnode_tP9netlist_t
FN:1128,_Z19pad_sp_memory_widthP7nnode_tP9netlist_t
FNDA:0,_Z19pad_sp_memory_widthP7nnode_tP9netlist_t
FN:1142,_Z22pad_memory_output_portP7nnode_tP9netlist_tP7t_modelPKc
FNDA:0,_Z22pad_memory_output_portP7nnode_tP9netlist_tP7t_modelPKc
FN:1180,_Z21pad_memory_input_portP7nnode_tP9netlist_tP7t_modelPKc
FNDA:0,_Z21pad_memory_input_portP7nnode_tP9netlist_tP7t_modelPKc
FN:1220,_Z9is_sp_ramP7nnode_t
FNDA:0,_Z9is_sp_ramP7nnode_t
FN:1226,_Z9is_dp_ramP7nnode_t
FNDA:0,_Z9is_dp_ramP7nnode_t
FN:1232,_Z13is_ast_sp_ramP10ast_node_t
FNDA:0,_Z13is_ast_sp_ramP10ast_node_t
FN:1254,_Z13is_ast_dp_ramP10ast_node_t
FNDA:0,_Z13is_ast_dp_ramP10ast_node_t
FN:1276,_Z18get_sp_ram_signalsP7nnode_t
FNDA:0,_Z18get_sp_ram_signalsP7nnode_t
FN:1327,_Z19free_sp_ram_signalsP14sp_ram_signals
FNDA:0,_Z19free_sp_ram_signalsP14sp_ram_signals
FN:1335,_Z18get_dp_ram_signalsP7nnode_t
FNDA:0,_Z18get_dp_ram_signalsP7nnode_t
FN:1403,_Z19free_dp_ram_signalsP14dp_ram_signals
FNDA:0,_Z19free_dp_ram_signalsP14dp_ram_signals
FN:1417,_Z32instantiate_soft_single_port_ramP7nnode_tsP9netlist_t
FNDA:0,_Z32instantiate_soft_single_port_ramP7nnode_tsP9netlist_t
FN:1521,_Z30instantiate_soft_dual_port_ramP7nnode_tsP9netlist_t
FNDA:0,_Z30instantiate_soft_dual_port_ramP7nnode_tsP9netlist_t
FN:1690,_Z14create_decoderP7nnode_tsP13signal_list_t
FNDA:0,_Z14create_decoderP7nnode_tsP13signal_list_t
DA:63,0
DA:64,0
DA:65,0
DA:66,0
DA:67,0
DA:70,0
DA:71,0
DA:72,0
DA:73,0
DA:74,0
DA:75,0
DA:78,0
DA:79,0
DA:80,0
DA:81,0
DA:82,0
DA:85,0
DA:86,0
DA:87,0
DA:88,0
DA:89,0
DA:90,0
DA:93,0
DA:94,0
DA:96,0
DA:97,0
DA:98,0
DA:99,0
DA:100,0
DA:105,0
DA:106,0
DA:107,0
DA:108,0
DA:109,0
DA:111,0
DA:112,0
DA:113,0
DA:114,0
DA:115,0
DA:120,0
DA:121,0
DA:122,0
DA:125,0
DA:126,0
DA:127,0
DA:128,0
DA:134,0
DA:135,0
DA:138,0
DA:139,0
DA:140,0
DA:141,0
DA:143,0
DA:145,0
DA:152,0
DA:153,0
DA:154,0
DA:157,0
DA:158,0
DA:159,0
DA:160,0
DA:166,0
DA:167,0
DA:170,0
DA:171,0
DA:174,0
DA:175,0
DA:177,0
DA:181,0
DA:183,0
DA:188,0
DA:189,0
DA:190,0
DA:193,0
DA:194,0
DA:195,0
DA:196,0
DA:202,0
DA:203,0
DA:206,0
DA:207,0
DA:208,0
DA:209,0
DA:211,0
DA:213,0
DA:220,0
DA:221,0
DA:222,0
DA:225,0
DA:226,0
DA:227,0
DA:228,0
DA:234,0
DA:235,0
DA:238,0
DA:239,0
DA:240,0
DA:241,0
DA:243,0
DA:244,0
DA:246,0
DA:253,0
DA:254,0
DA:257,0
DA:258,0
DA:260,0
DA:261,0
DA:262,0
DA:263,0
DA:265,0
DA:266,0
DA:267,0
DA:269,0
DA:270,0
DA:272,0
DA:273,0
DA:275,0
DA:277,0
DA:279,0
DA:281,0
DA:284,0
DA:288,0
DA:291,0
DA:292,0
DA:293,0
DA:295,0
DA:296,0
DA:297,0
DA:298,0
DA:300,0
DA:301,0
DA:303,0
DA:304,0
DA:307,0
DA:311,0
DA:314,0
DA:315,0
DA:316,0
DA:317,0
DA:318,0
DA:332,0
DA:333,0
DA:335,0
DA:338,0
DA:339,0
DA:340,0
DA:341,0
DA:344,0
DA:345,0
DA:346,0
DA:347,0
DA:350,0
DA:351,0
DA:354,0
DA:355,0
DA:358,0
DA:359,0
DA:360,0
DA:361,0
DA:362,0
DA:363,0
DA:366,0
DA:367,0
DA:368,0
DA:369,0
DA:372,0
DA:373,0
DA:376,0
DA:377,0
DA:378,0
DA:379,0
DA:380,0
DA:382,0
DA:383,0
DA:384,0
DA:386,0
DA:387,0
DA:388,0
DA:390,0
DA:392,0
DA:393,0
DA:394,0
DA:398,0
DA:399,0
DA:400,0
DA:403,0
DA:404,0
DA:406,0
DA:407,0
DA:410,0
DA:411,0
DA:412,0
DA:413,0
DA:414,0
DA:415,0
DA:417,0
DA:418,0
DA:419,0
DA:420,0
DA:422,0
DA:423,0
DA:424,0
DA:426,0
DA:428,0
DA:429,0
DA:430,0
DA:432,0
DA:434,0
DA:435,0
DA:436,0
DA:438,0
DA:441,0
DA:442,0
DA:444,0
DA:446,0
DA:447,0
DA:457,0
DA:458,0
DA:460,0
DA:463,0
DA:464,0
DA:465,0
DA:466,0
DA:469,0
DA:471,0
DA:472,0
DA:473,0
DA:475,0
DA:476,0
DA:477,0
DA:480,0
DA:481,0
DA:484,0
DA:485,0
DA:488,0
DA:489,0
DA:490,0
DA:491,0
DA:492,0
DA:493,0
DA:496,0
DA:497,0
DA:498,0
DA:499,0
DA:500,0
DA:501,0
DA:504,0
DA:505,0
DA:506,0
DA:507,0
DA:510,0
DA:511,0
DA:512,0
DA:513,0
DA:514,0
DA:516,0
DA:517,0
DA:518,0
DA:520,0
DA:521,0
DA:522,0
DA:524,0
DA:525,0
DA:526,0
DA:528,0
DA:529,0
DA:530,0
DA:531,0
DA:533,0
DA:534,0
DA:535,0
DA:537,0
DA:538,0
DA:539,0
DA:541,0
DA:543,0
DA:544,0
DA:545,0
DA:549,0
DA:550,0
DA:551,0
DA:554,0
DA:555,0
DA:556,0
DA:558,0
DA:559,0
DA:560,0
DA:563,0
DA:564,0
DA:565,0
DA:566,0
DA:567,0
DA:568,0
DA:570,0
DA:571,0
DA:572,0
DA:574,0
DA:575,0
DA:576,0
DA:578,0
DA:580,0
DA:582,0
DA:583,0
DA:584,0
DA:586,0
DA:588,0
DA:589,0
DA:590,0
DA:592,0
DA:596,0
DA:597,0
DA:598,0
DA:599,0
DA:600,0
DA:601,0
DA:603,0
DA:605,0
DA:606,0
DA:607,0
DA:609,0
DA:610,0
DA:611,0
DA:613,0
DA:615,0
DA:617,0
DA:618,0
DA:619,0
DA:621,0
DA:623,0
DA:624,0
DA:625,0
DA:627,0
DA:630,0
DA:631,0
DA:632,0
DA:633,0
DA:635,0
DA:636,0
DA:643,0
DA:644,0
DA:645,0
DA:647,0
DA:649,0
DA:651,0
DA:653,0
DA:655,0
DA:660,0
DA:661,0
DA:662,0
DA:663,0
DA:666,0
DA:667,0
DA:668,0
DA:669,0
DA:671,0
DA:672,0
DA:673,0
DA:675,0
DA:679,0
DA:681,0
DA:683,0
DA:684,0
DA:685,0
DA:686,0
DA:687,0
DA:688,0
DA:689,0
DA:690,0
DA:691,0
DA:693,0
DA:695,0
DA:698,0
DA:699,0
DA:700,0
DA:702,0
DA:703,0
DA:705,0
DA:706,0
DA:707,0
DA:717,0
DA:718,0
DA:719,0
DA:720,0
DA:721,0
DA:722,0
DA:723,0
DA:727,0
DA:729,0
DA:735,0
DA:736,0
DA:737,0
DA:738,0
DA:739,0
DA:741,0
DA:742,0
DA:744,0
DA:745,0
DA:747,0
DA:748,0
DA:749,0
DA:750,0
DA:752,0
DA:753,0
DA:755,0
DA:756,0
DA:758,0
DA:759,0
DA:760,0
DA:762,0
DA:764,0
DA:766,0
DA:773,0
DA:774,0
DA:775,0
DA:776,0
DA:779,0
DA:780,0
DA:781,0
DA:782,0
DA:784,0
DA:785,0
DA:786,0
DA:790,0
DA:792,0
DA:794,0
DA:795,0
DA:796,0
DA:797,0
DA:798,0
DA:799,0
DA:800,0
DA:801,0
DA:802,0
DA:804,0
DA:806,0
DA:807,0
DA:809,0
DA:810,0
DA:811,0
DA:812,0
DA:813,0
DA:814,0
DA:815,0
DA:816,0
DA:817,0
DA:819,0
DA:821,0
DA:824,0
DA:825,0
DA:826,0
DA:828,0
DA:829,0
DA:831,0
DA:832,0
DA:833,0
DA:838,0
DA:839,0
DA:843,0
DA:845,0
DA:847,0
DA:848,0
DA:849,0
DA:850,0
DA:851,0
DA:852,0
DA:853,0
DA:854,0
DA:855,0
DA:857,0
DA:859,0
DA:860,0
DA:862,0
DA:863,0
DA:864,0
DA:865,0
DA:866,0
DA:867,0
DA:868,0
DA:869,0
DA:870,0
DA:872,0
DA:874,0
DA:876,0
DA:881,0
DA:883,0
DA:889,0
DA:890,0
DA:891,0
DA:892,0
DA:893,0
DA:894,0
DA:895,0
DA:896,0
DA:897,0
DA:899,0
DA:901,0
DA:903,0
DA:910,0
DA:911,0
DA:912,0
DA:913,0
DA:914,0
DA:915,0
DA:916,0
DA:917,0
DA:918,0
DA:920,0
DA:922,0
DA:924,0
DA:931,0
DA:932,0
DA:935,0
DA:936,0
DA:937,0
DA:938,0
DA:946,0
DA:947,0
DA:950,0
DA:951,0
DA:952,0
DA:953,0
DA:961,0
DA:962,0
DA:963,0
DA:964,0
DA:965,0
DA:966,0
DA:967,0
DA:968,0
DA:969,0
DA:971,0
DA:972,0
DA:973,0
DA:974,0
DA:978,0
DA:979,0
DA:980,0
DA:981,0
DA:982,0
DA:983,0
DA:984,0
DA:985,0
DA:987,0
DA:988,0
DA:989,0
DA:990,0
DA:993,0
DA:1005,0
DA:1007,0
DA:1010,0
DA:1012,0
DA:1014,0
DA:1015,0
DA:1016,0
DA:1017,0
DA:1018,0
DA:1019,0
DA:1020,0
DA:1021,0
DA:1022,0
DA:1026,0
DA:1027,0
DA:1028,0
DA:1029,0
DA:1030,0
DA:1031,0
DA:1032,0
DA:1033,0
DA:1034,0
DA:1038,0
DA:1041,0
DA:1042,0
DA:1043,0
DA:1044,0
DA:1045,0
DA:1046,0
DA:1047,0
DA:1048,0
DA:1049,0
DA:1053,0
DA:1055,0
DA:1056,0
DA:1057,0
DA:1058,0
DA:1059,0
DA:1060,0
DA:1061,0
DA:1062,0
DA:1063,0
DA:1067,0
DA:1068,0
DA:1069,0
DA:1070,0
DA:1071,0
DA:1072,0
DA:1073,0
DA:1074,0
DA:1075,0
DA:1079,0
DA:1082,0
DA:1083,0
DA:1084,0
DA:1085,0
DA:1086,0
DA:1087,0
DA:1088,0
DA:1089,0
DA:1090,0
DA:1091,0
DA:1094,0
DA:1102,0
DA:1103,0
DA:1104,0
DA:1105,0
DA:1106,0
DA:1107,0
DA:1112,0
DA:1113,0
DA:1114,0
DA:1116,0
DA:1117,0
DA:1119,0
DA:1120,0
DA:1122,0
DA:1123,0
DA:1128,0
DA:1129,0
DA:1130,0
DA:1132,0
DA:1134,0
DA:1136,0
DA:1137,0
DA:1142,0
DA:1143,0
DA:1145,0
DA:1146,0
DA:1148,0
DA:1150,0
DA:1152,0
DA:1154,0
DA:1155,0
DA:1157,0
DA:1158,0
DA:1161,0
DA:1162,0
DA:1163,0
DA:1165,0
DA:1167,0
DA:1169,0
DA:1170,0
DA:1171,0
DA:1173,0
DA:1175,0
DA:1180,0
DA:1181,0
DA:1182,0
DA:1184,0
DA:1185,0
DA:1187,0
DA:1188,0
DA:1190,0
DA:1192,0
DA:1194,0
DA:1196,0
DA:1197,0
DA:1200,0
DA:1201,0
DA:1204,0
DA:1205,0
DA:1206,0
DA:1208,0
DA:1209,0
DA:1210,0
DA:1211,0
DA:1213,0
DA:1216,0
DA:1218,0
DA:1220,0
DA:1221,0
DA:1222,0
DA:1223,0
DA:1226,0
DA:1227,0
DA:1228,0
DA:1229,0
DA:1232,0
DA:1233,0
DA:1234,0
DA:1235,0
DA:1236,0
DA:1238,0
DA:1239,0
DA:1241,0
DA:1242,0
DA:1244,0
DA:1251,0
DA:1254,0
DA:1255,0
DA:1256,0
DA:1257,0
DA:1258,0
DA:1260,0
DA:1261,0
DA:1263,0
DA:1264,0
DA:1266,0
DA:1273,0
DA:1276,0
DA:1277,0
DA:1279,0
DA:1280,0
DA:1283,0
DA:1284,0
DA:1285,0
DA:1286,0
DA:1287,0
DA:1289,0
DA:1290,0
DA:1291,0
DA:1292,0
DA:1293,0
DA:1294,0
DA:1295,0
DA:1296,0
DA:1297,0
DA:1298,0
DA:1299,0
DA:1301,0
DA:1306,0
DA:1307,0
DA:1308,0
DA:1309,0
DA:1310,0
DA:1312,0
DA:1313,0
DA:1314,0
DA:1315,0
DA:1317,0
DA:1322,0
DA:1324,0
DA:1327,0
DA:1328,0
DA:1329,0
DA:1330,0
DA:1332,0
DA:1333,0
DA:1335,0
DA:1336,0
DA:1338,0
DA:1339,0
DA:1342,0
DA:1343,0
DA:1344,0
DA:1345,0
DA:1346,0
DA:1347,0
DA:1348,0
DA:1349,0
DA:1350,0
DA:1352,0
DA:1353,0
DA:1354,0
DA:1355,0
DA:1356,0
DA:1357,0
DA:1358,0
DA:1359,0
DA:1360,0
DA:1361,0
DA:1362,0
DA:1363,0
DA:1364,0
DA:1365,0
DA:1366,0
DA:1367,0
DA:1368,0
DA:1370,0
DA:1376,0
DA:1377,0
DA:1378,0
DA:1379,0
DA:1380,0
DA:1381,0
DA:1382,0
DA:1385,0
DA:1386,0
DA:1387,0
DA:1388,0
DA:1389,0
DA:1390,0
DA:1392,0
DA:1397,0
DA:1398,0
DA:1400,0
DA:1403,0
DA:1404,0
DA:1405,0
DA:1406,0
DA:1407,0
DA:1408,0
DA:1409,0
DA:1411,0
DA:1412,0
DA:1417,0
DA:1418,0
DA:1420,0
DA:1423,0
DA:1426,0
DA:1428,0
DA:1430,0
DA:1431,0
DA:1433,0
DA:1440,0
DA:1441,0
DA:1443,0
DA:1444,0
DA:1446,0
DA:1448,0
DA:1451,0
DA:1452,0
DA:1455,0
DA:1457,0
DA:1458,0
DA:1459,0
DA:1461,0
DA:1468,0
DA:1469,0
DA:1470,0
DA:1471,0
DA:1472,0
DA:1473,0
DA:1474,0
DA:1476,0
DA:1479,0
DA:1480,0
DA:1481,0
DA:1482,0
DA:1484,0
DA:1487,0
DA:1490,0
DA:1493,0
DA:1494,0
DA:1497,0
DA:1500,0
DA:1501,0
DA:1502,0
DA:1504,0
DA:1505,0
DA:1508,0
DA:1511,0
DA:1512,0
DA:1515,0
DA:1516,0
DA:1521,0
DA:1522,0
DA:1524,0
DA:1527,0
DA:1528,0
DA:1530,0
DA:1533,0
DA:1534,0
DA:1537,0
DA:1538,0
DA:1539,0
DA:1541,0
DA:1542,0
DA:1543,0
DA:1544,0
DA:1546,0
DA:1551,0
DA:1558,0
DA:1559,0
DA:1561,0
DA:1562,0
DA:1564,0
DA:1567,0
DA:1568,0
DA:1570,0
DA:1571,0
DA:1573,0
DA:1575,0
DA:1576,0
DA:1579,0
DA:1580,0
DA:1581,0
DA:1583,0
DA:1586,0
DA:1587,0
DA:1588,0
DA:1591,0
DA:1592,0
DA:1594,0
DA:1595,0
DA:1596,0
DA:1597,0
DA:1599,0
DA:1604,0
DA:1611,0
DA:1613,0
DA:1614,0
DA:1615,0
DA:1616,0
DA:1618,0
DA:1619,0
DA:1620,0
DA:1622,0
DA:1624,0
DA:1625,0
DA:1628,0
DA:1629,0
DA:1630,0
DA:1631,0
DA:1634,0
DA:1635,0
DA:1636,0
DA:1637,0
DA:1639,0
DA:1642,0
DA:1645,0
DA:1646,0
DA:1649,0
DA:1650,0
DA:1651,0
DA:1654,0
DA:1655,0
DA:1658,0
DA:1659,0
DA:1660,0
DA:1662,0
DA:1663,0
DA:1664,0
DA:1666,0
DA:1667,0
DA:1670,0
DA:1671,0
DA:1674,0
DA:1675,0
DA:1676,0
DA:1679,0
DA:1680,0
DA:1681,0
DA:1684,0
DA:1685,0
DA:1690,0
DA:1691,0
DA:1692,0
DA:1693,0
DA:1696,0
DA:1699,0
DA:1700,0
DA:1701,0
DA:1702,0
DA:1703,0
DA:1704,0
DA:1705,0
DA:1706,0
DA:1709,0
DA:1710,0
DA:1711,0
DA:1712,0
DA:1713,0
DA:1714,0
DA:1715,0
DA:1716,0
DA:1717,0
DA:1719,0
DA:1720,0
DA:1722,0
DA:1724,0
DA:1728,0
DA:1729,0
DA:1731,0
DA:1733,0
DA:1735,0
DA:1736,0
DA:1737,0
DA:1739,0
DA:1742,0
DA:1743,0
DA:1746,0
DA:1750,0
DA:1751,0
DA:1752,0
DA:1753,0
DA:1754,0
DA:1755,0
DA:1758,0
DA:1761,0
DA:1762,0
end_of_record
TN:
SF:/usr/include/c++/9/bits/ptr_traits.h
DA:146,0
DA:147,0
end_of_record
SF:/usr/include/c++/9/bits/stl_iterator_base_funcs.h
DA:98,0
DA:104,0
DA:138,0
DA:141,0
end_of_record
SF:/usr/include/c++/9/bits/vector.tcc
FN:198,_ZNSt6vectorISt4pairIP7nnode_tiESaIS3_EEaSERKS5_
FNDA:0,_ZNSt6vectorISt4pairIP7nnode_tiESaIS3_EEaSERKS5_
FN:611,_ZNSt6vectorISt4pairIP7nnode_tiESaIS3_EE17_M_default_appendEm
FNDA:0,_ZNSt6vectorISt4pairIP7nnode_tiESaIS3_EE17_M_default_appendEm
FN:611,_ZNSt6vectorImSaImEE17_M_default_appendEm
FNDA:0,_ZNSt6vectorImSaImEE17_M_default_appendEm
FN:611,_ZNSt6vectorIP7nnode_tSaIS1_EE17_M_default_appendEm
FNDA:0,_ZNSt6vectorIP7nnode_tSaIS1_EE17_M_default_appendEm
FN:611,_ZNSt6vectorI12AdderTreeRowSaIS0_EE17_M_default_appendEm
FNDA:0,_ZNSt6vectorI12AdderTreeRowSaIS0_EE17_M_default_appendEm
DA:198,0
DA:201,0
DA:223,0
DA:224,0
DA:226,0
DA:228,0
DA:229,0
DA:230,0
DA:231,0
DA:232,0
DA:233,0
DA:234,0
DA:236,0
DA:238,0
DA:239,0
DA:243,0
DA:245,0
DA:248,0
DA:250,0
DA:252,0
DA:611,0
DA:614,0
DA:616,0
DA:617,0
DA:618,0
DA:620,0
DA:621,0
DA:623,0
DA:626,0
DA:627,0
DA:628,0
DA:633,0
DA:635,0
DA:640,0
DA:641,0
DA:648,0
DA:649,0
DA:675,0
DA:676,0
DA:677,0
DA:678,0
DA:679,0
DA:680,0
DA:683,0
DA:611,0
DA:614,0
DA:616,0
DA:617,0
DA:618,0
DA:620,0
DA:621,0
DA:623,0
DA:626,0
DA:627,0
DA:628,0
DA:633,0
DA:635,0
DA:640,0
DA:641,0
DA:648,0
DA:649,0
DA:675,0
DA:676,0
DA:677,0
DA:678,0
DA:679,0
DA:680,0
DA:683,0
DA:611,0
DA:614,0
DA:616,0
DA:617,0
DA:618,0
DA:620,0
DA:621,0
DA:623,0
DA:626,0
DA:627,0
DA:628,0
DA:633,0
DA:635,0
DA:640,0
DA:641,0
DA:648,0
DA:649,0
DA:675,0
DA:676,0
DA:677,0
DA:678,0
DA:679,0
DA:680,0
DA:683,0
DA:611,0
DA:614,0
DA:616,0
DA:617,0
DA:618,0
DA:620,0
DA:621,0
DA:623,0
DA:626,0
DA:627,0
DA:628,0
DA:633,0
DA:635,0
DA:640,0
DA:641,0
DA:648,0
DA:649,0
DA:675,0
DA:676,0
DA:677,0
DA:678,0
DA:679,0
DA:680,0
DA:683,0
end_of_record
SF:/usr/include/c++/9/bits/stl_algobase.h
DA:198,0
DA:222,0
DA:227,0
DA:228,0
DA:280,0
DA:290,0
DA:295,0
DA:337,0
DA:340,0
DA:342,0
DA:343,0
DA:344,0
DA:393,0
DA:398,0
DA:404,0
DA:438,0
DA:440,0
DA:465,0
DA:474,0
DA:769,0
DA:770,0
DA:771,0
DA:772,0
DA:808,0
end_of_record
SF:/usr/include/c++/9/bits/alloc_traits.h
DA:469,0
DA:470,0
DA:482,0
DA:484,0
DA:495,0
DA:497,0
DA:505,0
DA:506,0
DA:514,0
DA:515,0
DA:545,0
DA:546,0
DA:553,0
DA:557,0
end_of_record
SF:/usr/include/c++/9/ext/type_traits.h
DA:152,0
end_of_record
SF:/usr/include/c++/9/bits/stl_construct.h
DA:74,0
DA:75,0
DA:97,0
DA:98,0
DA:107,0
DA:108,0
DA:117,0
DA:127,0
DA:137,0
DA:203,0
DA:206,0
end_of_record
SF:/usr/include/c++/9/bits/stl_iterator.h
DA:806,0
DA:807,0
DA:819,0
DA:827,0
DA:829,0
DA:860,0
DA:867,0
DA:868,0
DA:871,0
DA:907,0
DA:910,0
DA:1012,0
end_of_record
SF:/usr/include/c++/9/bits/move.h
DA:47,0
DA:74,0
DA:99,0
DA:138,0
DA:139,0
end_of_record
SF:/usr/include/c++/9/bits/stl_vector.h
FN:507,_ZNSt6vectorIS_I12AdderTreeRowSaIS0_EESaIS2_EEC2EmRKS3_
FNDA:0,_ZNSt6vectorIS_I12AdderTreeRowSaIS0_EESaIS2_EEC2EmRKS3_
FN:507,_ZNSt6vectorIS_IP7nnode_tSaIS1_EESaIS3_EEC2EmRKS4_
FNDA:0,_ZNSt6vectorIS_IP7nnode_tSaIS1_EESaIS3_EEC2EmRKS4_
FN:507,_ZNSt6vectorIS_ImSaImEESaIS1_EEC2EmRKS2_
FNDA:0,_ZNSt6vectorIS_ImSaImEESaIS1_EEC2EmRKS2_
FN:507,_ZNSt6vectorISt4pairIP7nnode_tiESaIS3_EEC2EmRKS4_
FNDA:0,_ZNSt6vectorISt4pairIP7nnode_tiESaIS3_EEC2EmRKS4_
FN:550,_ZNSt6vectorISt4pairIP7nnode_tiESaIS3_EEC2ERKS5_
FNDA:0,_ZNSt6vectorISt4pairIP7nnode_tiESaIS3_EEC2ERKS5_
FN:675,_ZNSt6vectorIS_I12AdderTreeRowSaIS0_EESaIS2_EED2Ev
FNDA:0,_ZNSt6vectorIS_I12AdderTreeRowSaIS0_EESaIS2_EED2Ev
FN:675,_ZNSt6vectorIS_IP7nnode_tSaIS1_EESaIS3_EED2Ev
FNDA:0,_ZNSt6vectorIS_IP7nnode_tSaIS1_EESaIS3_EED2Ev
FN:675,_ZNSt6vectorIS_ImSaImEESaIS1_EED2Ev
FNDA:0,_ZNSt6vectorIS_ImSaImEESaIS1_EED2Ev
FN:675,_ZNSt6vectorI12AdderTreeRowSaIS0_EED2Ev
FNDA:0,_ZNSt6vectorI12AdderTreeRowSaIS0_EED2Ev
FN:934,_ZNSt6vectorIP7nnode_tSaIS1_EE6resizeEm
FNDA:0,_ZNSt6vectorIP7nnode_tSaIS1_EE6resizeEm
FN:934,_ZNSt6vectorI12AdderTreeRowSaIS0_EE6resizeEm
FNDA:0,_ZNSt6vectorI12AdderTreeRowSaIS0_EE6resizeEm
FN:934,_ZNSt6vectorImSaImEE6resizeEm
FNDA:0,_ZNSt6vectorImSaImEE6resizeEm
FN:934,_ZNSt6vectorISt4pairIP7nnode_tiESaIS3_EE6resizeEm
FNDA:0,_ZNSt6vectorISt4pairIP7nnode_tiESaIS3_EE6resizeEm
FN:1753,_ZNKSt6vectorI12AdderTreeRowSaIS0_EE12_M_check_lenEmPKc
FNDA:0,_ZNKSt6vectorI12AdderTreeRowSaIS0_EE12_M_check_lenEmPKc
FN:1753,_ZNKSt6vectorIP7nnode_tSaIS1_EE12_M_check_lenEmPKc
FNDA:0,_ZNKSt6vectorIP7nnode_tSaIS1_EE12_M_check_lenEmPKc
FN:1753,_ZNKSt6vectorImSaImEE12_M_check_lenEmPKc
FNDA:0,_ZNKSt6vectorImSaImEE12_M_check_lenEmPKc
FN:1753,_ZNKSt6vectorISt4pairIP7nnode_tiESaIS3_EE12_M_check_lenEmPKc
FNDA:0,_ZNKSt6vectorISt4pairIP7nnode_tiESaIS3_EE12_M_check_lenEmPKc
DA:94,0
DA:95,0
DA:99,0
DA:100,0
DA:101,0
DA:106,0
DA:108,0
DA:109,0
DA:110,0
DA:114,0
DA:118,0
DA:119,0
DA:120,0
DA:121,0
DA:125,0
DA:128,0
DA:130,0
DA:133,0
DA:134,0
DA:140,0
DA:141,0
DA:273,0
DA:274,0
DA:277,0
DA:278,0
DA:281,0
DA:282,0
DA:285,0
DA:290,0
DA:291,0
DA:300,0
DA:301,0
DA:302,0
DA:305,0
DA:330,0
DA:332,0
DA:333,0
DA:334,0
DA:347,0
DA:350,0
DA:351,0
DA:356,0
DA:358,0
DA:359,0
DA:360,0
DA:450,0
DA:453,0
DA:462,0
DA:466,0
DA:484,0
DA:494,0
DA:495,0
DA:507,0
DA:508,0
DA:509,0
DA:507,0
DA:508,0
DA:509,0
DA:507,0
DA:508,0
DA:509,0
DA:507,0
DA:508,0
DA:509,0
DA:550,0
DA:552,0
DA:554,0
DA:555,0
DA:557,0
DA:558,0
DA:569,0
DA:675,0
DA:677,0
DA:678,0
DA:680,0
DA:675,0
DA:677,0
DA:678,0
DA:680,0
DA:675,0
DA:677,0
DA:678,0
DA:680,0
DA:675,0
DA:677,0
DA:678,0
DA:680,0
DA:675,0
DA:677,0
DA:678,0
DA:680,0
DA:706,0
DA:708,0
DA:711,0
DA:809,0
DA:817,0
DA:818,0
DA:826,0
DA:827,0
DA:835,0
DA:836,0
DA:915,0
DA:916,0
DA:920,0
DA:921,0
DA:934,0
DA:936,0
DA:937,0
DA:938,0
DA:939,0
DA:940,0
DA:934,0
DA:936,0
DA:937,0
DA:938,0
DA:939,0
DA:940,0
DA:934,0
DA:936,0
DA:937,0
DA:938,0
DA:939,0
DA:940,0
DA:934,0
DA:936,0
DA:937,0
DA:938,0
DA:939,0
DA:940,0
DA:995,0
DA:997,0
DA:1040,0
DA:1043,0
DA:1140,0
DA:1143,0
DA:1505,0
DA:1508,0
DA:1511,0
DA:1512,0
DA:1600,0
DA:1602,0
DA:1603,0
DA:1604,0
DA:1753,0
DA:1755,0
DA:1756,0
DA:1758,0
DA:1759,0
DA:1753,0
DA:1755,0
DA:1756,0
DA:1758,0
DA:1759,0
DA:1753,0
DA:1755,0
DA:1756,0
DA:1758,0
DA:1759,0
DA:1753,0
DA:1755,0
DA:1756,0
DA:1758,0
DA:1759,0
DA:1764,0
DA:1766,0
DA:1767,0
DA:1773,0
DA:1780,0
DA:1781,0
DA:1789,0
DA:1791,0
DA:1793,0
DA:1794,0
DA:1795,0
DA:1812,0
DA:1814,0
DA:1815,0
DA:1816,0
DA:1817,0
end_of_record
SF:/usr/include/c++/9/bits/stl_pair.h
DA:229,0
DA:230,0
DA:341,0
DA:342,0
DA:378,0
DA:383,0
DA:384,0
DA:389,0
DA:396,0
DA:397,0
end_of_record
SF:/usr/include/c++/9/new
DA:173,0
DA:174,0
end_of_record
SF:/usr/include/x86_64-linux-gnu/bits/string_fortified.h
DA:88,0
DA:90,0
DA:126,0
DA:128,0
end_of_record
SF:/usr/include/c++/9/bits/stl_uninitialized.h
DA:76,0
DA:79,0
DA:82,0
DA:83,0
DA:115,0
DA:134,0
DA:140,0
DA:305,0
DA:307,0
DA:544,0
DA:545,0
DA:566,0
DA:597,0
DA:601,0
DA:661,0
DA:663,0
DA:905,0
DA:912,0
DA:913,0
DA:924,0
DA:927,0
DA:928,0
DA:929,0
DA:949,0
DA:950,0
DA:958,0
DA:964,0
end_of_record
SF:/usr/include/c++/9/ext/string_conversions.h
FN:99,_ZN9__gnu_cxx12__to_xstringINSt7__cxx1112basic_stringIcSt11char_traitsIcESaIcEEEcEET_PFiPT0_mPKS8_P13__va_list_tagEmSB_z
FNDA:0,_ZN9__gnu_cxx12__to_xstringINSt7__cxx1112basic_stringIcSt11char_traitsIcESaIcEEEcEET_PFiPT0_mPKS8_P13__va_list_tagEmSB_z
DA:99,0
DA:105,0
DA:109,0
DA:111,0
DA:113,0
DA:115,0
end_of_record
SF:/usr/include/x86_64-linux-gnu/bits/stdio2.h
DA:98,0
DA:100,0
DA:105,0
DA:107,0
end_of_record
SF:/usr/include/c++/9/iostream
end_of_record
SF:/usr/include/c++/9/ext/new_allocator.h
DA:80,0
DA:83,0
DA:89,0
DA:119,0
DA:128,0
DA:132,0
DA:144,0
DA:147,0
DA:151,0
DA:153,0
end_of_record
SF:/workspace/vtr-verilog-to-routing/ODIN_II/SRC/multipliers.cpp
FN:91,_Z34instantiate_simple_soft_multiplierP7nnode_tsP9netlist_t
FNDA:0,_Z34instantiate_simple_soft_multiplierP7nnode_tsP9netlist_t
FN:240,_Z22init_mult_distributionv
FNDA:0,_Z22init_mult_distributionv
FN:249,_Z24record_mult_distributionP7nnode_t
FNDA:0,_Z24record_mult_distributionP7nnode_t
FN:265,_Z24report_mult_distributionv
FNDA:0,_Z24report_mult_distributionv
FN:289,_Z21find_hard_multipliersv
FNDA:0,_Z21find_hard_multipliersv
FN:307,_Z23declare_hard_multiplierP7nnode_t
FNDA:0,_Z23declare_hard_multiplierP7nnode_t
FN:345,_Z27instantiate_hard_multiplierP7nnode_tsP9netlist_t
FNDA:0,_Z27instantiate_hard_multiplierP7nnode_tsP9netlist_t
FN:389,_Z26add_the_blackbox_for_multsP8_IO_FILE
FNDA:0,_Z26add_the_blackbox_for_multsP8_IO_FILE
FN:463,_Z20define_mult_functionP7nnode_tP8_IO_FILE
FNDA:0,_Z20define_mult_functionP7nnode_tP8_IO_FILE
FN:543,_Z21init_split_multiplierP7nnode_tS0_iiiiS0_S0_
FNDA:0,_Z21init_split_multiplierP7nnode_tS0_iiiiS0_S0_
FN:593,_Z21init_multiplier_adderP7nnode_tS0_ii
FNDA:0,_Z21init_multiplier_adderP7nnode_tS0_ii
FN:655,_Z16split_multiplierP7nnode_tiiiiP9netlist_t
FNDA:0,_Z16split_multiplierP7nnode_tiiiiP9netlist_t
FN:771,_Z18split_multiplier_aP7nnode_tiii
FNDA:0,_Z18split_multiplier_aP7nnode_tiii
FN:844,_Z18split_multiplier_bP7nnode_tiii
FNDA:0,_Z18split_multiplier_bP7nnode_tiii
FN:910,_Z14pad_multiplierP7nnode_tP9netlist_t
FNDA:0,_Z14pad_multiplierP7nnode_tP9netlist_t
FN:1012,_Z19iterate_multipliersP9netlist_t
FNDA:0,_Z19iterate_multipliersP9netlist_t
FN:1114,_Z21split_soft_multiplierP7nnode_tP9netlist_t
FNDA:0,_Z21split_soft_multiplierP7nnode_tP9netlist_t
FN:1302,_Z17is_ast_multiplierP10ast_node_t
FNDA:0,_Z17is_ast_multiplierP10ast_node_t
FN:1330,_Z17clean_multipliersv
FNDA:0,_Z17clean_multipliersv
FN:1336,_Z16free_multipliersv
FNDA:0,_Z16free_multipliersv
DA:63,0
DA:91,0
DA:92,0
DA:93,0
DA:94,0
DA:95,0
DA:96,0
DA:97,0
DA:98,0
DA:99,0
DA:100,0
DA:101,0
DA:102,0
DA:107,0
DA:108,0
DA:109,0
DA:110,0
DA:111,0
DA:112,0
DA:113,0
DA:114,0
DA:115,0
DA:117,0
DA:118,0
DA:120,0
DA:123,0
DA:126,0
DA:128,0
DA:130,0
DA:131,0
DA:134,0
DA:136,0
DA:141,0
DA:142,0
DA:144,0
DA:146,0
DA:149,0
DA:153,0
DA:155,0
DA:158,0
DA:164,0
DA:166,0
DA:169,0
DA:171,0
DA:173,0
DA:176,0
DA:178,0
DA:180,0
DA:182,0
DA:185,0
DA:187,0
DA:189,0
DA:196,0
DA:197,0
DA:199,0
DA:200,0
DA:202,0
DA:203,0
DA:205,0
DA:208,0
DA:209,0
DA:214,0
DA:215,0
DA:219,0
DA:220,0
DA:221,0
DA:223,0
DA:226,0
DA:228,0
DA:229,0
DA:232,0
DA:233,0
DA:235,0
DA:240,0
DA:241,0
DA:242,0
DA:243,0
DA:244,0
DA:249,0
DA:250,0
DA:252,0
DA:253,0
DA:255,0
DA:256,0
DA:258,0
DA:259,0
DA:265,0
DA:266,0
DA:268,0
DA:271,0
DA:272,0
DA:273,0
DA:274,0
DA:275,0
DA:276,0
DA:277,0
DA:281,0
DA:282,0
DA:283,0
DA:289,0
DA:290,0
DA:291,0
DA:292,0
DA:293,0
DA:294,0
DA:295,0
DA:297,0
DA:307,0
DA:308,0
DA:309,0
DA:312,0
DA:313,0
DA:315,0
DA:316,0
DA:317,0
DA:318,0
DA:319,0
DA:321,0
DA:322,0
DA:323,0
DA:325,0
DA:326,0
DA:329,0
DA:333,0
DA:334,0
DA:335,0
DA:336,0
DA:337,0
DA:338,0
DA:339,0
DA:345,0
DA:346,0
DA:349,0
DA:351,0
DA:352,0
DA:353,0
DA:354,0
DA:355,0
DA:358,0
DA:360,0
DA:361,0
DA:362,0
DA:363,0
DA:364,0
DA:366,0
DA:367,0
DA:368,0
DA:371,0
DA:372,0
DA:373,0
DA:376,0
DA:377,0
DA:378,0
DA:380,0
DA:382,0
DA:383,0
DA:389,0
DA:390,0
DA:391,0
DA:392,0
DA:393,0
DA:394,0
DA:395,0
DA:396,0
DA:399,0
DA:400,0
DA:403,0
DA:404,0
DA:405,0
DA:406,0
DA:407,0
DA:410,0
DA:411,0
DA:415,0
DA:417,0
DA:418,0
DA:420,0
DA:423,0
DA:424,0
DA:425,0
DA:426,0
DA:427,0
DA:429,0
DA:432,0
DA:433,0
DA:435,0
DA:437,0
DA:440,0
DA:441,0
DA:442,0
DA:443,0
DA:444,0
DA:445,0
DA:447,0
DA:449,0
DA:450,0
DA:451,0
DA:452,0
DA:454,0
DA:457,0
DA:463,0
DA:464,0
DA:465,0
DA:466,0
DA:468,0
DA:469,0
DA:470,0
DA:471,0
DA:472,0
DA:474,0
DA:476,0
DA:477,0
DA:479,0
DA:480,0
DA:481,0
DA:483,0
DA:485,0
DA:486,0
DA:488,0
DA:492,0
DA:493,0
DA:494,0
DA:495,0
DA:496,0
DA:498,0
DA:499,0
DA:501,0
DA:503,0
DA:504,0
DA:505,0
DA:507,0
DA:508,0
DA:509,0
DA:511,0
DA:512,0
DA:514,0
DA:517,0
DA:518,0
DA:521,0
DA:524,0
DA:525,0
DA:526,0
DA:527,0
DA:530,0
DA:533,0
DA:534,0
DA:543,0
DA:544,0
DA:547,0
DA:548,0
DA:549,0
DA:550,0
DA:553,0
DA:554,0
DA:555,0
DA:556,0
DA:557,0
DA:558,0
DA:559,0
DA:562,0
DA:563,0
DA:564,0
DA:565,0
DA:566,0
DA:568,0
DA:571,0
DA:572,0
DA:573,0
DA:575,0
DA:579,0
DA:580,0
DA:581,0
DA:582,0
DA:584,0
DA:593,0
DA:594,0
DA:596,0
DA:597,0
DA:598,0
DA:599,0
DA:602,0
DA:603,0
DA:606,0
DA:607,0
DA:608,0
DA:609,0
DA:610,0
DA:611,0
DA:612,0
DA:615,0
DA:616,0
DA:617,0
DA:618,0
DA:621,0
DA:622,0
DA:623,0
DA:624,0
DA:626,0
DA:627,0
DA:655,0
DA:656,0
DA:657,0
DA:660,0
DA:661,0
DA:664,0
DA:665,0
DA:666,0
DA:667,0
DA:668,0
DA:669,0
DA:672,0
DA:673,0
DA:674,0
DA:675,0
DA:676,0
DA:677,0
DA:680,0
DA:681,0
DA:682,0
DA:683,0
DA:684,0
DA:685,0
DA:688,0
DA:689,0
DA:690,0
DA:691,0
DA:692,0
DA:693,0
DA:696,0
DA:697,0
DA:698,0
DA:699,0
DA:701,0
DA:704,0
DA:705,0
DA:706,0
DA:707,0
DA:708,0
DA:711,0
DA:712,0
DA:713,0
DA:715,0
DA:716,0
DA:717,0
DA:720,0
DA:721,0
DA:722,0
DA:725,0
DA:726,0
DA:727,0
DA:728,0
DA:729,0
DA:732,0
DA:733,0
DA:737,0
DA:738,0
DA:742,0
DA:743,0
DA:744,0
DA:747,0
DA:748,0
DA:749,0
DA:751,0
DA:771,0
DA:772,0
DA:773,0
DA:776,0
DA:777,0
DA:780,0
DA:781,0
DA:782,0
DA:783,0
DA:784,0
DA:785,0
DA:788,0
DA:789,0
DA:790,0
DA:791,0
DA:792,0
DA:793,0
DA:796,0
DA:797,0
DA:798,0
DA:799,0
DA:800,0
DA:803,0
DA:804,0
DA:805,0
DA:806,0
DA:809,0
DA:810,0
DA:812,0
DA:813,0
DA:816,0
DA:817,0
DA:818,0
DA:821,0
DA:822,0
DA:823,0
DA:824,0
DA:844,0
DA:845,0
DA:846,0
DA:849,0
DA:850,0
DA:853,0
DA:854,0
DA:855,0
DA:856,0
DA:857,0
DA:858,0
DA:861,0
DA:862,0
DA:863,0
DA:864,0
DA:865,0
DA:866,0
DA:869,0
DA:870,0
DA:871,0
DA:872,0
DA:873,0
DA:876,0
DA:877,0
DA:878,0
DA:879,0
DA:880,0
DA:881,0
DA:884,0
DA:885,0
DA:887,0
DA:888,0
DA:891,0
DA:892,0
DA:893,0
DA:896,0
DA:897,0
DA:898,0
DA:899,0
DA:910,0
DA:911,0
DA:912,0
DA:913,0
DA:915,0
DA:917,0
DA:919,0
DA:920,0
DA:922,0
DA:923,0
DA:924,0
DA:925,0
DA:928,0
DA:929,0
DA:930,0
DA:931,0
DA:932,0
DA:934,0
DA:935,0
DA:936,0
DA:938,0
DA:939,0
DA:940,0
DA:941,0
DA:942,0
DA:943,0
DA:944,0
DA:945,0
DA:946,0
DA:947,0
DA:948,0
DA:954,0
DA:955,0
DA:958,0
DA:959,0
DA:960,0
DA:964,0
DA:965,0
DA:966,0
DA:968,0
DA:971,0
DA:974,0
DA:976,0
DA:977,0
DA:978,0
DA:980,0
DA:983,0
DA:988,0
DA:989,0
DA:990,0
DA:992,0
DA:994,0
DA:995,0
DA:997,0
DA:1000,0
DA:1012,0
DA:1013,0
DA:1014,0
DA:1015,0
DA:1016,0
DA:1019,0
DA:1022,0
DA:1023,0
DA:1024,0
DA:1025,0
DA:1026,0
DA:1027,0
DA:1030,0
DA:1031,0
DA:1032,0
DA:1034,0
DA:1036,0
DA:1037,0
DA:1039,0
DA:1041,0
DA:1042,0
DA:1043,0
DA:1044,0
DA:1045,0
DA:1046,0
DA:1047,0
DA:1051,0
DA:1052,0
DA:1053,0
DA:1054,0
DA:1055,0
DA:1056,0
DA:1057,0
DA:1059,0
DA:1060,0
DA:1061,0
DA:1062,0
DA:1064,0
DA:1065,0
DA:1066,0
DA:1072,0
DA:1074,0
DA:1075,0
DA:1081,0
DA:1083,0
DA:1084,0
DA:1085,0
DA:1114,0
DA:1115,0
DA:1116,0
DA:1117,0
DA:1118,0
DA:1120,0
DA:1121,0
DA:1127,0
DA:1130,0
DA:1134,0
DA:1136,0
DA:1138,0
DA:1141,0
DA:1143,0
DA:1145,0
DA:1146,0
DA:1148,0
DA:1149,0
DA:1151,0
DA:1152,0
DA:1155,0
DA:1159,0
DA:1160,0
DA:1162,0
DA:1164,0
DA:1167,0
DA:1170,0
DA:1172,0
DA:1175,0
DA:1181,0
DA:1183,0
DA:1185,0
DA:1186,0
DA:1189,0
DA:1190,0
DA:1191,0
DA:1192,0
DA:1193,0
DA:1196,0
DA:1198,0
DA:1201,0
DA:1204,0
DA:1205,0
DA:1206,0
DA:1209,0
DA:1210,0
DA:1212,0
DA:1213,0
DA:1216,0
DA:1217,0
DA:1221,0
DA:1223,0
DA:1224,0
DA:1225,0
DA:1228,0
DA:1231,0
DA:1232,0
DA:1235,0
DA:1241,0
DA:1242,0
DA:1247,0
DA:1250,0
DA:1251,0
DA:1252,0
DA:1260,0
DA:1261,0
DA:1263,0
DA:1264,0
DA:1268,0
DA:1269,0
DA:1270,0
DA:1271,0
DA:1273,0
DA:1274,0
DA:1280,0
DA:1281,0
DA:1282,0
DA:1283,0
DA:1285,0
DA:1286,0
DA:1292,0
DA:1293,0
DA:1294,0
DA:1297,0
DA:1298,0
DA:1299,0
DA:1300,0
DA:1302,0
DA:1303,0
DA:1304,0
DA:1305,0
DA:1306,0
DA:1308,0
DA:1309,0
DA:1311,0
DA:1312,0
DA:1314,0
DA:1321,0
DA:1330,0
DA:1331,0
DA:1332,0
DA:1333,0
DA:1336,0
DA:1337,0
DA:1340,0
DA:1341,0
DA:1342,0
DA:1343,0
DA:1346,0
DA:1348,0
end_of_record
SF:/usr/include/c++/9/bits/basic_string.h
FN:6057,_ZStplIcSt11char_traitsIcESaIcEENSt7__cxx1112basic_stringIT_T0_T1_EERKS8_PKS5_
FNDA:0,_ZStplIcSt11char_traitsIcESaIcEENSt7__cxx1112basic_stringIT_T0_T1_EERKS8_PKS5_
FN:6097,_ZStplIcSt11char_traitsIcESaIcEENSt7__cxx1112basic_stringIT_T0_T1_EEOS8_S9_
FNDA:0,_ZStplIcSt11char_traitsIcESaIcEENSt7__cxx1112basic_stringIT_T0_T1_EEOS8_S9_
FN:6121,_ZStplIcSt11char_traitsIcESaIcEENSt7__cxx1112basic_stringIT_T0_T1_EEOS8_PKS5_
FNDA:0,_ZStplIcSt11char_traitsIcESaIcEENSt7__cxx1112basic_stringIT_T0_T1_EEOS8_PKS5_
DA:150,0
DA:156,0
DA:157,0
DA:159,0
DA:160,0
DA:178,0
DA:179,0
DA:182,0
DA:183,0
DA:186,0
DA:190,0
DA:193,0
DA:200,0
DA:203,0
DA:210,0
DA:211,0
DA:214,0
DA:216,0
DA:217,0
DA:221,0
DA:222,0
DA:229,0
DA:231,0
DA:232,0
DA:236,0
DA:237,0
DA:243,0
DA:247,0
DA:263,0
DA:266,0
DA:286,0
DA:287,0
DA:290,0
DA:291,0
DA:346,0
DA:348,0
DA:349,0
DA:351,0
DA:392,0
DA:393,0
DA:396,0
DA:398,0
DA:448,0
DA:450,0
DA:451,0
DA:552,0
DA:553,0
DA:555,0
DA:557,0
DA:562,0
DA:563,0
DA:569,0
DA:570,0
DA:571,0
DA:625,0
DA:627,0
DA:628,0
DA:657,0
DA:658,0
DA:704,0
DA:705,0
DA:930,0
DA:936,0
DA:993,0
DA:995,0
DA:1221,0
DA:1222,0
DA:1639,0
DA:1641,0
DA:2300,0
DA:2301,0
DA:6057,0
DA:6060,0
DA:6061,0
DA:6062,0
DA:6097,0
DA:6100,0
DA:6101,0
DA:6102,0
DA:6103,0
DA:6104,0
DA:6121,0
DA:6123,0
DA:6546,0
DA:6547,0
DA:6548,0
end_of_record
SF:/usr/include/c++/9/bits/cpp_type_traits.h
DA:428,0
end_of_record
SF:/usr/include/c++/9/bits/basic_string.tcc
FN:206,_ZNSt7__cxx1112basic_stringIcSt11char_traitsIcESaIcEE12_M_constructIPcEEvT_S7_St20forward_iterator_tag
FNDA:0,_ZNSt7__cxx1112basic_stringIcSt11char_traitsIcESaIcEE12_M_constructIPcEEvT_S7_St20forward_iterator_tag
FN:206,_ZNSt7__cxx1112basic_stringIcSt11char_traitsIcESaIcEE12_M_constructIPKcEEvT_S8_St20forward_iterator_tag
FNDA:0,_ZNSt7__cxx1112basic_stringIcSt11char_traitsIcESaIcEE12_M_constructIPKcEEvT_S8_St20forward_iterator_tag
DA:206,0
DA:211,0
DA:212,0
DA:215,0
DA:217,0
DA:219,0
DA:220,0
DA:225,0
DA:232,0
DA:233,0
DA:206,0
DA:211,0
DA:212,0
DA:215,0
DA:217,0
DA:219,0
DA:220,0
DA:225,0
DA:232,0
DA:233,0
end_of_record
SF:/usr/include/c++/9/bits/allocator.h
DA:138,0
DA:141,0
DA:142,0
DA:153,0
end_of_record
SF:/usr/include/c++/9/ext/alloc_traits.h
DA:97,0
DA:98,0
end_of_record
SF:/usr/include/c++/9/bits/char_traits.h
DA:299,0
DA:300,0
DA:361,0
DA:363,0
DA:365,0
end_of_record
TN:
SF:/usr/include/c++/9/bits/alloc_traits.h
DA:469,0
DA:470,0
DA:514,0
DA:515,0
end_of_record
SF:/usr/include/c++/9/ext/type_traits.h
DA:152,0
end_of_record
SF:/usr/include/c++/9/bits/ptr_traits.h
DA:146,0
DA:147,0
end_of_record
SF:/usr/include/c++/9/bits/stl_iterator_base_funcs.h
DA:98,0
DA:104,0
DA:138,0
DA:141,0
end_of_record
SF:/usr/include/c++/9/bits/move.h
DA:47,0
DA:99,0
DA:138,0
DA:139,0
end_of_record
SF:/workspace/vtr-verilog-to-routing/ODIN_II/SRC/netlist_check.cpp
FN:53,_Z13check_netlistP9netlist_t
FNDA:0,_Z13check_netlistP9netlist_t
FN:65,_Z54levelize_and_check_for_combinational_loop_and_livenesssP9netlist_t
FNDA:0,_Z54levelize_and_check_for_combinational_loop_and_livenesssP9netlist_t
FN:87,_Z24sequential_levelized_dfssP9netlist_t
FNDA:0,_Z24sequential_levelized_dfssP9netlist_t
FN:155,_Z44depth_first_traverse_until_next_ff_or_outputP7nnode_tS0_miP9netlist_t
FNDA:0,_Z44depth_first_traverse_until_next_ff_or_outputP7nnode_tS0_miP9netlist_t
FN:221,_Z46depth_first_traversal_check_if_forward_leveledsP9netlist_t
FNDA:0,_Z46depth_first_traversal_check_if_forward_leveledsP9netlist_t
FN:240,_Z45depth_first_traverse_check_if_forward_leveledP7nnode_tm
FNDA:0,_Z45depth_first_traverse_check_if_forward_leveledP7nnode_tm
FN:282,_Z17levelize_forwardsP9netlist_t
FNDA:0,_Z17levelize_forwardsP9netlist_t
FN:416,_Z60levelize_forwards_clean_checking_for_combo_loop_and_livenesssP9netlist_t
FNDA:0,_Z60levelize_forwards_clean_checking_for_combo_loop_and_livenesssP9netlist_t
FN:502,_Z18levelize_backwardsP9netlist_t
FNDA:0,_Z18levelize_backwardsP9netlist_t
FN:616,_Z46levelize_backwards_clean_checking_for_livenesssP9netlist_t
FNDA:0,_Z46levelize_backwards_clean_checking_for_livenesssP9netlist_t
FN:687,_Z30find_node_at_top_of_combo_loopP7nnode_t
FNDA:0,_Z30find_node_at_top_of_combo_loopP7nnode_t
DA:53,0
DA:55,0
DA:57,0
DA:59,0
DA:65,0
DA:67,0
DA:70,0
DA:73,0
DA:76,0
DA:78,0
DA:81,0
DA:82,0
DA:87,0
DA:88,0
DA:90,0
DA:91,0
DA:92,0
DA:93,0
DA:94,0
DA:95,0
DA:98,0
DA:101,0
DA:102,0
DA:103,0
DA:104,0
DA:106,0
DA:111,0
DA:112,0
DA:113,0
DA:115,0
DA:117,0
DA:118,0
DA:119,0
DA:121,0
DA:124,0
DA:129,0
DA:130,0
DA:131,0
DA:132,0
DA:133,0
DA:136,0
DA:137,0
DA:138,0
DA:139,0
DA:140,0
DA:143,0
DA:144,0
DA:148,0
DA:150,0
DA:155,0
DA:156,0
DA:157,0
DA:158,0
DA:161,0
DA:163,0
DA:165,0
DA:166,0
DA:167,0
DA:169,0
DA:173,0
DA:176,0
DA:179,0
DA:182,0
DA:183,0
DA:186,0
DA:187,0
DA:188,0
DA:190,0
DA:195,0
DA:196,0
DA:198,0
DA:199,0
DA:200,0
DA:202,0
DA:203,0
DA:204,0
DA:205,0
DA:207,0
DA:208,0
DA:209,0
DA:212,0
DA:221,0
DA:222,0
DA:225,0
DA:226,0
DA:227,0
DA:231,0
DA:232,0
DA:233,0
DA:234,0
DA:235,0
DA:240,0
DA:241,0
DA:242,0
DA:243,0
DA:245,0
DA:251,0
DA:253,0
DA:254,0
DA:255,0
DA:257,0
DA:258,0
DA:259,0
DA:260,0
DA:262,0
DA:263,0
DA:264,0
DA:266,0
DA:267,0
DA:268,0
DA:272,0
DA:282,0
DA:283,0
DA:284,0
DA:285,0
DA:286,0
DA:289,0
DA:290,0
DA:291,0
DA:292,0
DA:293,0
DA:294,0
DA:295,0
DA:296,0
DA:298,0
DA:299,0
DA:300,0
DA:301,0
DA:302,0
DA:304,0
DA:305,0
DA:306,0
DA:307,0
DA:308,0
DA:310,0
DA:311,0
DA:312,0
DA:313,0
DA:314,0
DA:315,0
DA:316,0
DA:317,0
DA:318,0
DA:319,0
DA:320,0
DA:323,0
DA:324,0
DA:325,0
DA:326,0
DA:327,0
DA:328,0
DA:332,0
DA:334,0
DA:335,0
DA:336,0
DA:337,0
DA:338,0
DA:341,0
DA:342,0
DA:343,0
DA:344,0
DA:347,0
DA:348,0
DA:349,0
DA:350,0
DA:352,0
DA:353,0
DA:355,0
DA:356,0
DA:358,0
DA:360,0
DA:361,0
DA:363,0
DA:365,0
DA:367,0
DA:368,0
DA:371,0
DA:372,0
DA:375,0
DA:376,0
DA:380,0
DA:383,0
DA:384,0
DA:385,0
DA:391,0
DA:393,0
DA:394,0
DA:395,0
DA:397,0
DA:404,0
DA:406,0
DA:412,0
DA:416,0
DA:417,0
DA:418,0
DA:419,0
DA:420,0
DA:422,0
DA:424,0
DA:426,0
DA:427,0
DA:428,0
DA:429,0
DA:432,0
DA:433,0
DA:434,0
DA:435,0
DA:437,0
DA:438,0
DA:439,0
DA:442,0
DA:444,0
DA:445,0
DA:447,0
DA:448,0
DA:450,0
DA:452,0
DA:453,0
DA:454,0
DA:457,0
DA:458,0
DA:459,0
DA:465,0
DA:467,0
DA:468,0
DA:470,0
DA:473,0
DA:474,0
DA:477,0
DA:478,0
DA:479,0
DA:481,0
DA:488,0
DA:490,0
DA:496,0
DA:502,0
DA:503,0
DA:504,0
DA:505,0
DA:506,0
DA:509,0
DA:510,0
DA:511,0
DA:512,0
DA:513,0
DA:514,0
DA:515,0
DA:516,0
DA:517,0
DA:518,0
DA:519,0
DA:520,0
DA:523,0
DA:524,0
DA:525,0
DA:526,0
DA:527,0
DA:528,0
DA:532,0
DA:534,0
DA:535,0
DA:536,0
DA:537,0
DA:538,0
DA:541,0
DA:542,0
DA:543,0
DA:545,0
DA:546,0
DA:547,0
DA:549,0
DA:550,0
DA:551,0
DA:552,0
DA:554,0
DA:556,0
DA:557,0
DA:560,0
DA:561,0
DA:564,0
DA:565,0
DA:569,0
DA:570,0
DA:574,0
DA:575,0
DA:576,0
DA:577,0
DA:578,0
DA:579,0
DA:582,0
DA:583,0
DA:584,0
DA:585,0
DA:587,0
DA:589,0
DA:590,0
DA:591,0
DA:594,0
DA:603,0
DA:605,0
DA:611,0
DA:616,0
DA:617,0
DA:618,0
DA:619,0
DA:620,0
DA:622,0
DA:624,0
DA:626,0
DA:627,0
DA:628,0
DA:629,0
DA:632,0
DA:633,0
DA:634,0
DA:635,0
DA:638,0
DA:640,0
DA:642,0
DA:645,0
DA:646,0
DA:647,0
DA:650,0
DA:651,0
DA:652,0
DA:658,0
DA:660,0
DA:661,0
DA:663,0
DA:667,0
DA:668,0
DA:674,0
DA:676,0
DA:682,0
DA:687,0
DA:688,0
DA:689,0
DA:690,0
DA:691,0
DA:692,0
DA:694,0
DA:695,0
DA:696,0
DA:697,0
DA:700,0
DA:701,0
DA:702,0
DA:703,0
DA:704,0
DA:705,0
DA:709,0
DA:710,0
DA:713,0
DA:717,0
end_of_record
SF:/usr/include/c++/9/ext/new_allocator.h
DA:83,0
DA:89,0
DA:119,0
DA:128,0
end_of_record
SF:/usr/include/c++/9/iostream
end_of_record
SF:/usr/include/c++/9/bits/basic_string.tcc
FN:206,_ZNSt7__cxx1112basic_stringIcSt11char_traitsIcESaIcEE12_M_constructIPcEEvT_S7_St20forward_iterator_tag
FNDA:0,_ZNSt7__cxx1112basic_stringIcSt11char_traitsIcESaIcEE12_M_constructIPcEEvT_S7_St20forward_iterator_tag
DA:206,0
DA:211,0
DA:212,0
DA:215,0
DA:217,0
DA:219,0
DA:220,0
DA:225,0
DA:232,0
DA:233,0
end_of_record
SF:/usr/include/c++/9/bits/basic_string.h
DA:150,0
DA:159,0
DA:160,0
DA:178,0
DA:179,0
DA:182,0
DA:183,0
DA:186,0
DA:190,0
DA:193,0
DA:200,0
DA:203,0
DA:210,0
DA:211,0
DA:214,0
DA:216,0
DA:217,0
DA:221,0
DA:222,0
DA:229,0
DA:231,0
DA:232,0
DA:236,0
DA:237,0
DA:243,0
DA:247,0
DA:263,0
DA:266,0
DA:286,0
DA:287,0
DA:290,0
DA:291,0
DA:346,0
DA:348,0
DA:349,0
DA:351,0
DA:392,0
DA:393,0
DA:448,0
DA:450,0
DA:451,0
DA:657,0
DA:658,0
DA:936,0
end_of_record
SF:/usr/include/c++/9/bits/char_traits.h
DA:299,0
DA:300,0
DA:361,0
DA:363,0
DA:365,0
end_of_record
SF:/usr/include/c++/9/bits/allocator.h
DA:141,0
DA:142,0
DA:153,0
end_of_record
SF:/usr/include/c++/9/ext/alloc_traits.h
DA:97,0
DA:98,0
end_of_record
TN:
SF:/usr/include/c++/9/cmath
DA:350,0
DA:351,0
end_of_record
SF:/workspace/vtr-verilog-to-routing/ODIN_II/SRC/netlist_cleanup.cpp
FN:62,_Z16insert_node_listP11node_list_tP7nnode_t
FNDA:0,_Z16insert_node_listP11node_list_tP7nnode_t
FN:69,_Z17traverse_backwardP7nnode_t
FNDA:0,_Z17traverse_backwardP7nnode_t
FN:87,_Z16traverse_forwardP7nnode_tii
FNDA:0,_Z16traverse_forwardP7nnode_tii
FN:139,_Z24mark_output_dependenciesP9netlist_t
FNDA:0,_Z24mark_output_dependenciesP9netlist_t
FN:148,_Z21identify_unused_nodesP9netlist_t
FNDA:0,_Z21identify_unused_nodesP9netlist_t
FN:166,_Z19remove_unused_nodesP11node_list_t
FNDA:0,_Z19remove_unused_nodesP11node_list_t
FN:193,_Z27calculate_addsub_statisticsP11node_list_t
FNDA:0,_Z27calculate_addsub_statisticsP11node_list_t
FN:234,_Z19remove_unused_logicP9netlist_t
FNDA:0,_Z19remove_unused_logicP9netlist_t
DA:62,0
DA:63,0
DA:64,0
DA:65,0
DA:69,0
DA:70,0
DA:71,0
DA:72,0
DA:73,0
DA:74,0
DA:75,0
DA:87,0
DA:88,0
DA:89,0
DA:93,0
DA:96,0
DA:98,0
DA:100,0
DA:103,0
DA:105,0
DA:106,0
DA:107,0
DA:110,0
DA:113,0
DA:114,0
DA:120,0
DA:121,0
DA:122,0
DA:123,0
DA:124,0
DA:125,0
DA:127,0
DA:128,0
DA:139,0
DA:140,0
DA:141,0
DA:142,0
DA:144,0
DA:148,0
DA:149,0
DA:150,0
DA:152,0
DA:153,0
DA:155,0
DA:156,0
DA:157,0
DA:158,0
DA:159,0
DA:160,0
DA:162,0
DA:166,0
DA:167,0
DA:169,0
DA:170,0
DA:171,0
DA:173,0
DA:174,0
DA:176,0
DA:193,0
DA:194,0
DA:198,0
DA:199,0
DA:200,0
DA:203,0
DA:206,0
DA:207,0
DA:210,0
DA:212,0
DA:213,0
DA:214,0
DA:215,0
DA:216,0
DA:217,0
DA:218,0
DA:219,0
DA:220,0
DA:223,0
DA:224,0
DA:227,0
DA:230,0
DA:231,0
DA:234,0
DA:235,0
DA:236,0
DA:237,0
DA:238,0
DA:239,0
end_of_record
SF:/usr/include/c++/9/iostream
end_of_record
TN:
SF:/usr/include/c++/9/bits/move.h
DA:47,0
DA:99,0
DA:138,0
DA:139,0
end_of_record
SF:/usr/include/c++/9/bits/stl_vector.h
FN:622,_ZNSt6vectorIP10ast_node_tSaIS1_EEC2ESt16initializer_listIS1_ERKS2_
FNDA:0,_ZNSt6vectorIP10ast_node_tSaIS1_EEC2ESt16initializer_listIS1_ERKS2_
DA:94,0
DA:95,0
DA:125,0
DA:133,0
DA:134,0
DA:273,0
DA:274,0
DA:290,0
DA:291,0
DA:330,0
DA:332,0
DA:333,0
DA:334,0
DA:347,0
DA:350,0
DA:351,0
DA:622,0
DA:624,0
DA:626,0
DA:628,0
DA:675,0
DA:677,0
DA:678,0
DA:680,0
DA:1040,0
DA:1043,0
end_of_record
SF:/usr/include/x86_64-linux-gnu/bits/string_fortified.h
DA:88,0
DA:90,0
DA:126,0
DA:128,0
end_of_record
SF:/usr/include/c++/9/bits/ptr_traits.h
DA:146,0
DA:147,0
end_of_record
SF:/workspace/vtr-verilog-to-routing/libs/librtlnumber/src/include/rtl_utils.hpp
FN:46,_Z12_assert_WerrbPKciNSt7__cxx1112basic_stringIcSt11char_traitsIcESaIcEEE
FNDA:0,_Z12_assert_WerrbPKciNSt7__cxx1112basic_stringIcSt11char_traitsIcESaIcEEE
DA:46,0
DA:47,0
DA:48,0
DA:49,0
DA:50,0
DA:51,0
DA:53,0
end_of_record
SF:/usr/include/c++/9/bits/stl_iterator_base_funcs.h
DA:98,0
DA:104,0
DA:138,0
DA:141,0
end_of_record
SF:/workspace/vtr-verilog-to-routing/libs/EXTERNAL/libargparse/src/argparse_value.hpp
DA:50,0
end_of_record
SF:/usr/include/c++/9/bits/stl_algobase.h
end_of_record
SF:/workspace/vtr-verilog-to-routing/ODIN_II/SRC/netlist_create_from_ast.cpp
FN:137,_Z14create_netlistP5ast_t
FNDA:0,_Z14create_netlistP5ast_t
FN:200,_Z15look_for_clocksP9netlist_t
FNDA:0,_Z15look_for_clocksP9netlist_t
FN:215,_Z44convert_ast_to_netlist_recursing_via_modulesPP10ast_node_tPcP12sc_hierarchyi
FNDA:0,_Z44convert_ast_to_netlist_recursing_via_modulesPP10ast_node_tPcP12sc_hierarchyi
FN:324,_Z28netlist_expand_ast_of_modulePP10ast_node_tPcP12sc_hierarchy
FNDA:0,_Z28netlist_expand_ast_of_modulePP10ast_node_tPcP12sc_hierarchy
FN:703,_Z24concatenate_signal_listsPP13signal_list_ti
FNDA:0,_Z24concatenate_signal_listsPP13signal_list_ti
FN:729,_Z36create_all_driver_nets_in_this_scopePcP12sc_hierarchy
FNDA:0,_Z36create_all_driver_nets_in_this_scopePcP12sc_hierarchy
FN:762,_Z22create_top_driver_netsP10ast_node_tPcP12sc_hierarchy
FNDA:0,_Z22create_top_driver_netsP10ast_node_tPcP12sc_hierarchy
FN:858,_Z23create_top_output_nodesP10ast_node_tPcP12sc_hierarchy
FNDA:0,_Z23create_top_output_nodesP10ast_node_tPcP12sc_hierarchy
FN:976,_Z23define_nets_with_driverP10ast_node_tPc
FNDA:0,_Z23define_nets_with_driverP10ast_node_tPc
FN:1124,_Z33define_nodes_and_nets_with_driverP10ast_node_tPc
FNDA:0,_Z33define_nodes_and_nets_with_driverP10ast_node_tPc
FN:1237,_Z29create_symbol_table_for_scopeP10ast_node_tP12sc_hierarchy
FNDA:0,_Z29create_symbol_table_for_scopeP10ast_node_tP12sc_hierarchy
FN:1416,_Z27check_for_initial_reg_valueP10ast_node_tPl
FNDA:0,_Z27check_for_initial_reg_valueP10ast_node_tPl
FN:1441,_Z24connect_memory_and_aliasP10ast_node_tPcP12sc_hierarchy
FNDA:0,_Z24connect_memory_and_aliasP10ast_node_tPcP12sc_hierarchy
FN:1579,_Z28connect_hard_block_and_aliasP10ast_node_tPciP12sc_hierarchy
FNDA:0,_Z28connect_hard_block_and_aliasP10ast_node_tPciP12sc_hierarchy
FN:1725,_Z38connect_module_instantiation_and_aliassP10ast_node_tPcP12sc_hierarchy
FNDA:0,_Z38connect_module_instantiation_and_aliassP10ast_node_tPcP12sc_hierarchy
FN:1992,_Z40connect_function_instantiation_and_aliassP10ast_node_tPcP12sc_hierarchy
FNDA:0,_Z40connect_function_instantiation_and_aliassP10ast_node_tPcP12sc_hierarchy
FN:2299,_Z36connect_task_instantiation_and_aliassP10ast_node_tPcP12sc_hierarchy
FNDA:0,_Z36connect_task_instantiation_and_aliassP10ast_node_tPcP12sc_hierarchy
FN:2584,_Z11create_pinsP10ast_node_tPcS1_P12sc_hierarchy
FNDA:0,_Z11create_pinsP10ast_node_tPcS1_P12sc_hierarchy
FN:2670,_Z17create_output_pinP10ast_node_tPcP12sc_hierarchy
FNDA:0,_Z17create_output_pinP10ast_node_tPcP12sc_hierarchy
FN:2692,_Z16assignment_aliasP10ast_node_tPcP12sc_hierarchy
FNDA:0,_Z16assignment_aliasP10ast_node_tPcP12sc_hierarchy
FN:2966,_Z52define_latchs_initial_value_inside_initial_statementP10ast_node_tP12sc_hierarchy
FNDA:0,_Z52define_latchs_initial_value_inside_initial_statementP10ast_node_tP12sc_hierarchy
FN:2998,_Z31terminate_registered_assignmentP10ast_node_tP13signal_list_tS2_P12sc_hierarchy
FNDA:0,_Z31terminate_registered_assignmentP10ast_node_tP13signal_list_tS2_P12sc_hierarchy
FN:3189,_Z31terminate_continuous_assignmentP10ast_node_tP13signal_list_tPc
FNDA:0,_Z31terminate_continuous_assignmentP10ast_node_tP13signal_list_tPc
FN:3267,_Z34alias_output_assign_pins_to_inputsP11char_list_tP13signal_list_tP10ast_node_t
FNDA:0,_Z34alias_output_assign_pins_to_inputsP11char_list_tP13signal_list_tP10ast_node_t
FN:3298,_Z11create_gateP10ast_node_tPcP12sc_hierarchy
FNDA:0,_Z11create_gateP10ast_node_tPcP12sc_hierarchy
FN:3399,_Z21create_operation_nodeP10ast_node_tPP13signal_list_tiPc
FNDA:0,_Z21create_operation_nodeP10ast_node_tPP13signal_list_tiPc
FN:3613,_Z25evaluate_sensitivity_listP10ast_node_tPcP12sc_hierarchy
FNDA:0,_Z25evaluate_sensitivity_listP10ast_node_tPcP12sc_hierarchy
FN:3683,_Z22create_if_for_questionP10ast_node_tPcP12sc_hierarchy
FNDA:0,_Z22create_if_for_questionP10ast_node_tPcP12sc_hierarchy
FN:3706,_Z34create_if_question_mux_expressionsP10ast_node_tP7nnode_tPcP12sc_hierarchy
FNDA:0,_Z34create_if_question_mux_expressionsP10ast_node_tP7nnode_tPcP12sc_hierarchy
FN:3735,_Z9create_ifP10ast_node_tPcP12sc_hierarchy
FNDA:0,_Z9create_ifP10ast_node_tPcP12sc_hierarchy
FN:3758,_Z25create_if_control_signalsPP10ast_node_tP7nnode_tPcP12sc_hierarchy
FNDA:0,_Z25create_if_control_signalsPP10ast_node_tP7nnode_tPcP12sc_hierarchy
FN:3815,_Z24create_if_mux_statementsP10ast_node_tP7nnode_tPcP12sc_hierarchy
FNDA:0,_Z24create_if_mux_statementsP10ast_node_tP7nnode_tPcP12sc_hierarchy
FN:3854,_Z11create_caseP10ast_node_tPcP12sc_hierarchy
FNDA:0,_Z11create_caseP10ast_node_tPcP12sc_hierarchy
FN:3881,_Z27create_case_control_signalsP10ast_node_tPS0_P7nnode_tPcP12sc_hierarchy
FNDA:0,_Z27create_case_control_signalsP10ast_node_tPS0_P7nnode_tPcP12sc_hierarchy
FN:3946,_Z26create_case_mux_statementsP10ast_node_tP7nnode_tPcP12sc_hierarchy
FNDA:0,_Z26create_case_mux_statementsP10ast_node_tP7nnode_tPcP12sc_hierarchy
FN:3995,_Z21create_mux_statementsPP13signal_list_tP7nnode_tiPcP12sc_hierarchy
FNDA:0,_Z21create_mux_statementsPP13signal_list_tP7nnode_tiPcP12sc_hierarchy
FN:4104,_Z22create_mux_expressionsPP13signal_list_tP7nnode_tiPc
FNDA:0,_Z22create_mux_expressionsPP13signal_list_tP7nnode_tiPc
FN:4170,_Z27find_smallest_non_numericalP10ast_node_tPP13signal_list_ti
FNDA:0,_Z27find_smallest_non_numericalP10ast_node_tPP13signal_list_ti
FN:4220,_Z14pad_with_zerosP10ast_node_tP13signal_list_tiPc
FNDA:0,_Z14pad_with_zerosP10ast_node_tP13signal_list_tiPc
FN:4242,_Z26create_dual_port_ram_blockP10ast_node_tPcP7t_modelP12sc_hierarchy
FNDA:0,_Z26create_dual_port_ram_blockP10ast_node_tPcP7t_modelP12sc_hierarchy
FN:4408,_Z28create_single_port_ram_blockP10ast_node_tPcP7t_modelP12sc_hierarchy
FNDA:0,_Z28create_single_port_ram_blockP10ast_node_tPcP7t_modelP12sc_hierarchy
FN:4584,_Z33create_soft_single_port_ram_blockP10ast_node_tPcP12sc_hierarchy
FNDA:0,_Z33create_soft_single_port_ram_blockP10ast_node_tPcP12sc_hierarchy
FN:4721,_Z31create_soft_dual_port_ram_blockP10ast_node_tPcP12sc_hierarchy
FNDA:0,_Z31create_soft_dual_port_ram_blockP10ast_node_tPcP12sc_hierarchy
FN:4870,_Z17create_hard_blockP10ast_node_tPcP12sc_hierarchy
FNDA:0,_Z17create_hard_blockP10ast_node_tPcP12sc_hierarchy
FN:5176,_Z29reorder_connections_from_nameP10ast_node_tS0_3ids
FNDA:0,_Z29reorder_connections_from_nameP10ast_node_tS0_3ids
DA:137,0
DA:144,0
DA:145,0
DA:146,0
DA:147,0
DA:149,0
DA:151,0
DA:152,0
DA:153,0
DA:158,0
DA:159,0
DA:160,0
DA:169,0
DA:170,0
DA:172,0
DA:174,0
DA:175,0
DA:176,0
DA:177,0
DA:178,0
DA:180,0
DA:183,0
DA:184,0
DA:185,0
DA:186,0
DA:187,0
DA:190,0
DA:193,0
DA:195,0
DA:200,0
DA:201,0
DA:203,0
DA:204,0
DA:205,0
DA:208,0
DA:215,0
DA:216,0
DA:219,0
DA:220,0
DA:225,0
DA:231,0
DA:232,0
DA:233,0
DA:236,0
DA:238,0
DA:239,0
DA:243,0
DA:245,0
DA:246,0
DA:247,0
DA:250,0
DA:253,0
DA:256,0
DA:261,0
DA:262,0
DA:263,0
DA:266,0
DA:268,0
DA:269,0
DA:273,0
DA:274,0
DA:277,0
DA:280,0
DA:283,0
DA:289,0
DA:290,0
DA:291,0
DA:294,0
DA:296,0
DA:297,0
DA:301,0
DA:302,0
DA:305,0
DA:308,0
DA:312,0
DA:315,0
DA:316,0
DA:324,0
DA:326,0
DA:327,0
DA:328,0
DA:329,0
DA:330,0
DA:332,0
DA:334,0
DA:339,0
DA:340,0
DA:341,0
DA:346,0
DA:347,0
DA:348,0
DA:349,0
DA:350,0
DA:351,0
DA:353,0
DA:354,0
DA:355,0
DA:356,0
DA:357,0
DA:359,0
DA:360,0
DA:361,0
DA:363,0
DA:364,0
DA:366,0
DA:367,0
DA:368,0
DA:370,0
DA:373,0
DA:376,0
DA:377,0
DA:378,0
DA:383,0
DA:386,0
DA:387,0
DA:388,0
DA:389,0
DA:390,0
DA:391,0
DA:392,0
DA:393,0
DA:397,0
DA:399,0
DA:403,0
DA:404,0
DA:405,0
DA:406,0
DA:407,0
DA:412,0
DA:413,0
DA:414,0
DA:415,0
DA:416,0
DA:420,0
DA:422,0
DA:426,0
DA:431,0
DA:434,0
DA:437,0
DA:440,0
DA:441,0
DA:442,0
DA:443,0
DA:445,0
DA:450,0
DA:453,0
DA:456,0
DA:459,0
DA:460,0
DA:461,0
DA:462,0
DA:464,0
DA:465,0
DA:466,0
DA:467,0
DA:468,0
DA:479,0
DA:480,0
DA:481,0
DA:482,0
DA:483,0
DA:484,0
DA:485,0
DA:486,0
DA:487,0
DA:489,0
DA:491,0
DA:492,0
DA:495,0
DA:496,0
DA:499,0
DA:500,0
DA:501,0
DA:502,0
DA:503,0
DA:506,0
DA:508,0
DA:509,0
DA:510,0
DA:511,0
DA:512,0
DA:513,0
DA:514,0
DA:515,0
DA:517,0
DA:518,0
DA:520,0
DA:521,0
DA:522,0
DA:523,0
DA:524,0
DA:525,0
DA:526,0
DA:527,0
DA:528,0
DA:529,0
DA:530,0
DA:531,0
DA:532,0
DA:533,0
DA:534,0
DA:535,0
DA:536,0
DA:537,0
DA:538,0
DA:539,0
DA:540,0
DA:541,0
DA:542,0
DA:543,0
DA:544,0
DA:546,0
DA:547,0
DA:548,0
DA:549,0
DA:555,0
DA:557,0
DA:558,0
DA:559,0
DA:560,0
DA:561,0
DA:565,0
DA:572,0
DA:573,0
DA:574,0
DA:576,0
DA:577,0
DA:578,0
DA:579,0
DA:580,0
DA:581,0
DA:582,0
DA:583,0
DA:585,0
DA:587,0
DA:594,0
DA:595,0
DA:596,0
DA:597,0
DA:599,0
DA:600,0
DA:601,0
DA:602,0
DA:607,0
DA:608,0
DA:611,0
DA:612,0
DA:613,0
DA:614,0
DA:616,0
DA:617,0
DA:618,0
DA:619,0
DA:620,0
DA:622,0
DA:624,0
DA:625,0
DA:627,0
DA:628,0
DA:629,0
DA:633,0
DA:634,0
DA:637,0
DA:638,0
DA:639,0
DA:640,0
DA:641,0
DA:642,0
DA:643,0
DA:644,0
DA:645,0
DA:646,0
DA:647,0
DA:648,0
DA:650,0
DA:652,0
DA:657,0
DA:658,0
DA:659,0
DA:660,0
DA:661,0
DA:662,0
DA:663,0
DA:664,0
DA:673,0
DA:674,0
DA:676,0
DA:677,0
DA:679,0
DA:680,0
DA:681,0
DA:682,0
DA:683,0
DA:684,0
DA:685,0
DA:686,0
DA:687,0
DA:688,0
DA:691,0
DA:694,0
DA:695,0
DA:703,0
DA:704,0
DA:706,0
DA:707,0
DA:709,0
DA:710,0
DA:713,0
DA:714,0
DA:715,0
DA:717,0
DA:720,0
DA:729,0
DA:731,0
DA:733,0
DA:734,0
DA:737,0
DA:738,0
DA:739,0
DA:741,0
DA:743,0
DA:744,0
DA:746,0
DA:748,0
DA:750,0
DA:753,0
DA:762,0
DA:764,0
DA:765,0
DA:766,0
DA:767,0
DA:768,0
DA:769,0
DA:771,0
DA:774,0
DA:775,0
DA:776,0
DA:777,0
DA:781,0
DA:785,0
DA:786,0
DA:787,0
DA:788,0
DA:789,0
DA:790,0
DA:791,0
DA:792,0
DA:794,0
DA:795,0
DA:796,0
DA:797,0
DA:798,0
DA:799,0
DA:800,0
DA:801,0
DA:803,0
DA:804,0
DA:805,0
DA:806,0
DA:807,0
DA:808,0
DA:809,0
DA:810,0
DA:813,0
DA:814,0
DA:815,0
DA:817,0
DA:818,0
DA:819,0
DA:822,0
DA:823,0
DA:826,0
DA:827,0
DA:828,0
DA:830,0
DA:831,0
DA:832,0
DA:835,0
DA:836,0
DA:839,0
DA:840,0
DA:841,0
DA:843,0
DA:844,0
DA:845,0
DA:848,0
DA:849,0
DA:850,0
DA:858,0
DA:860,0
DA:861,0
DA:862,0
DA:863,0
DA:864,0
DA:865,0
DA:866,0
DA:868,0
DA:871,0
DA:872,0
DA:873,0
DA:874,0
DA:875,0
DA:876,0
DA:879,0
DA:882,0
DA:885,0
DA:886,0
DA:890,0
DA:892,0
DA:895,0
DA:896,0
DA:897,0
DA:898,0
DA:900,0
DA:901,0
DA:904,0
DA:907,0
DA:908,0
DA:909,0
DA:910,0
DA:911,0
DA:912,0
DA:914,0
DA:915,0
DA:916,0
DA:918,0
DA:919,0
DA:923,0
DA:924,0
DA:929,0
DA:931,0
DA:934,0
DA:935,0
DA:938,0
DA:940,0
DA:943,0
DA:944,0
DA:945,0
DA:946,0
DA:948,0
DA:949,0
DA:952,0
DA:955,0
DA:956,0
DA:957,0
DA:961,0
DA:968,0
DA:970,0
DA:976,0
DA:977,0
DA:978,0
DA:979,0
DA:980,0
DA:982,0
DA:986,0
DA:989,0
DA:992,0
DA:993,0
DA:994,0
DA:998,0
DA:999,0
DA:1002,0
DA:1003,0
DA:1005,0
DA:1007,0
DA:1008,0
DA:1009,0
DA:1012,0
DA:1013,0
DA:1014,0
DA:1016,0
DA:1017,0
DA:1021,0
DA:1022,0
DA:1027,0
DA:1028,0
DA:1029,0
DA:1034,0
DA:1036,0
DA:1039,0
DA:1041,0
DA:1042,0
DA:1043,0
DA:1047,0
DA:1048,0
DA:1051,0
DA:1052,0
DA:1054,0
DA:1056,0
DA:1061,0
DA:1062,0
DA:1063,0
DA:1065,0
DA:1066,0
DA:1067,0
DA:1069,0
DA:1070,0
DA:1074,0
DA:1075,0
DA:1079,0
DA:1080,0
DA:1082,0
DA:1083,0
DA:1084,0
DA:1086,0
DA:1087,0
DA:1091,0
DA:1092,0
DA:1096,0
DA:1098,0
DA:1099,0
DA:1102,0
DA:1104,0
DA:1105,0
DA:1108,0
DA:1110,0
DA:1111,0
DA:1113,0
DA:1116,0
DA:1124,0
DA:1125,0
DA:1126,0
DA:1127,0
DA:1128,0
DA:1129,0
DA:1130,0
DA:1132,0
DA:1136,0
DA:1138,0
DA:1140,0
DA:1141,0
DA:1142,0
DA:1146,0
DA:1147,0
DA:1150,0
DA:1151,0
DA:1152,0
DA:1154,0
DA:1155,0
DA:1157,0
DA:1158,0
DA:1161,0
DA:1162,0
DA:1165,0
DA:1166,0
DA:1167,0
DA:1168,0
DA:1170,0
DA:1171,0
DA:1173,0
DA:1174,0
DA:1175,0
DA:1177,0
DA:1178,0
DA:1182,0
DA:1183,0
DA:1188,0
DA:1190,0
DA:1193,0
DA:1195,0
DA:1196,0
DA:1197,0
DA:1201,0
DA:1202,0
DA:1205,0
DA:1206,0
DA:1208,0
DA:1209,0
DA:1210,0
DA:1212,0
DA:1213,0
DA:1216,0
DA:1217,0
DA:1220,0
DA:1221,0
DA:1222,0
DA:1224,0
DA:1226,0
DA:1229,0
DA:1237,0
DA:1239,0
DA:1240,0
DA:1241,0
DA:1242,0
DA:1244,0
DA:1245,0
DA:1246,0
DA:1248,0
DA:1249,0
DA:1252,0
DA:1253,0
DA:1254,0
DA:1256,0
DA:1257,0
DA:1260,0
DA:1262,0
DA:1264,0
DA:1266,0
DA:1267,0
DA:1269,0
DA:1270,0
DA:1271,0
DA:1276,0
DA:1278,0
DA:1279,0
DA:1285,0
DA:1286,0
DA:1287,0
DA:1291,0
DA:1293,0
DA:1296,0
DA:1297,0
DA:1298,0
DA:1299,0
DA:1301,0
DA:1302,0
DA:1304,0
DA:1305,0
DA:1307,0
DA:1309,0
DA:1310,0
DA:1311,0
DA:1312,0
DA:1314,0
DA:1315,0
DA:1319,0
DA:1322,0
DA:1323,0
DA:1324,0
DA:1327,0
DA:1328,0
DA:1329,0
DA:1330,0
DA:1332,0
DA:1334,0
DA:1336,0
DA:1337,0
DA:1340,0
DA:1341,0
DA:1342,0
DA:1344,0
DA:1346,0
DA:1347,0
DA:1348,0
DA:1350,0
DA:1351,0
DA:1352,0
DA:1353,0
DA:1354,0
DA:1356,0
DA:1363,0
DA:1364,0
DA:1365,0
DA:1367,0
DA:1368,0
DA:1369,0
DA:1371,0
DA:1372,0
DA:1375,0
DA:1376,0
DA:1378,0
DA:1379,0
DA:1381,0
DA:1384,0
DA:1387,0
DA:1388,0
DA:1389,0
DA:1398,0
DA:1399,0
DA:1402,0
DA:1403,0
DA:1405,0
DA:1407,0
DA:1416,0
DA:1417,0
DA:1420,0
DA:1421,0
DA:1422,0
DA:1423,0
DA:1425,0
DA:1441,0
DA:1442,0
DA:1443,0
DA:1444,0
DA:1445,0
DA:1446,0
DA:1449,0
DA:1450,0
DA:1451,0
DA:1453,0
DA:1454,0
DA:1455,0
DA:1458,0
DA:1459,0
DA:1461,0
DA:1462,0
DA:1463,0
DA:1464,0
DA:1467,0
DA:1468,0
DA:1470,0
DA:1471,0
DA:1472,0
DA:1475,0
DA:1476,0
DA:1477,0
DA:1478,0
DA:1481,0
DA:1482,0
DA:1483,0
DA:1484,0
DA:1486,0
DA:1492,0
DA:1493,0
DA:1494,0
DA:1495,0
DA:1497,0
DA:1498,0
DA:1499,0
DA:1500,0
DA:1502,0
DA:1504,0
DA:1505,0
DA:1507,0
DA:1508,0
DA:1509,0
DA:1512,0
DA:1513,0
DA:1514,0
DA:1515,0
DA:1519,0
DA:1522,0
DA:1525,0
DA:1528,0
DA:1530,0
DA:1533,0
DA:1534,0
DA:1539,0
DA:1540,0
DA:1544,0
DA:1545,0
DA:1546,0
DA:1550,0
DA:1551,0
DA:1555,0
DA:1557,0
DA:1560,0
DA:1561,0
DA:1566,0
DA:1579,0
DA:1580,0
DA:1581,0
DA:1582,0
DA:1583,0
DA:1584,0
DA:1585,0
DA:1588,0
DA:1589,0
DA:1590,0
DA:1591,0
DA:1595,0
DA:1596,0
DA:1597,0
DA:1598,0
DA:1599,0
DA:1600,0
DA:1601,0
DA:1604,0
DA:1605,0
DA:1606,0
DA:1607,0
DA:1608,0
DA:1610,0
DA:1611,0
DA:1613,0
DA:1614,0
DA:1617,0
DA:1622,0
DA:1623,0
DA:1624,0
DA:1627,0
DA:1628,0
DA:1629,0
DA:1630,0
DA:1632,0
DA:1633,0
DA:1634,0
DA:1635,0
DA:1637,0
DA:1639,0
DA:1640,0
DA:1642,0
DA:1643,0
DA:1644,0
DA:1647,0
DA:1648,0
DA:1649,0
DA:1650,0
DA:1654,0
DA:1655,0
DA:1656,0
DA:1657,0
DA:1661,0
DA:1664,0
DA:1667,0
DA:1669,0
DA:1672,0
DA:1673,0
DA:1678,0
DA:1679,0
DA:1683,0
DA:1684,0
DA:1685,0
DA:1686,0
DA:1690,0
DA:1691,0
DA:1695,0
DA:1697,0
DA:1701,0
DA:1702,0
DA:1707,0
DA:1725,0
DA:1726,0
DA:1727,0
DA:1728,0
DA:1729,0
DA:1730,0
DA:1731,0
DA:1732,0
DA:1733,0
DA:1734,0
DA:1736,0
DA:1737,0
DA:1738,0
DA:1742,0
DA:1743,0
DA:1747,0
DA:1749,0
DA:1750,0
DA:1752,0
DA:1753,0
DA:1759,0
DA:1760,0
DA:1763,0
DA:1764,0
DA:1766,0
DA:1768,0
DA:1770,0
DA:1772,0
DA:1774,0
DA:1776,0
DA:1778,0
DA:1779,0
DA:1780,0
DA:1782,0
DA:1784,0
DA:1785,0
DA:1786,0
DA:1787,0
DA:1788,0
DA:1789,0
DA:1790,0
DA:1792,0
DA:1794,0
DA:1795,0
DA:1796,0
DA:1800,0
DA:1802,0
DA:1804,0
DA:1805,0
DA:1811,0
DA:1812,0
DA:1813,0
DA:1815,0
DA:1817,0
DA:1818,0
DA:1819,0
DA:1822,0
DA:1823,0
DA:1824,0
DA:1825,0
DA:1828,0
DA:1830,0
DA:1833,0
DA:1834,0
DA:1835,0
DA:1837,0
DA:1838,0
DA:1839,0
DA:1840,0
DA:1843,0
DA:1847,0
DA:1849,0
DA:1854,0
DA:1855,0
DA:1856,0
DA:1857,0
DA:1858,0
DA:1859,0
DA:1860,0
DA:1861,0
DA:1864,0
DA:1866,0
DA:1868,0
DA:1871,0
DA:1874,0
DA:1875,0
DA:1879,0
DA:1880,0
DA:1882,0
DA:1884,0
DA:1885,0
DA:1887,0
DA:1888,0
DA:1890,0
DA:1891,0
DA:1893,0
DA:1898,0
DA:1899,0
DA:1900,0
DA:1902,0
DA:1909,0
DA:1910,0
DA:1911,0
DA:1914,0
DA:1915,0
DA:1916,0
DA:1920,0
DA:1922,0
DA:1923,0
DA:1924,0
DA:1926,0
DA:1927,0
DA:1928,0
DA:1929,0
DA:1930,0
DA:1932,0
DA:1934,0
DA:1935,0
DA:1936,0
DA:1938,0
DA:1939,0
DA:1940,0
DA:1941,0
DA:1942,0
DA:1946,0
DA:1947,0
DA:1952,0
DA:1958,0
DA:1959,0
DA:1960,0
DA:1961,0
DA:1962,0
DA:1963,0
DA:1968,0
DA:1969,0
DA:1972,0
DA:1975,0
DA:1976,0
DA:1977,0
DA:1984,0
DA:1985,0
DA:1990,0
DA:1992,0
DA:1993,0
DA:1995,0
DA:1996,0
DA:1998,0
DA:1999,0
DA:2000,0
DA:2001,0
DA:2002,0
DA:2003,0
DA:2004,0
DA:2006,0
DA:2009,0
DA:2010,0
DA:2014,0
DA:2015,0
DA:2017,0
DA:2018,0
DA:2020,0
DA:2021,0
DA:2027,0
DA:2028,0
DA:2031,0
DA:2032,0
DA:2034,0
DA:2035,0
DA:2037,0
DA:2039,0
DA:2041,0
DA:2043,0
DA:2044,0
DA:2049,0
DA:2050,0
DA:2052,0
DA:2060,0
DA:2062,0
DA:2063,0
DA:2065,0
DA:2067,0
DA:2070,0
DA:2071,0
DA:2073,0
DA:2074,0
DA:2076,0
DA:2077,0
DA:2078,0
DA:2079,0
DA:2081,0
DA:2083,0
DA:2086,0
DA:2087,0
DA:2088,0
DA:2089,0
DA:2091,0
DA:2092,0
DA:2094,0
DA:2095,0
DA:2096,0
DA:2100,0
DA:2102,0
DA:2104,0
DA:2105,0
DA:2111,0
DA:2112,0
DA:2113,0
DA:2115,0
DA:2117,0
DA:2118,0
DA:2119,0
DA:2122,0
DA:2123,0
DA:2124,0
DA:2125,0
DA:2128,0
DA:2130,0
DA:2133,0
DA:2135,0
DA:2136,0
DA:2138,0
DA:2139,0
DA:2140,0
DA:2141,0
DA:2144,0
DA:2148,0
DA:2152,0
DA:2153,0
DA:2155,0
DA:2159,0
DA:2160,0
DA:2161,0
DA:2162,0
DA:2163,0
DA:2164,0
DA:2165,0
DA:2166,0
DA:2169,0
DA:2171,0
DA:2173,0
DA:2176,0
DA:2179,0
DA:2180,0
DA:2184,0
DA:2185,0
DA:2187,0
DA:2189,0
DA:2190,0
DA:2192,0
DA:2193,0
DA:2195,0
DA:2196,0
DA:2198,0
DA:2203,0
DA:2204,0
DA:2205,0
DA:2208,0
DA:2209,0
DA:2210,0
DA:2214,0
DA:2219,0
DA:2223,0
DA:2225,0
DA:2226,0
DA:2227,0
DA:2229,0
DA:2237,0
DA:2241,0
DA:2243,0
DA:2244,0
DA:2245,0
DA:2247,0
DA:2251,0
DA:2252,0
DA:2257,0
DA:2264,0
DA:2265,0
DA:2266,0
DA:2267,0
DA:2268,0
DA:2269,0
DA:2271,0
DA:2272,0
DA:2273,0
DA:2274,0
DA:2279,0
DA:2280,0
DA:2283,0
DA:2286,0
DA:2287,0
DA:2292,0
DA:2299,0
DA:2300,0
DA:2302,0
DA:2303,0
DA:2305,0
DA:2306,0
DA:2307,0
DA:2308,0
DA:2309,0
DA:2310,0
DA:2311,0
DA:2313,0
DA:2316,0
DA:2317,0
DA:2321,0
DA:2322,0
DA:2324,0
DA:2325,0
DA:2327,0
DA:2328,0
DA:2334,0
DA:2335,0
DA:2338,0
DA:2339,0
DA:2341,0
DA:2342,0
DA:2344,0
DA:2346,0
DA:2348,0
DA:2349,0
DA:2354,0
DA:2355,0
DA:2357,0
DA:2365,0
DA:2367,0
DA:2368,0
DA:2370,0
DA:2372,0
DA:2375,0
DA:2376,0
DA:2378,0
DA:2379,0
DA:2381,0
DA:2382,0
DA:2383,0
DA:2384,0
DA:2386,0
DA:2388,0
DA:2391,0
DA:2392,0
DA:2393,0
DA:2394,0
DA:2396,0
DA:2397,0
DA:2399,0
DA:2400,0
DA:2401,0
DA:2405,0
DA:2407,0
DA:2409,0
DA:2410,0
DA:2416,0
DA:2417,0
DA:2418,0
DA:2420,0
DA:2422,0
DA:2423,0
DA:2424,0
DA:2427,0
DA:2428,0
DA:2429,0
DA:2430,0
DA:2433,0
DA:2435,0
DA:2438,0
DA:2440,0
DA:2441,0
DA:2443,0
DA:2444,0
DA:2445,0
DA:2446,0
DA:2449,0
DA:2453,0
DA:2457,0
DA:2458,0
DA:2460,0
DA:2464,0
DA:2465,0
DA:2466,0
DA:2467,0
DA:2468,0
DA:2469,0
DA:2470,0
DA:2471,0
DA:2474,0
DA:2476,0
DA:2478,0
DA:2481,0
DA:2484,0
DA:2485,0
DA:2489,0
DA:2490,0
DA:2492,0
DA:2494,0
DA:2495,0
DA:2497,0
DA:2498,0
DA:2500,0
DA:2501,0
DA:2503,0
DA:2508,0
DA:2509,0
DA:2511,0
DA:2512,0
DA:2515,0
DA:2516,0
DA:2517,0
DA:2521,0
DA:2523,0
DA:2524,0
DA:2525,0
DA:2527,0
DA:2528,0
DA:2529,0
DA:2530,0
DA:2531,0
DA:2533,0
DA:2535,0
DA:2536,0
DA:2537,0
DA:2538,0
DA:2540,0
DA:2541,0
DA:2542,0
DA:2543,0
DA:2544,0
DA:2548,0
DA:2549,0
DA:2553,0
DA:2559,0
DA:2560,0
DA:2562,0
DA:2563,0
DA:2564,0
DA:2565,0
DA:2566,0
DA:2568,0
DA:2569,0
DA:2570,0
DA:2574,0
DA:2584,0
DA:2585,0
DA:2586,0
DA:2587,0
DA:2588,0
DA:2589,0
DA:2590,0
DA:2591,0
DA:2593,0
DA:2595,0
DA:2597,0
DA:2598,0
DA:2600,0
DA:2601,0
DA:2602,0
DA:2603,0
DA:2606,0
DA:2607,0
DA:2608,0
DA:2611,0
DA:2612,0
DA:2613,0
DA:2614,0
DA:2615,0
DA:2616,0
DA:2617,0
DA:2618,0
DA:2622,0
DA:2623,0
DA:2625,0
DA:2626,0
DA:2630,0
DA:2632,0
DA:2634,0
DA:2636,0
DA:2638,0
DA:2639,0
DA:2641,0
DA:2642,0
DA:2645,0
DA:2646,0
DA:2648,0
DA:2654,0
DA:2657,0
DA:2658,0
DA:2659,0
DA:2661,0
DA:2670,0
DA:2671,0
DA:2672,0
DA:2673,0
DA:2674,0
DA:2677,0
DA:2678,0
DA:2679,0
DA:2681,0
DA:2682,0
DA:2684,0
DA:2686,0
DA:2692,0
DA:2693,0
DA:2694,0
DA:2696,0
DA:2697,0
DA:2699,0
DA:2701,0
DA:2702,0
DA:2705,0
DA:2706,0
DA:2707,0
DA:2710,0
DA:2713,0
DA:2714,0
DA:2717,0
DA:2718,0
DA:2719,0
DA:2720,0
DA:2721,0
DA:2722,0
DA:2724,0
DA:2727,0
DA:2731,0
DA:2732,0
DA:2734,0
DA:2737,0
DA:2739,0
DA:2740,0
DA:2741,0
DA:2742,0
DA:2743,0
DA:2744,0
DA:2745,0
DA:2746,0
DA:2748,0
DA:2752,0
DA:2753,0
DA:2754,0
DA:2755,0
DA:2756,0
DA:2757,0
DA:2758,0
DA:2759,0
DA:2760,0
DA:2761,0
DA:2763,0
DA:2765,0
DA:2766,0
DA:2770,0
DA:2771,0
DA:2772,0
DA:2775,0
DA:2777,0
DA:2778,0
DA:2779,0
DA:2783,0
DA:2784,0
DA:2785,0
DA:2789,0
DA:2792,0
DA:2793,0
DA:2796,0
DA:2797,0
DA:2798,0
DA:2799,0
DA:2800,0
DA:2801,0
DA:2803,0
DA:2806,0
DA:2810,0
DA:2811,0
DA:2813,0
DA:2816,0
DA:2818,0
DA:2819,0
DA:2822,0
DA:2825,0
DA:2826,0
DA:2827,0
DA:2829,0
DA:2831,0
DA:2833,0
DA:2834,0
DA:2835,0
DA:2837,0
DA:2838,0
DA:2839,0
DA:2840,0
DA:2841,0
DA:2842,0
DA:2843,0
DA:2844,0
DA:2845,0
DA:2846,0
DA:2848,0
DA:2850,0
DA:2851,0
DA:2852,0
DA:2853,0
DA:2854,0
DA:2855,0
DA:2857,0
DA:2859,0
DA:2860,0
DA:2861,0
DA:2862,0
DA:2863,0
DA:2864,0
DA:2866,0
DA:2868,0
DA:2873,0
DA:2876,0
DA:2877,0
DA:2879,0
DA:2880,0
DA:2882,0
DA:2885,0
DA:2886,0
DA:2889,0
DA:2890,0
DA:2891,0
DA:2894,0
DA:2896,0
DA:2897,0
DA:2910,0
DA:2911,0
DA:2912,0
DA:2913,0
DA:2914,0
DA:2919,0
DA:2920,0
DA:2922,0
DA:2924,0
DA:2925,0
DA:2926,0
DA:2927,0
DA:2928,0
DA:2930,0
DA:2933,0
DA:2934,0
DA:2935,0
DA:2936,0
DA:2937,0
DA:2940,0
DA:2941,0
DA:2942,0
DA:2945,0
DA:2946,0
DA:2947,0
DA:2951,0
DA:2953,0
DA:2954,0
DA:2955,0
DA:2956,0
DA:2957,0
DA:2959,0
DA:2963,0
DA:2966,0
DA:2967,0
DA:2968,0
DA:2969,0
DA:2970,0
DA:2972,0
DA:2975,0
DA:2976,0
DA:2978,0
DA:2981,0
DA:2983,0
DA:2984,0
DA:2985,0
DA:2987,0
DA:2988,0
DA:2993,0
DA:2998,0
DA:2999,0
DA:3001,0
DA:3002,0
DA:3004,0
DA:3006,0
DA:3007,0
DA:3009,0
DA:3010,0
DA:3011,0
DA:3012,0
DA:3013,0
DA:3016,0
DA:3018,0
DA:3021,0
DA:3022,0
DA:3023,0
DA:3028,0
DA:3030,0
DA:3031,0
DA:3032,0
DA:3034,0
DA:3035,0
DA:3040,0
DA:3042,0
DA:3043,0
DA:3044,0
DA:3045,0
DA:3046,0
DA:3047,0
DA:3048,0
DA:3049,0
DA:3052,0
DA:3053,0
DA:3054,0
DA:3057,0
DA:3059,0
DA:3060,0
DA:3063,0
DA:3064,0
DA:3068,0
DA:3069,0
DA:3071,0
DA:3072,0
DA:3076,0
DA:3077,0
DA:3078,0
DA:3081,0
DA:3082,0
DA:3083,0
DA:3085,0
DA:3086,0
DA:3087,0
DA:3088,0
DA:3089,0
DA:3091,0
DA:3092,0
DA:3094,0
DA:3095,0
DA:3098,0
DA:3101,0
DA:3102,0
DA:3103,0
DA:3104,0
DA:3108,0
DA:3109,0
DA:3110,0
DA:3113,0
DA:3116,0
DA:3117,0
DA:3119,0
DA:3120,0
DA:3123,0
DA:3125,0
DA:3126,0
DA:3127,0
DA:3131,0
DA:3132,0
DA:3133,0
DA:3135,0
DA:3136,0
DA:3138,0
DA:3139,0
DA:3140,0
DA:3141,0
DA:3145,0
DA:3146,0
DA:3150,0
DA:3151,0
DA:3152,0
DA:3153,0
DA:3154,0
DA:3155,0
DA:3157,0
DA:3158,0
DA:3160,0
DA:3161,0
DA:3162,0
DA:3163,0
DA:3164,0
DA:3165,0
DA:3169,0
DA:3170,0
DA:3171,0
DA:3172,0
DA:3173,0
DA:3174,0
DA:3175,0
DA:3176,0
DA:3181,0
DA:3183,0
DA:3184,0
DA:3189,0
DA:3190,0
DA:3191,0
DA:3192,0
DA:3193,0
DA:3194,0
DA:3195,0
DA:3196,0
DA:3199,0
DA:3200,0
DA:3201,0
DA:3205,0
DA:3207,0
DA:3208,0
DA:3210,0
DA:3211,0
DA:3213,0
DA:3215,0
DA:3217,0
DA:3218,0
DA:3219,0
DA:3220,0
DA:3222,0
DA:3223,0
DA:3226,0
DA:3227,0
DA:3229,0
DA:3230,0
DA:3235,0
DA:3239,0
DA:3240,0
DA:3241,0
DA:3242,0
DA:3243,0
DA:3244,0
DA:3246,0
DA:3247,0
DA:3248,0
DA:3249,0
DA:3250,0
DA:3251,0
DA:3252,0
DA:3258,0
DA:3260,0
DA:3261,0
DA:3267,0
DA:3268,0
DA:3269,0
DA:3270,0
DA:3271,0
DA:3274,0
DA:3277,0
DA:3278,0
DA:3280,0
DA:3281,0
DA:3282,0
DA:3283,0
DA:3286,0
DA:3287,0
DA:3290,0
DA:3298,0
DA:3299,0
DA:3301,0
DA:3303,0
DA:3304,0
DA:3305,0
DA:3308,0
DA:3310,0
DA:3314,0
DA:3316,0
DA:3318,0
DA:3319,0
DA:3322,0
DA:3324,0
DA:3325,0
DA:3326,0
DA:3327,0
DA:3329,0
DA:3330,0
DA:3331,0
DA:3332,0
DA:3335,0
DA:3337,0
DA:3339,0
DA:3345,0
DA:3346,0
DA:3347,0
DA:3351,0
DA:3353,0
DA:3354,0
DA:3357,0
DA:3360,0
DA:3362,0
DA:3363,0
DA:3365,0
DA:3367,0
DA:3370,0
DA:3371,0
DA:3372,0
DA:3375,0
DA:3376,0
DA:3379,0
DA:3380,0
DA:3384,0
DA:3386,0
DA:3387,0
DA:3389,0
DA:3393,0
DA:3399,0
DA:3400,0
DA:3401,0
DA:3402,0
DA:3403,0
DA:3404,0
DA:3405,0
DA:3406,0
DA:3409,0
DA:3411,0
DA:3412,0
DA:3413,0
DA:3415,0
DA:3418,0
DA:3419,0
DA:3424,0
DA:3434,0
DA:3436,0
DA:3437,0
DA:3438,0
DA:3440,0
DA:3441,0
DA:3442,0
DA:3444,0
DA:3445,0
DA:3446,0
DA:3448,0
DA:3449,0
DA:3451,0
DA:3452,0
DA:3455,0
DA:3456,0
DA:3457,0
DA:3458,0
DA:3459,0
DA:3460,0
DA:3461,0
DA:3462,0
DA:3464,0
DA:3468,0
DA:3470,0
DA:3471,0
DA:3474,0
DA:3475,0
DA:3477,0
DA:3478,0
DA:3479,0
DA:3480,0
DA:3483,0
DA:3484,0
DA:3485,0
DA:3486,0
DA:3487,0
DA:3488,0
DA:3490,0
DA:3491,0
DA:3492,0
DA:3493,0
DA:3494,0
DA:3495,0
DA:3496,0
DA:3497,0
DA:3498,0
DA:3499,0
DA:3500,0
DA:3501,0
DA:3512,0
DA:3514,0
DA:3517,0
DA:3518,0
DA:3525,0
DA:3526,0
DA:3527,0
DA:3528,0
DA:3529,0
DA:3530,0
DA:3531,0
DA:3532,0
DA:3533,0
DA:3536,0
DA:3537,0
DA:3539,0
DA:3540,0
DA:3542,0
DA:3543,0
DA:3544,0
DA:3545,0
DA:3548,0
DA:3550,0
DA:3552,0
DA:3554,0
DA:3556,0
DA:3559,0
DA:3561,0
DA:3564,0
DA:3565,0
DA:3569,0
DA:3571,0
DA:3574,0
DA:3576,0
DA:3580,0
DA:3581,0
DA:3584,0
DA:3585,0
DA:3586,0
DA:3587,0
DA:3588,0
DA:3589,0
DA:3590,0
DA:3591,0
DA:3593,0
DA:3595,0
DA:3597,0
DA:3600,0
DA:3603,0
DA:3604,0
DA:3607,0
DA:3613,0
DA:3614,0
DA:3615,0
DA:3616,0
DA:3618,0
DA:3620,0
DA:3622,0
DA:3624,0
DA:3626,0
DA:3627,0
DA:3631,0
DA:3632,0
DA:3633,0
DA:3634,0
DA:3635,0
DA:3636,0
DA:3639,0
DA:3640,0
DA:3642,0
DA:3643,0
DA:3644,0
DA:3649,0
DA:3650,0
DA:3651,0
DA:3652,0
DA:3653,0
DA:3654,0
DA:3655,0
DA:3656,0
DA:3657,0
DA:3666,0
DA:3668,0
DA:3669,0
DA:3671,0
DA:3672,0
DA:3675,0
DA:3677,0
DA:3683,0
DA:3684,0
DA:3685,0
DA:3688,0
DA:3690,0
DA:3691,0
DA:3692,0
DA:3695,0
DA:3698,0
DA:3700,0
DA:3706,0
DA:3707,0
DA:3708,0
DA:3709,0
DA:3712,0
DA:3715,0
DA:3716,0
DA:3719,0
DA:3721,0
DA:3726,0
DA:3727,0
DA:3729,0
DA:3735,0
DA:3736,0
DA:3737,0
DA:3740,0
DA:3742,0
DA:3743,0
DA:3744,0
DA:3747,0
DA:3750,0
DA:3752,0
DA:3758,0
DA:3759,0
DA:3760,0
DA:3761,0
DA:3762,0
DA:3763,0
DA:3766,0
DA:3768,0
DA:3771,0
DA:3772,0
DA:3774,0
DA:3775,0
DA:3776,0
DA:3778,0
DA:3779,0
DA:3782,0
DA:3784,0
DA:3785,0
DA:3788,0
DA:3789,0
DA:3793,0
DA:3796,0
DA:3799,0
DA:3800,0
DA:3803,0
DA:3806,0
DA:3808,0
DA:3809,0
DA:3810,0
DA:3815,0
DA:3816,0
DA:3817,0
DA:3818,0
DA:3821,0
DA:3824,0
DA:3825,0
DA:3828,0
DA:3829,0
DA:3832,0
DA:3833,0
DA:3834,0
DA:3835,0
DA:3840,0
DA:3845,0
DA:3846,0
DA:3848,0
DA:3854,0
DA:3855,0
DA:3856,0
DA:3857,0
DA:3860,0
DA:3862,0
DA:3863,0
DA:3864,0
DA:3867,0
DA:3870,0
DA:3873,0
DA:3875,0
DA:3881,0
DA:3882,0
DA:3883,0
DA:3886,0
DA:3888,0
DA:3891,0
DA:3892,0
DA:3894,0
DA:3895,0
DA:3896,0
DA:3897,0
DA:3900,0
DA:3901,0
DA:3904,0
DA:3905,0
DA:3908,0
DA:3911,0
DA:3914,0
DA:3916,0
DA:3917,0
DA:3919,0
DA:3920,0
DA:3922,0
DA:3925,0
DA:3926,0
DA:3929,0
DA:3932,0
DA:3934,0
DA:3936,0
DA:3940,0
DA:3941,0
DA:3946,0
DA:3947,0
DA:3948,0
DA:3949,0
DA:3952,0
DA:3955,0
DA:3956,0
DA:3958,0
DA:3959,0
DA:3962,0
DA:3963,0
DA:3964,0
DA:3965,0
DA:3968,0
DA:3969,0
DA:3970,0
DA:3971,0
DA:3974,0
DA:3975,0
DA:3976,0
DA:3977,0
DA:3981,0
DA:3986,0
DA:3987,0
DA:3989,0
DA:3995,0
DA:3996,0
DA:3997,0
DA:3998,0
DA:3999,0
DA:4000,0
DA:4001,0
DA:4004,0
DA:4007,0
DA:4008,0
DA:4010,0
DA:4011,0
DA:4012,0
DA:4013,0
DA:4014,0
DA:4015,0
DA:4016,0
DA:4017,0
DA:4020,0
DA:4022,0
DA:4025,0
DA:4026,0
DA:4028,0
DA:4030,0
DA:4032,0
DA:4034,0
DA:4037,0
DA:4038,0
DA:4041,0
DA:4042,0
DA:4043,0
DA:4045,0
DA:4047,0
DA:4048,0
DA:4051,0
DA:4053,0
DA:4054,0
DA:4055,0
DA:4057,0
DA:4059,0
DA:4062,0
DA:4063,0
DA:4065,0
DA:4067,0
DA:4071,0
DA:4073,0
DA:4075,0
DA:4076,0
DA:4078,0
DA:4079,0
DA:4080,0
DA:4086,0
DA:4087,0
DA:4088,0
DA:4092,0
DA:4093,0
DA:4095,0
DA:4096,0
DA:4098,0
DA:4104,0
DA:4105,0
DA:4106,0
DA:4107,0
DA:4110,0
DA:4111,0
DA:4112,0
DA:4116,0
DA:4117,0
DA:4118,0
DA:4119,0
DA:4120,0
DA:4121,0
DA:4122,0
DA:4125,0
DA:4127,0
DA:4130,0
DA:4131,0
DA:4133,0
DA:4135,0
DA:4137,0
DA:4139,0
DA:4142,0
DA:4143,0
DA:4146,0
DA:4148,0
DA:4154,0
DA:4160,0
DA:4161,0
DA:4164,0
DA:4170,0
DA:4171,0
DA:4172,0
DA:4173,0
DA:4174,0
DA:4175,0
DA:4177,0
DA:4182,0
DA:4183,0
DA:4185,0
DA:4187,0
DA:4188,0
DA:4189,0
DA:4193,0
DA:4194,0
DA:4197,0
DA:4200,0
DA:4201,0
DA:4202,0
DA:4203,0
DA:4204,0
DA:4206,0
DA:4212,0
DA:4214,0
DA:4220,0
DA:4221,0
DA:4223,0
DA:4224,0
DA:4225,0
DA:4226,0
DA:4228,0
DA:4230,0
DA:4231,0
DA:4232,0
DA:4235,0
DA:4242,0
DA:4243,0
DA:4244,0
DA:4246,0
DA:4248,0
DA:4249,0
DA:4250,0
DA:4253,0
DA:4255,0
DA:4256,0
DA:4257,0
DA:4260,0
DA:4263,0
DA:4264,0
DA:4265,0
DA:4266,0
DA:4267,0
DA:4268,0
DA:4270,0
DA:4271,0
DA:4273,0
DA:4274,0
DA:4275,0
DA:4276,0
DA:4279,0
DA:4280,0
DA:4283,0
DA:4286,0
DA:4287,0
DA:4288,0
DA:4289,0
DA:4290,0
DA:4291,0
DA:4292,0
DA:4294,0
DA:4295,0
DA:4296,0
DA:4297,0
DA:4298,0
DA:4300,0
DA:4302,0
DA:4303,0
DA:4304,0
DA:4305,0
DA:4306,0
DA:4307,0
DA:4309,0
DA:4310,0
DA:4311,0
DA:4314,0
DA:4316,0
DA:4319,0
DA:4322,0
DA:4324,0
DA:4328,0
DA:4329,0
DA:4331,0
DA:4332,0
DA:4333,0
DA:4334,0
DA:4335,0
DA:4336,0
DA:4338,0
DA:4339,0
DA:4342,0
DA:4344,0
DA:4345,0
DA:4346,0
DA:4348,0
DA:4350,0
DA:4351,0
DA:4354,0
DA:4355,0
DA:4356,0
DA:4357,0
DA:4360,0
DA:4361,0
DA:4362,0
DA:4364,0
DA:4365,0
DA:4369,0
DA:4370,0
DA:4371,0
DA:4372,0
DA:4373,0
DA:4374,0
DA:4376,0
DA:4378,0
DA:4380,0
DA:4383,0
DA:4386,0
DA:4387,0
DA:4389,0
DA:4393,0
DA:4394,0
DA:4395,0
DA:4397,0
DA:4398,0
DA:4400,0
DA:4408,0
DA:4409,0
DA:4410,0
DA:4413,0
DA:4414,0
DA:4415,0
DA:4418,0
DA:4420,0
DA:4421,0
DA:4422,0
DA:4423,0
DA:4424,0
DA:4426,0
DA:4427,0
DA:4430,0
DA:4433,0
DA:4434,0
DA:4435,0
DA:4436,0
DA:4437,0
DA:4438,0
DA:4439,0
DA:4440,0
DA:4442,0
DA:4443,0
DA:4445,0
DA:4446,0
DA:4447,0
DA:4448,0
DA:4451,0
DA:4452,0
DA:4455,0
DA:4459,0
DA:4460,0
DA:4461,0
DA:4462,0
DA:4463,0
DA:4466,0
DA:4467,0
DA:4468,0
DA:4469,0
DA:4472,0
DA:4473,0
DA:4475,0
DA:4476,0
DA:4477,0
DA:4478,0
DA:4479,0
DA:4481,0
DA:4482,0
DA:4483,0
DA:4484,0
DA:4485,0
DA:4487,0
DA:4489,0
DA:4490,0
DA:4491,0
DA:4492,0
DA:4494,0
DA:4495,0
DA:4496,0
DA:4499,0
DA:4501,0
DA:4504,0
DA:4507,0
DA:4509,0
DA:4514,0
DA:4515,0
DA:4516,0
DA:4517,0
DA:4519,0
DA:4520,0
DA:4521,0
DA:4523,0
DA:4525,0
DA:4526,0
DA:4528,0
DA:4529,0
DA:4530,0
DA:4531,0
DA:4534,0
DA:4535,0
DA:4536,0
DA:4537,0
DA:4538,0
DA:4542,0
DA:4543,0
DA:4544,0
DA:4545,0
DA:4547,0
DA:4548,0
DA:4550,0
DA:4552,0
DA:4554,0
DA:4557,0
DA:4560,0
DA:4561,0
DA:4563,0
DA:4567,0
DA:4568,0
DA:4571,0
DA:4573,0
DA:4574,0
DA:4575,0
DA:4577,0
DA:4584,0
DA:4585,0
DA:4587,0
DA:4588,0
DA:4590,0
DA:4593,0
DA:4595,0
DA:4596,0
DA:4597,0
DA:4598,0
DA:4599,0
DA:4602,0
DA:4604,0
DA:4605,0
DA:4606,0
DA:4607,0
DA:4608,0
DA:4609,0
DA:4610,0
DA:4611,0
DA:4613,0
DA:4615,0
DA:4617,0
DA:4618,0
DA:4619,0
DA:4620,0
DA:4622,0
DA:4623,0
DA:4624,0
DA:4627,0
DA:4630,0
DA:4633,0
DA:4636,0
DA:4638,0
DA:4642,0
DA:4643,0
DA:4644,0
DA:4645,0
DA:4646,0
DA:4648,0
DA:4649,0
DA:4650,0
DA:4652,0
DA:4655,0
DA:4656,0
DA:4657,0
DA:4658,0
DA:4659,0
DA:4660,0
DA:4663,0
DA:4664,0
DA:4665,0
DA:4666,0
DA:4667,0
DA:4669,0
DA:4670,0
DA:4672,0
DA:4675,0
DA:4676,0
DA:4679,0
DA:4680,0
DA:4681,0
DA:4683,0
DA:4685,0
DA:4686,0
DA:4689,0
DA:4691,0
DA:4693,0
DA:4696,0
DA:4699,0
DA:4700,0
DA:4702,0
DA:4706,0
DA:4707,0
DA:4709,0
DA:4711,0
DA:4712,0
DA:4714,0
DA:4721,0
DA:4722,0
DA:4723,0
DA:4725,0
DA:4726,0
DA:4728,0
DA:4731,0
DA:4733,0
DA:4734,0
DA:4735,0
DA:4736,0
DA:4737,0
DA:4740,0
DA:4742,0
DA:4743,0
DA:4744,0
DA:4745,0
DA:4746,0
DA:4747,0
DA:4748,0
DA:4749,0
DA:4750,0
DA:4752,0
DA:4754,0
DA:4756,0
DA:4758,0
DA:4759,0
DA:4761,0
DA:4763,0
DA:4764,0
DA:4766,0
DA:4767,0
DA:4768,0
DA:4771,0
DA:4774,0
DA:4777,0
DA:4780,0
DA:4783,0
DA:4787,0
DA:4789,0
DA:4790,0
DA:4791,0
DA:4792,0
DA:4793,0
DA:4795,0
DA:4796,0
DA:4797,0
DA:4799,0
DA:4800,0
DA:4806,0
DA:4808,0
DA:4809,0
DA:4811,0
DA:4812,0
DA:4813,0
DA:4814,0
DA:4817,0
DA:4818,0
DA:4819,0
DA:4826,0
DA:4827,0
DA:4828,0
DA:4830,0
DA:4832,0
DA:4833,0
DA:4836,0
DA:4838,0
DA:4840,0
DA:4843,0
DA:4846,0
DA:4847,0
DA:4849,0
DA:4853,0
DA:4854,0
DA:4856,0
DA:4858,0
DA:4859,0
DA:4861,0
DA:4870,0
DA:4871,0
DA:4872,0
DA:4873,0
DA:4874,0
DA:4875,0
DA:4876,0
DA:4877,0
DA:4878,0
DA:4879,0
DA:4880,0
DA:4881,0
DA:4882,0
DA:4883,0
DA:4885,0
DA:4888,0
DA:4891,0
DA:4892,0
DA:4893,0
DA:4895,0
DA:4899,0
DA:4900,0
DA:4901,0
DA:4903,0
DA:4908,0
DA:4909,0
DA:4914,0
DA:4916,0
DA:4917,0
DA:4920,0
DA:4921,0
DA:4922,0
DA:4925,0
DA:4927,0
DA:4928,0
DA:4929,0
DA:4932,0
DA:4933,0
DA:4936,0
DA:4939,0
DA:4940,0
DA:4941,0
DA:4942,0
DA:4943,0
DA:4944,0
DA:4945,0
DA:4946,0
DA:4947,0
DA:4948,0
DA:4951,0
DA:4952,0
DA:4956,0
DA:4959,0
DA:4960,0
DA:4961,0
DA:4962,0
DA:4964,0
DA:4965,0
DA:4966,0
DA:4967,0
DA:4968,0
DA:4970,0
DA:4971,0
DA:4974,0
DA:4977,0
DA:4978,0
DA:4979,0
DA:4984,0
DA:4985,0
DA:4986,0
DA:4987,0
DA:4991,0
DA:4992,0
DA:4993,0
DA:4994,0
DA:4999,0
DA:5000,0
DA:5003,0
DA:5005,0
DA:5008,0
DA:5011,0
DA:5012,0
DA:5013,0
DA:5017,0
DA:5018,0
DA:5019,0
DA:5022,0
DA:5023,0
DA:5024,0
DA:5025,0
DA:5026,0
DA:5027,0
DA:5029,0
DA:5030,0
DA:5032,0
DA:5034,0
DA:5035,0
DA:5037,0
DA:5038,0
DA:5039,0
DA:5040,0
DA:5042,0
DA:5044,0
DA:5046,0
DA:5049,0
DA:5052,0
DA:5053,0
DA:5055,0
DA:5060,0
DA:5064,0
DA:5065,0
DA:5066,0
DA:5069,0
DA:5070,0
DA:5071,0
DA:5072,0
DA:5073,0
DA:5074,0
DA:5076,0
DA:5077,0
DA:5079,0
DA:5081,0
DA:5082,0
DA:5083,0
DA:5085,0
DA:5087,0
DA:5088,0
DA:5089,0
DA:5091,0
DA:5093,0
DA:5095,0
DA:5098,0
DA:5101,0
DA:5102,0
DA:5104,0
DA:5106,0
DA:5109,0
DA:5111,0
DA:5112,0
DA:5114,0
DA:5115,0
DA:5116,0
DA:5117,0
DA:5118,0
DA:5119,0
DA:5121,0
DA:5122,0
DA:5123,0
DA:5125,0
DA:5126,0
DA:5127,0
DA:5128,0
DA:5130,0
DA:5131,0
DA:5133,0
DA:5137,0
DA:5138,0
DA:5139,0
DA:5143,0
DA:5145,0
DA:5147,0
DA:5150,0
DA:5153,0
DA:5154,0
DA:5156,0
DA:5158,0
DA:5161,0
DA:5162,0
DA:5164,0
DA:5167,0
DA:5168,0
DA:5170,0
DA:5171,0
DA:5176,0
DA:5177,0
DA:5178,0
DA:5179,0
DA:5180,0
DA:5182,0
DA:5183,0
DA:5184,0
DA:5185,0
DA:5186,0
DA:5187,0
DA:5189,0
DA:5190,0
DA:5196,0
DA:5197,0
DA:5204,0
DA:5205,0
DA:5206,0
DA:5207,0
DA:5208,0
DA:5209,0
DA:5213,0
DA:5214,0
end_of_record
SF:/usr/include/c++/9/cmath
DA:1582,0
DA:1583,0
end_of_record
SF:/usr/include/c++/9/ext/type_traits.h
DA:152,0
end_of_record
SF:/usr/include/c++/9/bits/alloc_traits.h
DA:469,0
DA:470,0
DA:514,0
DA:515,0
end_of_record
SF:/usr/include/c++/9/bits/stl_construct.h
DA:117,0
DA:127,0
DA:137,0
DA:203,0
DA:206,0
end_of_record
SF:/usr/include/string.h
DA:317,0
DA:319,0
end_of_record
SF:/usr/include/c++/9/bits/basic_string.h
FN:6057,_ZStplIcSt11char_traitsIcESaIcEENSt7__cxx1112basic_stringIT_T0_T1_EERKS8_PKS5_
FNDA:0,_ZStplIcSt11char_traitsIcESaIcEENSt7__cxx1112basic_stringIT_T0_T1_EERKS8_PKS5_
FN:6109,_ZStplIcSt11char_traitsIcESaIcEENSt7__cxx1112basic_stringIT_T0_T1_EEPKS5_OS8_
FNDA:0,_ZStplIcSt11char_traitsIcESaIcEENSt7__cxx1112basic_stringIT_T0_T1_EEPKS5_OS8_
FN:6121,_ZStplIcSt11char_traitsIcESaIcEENSt7__cxx1112basic_stringIT_T0_T1_EEOS8_PKS5_
FNDA:0,_ZStplIcSt11char_traitsIcESaIcEENSt7__cxx1112basic_stringIT_T0_T1_EEOS8_PKS5_
DA:150,0
DA:156,0
DA:157,0
DA:159,0
DA:160,0
DA:178,0
DA:179,0
DA:182,0
DA:183,0
DA:186,0
DA:190,0
DA:193,0
DA:200,0
DA:203,0
DA:210,0
DA:211,0
DA:214,0
DA:216,0
DA:217,0
DA:221,0
DA:222,0
DA:229,0
DA:231,0
DA:232,0
DA:236,0
DA:237,0
DA:243,0
DA:247,0
DA:263,0
DA:266,0
DA:286,0
DA:287,0
DA:290,0
DA:291,0
DA:346,0
DA:348,0
DA:349,0
DA:351,0
DA:392,0
DA:393,0
DA:396,0
DA:398,0
DA:448,0
DA:450,0
DA:451,0
DA:540,0
DA:541,0
DA:542,0
DA:552,0
DA:553,0
DA:555,0
DA:557,0
DA:562,0
DA:563,0
DA:569,0
DA:570,0
DA:571,0
DA:625,0
DA:627,0
DA:628,0
DA:657,0
DA:658,0
DA:930,0
DA:936,0
DA:2300,0
DA:2301,0
DA:2312,0
DA:2313,0
DA:6057,0
DA:6060,0
DA:6061,0
DA:6062,0
DA:6109,0
DA:6111,0
DA:6121,0
DA:6123,0
DA:6416,0
DA:6421,0
DA:6546,0
DA:6547,0
DA:6548,0
DA:6557,0
DA:6558,0
DA:6559,0
end_of_record
SF:/workspace/vtr-verilog-to-routing/libs/librtlnumber/src/include/internal_bits.hpp
FN:308,_ZN8BitSpaceL13bits_to_hex_cEsb
FNDA:0,_ZN8BitSpaceL13bits_to_hex_cEsb
FN:505,_ZN8BitSpace11VerilogBits9to_stringB5cxx11Ebb
FNDA:0,_ZN8BitSpace11VerilogBits9to_stringB5cxx11Ebb
FN:520,_ZN8BitSpace11VerilogBits10to_UstringB5cxx11Eb
FNDA:0,_ZN8BitSpace11VerilogBits10to_UstringB5cxx11Eb
FN:535,_ZN8BitSpace11VerilogBits12to_log2radixB5cxx11Esb
FNDA:0,_ZN8BitSpace11VerilogBits12to_log2radixB5cxx11Esb
FN:554,_ZN8BitSpace11VerilogBits12to_printableB5cxx11Ev
FNDA:0,_ZN8BitSpace11VerilogBits12to_printableB5cxx11Ev
FN:778,_ZN7VNumber9get_valueEv
FNDA:0,_ZN7VNumber9get_valueEv
FN:812,_ZN7VNumber10to_vstringB5cxx11Ec
FNDA:0,_ZN7VNumber10to_vstringB5cxx11Ec
FN:972,_ZN7VNumber16get_bit_from_msbEm
FNDA:0,_ZN7VNumber16get_bit_from_msbEm
DA:286,0
DA:287,0
DA:290,0
DA:291,0
DA:292,0
DA:293,0
DA:294,0
DA:295,0
DA:299,0
DA:300,0
DA:303,0
DA:304,0
DA:308,0
DA:309,0
DA:312,0
DA:313,0
DA:314,0
DA:315,0
DA:316,0
DA:317,0
DA:318,0
DA:319,0
DA:320,0
DA:321,0
DA:322,0
DA:323,0
DA:324,0
DA:325,0
DA:326,0
DA:327,0
DA:328,0
DA:329,0
DA:330,0
DA:331,0
DA:332,0
DA:333,0
DA:334,0
DA:335,0
DA:336,0
DA:337,0
DA:338,0
DA:339,0
DA:340,0
DA:341,0
DA:342,0
DA:343,0
DA:346,0
DA:349,0
DA:371,0
DA:372,0
DA:373,0
DA:374,0
DA:385,0
DA:386,0
DA:387,0
DA:389,0
DA:411,0
DA:413,0
DA:414,0
DA:420,0
DA:435,0
DA:436,0
DA:465,0
DA:466,0
DA:473,0
DA:481,0
DA:484,0
DA:492,0
DA:505,0
DA:507,0
DA:508,0
DA:509,0
DA:510,0
DA:511,0
DA:513,0
DA:517,0
DA:520,0
DA:522,0
DA:523,0
DA:524,0
DA:525,0
DA:526,0
DA:528,0
DA:532,0
DA:535,0
DA:536,0
DA:539,0
DA:540,0
DA:541,0
DA:543,0
DA:545,0
DA:546,0
DA:551,0
DA:554,0
DA:555,0
DA:557,0
DA:558,0
DA:561,0
DA:565,0
DA:566,0
DA:778,0
DA:779,0
DA:781,0
DA:784,0
DA:785,0
DA:786,0
DA:787,0
DA:790,0
DA:791,0
DA:793,0
DA:794,0
DA:795,0
DA:796,0
DA:798,0
DA:801,0
DA:812,0
DA:813,0
DA:814,0
DA:817,0
DA:822,0
DA:823,0
DA:824,0
DA:825,0
DA:826,0
DA:827,0
DA:828,0
DA:829,0
DA:830,0
DA:831,0
DA:832,0
DA:833,0
DA:834,0
DA:835,0
DA:836,0
DA:837,0
DA:838,0
DA:839,0
DA:840,0
DA:841,0
DA:842,0
DA:843,0
DA:844,0
DA:845,0
DA:846,0
DA:847,0
DA:848,0
DA:850,0
DA:851,0
DA:852,0
DA:854,0
DA:856,0
DA:965,0
DA:966,0
DA:972,0
DA:973,0
DA:974,0
DA:995,0
DA:996,0
DA:999,0
DA:1000,0
DA:1003,0
DA:1004,0
end_of_record
SF:/usr/include/c++/9/bits/cpp_type_traits.h
end_of_record
SF:/usr/include/c++/9/bits/basic_string.tcc
FN:206,_ZNSt7__cxx1112basic_stringIcSt11char_traitsIcESaIcEE12_M_constructIPcEEvT_S7_St20forward_iterator_tag
FNDA:0,_ZNSt7__cxx1112basic_stringIcSt11char_traitsIcESaIcEE12_M_constructIPcEEvT_S7_St20forward_iterator_tag
FN:206,_ZNSt7__cxx1112basic_stringIcSt11char_traitsIcESaIcEE12_M_constructIPKcEEvT_S8_St20forward_iterator_tag
FNDA:0,_ZNSt7__cxx1112basic_stringIcSt11char_traitsIcESaIcEE12_M_constructIPKcEEvT_S8_St20forward_iterator_tag
DA:206,0
DA:211,0
DA:212,0
DA:215,0
DA:217,0
DA:219,0
DA:220,0
DA:225,0
DA:232,0
DA:233,0
DA:206,0
DA:211,0
DA:212,0
DA:215,0
DA:217,0
DA:219,0
DA:220,0
DA:225,0
DA:232,0
DA:233,0
end_of_record
SF:/usr/include/c++/9/initializer_list
DA:71,0
DA:75,0
DA:79,0
end_of_record
SF:/usr/include/c++/9/ext/alloc_traits.h
DA:97,0
DA:98,0
end_of_record
SF:/usr/include/c++/9/bits/allocator.h
DA:138,0
DA:141,0
DA:142,0
DA:153,0
end_of_record
SF:/usr/include/c++/9/bits/char_traits.h
DA:299,0
DA:300,0
DA:329,0
DA:335,0
DA:361,0
DA:363,0
DA:365,0
end_of_record
SF:/usr/include/c++/9/bits/stl_uninitialized.h
end_of_record
SF:/usr/include/c++/9/ostream
DA:108,0
DA:113,0
DA:565,0
DA:568,0
DA:570,0
DA:571,0
end_of_record
SF:/usr/include/c++/9/ext/string_conversions.h
FN:99,_ZN9__gnu_cxx12__to_xstringINSt7__cxx1112basic_stringIcSt11char_traitsIcESaIcEEEcEET_PFiPT0_mPKS8_P13__va_list_tagEmSB_z
FNDA:0,_ZN9__gnu_cxx12__to_xstringINSt7__cxx1112basic_stringIcSt11char_traitsIcESaIcEEEcEET_PFiPT0_mPKS8_P13__va_list_tagEmSB_z
DA:99,0
DA:105,0
DA:109,0
DA:111,0
DA:113,0
DA:115,0
end_of_record
SF:/usr/include/c++/9/bits/locale_facets.h
FN:872,_ZNKSt5ctypeIcE5widenEc
FNDA:0,_ZNKSt5ctypeIcE5widenEc
FN:1084,_ZNKSt5ctypeIcE8do_widenEc
FNDA:0,_ZNKSt5ctypeIcE8do_widenEc
DA:872,0
DA:874,0
DA:875,0
DA:876,0
DA:877,0
DA:1084,0
DA:1085,0
end_of_record
SF:/usr/include/x86_64-linux-gnu/bits/stdio2.h
DA:105,0
DA:107,0
end_of_record
SF:/usr/include/c++/9/ext/new_allocator.h
DA:80,0
DA:83,0
DA:89,0
DA:119,0
DA:128,0
end_of_record
SF:/usr/include/c++/9/iostream
end_of_record
TN:
SF:/usr/include/c++/9/bits/char_traits.h
DA:299,0
DA:300,0
DA:361,0
DA:363,0
DA:365,0
end_of_record
SF:/usr/include/c++/9/bits/allocator.h
DA:138,0
DA:141,0
DA:142,0
DA:153,0
end_of_record
SF:/usr/include/c++/9/bits/basic_string.tcc
FN:206,_ZNSt7__cxx1112basic_stringIcSt11char_traitsIcESaIcEE12_M_constructIPKcEEvT_S8_St20forward_iterator_tag
FNDA:0,_ZNSt7__cxx1112basic_stringIcSt11char_traitsIcESaIcEE12_M_constructIPKcEEvT_S8_St20forward_iterator_tag
DA:206,0
DA:211,0
DA:212,0
DA:215,0
DA:217,0
DA:219,0
DA:220,0
DA:225,0
DA:232,0
DA:233,0
end_of_record
SF:/usr/include/c++/9/bits/basic_string.h
FN:6121,_ZStplIcSt11char_traitsIcESaIcEENSt7__cxx1112basic_stringIT_T0_T1_EEOS8_PKS5_
FNDA:0,_ZStplIcSt11char_traitsIcESaIcEENSt7__cxx1112basic_stringIT_T0_T1_EEOS8_PKS5_
DA:150,0
DA:159,0
DA:160,0
DA:178,0
DA:179,0
DA:182,0
DA:183,0
DA:186,0
DA:190,0
DA:193,0
DA:200,0
DA:203,0
DA:210,0
DA:211,0
DA:214,0
DA:216,0
DA:217,0
DA:221,0
DA:222,0
DA:229,0
DA:231,0
DA:232,0
DA:236,0
DA:237,0
DA:286,0
DA:287,0
DA:346,0
DA:348,0
DA:349,0
DA:351,0
DA:396,0
DA:398,0
DA:552,0
DA:553,0
DA:555,0
DA:557,0
DA:562,0
DA:563,0
DA:569,0
DA:570,0
DA:571,0
DA:657,0
DA:658,0
DA:936,0
DA:2300,0
DA:2301,0
DA:6121,0
DA:6123,0
end_of_record
SF:/usr/include/x86_64-linux-gnu/bits/stdio2.h
DA:105,0
DA:107,0
end_of_record
SF:/usr/include/c++/9/iostream
end_of_record
SF:/usr/include/c++/9/ext/new_allocator.h
DA:80,0
DA:83,0
DA:89,0
DA:119,0
DA:128,0
end_of_record
SF:/workspace/vtr-verilog-to-routing/ODIN_II/SRC/netlist_statistic.cpp
FN:42,_Z9init_statP9netlist_t
FNDA:0,_Z9init_statP9netlist_t
FN:93,_ZL9aggregateP8metric_tPS0_x
FNDA:0,_ZL9aggregateP8metric_tPS0_x
FN:144,_ZL15count_node_type14operation_listP7nnode_tP9netlist_t
FNDA:0,_ZL15count_node_type14operation_listP7nnode_tP9netlist_t
FN:208,_ZL15get_upward_statP6nnet_tP9netlist_tm
FNDA:0,_ZL15get_upward_statP6nnet_tP9netlist_tm
FN:227,_ZL15get_upward_statP7nnode_tP9netlist_tm
FNDA:0,_ZL15get_upward_statP7nnode_tP9netlist_tm
FN:252,_ZL17get_downward_statP6nnet_tP9netlist_tm
FNDA:0,_ZL17get_downward_statP6nnet_tP9netlist_tm
FN:274,_ZL17get_downward_statP7nnode_tP9netlist_tm
FNDA:0,_ZL17get_downward_statP7nnode_tP9netlist_tm
FN:299,_ZL17get_downward_statP8metric_tP13signal_list_tP9netlist_tm
FNDA:0,_ZL17get_downward_statP8metric_tP13signal_list_tP9netlist_tm
FN:322,_ZL15get_upward_statP8metric_tP13signal_list_tP9netlist_tm
FNDA:0,_ZL15get_upward_statP8metric_tP13signal_list_tP9netlist_tm
FN:346,_ZL15get_upward_statP8metric_tPP7nnode_txP9netlist_tm
FNDA:0,_ZL15get_upward_statP8metric_tPP7nnode_txP9netlist_tm
FN:361,_ZL17get_downward_statP8metric_tPP7nnode_txP9netlist_tm
FNDA:0,_ZL17get_downward_statP8metric_tPP7nnode_txP9netlist_tm
FN:376,_ZL15get_upward_statP8metric_tPP6nnet_txP9netlist_tm
FNDA:0,_ZL15get_upward_statP8metric_tPP6nnet_txP9netlist_tm
FN:391,_ZL17get_downward_statP8metric_tPP6nnet_txP9netlist_tm
FNDA:0,_ZL17get_downward_statP8metric_tPP6nnet_txP9netlist_tm
FN:406,_Z9get_statsP7nnode_tP9netlist_tm
FNDA:0,_Z9get_statsP7nnode_tP9netlist_tm
FN:413,_Z9get_statsP6nnet_tP9netlist_tm
FNDA:0,_Z9get_statsP6nnet_tP9netlist_tm
FN:420,_Z9get_statsP13signal_list_tS0_P9netlist_tm
FNDA:0,_Z9get_statsP13signal_list_tS0_P9netlist_tm
FN:429,_Z9get_statsPP7nnode_txP9netlist_tm
FNDA:0,_Z9get_statsPP7nnode_txP9netlist_tm
FN:436,_Z9get_statsPP6nnet_txP9netlist_tm
FNDA:0,_Z9get_statsPP6nnet_txP9netlist_tm
FN:443,_Z11delete_statP6stat_t
FNDA:0,_Z11delete_statP6stat_t
FN:457,_Z18compute_statisticsP9netlist_tb
FNDA:0,_Z18compute_statisticsP9netlist_tb
DA:35,0
DA:36,0
DA:37,0
DA:38,0
DA:39,0
DA:42,0
DA:43,0
DA:45,0
DA:48,0
DA:49,0
DA:52,0
DA:53,0
DA:56,0
DA:57,0
DA:58,0
DA:61,0
DA:62,0
DA:63,0
DA:64,0
DA:65,0
DA:67,0
DA:68,0
DA:69,0
DA:70,0
DA:81,0
DA:82,0
DA:83,0
DA:84,0
DA:85,0
DA:86,0
DA:87,0
DA:88,0
DA:93,0
DA:94,0
DA:95,0
DA:98,0
DA:99,0
DA:100,0
DA:101,0
DA:102,0
DA:103,0
DA:105,0
DA:107,0
DA:108,0
DA:109,0
DA:113,0
DA:114,0
DA:115,0
DA:117,0
DA:119,0
DA:120,0
DA:121,0
DA:122,0
DA:123,0
DA:124,0
DA:126,0
DA:127,0
DA:128,0
DA:129,0
DA:132,0
DA:133,0
DA:134,0
DA:135,0
DA:138,0
DA:139,0
DA:140,0
DA:142,0
DA:143,0
DA:144,0
DA:145,0
DA:146,0
DA:152,0
DA:156,0
DA:157,0
DA:158,0
DA:159,0
DA:160,0
DA:163,0
DA:165,0
DA:166,0
DA:167,0
DA:180,0
DA:181,0
DA:183,0
DA:186,0
DA:187,0
DA:188,0
DA:189,0
DA:190,0
DA:191,0
DA:193,0
DA:194,0
DA:195,0
DA:197,0
DA:199,0
DA:200,0
DA:202,0
DA:204,0
DA:205,0
DA:208,0
DA:209,0
DA:210,0
DA:211,0
DA:213,0
DA:214,0
DA:216,0
DA:217,0
DA:218,0
DA:219,0
DA:220,0
DA:224,0
DA:227,0
DA:228,0
DA:229,0
DA:230,0
DA:232,0
DA:233,0
DA:235,0
DA:236,0
DA:237,0
DA:238,0
DA:239,0
DA:240,0
DA:243,0
DA:244,0
DA:246,0
DA:249,0
DA:252,0
DA:253,0
DA:254,0
DA:255,0
DA:257,0
DA:258,0
DA:259,0
DA:260,0
DA:261,0
DA:262,0
DA:263,0
DA:266,0
DA:267,0
DA:271,0
DA:274,0
DA:275,0
DA:277,0
DA:278,0
DA:279,0
DA:280,0
DA:282,0
DA:283,0
DA:284,0
DA:285,0
DA:286,0
DA:287,0
DA:290,0
DA:291,0
DA:293,0
DA:296,0
DA:299,0
DA:300,0
DA:301,0
DA:302,0
DA:303,0
DA:304,0
DA:306,0
DA:307,0
DA:311,0
DA:315,0
DA:316,0
DA:319,0
DA:322,0
DA:323,0
DA:324,0
DA:325,0
DA:326,0
DA:327,0
DA:329,0
DA:330,0
DA:334,0
DA:338,0
DA:340,0
DA:343,0
DA:346,0
DA:347,0
DA:348,0
DA:349,0
DA:350,0
DA:351,0
DA:353,0
DA:355,0
DA:358,0
DA:361,0
DA:362,0
DA:363,0
DA:364,0
DA:365,0
DA:366,0
DA:368,0
DA:370,0
DA:373,0
DA:376,0
DA:377,0
DA:378,0
DA:379,0
DA:380,0
DA:381,0
DA:383,0
DA:385,0
DA:388,0
DA:391,0
DA:392,0
DA:393,0
DA:394,0
DA:395,0
DA:396,0
DA:398,0
DA:400,0
DA:403,0
DA:406,0
DA:407,0
DA:408,0
DA:409,0
DA:410,0
DA:413,0
DA:414,0
DA:415,0
DA:416,0
DA:417,0
DA:420,0
DA:421,0
DA:423,0
DA:425,0
DA:426,0
DA:429,0
DA:430,0
DA:431,0
DA:432,0
DA:433,0
DA:436,0
DA:437,0
DA:438,0
DA:439,0
DA:440,0
DA:443,0
DA:444,0
DA:445,0
DA:446,0
DA:448,0
DA:457,0
DA:458,0
DA:460,0
DA:462,0
DA:464,0
DA:465,0
DA:466,0
DA:467,0
DA:468,0
DA:469,0
DA:470,0
DA:472,0
DA:475,0
DA:476,0
DA:477,0
DA:478,0
DA:479,0
DA:482,0
end_of_record
SF:/usr/include/c++/9/bits/move.h
DA:47,0
DA:99,0
DA:138,0
DA:139,0
end_of_record
SF:/usr/include/c++/9/bits/stl_algobase.h
DA:198,0
DA:203,0
DA:204,0
DA:222,0
DA:227,0
DA:228,0
end_of_record
SF:/usr/include/c++/9/bits/alloc_traits.h
DA:469,0
DA:470,0
end_of_record
SF:/usr/include/c++/9/ext/type_traits.h
DA:152,0
end_of_record
SF:/usr/include/c++/9/bits/ptr_traits.h
DA:146,0
DA:147,0
end_of_record
SF:/usr/include/c++/9/bits/stl_iterator_base_funcs.h
DA:98,0
DA:104,0
DA:138,0
DA:141,0
end_of_record
TN:
SF:/usr/include/x86_64-linux-gnu/c++/9/bits/gthr-default.h
DA:248,0
DA:250,0
DA:252,0
end_of_record
SF:/usr/include/c++/9/bits/move.h
DA:99,0
DA:182,0
DA:193,0
DA:194,0
DA:195,0
end_of_record
SF:/usr/include/c++/9/ext/atomicity.h
DA:48,0
DA:49,0
DA:65,0
DA:67,0
DA:68,0
DA:69,0
DA:78,0
DA:81,0
DA:82,0
DA:84,0
end_of_record
SF:/workspace/vtr-verilog-to-routing/libs/EXTERNAL/libargparse/src/argparse_value.hpp
DA:50,0
end_of_record
SF:/workspace/vtr-verilog-to-routing/ODIN_II/SRC/netlist_utils.cpp
FN:41,_Z14allocate_nnodev
FNDA:0,_Z14allocate_nnodev
FN:96,_Z10free_nnodeP7nnode_t
FNDA:0,_Z10free_nnodeP7nnode_t
FN:138,_Z24allocate_more_input_pinsP7nnode_ti
FNDA:0,_Z24allocate_more_input_pinsP7nnode_ti
FN:157,_Z25allocate_more_output_pinsP7nnode_ti
FNDA:0,_Z25allocate_more_output_pinsP7nnode_ti
FN:175,_Z27add_output_port_informationP7nnode_ti
FNDA:0,_Z27add_output_port_informationP7nnode_ti
FN:184,_Z26add_input_port_informationP7nnode_ti
FNDA:0,_Z26add_input_port_informationP7nnode_ti
FN:193,_Z13allocate_npinv
FNDA:0,_Z13allocate_npinv
FN:219,_Z9free_npinP6npin_t
FNDA:0,_Z9free_npinP6npin_t
FN:237,_ZL9copy_npinP6npin_t
FNDA:0,_ZL9copy_npinP6npin_t
FN:251,_Z16copy_output_npinP6npin_t
FNDA:0,_Z16copy_output_npinP6npin_t
FN:263,_Z15copy_input_npinP6npin_t
FNDA:0,_Z15copy_input_npinP6npin_t
FN:276,_Z13allocate_nnetv
FNDA:0,_Z13allocate_nnetv
FN:297,_Z9free_nnetP6nnet_t
FNDA:0,_Z9free_nnetP6nnet_t
FN:312,_Z15move_output_pinP7nnode_tii
FNDA:0,_Z15move_output_pinP7nnode_tii
FN:331,_Z14move_input_pinP7nnode_tii
FNDA:0,_Z14move_input_pinP7nnode_tii
FN:350,_Z21add_input_pin_to_nodeP7nnode_tP6npin_ti
FNDA:0,_Z21add_input_pin_to_nodeP7nnode_tP6npin_ti
FN:365,_Z21add_fanout_pin_to_netP6nnet_tP6npin_t
FNDA:0,_Z21add_fanout_pin_to_netP6nnet_tP6npin_t
FN:382,_Z22add_output_pin_to_nodeP7nnode_tP6npin_ti
FNDA:0,_Z22add_output_pin_to_nodeP7nnode_tP6npin_ti
FN:397,_Z21add_driver_pin_to_netP6nnet_tP6npin_t
FNDA:0,_Z21add_driver_pin_to_netP6nnet_tP6npin_t
FN:414,_Z12combine_netsP6nnet_tS0_P9netlist_t
FNDA:0,_Z12combine_netsP6nnet_tS0_P9netlist_t
FN:444,_Z9join_netsP6nnet_tS0_
FNDA:0,_Z9join_netsP6nnet_tS0_
FN:468,_Z20remap_pin_to_new_netP6npin_tP6nnet_t
FNDA:0,_Z20remap_pin_to_new_netP6npin_tP6nnet_t
FN:485,_Z21remap_pin_to_new_nodeP6npin_tP7nnode_ti
FNDA:0,_Z21remap_pin_to_new_nodeP6npin_tP7nnode_ti
FN:503,_Z13connect_nodesP7nnode_tiS0_i
FNDA:0,_Z13connect_nodesP7nnode_tiS0_i
FN:539,_Z16init_signal_listv
FNDA:0,_Z16init_signal_listv
FN:555,_Z22add_pin_to_signal_listP13signal_list_tP6npin_t
FNDA:0,_Z22add_pin_to_signal_listP13signal_list_tP6npin_t
FN:564,_Z13combine_listsPP13signal_list_ti
FNDA:0,_Z13combine_listsPP13signal_list_ti
FN:583,_Z39combine_lists_without_freeing_originalsPP13signal_list_ti
FNDA:0,_Z39combine_lists_without_freeing_originalsPP13signal_list_ti
FN:597,_Z18copy_input_signalsP13signal_list_t
FNDA:0,_Z18copy_input_signalsP13signal_list_t
FN:608,_Z19copy_output_signalsP13signal_list_t
FNDA:0,_Z19copy_output_signalsP13signal_list_t
FN:624,_ZL20compare_npin_t_namesPKvS0_
FNDA:0,_ZL20compare_npin_t_namesPKvS0_
FN:630,_Z31sort_signal_list_alphabeticallyP13signal_list_t
FNDA:0,_Z31sort_signal_list_alphabeticallyP13signal_list_t
FN:640,_Z34make_output_pins_for_existing_nodeP7nnode_ti
FNDA:0,_Z34make_output_pins_for_existing_nodeP7nnode_ti
FN:671,_Z16free_signal_listP13signal_list_t
FNDA:0,_Z16free_signal_listP13signal_list_t
FN:683,_Z34hookup_input_pins_from_signal_listP7nnode_tiP13signal_list_tiiP9netlist_t
FNDA:0,_Z34hookup_input_pins_from_signal_listP7nnode_tiP13signal_list_tiiP9netlist_t
FN:707,_Z37hookup_hb_input_pins_from_signal_listP7nnode_tiP13signal_list_tiiP9netlist_t
FNDA:0,_Z37hookup_hb_input_pins_from_signal_listP7nnode_tiP13signal_list_tiiP9netlist_t
FN:728,_Z35hookup_output_pins_from_signal_listP7nnode_tiP13signal_list_tii
FNDA:0,_Z35hookup_output_pins_from_signal_listP7nnode_tiP13signal_list_tii
FN:752,_Z22count_nodes_in_netlistP9netlist_t
FNDA:0,_Z22count_nodes_in_netlistP9netlist_t
FN:774,_Z20depth_traverse_countP7nnode_tPim
FNDA:0,_Z20depth_traverse_countP7nnode_tPim
FN:810,_Z16allocate_netlistv
FNDA:0,_Z16allocate_netlistv
FN:856,_Z12free_netlistP9netlist_t
FNDA:0,_Z12free_netlistP9netlist_t
FN:868,_Z19add_node_to_netlistP9netlist_tP7nnode_t14operation_list
FNDA:0,_Z19add_node_to_netlistP9netlist_tP7nnode_t14operation_list
FN:910,_Z15mark_clock_nodeP9netlist_tPKc
FNDA:0,_Z15mark_clock_nodeP9netlist_tPKc
FN:936,_Z33get_output_pin_index_from_mappingP7nnode_tPKc
FNDA:0,_Z33get_output_pin_index_from_mappingP7nnode_tPKc
FN:951,_Z34get_output_port_index_from_mappingP7nnode_tPKc
FNDA:0,_Z34get_output_port_index_from_mappingP7nnode_tPKc
FN:968,_Z32get_input_pin_index_from_mappingP7nnode_tPKc
FNDA:0,_Z32get_input_pin_index_from_mappingP7nnode_tPKc
FN:983,_Z33get_input_port_index_from_mappingP7nnode_tPKc
FNDA:0,_Z33get_input_port_index_from_mappingP7nnode_tPKc
FN:997,_Z19allocate_chain_infov
FNDA:0,_Z19allocate_chain_infov
FN:1008,_Z27remove_fanout_pins_from_netP6nnet_tP6npin_ti
FNDA:0,_Z27remove_fanout_pins_from_netP6nnet_tP6npin_ti
DA:41,0
DA:42,0
DA:44,0
DA:45,0
DA:46,0
DA:47,0
DA:48,0
DA:50,0
DA:51,0
DA:52,0
DA:53,0
DA:55,0
DA:56,0
DA:57,0
DA:58,0
DA:60,0
DA:61,0
DA:63,0
DA:64,0
DA:65,0
DA:66,0
DA:68,0
DA:70,0
DA:72,0
DA:74,0
DA:75,0
DA:77,0
DA:79,0
DA:80,0
DA:82,0
DA:83,0
DA:85,0
DA:86,0
DA:88,0
DA:90,0
DA:96,0
DA:97,0
DA:100,0
DA:101,0
DA:102,0
DA:103,0
DA:105,0
DA:108,0
DA:110,0
DA:111,0
DA:112,0
DA:113,0
DA:115,0
DA:118,0
DA:120,0
DA:121,0
DA:122,0
DA:124,0
DA:125,0
DA:126,0
DA:131,0
DA:138,0
DA:139,0
DA:141,0
DA:142,0
DA:143,0
DA:146,0
DA:147,0
DA:148,0
DA:150,0
DA:157,0
DA:158,0
DA:160,0
DA:161,0
DA:162,0
DA:165,0
DA:166,0
DA:167,0
DA:169,0
DA:175,0
DA:176,0
DA:177,0
DA:178,0
DA:179,0
DA:184,0
DA:185,0
DA:186,0
DA:187,0
DA:188,0
DA:193,0
DA:194,0
DA:196,0
DA:198,0
DA:199,0
DA:200,0
DA:201,0
DA:202,0
DA:203,0
DA:204,0
DA:206,0
DA:208,0
DA:210,0
DA:211,0
DA:213,0
DA:219,0
DA:220,0
DA:221,0
DA:222,0
DA:224,0
DA:228,0
DA:237,0
DA:238,0
DA:239,0
DA:240,0
DA:241,0
DA:242,0
DA:244,0
DA:251,0
DA:252,0
DA:253,0
DA:254,0
DA:256,0
DA:263,0
DA:264,0
DA:265,0
DA:266,0
DA:267,0
DA:270,0
DA:276,0
DA:277,0
DA:279,0
DA:280,0
DA:281,0
DA:282,0
DA:283,0
DA:285,0
DA:286,0
DA:288,0
DA:289,0
DA:291,0
DA:297,0
DA:298,0
DA:299,0
DA:301,0
DA:302,0
DA:306,0
DA:312,0
DA:313,0
DA:315,0
DA:316,0
DA:317,0
DA:319,0
DA:320,0
DA:321,0
DA:323,0
DA:324,0
DA:325,0
DA:326,0
DA:331,0
DA:332,0
DA:334,0
DA:335,0
DA:336,0
DA:338,0
DA:339,0
DA:340,0
DA:342,0
DA:343,0
DA:344,0
DA:345,0
DA:350,0
DA:351,0
DA:352,0
DA:353,0
DA:355,0
DA:357,0
DA:358,0
DA:359,0
DA:360,0
DA:365,0
DA:366,0
DA:367,0
DA:368,0
DA:370,0
DA:371,0
DA:372,0
DA:374,0
DA:375,0
DA:376,0
DA:377,0
DA:382,0
DA:383,0
DA:384,0
DA:385,0
DA:387,0
DA:389,0
DA:390,0
DA:391,0
DA:392,0
DA:397,0
DA:398,0
DA:399,0
DA:400,0
DA:402,0
DA:404,0
DA:405,0
DA:406,0
DA:414,0
DA:416,0
DA:418,0
DA:421,0
DA:423,0
DA:426,0
DA:427,0
DA:430,0
DA:431,0
DA:432,0
DA:433,0
DA:437,0
DA:438,0
DA:444,0
DA:445,0
DA:446,0
DA:447,0
DA:449,0
DA:450,0
DA:451,0
DA:453,0
DA:458,0
DA:459,0
DA:460,0
DA:463,0
DA:468,0
DA:469,0
DA:471,0
DA:473,0
DA:474,0
DA:476,0
DA:478,0
DA:480,0
DA:485,0
DA:486,0
DA:488,0
DA:490,0
DA:491,0
DA:493,0
DA:495,0
DA:497,0
DA:503,0
DA:504,0
DA:506,0
DA:507,0
DA:509,0
DA:512,0
DA:514,0
DA:516,0
DA:517,0
DA:518,0
DA:519,0
DA:522,0
DA:524,0
DA:526,0
DA:530,0
DA:532,0
DA:539,0
DA:540,0
DA:541,0
DA:543,0
DA:544,0
DA:545,0
DA:546,0
DA:548,0
DA:555,0
DA:556,0
DA:557,0
DA:558,0
DA:559,0
DA:564,0
DA:565,0
DA:566,0
DA:567,0
DA:569,0
DA:570,0
DA:573,0
DA:577,0
DA:583,0
DA:584,0
DA:586,0
DA:587,0
DA:588,0
DA:589,0
DA:590,0
DA:591,0
DA:594,0
DA:597,0
DA:598,0
DA:599,0
DA:600,0
DA:601,0
DA:602,0
DA:603,0
DA:605,0
DA:608,0
DA:609,0
DA:610,0
DA:611,0
DA:612,0
DA:613,0
DA:615,0
DA:624,0
DA:625,0
DA:626,0
DA:627,0
DA:630,0
DA:631,0
DA:632,0
DA:633,0
DA:640,0
DA:641,0
DA:642,0
DA:644,0
DA:646,0
DA:647,0
DA:648,0
DA:649,0
DA:650,0
DA:651,0
DA:652,0
DA:653,0
DA:655,0
DA:657,0
DA:659,0
DA:662,0
DA:665,0
DA:671,0
DA:672,0
DA:673,0
DA:674,0
DA:676,0
DA:677,0
DA:683,0
DA:684,0
DA:686,0
DA:687,0
DA:688,0
DA:689,0
DA:690,0
DA:694,0
DA:696,0
DA:697,0
DA:700,0
DA:707,0
DA:708,0
DA:710,0
DA:711,0
DA:712,0
DA:713,0
DA:716,0
DA:718,0
DA:719,0
DA:722,0
DA:728,0
DA:729,0
DA:730,0
DA:732,0
DA:733,0
DA:736,0
DA:738,0
DA:740,0
DA:744,0
DA:746,0
DA:752,0
DA:753,0
DA:754,0
DA:757,0
DA:758,0
DA:759,0
DA:762,0
DA:763,0
DA:764,0
DA:768,0
DA:774,0
DA:775,0
DA:776,0
DA:777,0
DA:779,0
DA:783,0
DA:786,0
DA:788,0
DA:789,0
DA:790,0
DA:792,0
DA:793,0
DA:794,0
DA:795,0
DA:796,0
DA:797,0
DA:798,0
DA:801,0
DA:810,0
DA:811,0
DA:813,0
DA:815,0
DA:816,0
DA:817,0
DA:818,0
DA:819,0
DA:820,0
DA:821,0
DA:822,0
DA:823,0
DA:824,0
DA:825,0
DA:826,0
DA:827,0
DA:828,0
DA:829,0
DA:830,0
DA:832,0
DA:833,0
DA:834,0
DA:835,0
DA:836,0
DA:837,0
DA:838,0
DA:839,0
DA:840,0
DA:841,0
DA:842,0
DA:843,0
DA:846,0
DA:847,0
DA:848,0
DA:850,0
DA:856,0
DA:857,0
DA:860,0
DA:861,0
DA:862,0
DA:868,0
DA:869,0
DA:872,0
DA:874,0
DA:875,0
DA:876,0
DA:878,0
DA:881,0
DA:884,0
DA:885,0
DA:886,0
DA:887,0
DA:889,0
DA:890,0
DA:891,0
DA:892,0
DA:893,0
DA:894,0
DA:895,0
DA:896,0
DA:897,0
DA:898,0
DA:899,0
DA:901,0
DA:902,0
DA:903,0
DA:905,0
DA:910,0
DA:913,0
DA:914,0
DA:915,0
DA:918,0
DA:919,0
DA:921,0
DA:922,0
DA:924,0
DA:925,0
DA:926,0
DA:929,0
DA:930,0
DA:936,0
DA:937,0
DA:938,0
DA:939,0
DA:940,0
DA:941,0
DA:951,0
DA:952,0
DA:953,0
DA:954,0
DA:956,0
DA:957,0
DA:958,0
DA:959,0
DA:968,0
DA:969,0
DA:970,0
DA:971,0
DA:972,0
DA:973,0
DA:983,0
DA:984,0
DA:985,0
DA:986,0
DA:988,0
DA:989,0
DA:990,0
DA:991,0
DA:997,0
DA:998,0
DA:1000,0
DA:1002,0
DA:1003,0
DA:1005,0
DA:1008,0
DA:1009,0
DA:1010,0
DA:1011,0
DA:1012,0
DA:1013,0
DA:1015,0
DA:1016,0
DA:1017,0
end_of_record
SF:/usr/include/c++/9/bits/shared_ptr_base.h
FN:131,_ZNSt16_Sp_counted_baseILN9__gnu_cxx12_Lock_policyE2EE10_M_destroyEv
FNDA:0,_ZNSt16_Sp_counted_baseILN9__gnu_cxx12_Lock_policyE2EE10_M_destroyEv
FN:148,_ZNSt16_Sp_counted_baseILN9__gnu_cxx12_Lock_policyE2EE10_M_releaseEv
FNDA:0,_ZNSt16_Sp_counted_baseILN9__gnu_cxx12_Lock_policyE2EE10_M_releaseEv
FN:404,_ZNSt15_Sp_counted_ptrIDnLN9__gnu_cxx12_Lock_policyE2EE10_M_disposeEv
FNDA:0,_ZNSt15_Sp_counted_ptrIDnLN9__gnu_cxx12_Lock_policyE2EE10_M_disposeEv
DA:131,0
DA:132,0
DA:148,0
DA:152,0
DA:155,0
DA:167,0
DA:171,0
DA:174,0
DA:404,0
DA:616,0
DA:727,0
DA:729,0
DA:730,0
DA:756,0
DA:758,0
DA:759,0
DA:1118,0
DA:1119,0
DA:1169,0
DA:1176,0
DA:1177,0
DA:1179,0
DA:1263,0
DA:1265,0
DA:1324,0
DA:1326,0
DA:1327,0
end_of_record
SF:/usr/include/c++/9/bits/shared_ptr.h
DA:103,0
DA:127,0
DA:307,0
DA:333,0
DA:335,0
end_of_record
SF:/usr/include/c++/9/iostream
end_of_record
TN:
SF:/usr/include/c++/9/bits/allocator.h
DA:153,0
end_of_record
SF:/usr/include/c++/9/bits/basic_string.h
DA:150,0
DA:186,0
DA:200,0
DA:203,0
DA:221,0
DA:222,0
DA:229,0
DA:231,0
DA:232,0
DA:236,0
DA:237,0
DA:286,0
DA:287,0
DA:657,0
DA:658,0
DA:2300,0
DA:2301,0
end_of_record
SF:/usr/include/c++/9/ext/new_allocator.h
DA:89,0
DA:119,0
DA:128,0
end_of_record
SF:/usr/include/c++/9/iostream
end_of_record
SF:/usr/include/x86_64-linux-gnu/bits/stdio2.h
DA:98,0
DA:100,0
DA:101,0
end_of_record
SF:/usr/include/c++/9/bits/move.h
DA:47,0
DA:138,0
DA:139,0
end_of_record
SF:/usr/include/c++/9/bits/ptr_traits.h
DA:146,0
DA:147,0
end_of_record
SF:/workspace/vtr-verilog-to-routing/ODIN_II/SRC/netlist_visualizer.cpp
FN:46,_Z21graphVizOutputNetlistNSt7__cxx1112basic_stringIcSt11char_traitsIcESaIcEEEPKcmP9netlist_t
FNDA:0,_Z21graphVizOutputNetlistNSt7__cxx1112basic_stringIcSt11char_traitsIcESaIcEEEPKcmP9netlist_t
FN:67,_Z35depth_first_traversal_graph_displayP8_IO_FILEmP9netlist_t
FNDA:0,_Z35depth_first_traversal_graph_displayP8_IO_FILEmP9netlist_t
FN:86,_Z30depth_first_traverse_visualizeP7nnode_tP8_IO_FILEm
FNDA:0,_Z30depth_first_traverse_visualizeP7nnode_tP8_IO_FILEm
FN:166,_Z30graphVizOutputCombinationalNetNSt7__cxx1112basic_stringIcSt11char_traitsIcESaIcEEEPKcmP7nnode_t
FNDA:0,_Z30graphVizOutputCombinationalNetNSt7__cxx1112basic_stringIcSt11char_traitsIcESaIcEEEPKcmP7nnode_t
FN:189,_Z35forward_traversal_net_graph_displayP8_IO_FILEmP7nnode_t
FNDA:0,_Z35forward_traversal_net_graph_displayP8_IO_FILEmP7nnode_t
FN:278,_Z36backward_traversal_net_graph_displayP8_IO_FILEmP7nnode_t
FNDA:0,_Z36backward_traversal_net_graph_displayP8_IO_FILEmP7nnode_t
DA:46,0
DA:47,0
DA:48,0
DA:51,0
DA:52,0
DA:55,0
DA:57,0
DA:60,0
DA:61,0
DA:62,0
DA:67,0
DA:68,0
DA:71,0
DA:72,0
DA:73,0
DA:77,0
DA:78,0
DA:79,0
DA:80,0
DA:81,0
DA:86,0
DA:87,0
DA:88,0
DA:89,0
DA:91,0
DA:95,0
DA:96,0
DA:99,0
DA:101,0
DA:102,0
DA:103,0
DA:104,0
DA:105,0
DA:106,0
DA:107,0
DA:108,0
DA:109,0
DA:111,0
DA:113,0
DA:115,0
DA:116,0
DA:117,0
DA:119,0
DA:120,0
DA:121,0
DA:122,0
DA:123,0
DA:130,0
DA:131,0
DA:133,0
DA:135,0
DA:136,0
DA:137,0
DA:138,0
DA:140,0
DA:142,0
DA:143,0
DA:144,0
DA:145,0
DA:148,0
DA:149,0
DA:150,0
DA:151,0
DA:153,0
DA:154,0
DA:157,0
DA:166,0
DA:167,0
DA:168,0
DA:171,0
DA:172,0
DA:175,0
DA:177,0
DA:178,0
DA:181,0
DA:182,0
DA:183,0
DA:189,0
DA:190,0
DA:191,0
DA:192,0
DA:193,0
DA:194,0
DA:195,0
DA:197,0
DA:198,0
DA:200,0
DA:201,0
DA:204,0
DA:207,0
DA:208,0
DA:209,0
DA:210,0
DA:211,0
DA:212,0
DA:213,0
DA:214,0
DA:215,0
DA:216,0
DA:217,0
DA:219,0
DA:221,0
DA:224,0
DA:225,0
DA:226,0
DA:228,0
DA:229,0
DA:230,0
DA:233,0
DA:235,0
DA:236,0
DA:238,0
DA:239,0
DA:240,0
DA:242,0
DA:243,0
DA:245,0
DA:247,0
DA:248,0
DA:251,0
DA:253,0
DA:254,0
DA:256,0
DA:258,0
DA:259,0
DA:260,0
DA:266,0
DA:269,0
DA:270,0
DA:272,0
DA:273,0
DA:278,0
DA:279,0
DA:280,0
DA:281,0
DA:282,0
DA:283,0
DA:284,0
DA:286,0
DA:287,0
DA:289,0
DA:290,0
DA:293,0
DA:296,0
DA:297,0
DA:298,0
DA:299,0
DA:300,0
DA:301,0
DA:302,0
DA:303,0
DA:304,0
DA:305,0
DA:307,0
DA:310,0
DA:313,0
DA:314,0
DA:315,0
DA:317,0
DA:318,0
DA:321,0
DA:323,0
DA:324,0
DA:326,0
DA:327,0
DA:329,0
DA:331,0
DA:332,0
DA:334,0
DA:336,0
DA:337,0
DA:338,0
DA:343,0
DA:346,0
DA:347,0
DA:349,0
DA:350,0
end_of_record
SF:/usr/include/c++/9/bits/alloc_traits.h
DA:469,0
DA:470,0
end_of_record
TN:
SF:/usr/include/c++/9/bits/basic_string.h
DA:186,0
DA:2300,0
DA:2301,0
DA:6175,0
DA:6177,0
end_of_record
SF:/usr/include/c++/9/iostream
end_of_record
SF:/workspace/vtr-verilog-to-routing/ODIN_II/SRC/node_creation_library.cpp
FN:40,_Z11get_pad_pinP9netlist_t
FNDA:0,_Z11get_pad_pinP9netlist_t
FN:51,_Z12get_zero_pinP9netlist_t
FNDA:0,_Z12get_zero_pinP9netlist_t
FN:62,_Z11get_one_pinP9netlist_t
FNDA:0,_Z11get_one_pinP9netlist_t
FN:73,_Z24make_not_gate_with_inputP6npin_tP7nnode_ts
FNDA:0,_Z24make_not_gate_with_inputP6npin_tP7nnode_ts
FN:88,_Z13make_not_gateP7nnode_ts
FNDA:0,_Z13make_not_gateP7nnode_ts
FN:107,_Z15make_1port_gate14operation_listiiP7nnode_ts
FNDA:0,_Z15make_1port_gate14operation_listiiP7nnode_ts
FN:129,_Z21make_1port_logic_gate14operation_listiP7nnode_ts
FNDA:0,_Z21make_1port_logic_gate14operation_listiP7nnode_ts
FN:139,_Z33make_1port_logic_gate_with_inputs14operation_listiP13signal_list_tP7nnode_ts
FNDA:0,_Z33make_1port_logic_gate_with_inputs14operation_listiP13signal_list_tP7nnode_ts
FN:157,_Z15make_3port_gate14operation_listiiiiP7nnode_ts
FNDA:0,_Z15make_3port_gate14operation_listiiiiP7nnode_ts
FN:182,_Z15make_2port_gate14operation_listiiiP7nnode_ts
FNDA:0,_Z15make_2port_gate14operation_listiiiP7nnode_ts
FN:205,_Z15make_nport_gate14operation_listiiiP7nnode_ts
FNDA:0,_Z15make_nport_gate14operation_listiiiP7nnode_ts
FN:227,_Z18edge_type_blif_strP7nnode_t
FNDA:0,_Z18edge_type_blif_strP7nnode_t
FN:250,_Z19edge_type_blif_enumNSt7__cxx1112basic_stringIcSt11char_traitsIcESaIcEEE
FNDA:0,_Z19edge_type_blif_enumNSt7__cxx1112basic_stringIcSt11char_traitsIcESaIcEEE
FN:273,_Z14hard_node_nameP7nnode_tPcS1_S1_
FNDA:0,_Z14hard_node_nameP7nnode_tPcS1_S1_
FN:288,_Z9node_nameP7nnode_tPc
FNDA:0,_Z9node_nameP7nnode_tPc
FN:305,_Z15make_mult_blockP7nnode_ts
FNDA:0,_Z15make_mult_blockP7nnode_ts
DA:40,0
DA:41,0
DA:42,0
DA:43,0
DA:44,0
DA:51,0
DA:52,0
DA:53,0
DA:54,0
DA:55,0
DA:62,0
DA:63,0
DA:64,0
DA:65,0
DA:66,0
DA:73,0
DA:74,0
DA:76,0
DA:79,0
DA:81,0
DA:88,0
DA:89,0
DA:91,0
DA:92,0
DA:93,0
DA:94,0
DA:95,0
DA:97,0
DA:98,0
DA:100,0
DA:107,0
DA:108,0
DA:110,0
DA:111,0
DA:112,0
DA:113,0
DA:114,0
DA:117,0
DA:118,0
DA:120,0
DA:121,0
DA:123,0
DA:129,0
DA:130,0
DA:132,0
DA:139,0
DA:140,0
DA:141,0
DA:143,0
DA:146,0
DA:147,0
DA:150,0
DA:157,0
DA:158,0
DA:159,0
DA:160,0
DA:161,0
DA:162,0
DA:165,0
DA:166,0
DA:167,0
DA:168,0
DA:169,0
DA:170,0
DA:172,0
DA:173,0
DA:175,0
DA:182,0
DA:183,0
DA:184,0
DA:185,0
DA:186,0
DA:187,0
DA:190,0
DA:191,0
DA:192,0
DA:193,0
DA:195,0
DA:196,0
DA:198,0
DA:205,0
DA:206,0
DA:207,0
DA:208,0
DA:209,0
DA:210,0
DA:211,0
DA:214,0
DA:215,0
DA:216,0
DA:221,0
DA:222,0
DA:224,0
DA:227,0
DA:228,0
DA:231,0
DA:234,0
DA:235,0
DA:236,0
DA:237,0
DA:238,0
DA:239,0
DA:240,0
DA:241,0
DA:242,0
DA:243,0
DA:246,0
DA:250,0
DA:251,0
DA:253,0
DA:255,0
DA:257,0
DA:259,0
DA:262,0
DA:265,0
DA:273,0
DA:274,0
DA:277,0
DA:279,0
DA:281,0
DA:288,0
DA:289,0
DA:292,0
DA:296,0
DA:298,0
DA:305,0
DA:306,0
DA:308,0
DA:309,0
DA:310,0
DA:311,0
DA:312,0
DA:313,0
DA:314,0
DA:315,0
DA:316,0
DA:318,0
DA:319,0
DA:321,0
end_of_record
TN:
SF:/usr/include/c++/9/ext/new_allocator.h
DA:80,0
DA:83,0
DA:89,0
DA:119,0
DA:128,0
end_of_record
SF:/usr/include/x86_64-linux-gnu/bits/stdio2.h
DA:98,0
DA:100,0
DA:101,0
DA:127,0
DA:130,0
end_of_record
SF:/workspace/vtr-verilog-to-routing/ODIN_II/SRC/odin_error.cpp
FN:25,_Z20verify_delayed_error10odin_error
FNDA:0,_Z20verify_delayed_error10odin_error
FN:31,_ZL20make_marker_from_strNSt7__cxx1112basic_stringIcSt11char_traitsIcESaIcEEEm
FNDA:0,_ZL20make_marker_from_strNSt7__cxx1112basic_stringIcSt11char_traitsIcESaIcEEEm
FN:43,_ZL16get_culprit_linelPKc
FNDA:0,_ZL16get_culprit_linelPKc
FN:70,_ZL18print_culprit_linellPKc
FNDA:0,_ZL18print_culprit_linellPKc
FN:81,_ZL31print_culprit_line_with_contextlPKcl
FNDA:0,_ZL31print_culprit_line_with_contextlPKcl
FN:95,_Z12_log_message10odin_errorlllbPKclS1_S1_z
FNDA:0,_Z12_log_message10odin_errorlllbPKclS1_S1_z
FN:137,_Z15_verbose_assertbPKcS0_lS0_
FNDA:0,_Z15_verbose_assertbPKcS0_lS0_
DA:25,0
DA:26,0
DA:27,0
DA:29,0
DA:31,0
DA:32,0
DA:33,0
DA:34,0
DA:35,0
DA:39,0
DA:40,0
DA:43,0
DA:44,0
DA:45,0
DA:46,0
DA:50,0
DA:51,0
DA:52,0
DA:54,0
DA:55,0
DA:56,0
DA:58,0
DA:61,0
DA:62,0
DA:65,0
DA:67,0
DA:70,0
DA:71,0
DA:72,0
DA:73,0
DA:74,0
DA:75,0
DA:76,0
DA:79,0
DA:81,0
DA:82,0
DA:83,0
DA:84,0
DA:85,0
DA:86,0
DA:87,0
DA:88,0
DA:89,0
DA:93,0
DA:95,0
DA:96,0
DA:98,0
DA:100,0
DA:101,0
DA:103,0
DA:106,0
DA:107,0
DA:110,0
DA:111,0
DA:112,0
DA:115,0
DA:118,0
DA:119,0
DA:120,0
DA:121,0
DA:122,0
DA:124,0
DA:125,0
DA:128,0
DA:129,0
DA:130,0
DA:133,0
DA:134,0
DA:135,0
DA:137,0
DA:138,0
DA:139,0
DA:140,0
DA:141,0
DA:143,0
DA:145,0
DA:148,0
DA:150,0
DA:151,0
DA:153,0
end_of_record
SF:/usr/include/c++/9/bits/char_traits.h
DA:299,0
DA:300,0
DA:329,0
DA:335,0
DA:361,0
DA:363,0
DA:365,0
end_of_record
SF:/usr/include/c++/9/bits/allocator.h
DA:138,0
DA:141,0
DA:142,0
DA:153,0
end_of_record
SF:/usr/include/c++/9/ext/alloc_traits.h
DA:97,0
DA:98,0
end_of_record
SF:/usr/include/c++/9/bits/basic_string.tcc
FN:206,_ZNSt7__cxx1112basic_stringIcSt11char_traitsIcESaIcEE12_M_constructIPcEEvT_S7_St20forward_iterator_tag
FNDA:0,_ZNSt7__cxx1112basic_stringIcSt11char_traitsIcESaIcEE12_M_constructIPcEEvT_S7_St20forward_iterator_tag
FN:206,_ZNSt7__cxx1112basic_stringIcSt11char_traitsIcESaIcEE12_M_constructIPKcEEvT_S8_St20forward_iterator_tag
FNDA:0,_ZNSt7__cxx1112basic_stringIcSt11char_traitsIcESaIcEE12_M_constructIPKcEEvT_S8_St20forward_iterator_tag
DA:206,0
DA:211,0
DA:212,0
DA:215,0
DA:217,0
DA:219,0
DA:220,0
DA:225,0
DA:232,0
DA:233,0
DA:206,0
DA:211,0
DA:212,0
DA:215,0
DA:217,0
DA:219,0
DA:220,0
DA:225,0
DA:232,0
DA:233,0
end_of_record
SF:/usr/include/c++/9/bits/basic_string.h
DA:150,0
DA:159,0
DA:160,0
DA:178,0
DA:179,0
DA:182,0
DA:183,0
DA:186,0
DA:190,0
DA:193,0
DA:200,0
DA:203,0
DA:210,0
DA:211,0
DA:214,0
DA:216,0
DA:217,0
DA:221,0
DA:222,0
DA:229,0
DA:231,0
DA:232,0
DA:236,0
DA:237,0
DA:243,0
DA:247,0
DA:263,0
DA:266,0
DA:286,0
DA:287,0
DA:290,0
DA:291,0
DA:346,0
DA:348,0
DA:349,0
DA:351,0
DA:392,0
DA:393,0
DA:396,0
DA:398,0
DA:448,0
DA:450,0
DA:451,0
DA:552,0
DA:553,0
DA:555,0
DA:557,0
DA:562,0
DA:563,0
DA:569,0
DA:570,0
DA:571,0
DA:657,0
DA:658,0
DA:930,0
DA:936,0
DA:1031,0
DA:1032,0
DA:1063,0
DA:1070,0
DA:1177,0
DA:1178,0
DA:2300,0
DA:2301,0
DA:2655,0
DA:2656,0
DA:2718,0
DA:2722,0
end_of_record
SF:/usr/include/c++/9/bits/stl_construct.h
DA:97,0
DA:98,0
DA:107,0
DA:108,0
DA:137,0
DA:203,0
DA:206,0
end_of_record
SF:/usr/include/c++/9/ext/type_traits.h
DA:152,0
end_of_record
SF:/usr/include/c++/9/bits/alloc_traits.h
DA:469,0
DA:470,0
DA:514,0
DA:515,0
end_of_record
SF:/usr/include/c++/9/bits/stl_algobase.h
DA:222,0
DA:227,0
DA:228,0
end_of_record
SF:/usr/include/c++/9/bits/stl_iterator_base_funcs.h
DA:98,0
DA:104,0
DA:138,0
DA:141,0
end_of_record
SF:/usr/include/c++/9/bits/ptr_traits.h
DA:146,0
DA:147,0
end_of_record
SF:/usr/include/c++/9/bits/stl_pair.h
DA:208,0
end_of_record
SF:/usr/include/c++/9/bits/stl_vector.h
FN:675,_ZNSt6vectorISt4pairINSt7__cxx1112basic_stringIcSt11char_traitsIcESaIcEEEiESaIS7_EED2Ev
FNDA:0,_ZNSt6vectorISt4pairINSt7__cxx1112basic_stringIcSt11char_traitsIcESaIcEEEiESaIS7_EED2Ev
DA:125,0
DA:273,0
DA:274,0
DA:330,0
DA:332,0
DA:333,0
DA:334,0
DA:347,0
DA:350,0
DA:351,0
DA:675,0
DA:677,0
DA:678,0
DA:680,0
DA:915,0
DA:916,0
DA:1040,0
DA:1043,0
end_of_record
SF:/usr/include/c++/9/bits/move.h
DA:47,0
DA:99,0
DA:138,0
DA:139,0
end_of_record
TN:
SF:/usr/include/c++/9/ext/atomicity.h
DA:48,0
DA:49,0
DA:65,0
DA:67,0
DA:68,0
DA:69,0
DA:78,0
DA:81,0
DA:82,0
DA:84,0
end_of_record
SF:/usr/include/c++/9/bits/stl_pair.h
DA:208,0
end_of_record
SF:/workspace/vtr-verilog-to-routing/libs/EXTERNAL/libargparse/src/argparse.tpp
FN:7,_ZN8argparse25make_singlevalue_argumentIdNS_16DefaultConverterIdEEEESt10shared_ptrINS_8ArgumentEERNS_8ArgValueIT_EENSt7__cxx1112basic_stringIcSt11char_traitsIcESaIcEEESF_
FNDA:0,_ZN8argparse25make_singlevalue_argumentIdNS_16DefaultConverterIdEEEESt10shared_ptrINS_8ArgumentEERNS_8ArgValueIT_EENSt7__cxx1112basic_stringIcSt11char_traitsIcESaIcEEESF_
FN:7,_ZN8argparse25make_singlevalue_argumentIiNS_16DefaultConverterIiEEEESt10shared_ptrINS_8ArgumentEERNS_8ArgValueIT_EENSt7__cxx1112basic_stringIcSt11char_traitsIcESaIcEEESF_
FNDA:0,_ZN8argparse25make_singlevalue_argumentIiNS_16DefaultConverterIiEEEESt10shared_ptrINS_8ArgumentEERNS_8ArgValueIT_EENSt7__cxx1112basic_stringIcSt11char_traitsIcESaIcEEESF_
FN:7,_ZN8argparse25make_singlevalue_argumentIbNS_16DefaultConverterIbEEEESt10shared_ptrINS_8ArgumentEERNS_8ArgValueIT_EENSt7__cxx1112basic_stringIcSt11char_traitsIcESaIcEEESF_
FNDA:0,_ZN8argparse25make_singlevalue_argumentIbNS_16DefaultConverterIbEEEESt10shared_ptrINS_8ArgumentEERNS_8ArgValueIT_EENSt7__cxx1112basic_stringIcSt11char_traitsIcESaIcEEESF_
FN:7,_ZN8argparse25make_singlevalue_argumentINSt7__cxx1112basic_stringIcSt11char_traitsIcESaIcEEENS_16DefaultConverterIS6_EEEESt10shared_ptrINS_8ArgumentEERNS_8ArgValueIT_EES6_S6_
FNDA:0,_ZN8argparse25make_singlevalue_argumentINSt7__cxx1112basic_stringIcSt11char_traitsIcESaIcEEENS_16DefaultConverterIS6_EEEESt10shared_ptrINS_8ArgumentEERNS_8ArgValueIT_EES6_S6_
FN:7,_ZN8argparse25make_singlevalue_argumentIi17ParseInitRegStateEESt10shared_ptrINS_8ArgumentEERNS_8ArgValueIT_EENSt7__cxx1112basic_stringIcSt11char_traitsIcESaIcEEESE_
FNDA:0,_ZN8argparse25make_singlevalue_argumentIi17ParseInitRegStateEESt10shared_ptrINS_8ArgumentEERNS_8ArgValueIT_EENSt7__cxx1112basic_stringIcSt11char_traitsIcESaIcEEESE_
FN:21,_ZN8argparse24make_multivalue_argumentISt6vectorINSt7__cxx1112basic_stringIcSt11char_traitsIcESaIcEEESaIS7_EENS_16DefaultConverterIS7_EEEESt10shared_ptrINS_8ArgumentEERNS_8ArgValueIT_EES7_S7_
FNDA:0,_ZN8argparse24make_multivalue_argumentISt6vectorINSt7__cxx1112basic_stringIcSt11char_traitsIcESaIcEEESaIS7_EENS_16DefaultConverterIS7_EEEESt10shared_ptrINS_8ArgumentEERNS_8ArgValueIT_EES7_S7_
FN:61,_ZN8argparse13ArgumentGroup12add_argumentINSt7__cxx1112basic_stringIcSt11char_traitsIcESaIcEEENS_16DefaultConverterIS7_EEEERNS_8ArgumentERNS_8ArgValueIT_EES7_
FNDA:0,_ZN8argparse13ArgumentGroup12add_argumentINSt7__cxx1112basic_stringIcSt11char_traitsIcESaIcEEENS_16DefaultConverterIS7_EEEERNS_8ArgumentERNS_8ArgValueIT_EES7_
FN:61,_ZN8argparse13ArgumentGroup12add_argumentIbNS_16DefaultConverterIbEEEERNS_8ArgumentERNS_8ArgValueIT_EENSt7__cxx1112basic_stringIcSt11char_traitsIcESaIcEEE
FNDA:0,_ZN8argparse13ArgumentGroup12add_argumentIbNS_16DefaultConverterIbEEEERNS_8ArgumentERNS_8ArgValueIT_EENSt7__cxx1112basic_stringIcSt11char_traitsIcESaIcEEE
FN:61,_ZN8argparse13ArgumentGroup12add_argumentIiNS_16DefaultConverterIiEEEERNS_8ArgumentERNS_8ArgValueIT_EENSt7__cxx1112basic_stringIcSt11char_traitsIcESaIcEEE
FNDA:0,_ZN8argparse13ArgumentGroup12add_argumentIiNS_16DefaultConverterIiEEEERNS_8ArgumentERNS_8ArgValueIT_EENSt7__cxx1112basic_stringIcSt11char_traitsIcESaIcEEE
FN:61,_ZN8argparse13ArgumentGroup12add_argumentIdNS_16DefaultConverterIdEEEERNS_8ArgumentERNS_8ArgValueIT_EENSt7__cxx1112basic_stringIcSt11char_traitsIcESaIcEEE
FNDA:0,_ZN8argparse13ArgumentGroup12add_argumentIdNS_16DefaultConverterIdEEEERNS_8ArgumentERNS_8ArgValueIT_EENSt7__cxx1112basic_stringIcSt11char_traitsIcESaIcEEE
FN:61,_ZN8argparse13ArgumentGroup12add_argumentIi17ParseInitRegStateEERNS_8ArgumentERNS_8ArgValueIT_EENSt7__cxx1112basic_stringIcSt11char_traitsIcESaIcEEE
FNDA:0,_ZN8argparse13ArgumentGroup12add_argumentIi17ParseInitRegStateEERNS_8ArgumentERNS_8ArgValueIT_EENSt7__cxx1112basic_stringIcSt11char_traitsIcESaIcEEE
FN:66,_ZN8argparse13ArgumentGroup12add_argumentINSt7__cxx1112basic_stringIcSt11char_traitsIcESaIcEEENS_16DefaultConverterIS7_EEEERNS_8ArgumentERNS_8ArgValueIT_EES7_S7_
FNDA:0,_ZN8argparse13ArgumentGroup12add_argumentINSt7__cxx1112basic_stringIcSt11char_traitsIcESaIcEEENS_16DefaultConverterIS7_EEEERNS_8ArgumentERNS_8ArgValueIT_EES7_S7_
FN:66,_ZN8argparse13ArgumentGroup12add_argumentIbNS_16DefaultConverterIbEEEERNS_8ArgumentERNS_8ArgValueIT_EENSt7__cxx1112basic_stringIcSt11char_traitsIcESaIcEEESF_
FNDA:0,_ZN8argparse13ArgumentGroup12add_argumentIbNS_16DefaultConverterIbEEEERNS_8ArgumentERNS_8ArgValueIT_EENSt7__cxx1112basic_stringIcSt11char_traitsIcESaIcEEESF_
FN:66,_ZN8argparse13ArgumentGroup12add_argumentIiNS_16DefaultConverterIiEEEERNS_8ArgumentERNS_8ArgValueIT_EENSt7__cxx1112basic_stringIcSt11char_traitsIcESaIcEEESF_
FNDA:0,_ZN8argparse13ArgumentGroup12add_argumentIiNS_16DefaultConverterIiEEEERNS_8ArgumentERNS_8ArgValueIT_EENSt7__cxx1112basic_stringIcSt11char_traitsIcESaIcEEESF_
FN:66,_ZN8argparse13ArgumentGroup12add_argumentIdNS_16DefaultConverterIdEEEERNS_8ArgumentERNS_8ArgValueIT_EENSt7__cxx1112basic_stringIcSt11char_traitsIcESaIcEEESF_
FNDA:0,_ZN8argparse13ArgumentGroup12add_argumentIdNS_16DefaultConverterIdEEEERNS_8ArgumentERNS_8ArgValueIT_EENSt7__cxx1112basic_stringIcSt11char_traitsIcESaIcEEESF_
FN:66,_ZN8argparse13ArgumentGroup12add_argumentIi17ParseInitRegStateEERNS_8ArgumentERNS_8ArgValueIT_EENSt7__cxx1112basic_stringIcSt11char_traitsIcESaIcEEESE_
FNDA:0,_ZN8argparse13ArgumentGroup12add_argumentIi17ParseInitRegStateEERNS_8ArgumentERNS_8ArgValueIT_EENSt7__cxx1112basic_stringIcSt11char_traitsIcESaIcEEESE_
FN:75,_ZN8argparse13ArgumentGroup12add_argumentINSt7__cxx1112basic_stringIcSt11char_traitsIcESaIcEEENS_16DefaultConverterIS7_EEEERNS_8ArgumentERNS_8ArgValueISt6vectorIT_SaISE_EEEES7_
FNDA:0,_ZN8argparse13ArgumentGroup12add_argumentINSt7__cxx1112basic_stringIcSt11char_traitsIcESaIcEEENS_16DefaultConverterIS7_EEEERNS_8ArgumentERNS_8ArgValueISt6vectorIT_SaISE_EEEES7_
FN:80,_ZN8argparse13ArgumentGroup12add_argumentINSt7__cxx1112basic_stringIcSt11char_traitsIcESaIcEEENS_16DefaultConverterIS7_EEEERNS_8ArgumentERNS_8ArgValueISt6vectorIT_SaISE_EEEES7_S7_
FNDA:0,_ZN8argparse13ArgumentGroup12add_argumentINSt7__cxx1112basic_stringIcSt11char_traitsIcESaIcEEENS_16DefaultConverterIS7_EEEERNS_8ArgumentERNS_8ArgValueISt6vectorIT_SaISE_EEEES7_S7_
DA:7,0
DA:8,0
DA:12,0
DA:13,0
DA:14,0
DA:17,0
DA:7,0
DA:8,0
DA:12,0
DA:13,0
DA:17,0
DA:7,0
DA:8,0
DA:12,0
DA:13,0
DA:17,0
DA:7,0
DA:8,0
DA:12,0
DA:13,0
DA:14,0
DA:17,0
DA:7,0
DA:8,0
DA:12,0
DA:13,0
DA:17,0
DA:21,0
DA:22,0
DA:26,0
DA:27,0
DA:31,0
DA:61,0
DA:62,0
DA:61,0
DA:62,0
DA:61,0
DA:62,0
DA:61,0
DA:62,0
DA:61,0
DA:62,0
DA:66,0
DA:67,0
DA:69,0
DA:70,0
DA:71,0
DA:66,0
DA:67,0
DA:69,0
DA:70,0
DA:71,0
DA:66,0
DA:67,0
DA:69,0
DA:70,0
DA:71,0
DA:66,0
DA:67,0
DA:69,0
DA:70,0
DA:71,0
DA:66,0
DA:67,0
DA:69,0
DA:70,0
DA:71,0
DA:75,0
DA:76,0
DA:80,0
DA:81,0
DA:83,0
DA:84,0
DA:85,0
end_of_record
SF:/usr/include/c++/9/bits/ios_base.h
DA:165,0
DA:166,0
end_of_record
SF:/workspace/vtr-verilog-to-routing/libs/EXTERNAL/libargparse/src/argparse_util.tpp
FN:22,_ZN8argparse4joinISt6vectorINSt7__cxx1112basic_stringIcSt11char_traitsIcESaIcEEESaIS7_EEEES7_T_S7_
FNDA:0,_ZN8argparse4joinISt6vectorINSt7__cxx1112basic_stringIcSt11char_traitsIcESaIcEEESaIS7_EEEES7_T_S7_
DA:22,0
DA:23,0
DA:25,0
DA:26,0
DA:27,0
DA:28,0
DA:29,0
DA:32,0
end_of_record
SF:/usr/include/c++/9/istream
DA:218,0
DA:219,0
end_of_record
SF:/usr/include/x86_64-linux-gnu/c++/9/bits/gthr-default.h
DA:248,0
DA:250,0
DA:252,0
end_of_record
SF:/usr/include/c++/9/bits/hashtable.h
FN:1348,_ZNSt10_HashtableIiSt4pairIKiN3vtr5bimapI13t_logical_pin14t_physical_pinSt3mapS6_EEESaIS8_ENSt8__detail10_Select1stESt8equal_toIiESt4hashIiENSA_18_Mod_range_hashingENSA_20_Default_ranged_hashENSA_20_Prime_rehash_policyENSA_17_Hashtable_traitsILb0ELb0ELb1EEEED2Ev
FNDA:0,_ZNSt10_HashtableIiSt4pairIKiN3vtr5bimapI13t_logical_pin14t_physical_pinSt3mapS6_EEESaIS8_ENSt8__detail10_Select1stESt8equal_toIiESt4hashIiENSA_18_Mod_range_hashingENSA_20_Default_ranged_hashENSA_20_Prime_rehash_policyENSA_17_Hashtable_traitsILb0ELb0ELb1EEEED2Ev
FN:1348,_ZNSt10_HashtableIiSt4pairIKiSt13unordered_mapIiN3vtr5bimapI13t_logical_pin14t_physical_pinSt3mapS7_EESt4hashIiESt8equal_toIiESaIS0_IS1_S8_EEEESaISG_ENSt8__detail10_Select1stESC_SA_NSI_18_Mod_range_hashingENSI_20_Default_ranged_hashENSI_20_Prime_rehash_policyENSI_17_Hashtable_traitsILb0ELb0ELb1EEEED2Ev
FNDA:0,_ZNSt10_HashtableIiSt4pairIKiSt13unordered_mapIiN3vtr5bimapI13t_logical_pin14t_physical_pinSt3mapS7_EESt4hashIiESt8equal_toIiESaIS0_IS1_S8_EEEESaISG_ENSt8__detail10_Select1stESC_SA_NSI_18_Mod_range_hashingENSI_20_Default_ranged_hashENSI_20_Prime_rehash_policyENSI_17_Hashtable_traitsILb0ELb0ELb1EEEED2Ev
FN:1348,_ZNSt10_HashtableINSt7__cxx1112basic_stringIcSt11char_traitsIcESaIcEEESt4pairIKS5_13t_metal_layerESaIS9_ENSt8__detail10_Select1stESt8equal_toIS5_ESt4hashIS5_ENSB_18_Mod_range_hashingENSB_20_Default_ranged_hashENSB_20_Prime_rehash_policyENSB_17_Hashtable_traitsILb1ELb0ELb1EEEED2Ev
FNDA:0,_ZNSt10_HashtableINSt7__cxx1112basic_stringIcSt11char_traitsIcESaIcEEESt4pairIKS5_13t_metal_layerESaIS9_ENSt8__detail10_Select1stESt8equal_toIS5_ESt4hashIS5_ENSB_18_Mod_range_hashingENSB_20_Default_ranged_hashENSB_20_Prime_rehash_policyENSB_17_Hashtable_traitsILb1ELb0ELb1EEEED2Ev
FN:1348,_ZNSt10_HashtableINSt7__cxx1112basic_stringIcSt11char_traitsIcESaIcEEESt4pairIKS5_N3vtr8StrongIdINS8_19interned_string_tagEiLin1EEEESaISC_ENSt8__detail10_Select1stESt8equal_toIS5_ESt4hashIS5_ENSE_18_Mod_range_hashingENSE_20_Default_ranged_hashENSE_20_Prime_rehash_policyENSE_17_Hashtable_traitsILb1ELb0ELb1EEEED2Ev
FNDA:0,_ZNSt10_HashtableINSt7__cxx1112basic_stringIcSt11char_traitsIcESaIcEEESt4pairIKS5_N3vtr8StrongIdINS8_19interned_string_tagEiLin1EEEESaISC_ENSt8__detail10_Select1stESt8equal_toIS5_ESt4hashIS5_ENSE_18_Mod_range_hashingENSE_20_Default_ranged_hashENSE_20_Prime_rehash_policyENSE_17_Hashtable_traitsILb1ELb0ELb1EEEED2Ev
FN:2024,_ZNSt10_HashtableIiSt4pairIKiN3vtr5bimapI13t_logical_pin14t_physical_pinSt3mapS6_EEESaIS8_ENSt8__detail10_Select1stESt8equal_toIiESt4hashIiENSA_18_Mod_range_hashingENSA_20_Default_ranged_hashENSA_20_Prime_rehash_policyENSA_17_Hashtable_traitsILb0ELb0ELb1EEEE5clearEv
FNDA:0,_ZNSt10_HashtableIiSt4pairIKiN3vtr5bimapI13t_logical_pin14t_physical_pinSt3mapS6_EEESaIS8_ENSt8__detail10_Select1stESt8equal_toIiESt4hashIiENSA_18_Mod_range_hashingENSA_20_Default_ranged_hashENSA_20_Prime_rehash_policyENSA_17_Hashtable_traitsILb0ELb0ELb1EEEE5clearEv
FN:2024,_ZNSt10_HashtableIiSt4pairIKiSt13unordered_mapIiN3vtr5bimapI13t_logical_pin14t_physical_pinSt3mapS7_EESt4hashIiESt8equal_toIiESaIS0_IS1_S8_EEEESaISG_ENSt8__detail10_Select1stESC_SA_NSI_18_Mod_range_hashingENSI_20_Default_ranged_hashENSI_20_Prime_rehash_policyENSI_17_Hashtable_traitsILb0ELb0ELb1EEEE5clearEv
FNDA:0,_ZNSt10_HashtableIiSt4pairIKiSt13unordered_mapIiN3vtr5bimapI13t_logical_pin14t_physical_pinSt3mapS7_EESt4hashIiESt8equal_toIiESaIS0_IS1_S8_EEEESaISG_ENSt8__detail10_Select1stESC_SA_NSI_18_Mod_range_hashingENSI_20_Default_ranged_hashENSI_20_Prime_rehash_policyENSI_17_Hashtable_traitsILb0ELb0ELb1EEEE5clearEv
FN:2024,_ZNSt10_HashtableINSt7__cxx1112basic_stringIcSt11char_traitsIcESaIcEEESt4pairIKS5_13t_metal_layerESaIS9_ENSt8__detail10_Select1stESt8equal_toIS5_ESt4hashIS5_ENSB_18_Mod_range_hashingENSB_20_Default_ranged_hashENSB_20_Prime_rehash_policyENSB_17_Hashtable_traitsILb1ELb0ELb1EEEE5clearEv
FNDA:0,_ZNSt10_HashtableINSt7__cxx1112basic_stringIcSt11char_traitsIcESaIcEEESt4pairIKS5_13t_metal_layerESaIS9_ENSt8__detail10_Select1stESt8equal_toIS5_ESt4hashIS5_ENSB_18_Mod_range_hashingENSB_20_Default_ranged_hashENSB_20_Prime_rehash_policyENSB_17_Hashtable_traitsILb1ELb0ELb1EEEE5clearEv
FN:2024,_ZNSt10_HashtableINSt7__cxx1112basic_stringIcSt11char_traitsIcESaIcEEESt4pairIKS5_N3vtr8StrongIdINS8_19interned_string_tagEiLin1EEEESaISC_ENSt8__detail10_Select1stESt8equal_toIS5_ESt4hashIS5_ENSE_18_Mod_range_hashingENSE_20_Default_ranged_hashENSE_20_Prime_rehash_policyENSE_17_Hashtable_traitsILb1ELb0ELb1EEEE5clearEv
FNDA:0,_ZNSt10_HashtableINSt7__cxx1112basic_stringIcSt11char_traitsIcESaIcEEESt4pairIKS5_N3vtr8StrongIdINS8_19interned_string_tagEiLin1EEEESaISC_ENSt8__detail10_Select1stESt8equal_toIS5_ESt4hashIS5_ENSE_18_Mod_range_hashingENSE_20_Default_ranged_hashENSE_20_Prime_rehash_policyENSE_17_Hashtable_traitsILb1ELb0ELb1EEEE5clearEv
DA:342,0
DA:343,0
DA:365,0
DA:367,0
DA:370,0
DA:374,0
DA:375,0
DA:383,0
DA:1348,0
DA:1352,0
DA:1353,0
DA:1354,0
DA:1348,0
DA:1352,0
DA:1353,0
DA:1354,0
DA:1348,0
DA:1352,0
DA:1353,0
DA:1354,0
DA:1348,0
DA:1352,0
DA:1353,0
DA:1354,0
DA:2024,0
DA:2028,0
DA:2029,0
DA:2030,0
DA:2031,0
DA:2032,0
DA:2024,0
DA:2028,0
DA:2029,0
DA:2030,0
DA:2031,0
DA:2032,0
DA:2024,0
DA:2028,0
DA:2029,0
DA:2030,0
DA:2031,0
DA:2032,0
DA:2024,0
DA:2028,0
DA:2029,0
DA:2030,0
DA:2031,0
DA:2032,0
end_of_record
SF:/usr/include/c++/9/bits/ptr_traits.h
DA:146,0
DA:147,0
DA:156,0
end_of_record
SF:/usr/include/c++/9/bits/stl_map.h
end_of_record
SF:/usr/include/c++/9/sstream
DA:831,0
DA:832,0
end_of_record
SF:/usr/include/c++/9/bits/stl_algobase.h
FN:337,_ZNSt11__copy_moveILb0ELb0ESt26random_access_iterator_tagE8__copy_mIPKbSt13_Bit_iteratorEET0_T_S7_S6_
FNDA:0,_ZNSt11__copy_moveILb0ELb0ESt26random_access_iterator_tagE8__copy_mIPKbSt13_Bit_iteratorEET0_T_S7_S6_
DA:198,0
DA:203,0
DA:204,0
DA:222,0
DA:227,0
DA:228,0
DA:280,0
DA:290,0
DA:295,0
DA:337,0
DA:340,0
DA:342,0
DA:343,0
DA:344,0
DA:346,0
DA:393,0
DA:398,0
DA:404,0
DA:438,0
DA:440,0
DA:465,0
DA:474,0
DA:562,0
DA:565,0
DA:566,0
DA:595,0
DA:600,0
DA:606,0
DA:613,0
DA:615,0
DA:676,0
DA:686,0
end_of_record
SF:/workspace/vtr-verilog-to-routing/libs/libvtrutil/src/vtr_vector.h
end_of_record
SF:/workspace/vtr-verilog-to-routing/libs/libvtrutil/src/vtr_bimap.h
end_of_record
SF:/usr/include/c++/9/bits/stl_iterator.h
DA:806,0
DA:807,0
DA:811,0
DA:815,0
DA:819,0
DA:827,0
DA:829,0
DA:830,0
DA:859,0
DA:860,0
DA:871,0
DA:893,0
DA:896,0
DA:907,0
DA:910,0
DA:989,0
DA:992,0
DA:1012,0
end_of_record
SF:/usr/include/c++/9/streambuf
end_of_record
SF:/usr/include/c++/9/bits/basic_string.h
FN:6097,_ZStplIcSt11char_traitsIcESaIcEENSt7__cxx1112basic_stringIT_T0_T1_EEOS8_S9_
FNDA:0,_ZStplIcSt11char_traitsIcESaIcEENSt7__cxx1112basic_stringIT_T0_T1_EEOS8_S9_
FN:6109,_ZStplIcSt11char_traitsIcESaIcEENSt7__cxx1112basic_stringIT_T0_T1_EEPKS5_OS8_
FNDA:0,_ZStplIcSt11char_traitsIcESaIcEENSt7__cxx1112basic_stringIT_T0_T1_EEPKS5_OS8_
FN:6121,_ZStplIcSt11char_traitsIcESaIcEENSt7__cxx1112basic_stringIT_T0_T1_EEOS8_PKS5_
FNDA:0,_ZStplIcSt11char_traitsIcESaIcEENSt7__cxx1112basic_stringIT_T0_T1_EEOS8_PKS5_
FN:6149,_ZSteqIcEN9__gnu_cxx11__enable_ifIXsrSt9__is_charIT_E7__valueEbE6__typeERKNSt7__cxx1112basic_stringIS3_St11char_traitsIS3_ESaIS3_EEESE_
FNDA:0,_ZSteqIcEN9__gnu_cxx11__enable_ifIXsrSt9__is_charIT_E7__valueEbE6__typeERKNSt7__cxx1112basic_stringIS3_St11char_traitsIS3_ESaIS3_EEESE_
DA:150,0
DA:159,0
DA:160,0
DA:178,0
DA:179,0
DA:182,0
DA:183,0
DA:186,0
DA:190,0
DA:193,0
DA:200,0
DA:203,0
DA:210,0
DA:211,0
DA:214,0
DA:216,0
DA:217,0
DA:221,0
DA:222,0
DA:229,0
DA:231,0
DA:232,0
DA:236,0
DA:237,0
DA:243,0
DA:247,0
DA:263,0
DA:266,0
DA:286,0
DA:287,0
DA:290,0
DA:291,0
DA:346,0
DA:348,0
DA:349,0
DA:351,0
DA:392,0
DA:393,0
DA:396,0
DA:398,0
DA:431,0
DA:433,0
DA:434,0
DA:448,0
DA:450,0
DA:451,0
DA:552,0
DA:553,0
DA:555,0
DA:557,0
DA:562,0
DA:563,0
DA:569,0
DA:570,0
DA:571,0
DA:657,0
DA:658,0
DA:665,0
DA:696,0
DA:704,0
DA:705,0
DA:930,0
DA:936,0
DA:993,0
DA:995,0
DA:1031,0
DA:1032,0
DA:1221,0
DA:1222,0
DA:1364,0
DA:1366,0
DA:1639,0
DA:1641,0
DA:2300,0
DA:2301,0
DA:2312,0
DA:2313,0
DA:6097,0
DA:6100,0
DA:6101,0
DA:6102,0
DA:6103,0
DA:6104,0
DA:6109,0
DA:6111,0
DA:6121,0
DA:6123,0
DA:6149,0
DA:6151,0
DA:6152,0
DA:6153,0
DA:6175,0
DA:6177,0
DA:6188,0
DA:6191,0
DA:6416,0
DA:6421,0
end_of_record
SF:/workspace/vtr-verilog-to-routing/libs/libarchfpga/src/clock_types.h
end_of_record
SF:/usr/include/c++/9/bits/shared_ptr.h
DA:103,0
DA:254,0
DA:255,0
DA:263,0
DA:264,0
DA:358,0
DA:359,0
DA:699,0
DA:702,0
DA:714,0
DA:718,0
end_of_record
SF:/usr/include/c++/9/bits/stl_tree.h
FN:1907,_ZNSt8_Rb_treeI14t_physical_pinSt4pairIKS0_13t_logical_pinESt10_Select1stIS4_ESt4lessIS0_ESaIS4_EE8_M_eraseEPSt13_Rb_tree_nodeIS4_E
FNDA:0,_ZNSt8_Rb_treeI14t_physical_pinSt4pairIKS0_13t_logical_pinESt10_Select1stIS4_ESt4lessIS0_ESaIS4_EE8_M_eraseEPSt13_Rb_tree_nodeIS4_E
FN:1907,_ZNSt8_Rb_treeI13t_logical_pinSt4pairIKS0_14t_physical_pinESt10_Select1stIS4_ESt4lessIS0_ESaIS4_EE8_M_eraseEPSt13_Rb_tree_nodeIS4_E
FNDA:0,_ZNSt8_Rb_treeI13t_logical_pinSt4pairIKS0_14t_physical_pinESt10_Select1stIS4_ESt4lessIS0_ESaIS4_EE8_M_eraseEPSt13_Rb_tree_nodeIS4_E
FN:1907,_ZNSt8_Rb_treeI18SB_Side_ConnectionSt4pairIKS0_St6vectorINSt7__cxx1112basic_stringIcSt11char_traitsIcESaIcEEESaIS9_EEESt10_Select1stISC_ESt4lessIS0_ESaISC_EE8_M_eraseEPSt13_Rb_tree_nodeISC_E
FNDA:0,_ZNSt8_Rb_treeI18SB_Side_ConnectionSt4pairIKS0_St6vectorINSt7__cxx1112basic_stringIcSt11char_traitsIcESaIcEEESaIS9_EEESt10_Select1stISC_ESt4lessIS0_ESaISC_EE8_M_eraseEPSt13_Rb_tree_nodeISC_E
DA:234,0
DA:235,0
DA:566,0
DA:567,0
DA:583,0
DA:584,0
DA:637,0
DA:642,0
DA:643,0
DA:648,0
DA:650,0
DA:651,0
DA:789,0
DA:797,0
DA:1907,0
DA:1911,0
DA:1913,0
DA:1914,0
DA:1915,0
DA:1916,0
DA:1918,0
DA:1907,0
DA:1911,0
DA:1913,0
DA:1914,0
DA:1915,0
DA:1916,0
DA:1918,0
DA:1907,0
DA:1911,0
DA:1913,0
DA:1914,0
DA:1915,0
DA:1916,0
DA:1918,0
end_of_record
SF:/usr/include/c++/9/bits/basic_string.tcc
FN:206,_ZNSt7__cxx1112basic_stringIcSt11char_traitsIcESaIcEE12_M_constructIPcEEvT_S7_St20forward_iterator_tag
FNDA:0,_ZNSt7__cxx1112basic_stringIcSt11char_traitsIcESaIcEE12_M_constructIPcEEvT_S7_St20forward_iterator_tag
FN:206,_ZNSt7__cxx1112basic_stringIcSt11char_traitsIcESaIcEE12_M_constructIPKcEEvT_S8_St20forward_iterator_tag
FNDA:0,_ZNSt7__cxx1112basic_stringIcSt11char_traitsIcESaIcEE12_M_constructIPKcEEvT_S8_St20forward_iterator_tag
FN:1158,_ZStplIcSt11char_traitsIcESaIcEENSt7__cxx1112basic_stringIT_T0_T1_EEPKS5_RKS8_
FNDA:0,_ZStplIcSt11char_traitsIcESaIcEENSt7__cxx1112basic_stringIT_T0_T1_EEPKS5_RKS8_
DA:206,0
DA:211,0
DA:212,0
DA:215,0
DA:217,0
DA:219,0
DA:220,0
DA:225,0
DA:232,0
DA:233,0
DA:206,0
DA:211,0
DA:212,0
DA:215,0
DA:217,0
DA:219,0
DA:220,0
DA:225,0
DA:232,0
DA:233,0
DA:1158,0
DA:1164,0
DA:1165,0
DA:1166,0
DA:1167,0
DA:1168,0
DA:1169,0
end_of_record
SF:/usr/include/c++/9/initializer_list
DA:71,0
DA:75,0
DA:79,0
end_of_record
SF:/usr/include/c++/9/bits/char_traits.h
DA:299,0
DA:300,0
DA:315,0
DA:317,0
DA:325,0
DA:329,0
DA:335,0
DA:361,0
DA:363,0
DA:365,0
end_of_record
SF:/usr/include/c++/9/bits/stl_uninitialized.h
FN:76,_ZNSt20__uninitialized_copyILb0EE13__uninit_copyIN9__gnu_cxx17__normal_iteratorIPKNSt7__cxx1112basic_stringIcSt11char_traitsIcESaIcEEESt6vectorIS9_SaIS9_EEEEPS9_EET0_T_SI_SH_
FNDA:0,_ZNSt20__uninitialized_copyILb0EE13__uninit_copyIN9__gnu_cxx17__normal_iteratorIPKNSt7__cxx1112basic_stringIcSt11char_traitsIcESaIcEEESt6vectorIS9_SaIS9_EEEEPS9_EET0_T_SI_SH_
FN:76,_ZNSt20__uninitialized_copyILb0EE13__uninit_copyIPKNSt7__cxx1112basic_stringIcSt11char_traitsIcESaIcEEEPS7_EET0_T_SC_SB_
FNDA:0,_ZNSt20__uninitialized_copyILb0EE13__uninit_copyIPKNSt7__cxx1112basic_stringIcSt11char_traitsIcESaIcEEEPS7_EET0_T_SC_SB_
FN:76,_ZNSt20__uninitialized_copyILb0EE13__uninit_copyIPNSt7__cxx1112basic_stringIcSt11char_traitsIcESaIcEEES8_EET0_T_SA_S9_
FNDA:0,_ZNSt20__uninitialized_copyILb0EE13__uninit_copyIPNSt7__cxx1112basic_stringIcSt11char_traitsIcESaIcEEES8_EET0_T_SA_S9_
DA:76,0
DA:79,0
DA:82,0
DA:83,0
DA:84,0
DA:86,0
DA:88,0
DA:89,0
DA:76,0
DA:79,0
DA:82,0
DA:83,0
DA:84,0
DA:86,0
DA:88,0
DA:89,0
DA:76,0
DA:79,0
DA:82,0
DA:83,0
DA:84,0
DA:86,0
DA:88,0
DA:89,0
DA:115,0
DA:134,0
DA:140,0
DA:305,0
DA:307,0
DA:905,0
DA:912,0
DA:913,0
DA:924,0
DA:927,0
DA:928,0
DA:929,0
DA:930,0
DA:949,0
DA:950,0
DA:958,0
DA:964,0
end_of_record
SF:/workspace/vtr-verilog-to-routing/libs/libvtrutil/src/vtr_string_interning.h
end_of_record
SF:/usr/include/c++/9/bits/hashtable_policy.h
DA:269,0
DA:1093,0
DA:1108,0
DA:2017,0
DA:2046,0
DA:2047,0
DA:2118,0
DA:2120,0
DA:2122,0
DA:2123,0
DA:2124,0
DA:2142,0
DA:2146,0
DA:2147,0
DA:2148,0
DA:2149,0
end_of_record
SF:/usr/include/c++/9/bits/allocated_ptr.h
DA:52,0
DA:53,0
DA:70,0
DA:73,0
DA:78,0
DA:80,0
DA:85,0
DA:95,0
DA:97,0
end_of_record
SF:/workspace/vtr-verilog-to-routing/libs/EXTERNAL/libargparse/src/argparse_default_converter.hpp
FN:41,_ZN8argparse16DefaultConverterIiE8from_strENSt7__cxx1112basic_stringIcSt11char_traitsIcESaIcEEE
FNDA:0,_ZN8argparse16DefaultConverterIiE8from_strENSt7__cxx1112basic_stringIcSt11char_traitsIcESaIcEEE
FN:41,_ZN8argparse16DefaultConverterIdE8from_strENSt7__cxx1112basic_stringIcSt11char_traitsIcESaIcEEE
FNDA:0,_ZN8argparse16DefaultConverterIdE8from_strENSt7__cxx1112basic_stringIcSt11char_traitsIcESaIcEEE
FN:93,_ZN8argparse16DefaultConverterIbE8from_strENSt7__cxx1112basic_stringIcSt11char_traitsIcESaIcEEE
FNDA:0,_ZN8argparse16DefaultConverterIbE8from_strENSt7__cxx1112basic_stringIcSt11char_traitsIcESaIcEEE
FN:114,_ZN8argparse16DefaultConverterIbE15default_choicesB5cxx11Ev
FNDA:0,_ZN8argparse16DefaultConverterIbE15default_choicesB5cxx11Ev
FN:125,_ZN8argparse16DefaultConverterINSt7__cxx1112basic_stringIcSt11char_traitsIcESaIcEEEE8from_strES6_
FNDA:0,_ZN8argparse16DefaultConverterINSt7__cxx1112basic_stringIcSt11char_traitsIcESaIcEEEE8from_strES6_
DA:18,0
DA:28,0
DA:41,0
DA:42,0
DA:44,0
DA:45,0
DA:47,0
DA:48,0
DA:49,0
DA:51,0
DA:52,0
DA:53,0
DA:54,0
DA:55,0
DA:56,0
DA:57,0
DA:59,0
DA:61,0
DA:65,0
DA:41,0
DA:42,0
DA:44,0
DA:45,0
DA:47,0
DA:48,0
DA:49,0
DA:51,0
DA:52,0
DA:53,0
DA:54,0
DA:55,0
DA:56,0
DA:57,0
DA:59,0
DA:61,0
DA:65,0
DA:84,0
DA:93,0
DA:94,0
DA:96,0
DA:97,0
DA:98,0
DA:99,0
DA:100,0
DA:102,0
DA:104,0
DA:114,0
DA:115,0
DA:125,0
DA:126,0
DA:127,0
DA:128,0
DA:135,0
end_of_record
SF:/usr/include/x86_64-linux-gnu/bits/stdio2.h
DA:105,0
DA:107,0
end_of_record
SF:/usr/include/c++/9/iostream
end_of_record
SF:/usr/include/c++/9/ext/aligned_buffer.h
DA:64,0
DA:65,0
DA:72,0
DA:73,0
DA:102,0
DA:104,0
DA:114,0
DA:115,0
end_of_record
SF:/usr/include/c++/9/ext/new_allocator.h
FN:144,_ZN9__gnu_cxx13new_allocatorIN8argparse19SingleValueArgumentIi17ParseInitRegStateEEE9constructIS4_JRNS1_8ArgValueIiEERNSt7__cxx1112basic_stringIcSt11char_traitsIcESaIcEEESG_EEEvPT_DpOT0_
FNDA:0,_ZN9__gnu_cxx13new_allocatorIN8argparse19SingleValueArgumentIi17ParseInitRegStateEEE9constructIS4_JRNS1_8ArgValueIiEERNSt7__cxx1112basic_stringIcSt11char_traitsIcESaIcEEESG_EEEvPT_DpOT0_
FN:144,_ZN9__gnu_cxx13new_allocatorIN8argparse19SingleValueArgumentIdNS1_16DefaultConverterIdEEEEE9constructIS5_JRNS1_8ArgValueIdEERNSt7__cxx1112basic_stringIcSt11char_traitsIcESaIcEEESH_EEEvPT_DpOT0_
FNDA:0,_ZN9__gnu_cxx13new_allocatorIN8argparse19SingleValueArgumentIdNS1_16DefaultConverterIdEEEEE9constructIS5_JRNS1_8ArgValueIdEERNSt7__cxx1112basic_stringIcSt11char_traitsIcESaIcEEESH_EEEvPT_DpOT0_
FN:144,_ZN9__gnu_cxx13new_allocatorIN8argparse19SingleValueArgumentIiNS1_16DefaultConverterIiEEEEE9constructIS5_JRNS1_8ArgValueIiEERNSt7__cxx1112basic_stringIcSt11char_traitsIcESaIcEEESH_EEEvPT_DpOT0_
FNDA:0,_ZN9__gnu_cxx13new_allocatorIN8argparse19SingleValueArgumentIiNS1_16DefaultConverterIiEEEEE9constructIS5_JRNS1_8ArgValueIiEERNSt7__cxx1112basic_stringIcSt11char_traitsIcESaIcEEESH_EEEvPT_DpOT0_
FN:144,_ZN9__gnu_cxx13new_allocatorIN8argparse19SingleValueArgumentIbNS1_16DefaultConverterIbEEEEE9constructIS5_JRNS1_8ArgValueIbEERNSt7__cxx1112basic_stringIcSt11char_traitsIcESaIcEEESH_EEEvPT_DpOT0_
FNDA:0,_ZN9__gnu_cxx13new_allocatorIN8argparse19SingleValueArgumentIbNS1_16DefaultConverterIbEEEEE9constructIS5_JRNS1_8ArgValueIbEERNSt7__cxx1112basic_stringIcSt11char_traitsIcESaIcEEESH_EEEvPT_DpOT0_
FN:144,_ZN9__gnu_cxx13new_allocatorIN8argparse18MultiValueArgumentISt6vectorINSt7__cxx1112basic_stringIcSt11char_traitsIcESaIcEEESaIS9_EENS1_16DefaultConverterIS9_EEEEE9constructISE_JRNS1_8ArgValueISB_EERS9_SK_EEEvPT_DpOT0_
FNDA:0,_ZN9__gnu_cxx13new_allocatorIN8argparse18MultiValueArgumentISt6vectorINSt7__cxx1112basic_stringIcSt11char_traitsIcESaIcEEESaIS9_EENS1_16DefaultConverterIS9_EEEEE9constructISE_JRNS1_8ArgValueISB_EERS9_SK_EEEvPT_DpOT0_
FN:144,_ZN9__gnu_cxx13new_allocatorIN8argparse19SingleValueArgumentINSt7__cxx1112basic_stringIcSt11char_traitsIcESaIcEEENS1_16DefaultConverterIS8_EEEEE9constructISB_JRNS1_8ArgValueIS8_EERS8_SH_EEEvPT_DpOT0_
FNDA:0,_ZN9__gnu_cxx13new_allocatorIN8argparse19SingleValueArgumentINSt7__cxx1112basic_stringIcSt11char_traitsIcESaIcEEENS1_16DefaultConverterIS8_EEEEE9constructISB_JRNS1_8ArgValueIS8_EERS8_SH_EEEvPT_DpOT0_
DA:80,0
DA:83,0
DA:89,0
DA:102,0
DA:104,0
DA:114,0
DA:119,0
DA:128,0
DA:132,0
DA:144,0
DA:147,0
DA:144,0
DA:147,0
DA:144,0
DA:147,0
DA:144,0
DA:147,0
DA:144,0
DA:147,0
DA:144,0
DA:147,0
DA:144,0
DA:147,0
DA:151,0
DA:153,0
end_of_record
SF:/usr/include/c++/9/bits/stl_bvector.h
FN:537,_ZNSt13_Bvector_baseISaIbEE13_M_deallocateEv
FNDA:0,_ZNSt13_Bvector_baseISaIbEE13_M_deallocateEv
FN:687,_ZNSt6vectorIbSaIbEEC2ESt16initializer_listIbERKS0_
FNDA:0,_ZNSt6vectorIbSaIbEEC2ESt16initializer_listIbERKS0_
FN:1120,_ZNSt6vectorIbSaIbEE13_M_initializeEm
FNDA:0,_ZNSt6vectorIbSaIbEE13_M_initializeEm
DA:77,0
DA:90,0
DA:92,0
DA:93,0
DA:95,0
DA:96,0
DA:148,0
DA:149,0
DA:152,0
DA:154,0
DA:156,0
DA:157,0
DA:172,0
DA:174,0
DA:175,0
DA:176,0
DA:177,0
DA:179,0
DA:180,0
DA:182,0
DA:226,0
DA:228,0
DA:229,0
DA:236,0
DA:237,0
DA:240,0
DA:242,0
DA:243,0
DA:270,0
DA:272,0
DA:273,0
DA:284,0
DA:286,0
DA:287,0
DA:444,0
DA:445,0
DA:465,0
DA:467,0
DA:468,0
DA:469,0
DA:472,0
DA:481,0
DA:482,0
DA:490,0
DA:492,0
DA:493,0
DA:519,0
DA:520,0
DA:526,0
DA:527,0
DA:533,0
DA:534,0
DA:537,0
DA:539,0
DA:541,0
DA:542,0
DA:543,0
DA:545,0
DA:547,0
DA:556,0
DA:557,0
DA:687,0
DA:689,0
DA:691,0
DA:693,0
DA:714,0
DA:1120,0
DA:1122,0
DA:1124,0
DA:1125,0
DA:1126,0
DA:1130,0
DA:1131,0
DA:1133,0
DA:1135,0
end_of_record
SF:/usr/include/c++/9/bits/move.h
DA:47,0
DA:74,0
DA:99,0
DA:138,0
DA:139,0
end_of_record
SF:/usr/include/c++/9/bits/stl_vector.h
FN:550,_ZNSt6vectorINSt7__cxx1112basic_stringIcSt11char_traitsIcESaIcEEESaIS5_EEC2ERKS7_
FNDA:0,_ZNSt6vectorINSt7__cxx1112basic_stringIcSt11char_traitsIcESaIcEEESaIS5_EEC2ERKS7_
FN:622,_ZNSt6vectorINSt7__cxx1112basic_stringIcSt11char_traitsIcESaIcEEESaIS5_EEC2ESt16initializer_listIS5_ERKS6_
FNDA:0,_ZNSt6vectorINSt7__cxx1112basic_stringIcSt11char_traitsIcESaIcEEESaIS5_EEC2ESt16initializer_listIS5_ERKS6_
FN:675,_ZNSt6vectorI18t_fc_specificationSaIS0_EED2Ev
FNDA:0,_ZNSt6vectorI18t_fc_specificationSaIS0_EED2Ev
FN:675,_ZNSt6vectorINSt7__cxx1112basic_stringIcSt11char_traitsIcESaIcEEESaIS5_EED2Ev
FNDA:0,_ZNSt6vectorINSt7__cxx1112basic_stringIcSt11char_traitsIcESaIcEEESaIS5_EED2Ev
FN:675,_ZNSt6vectorI17t_switchblock_infSaIS0_EED2Ev
FNDA:0,_ZNSt6vectorI17t_switchblock_infSaIS0_EED2Ev
FN:675,_ZNSt6vectorI13t_segment_infSaIS0_EED2Ev
FNDA:0,_ZNSt6vectorI13t_segment_infSaIS0_EED2Ev
FN:675,_ZNSt6vectorI10t_grid_defSaIS0_EED2Ev
FNDA:0,_ZNSt6vectorI10t_grid_defSaIS0_EED2Ev
FN:675,_ZNSt6vectorI20t_clock_network_archSaIS0_EED2Ev
FNDA:0,_ZNSt6vectorI20t_clock_network_archSaIS0_EED2Ev
FN:675,_ZNSt6vectorI23t_clock_connection_archSaIS0_EED2Ev
FNDA:0,_ZNSt6vectorI23t_clock_connection_archSaIS0_EED2Ev
FN:675,_ZNSt6vectorIN8argparse13ArgumentGroupESaIS1_EED2Ev
FNDA:0,_ZNSt6vectorIN8argparse13ArgumentGroupESaIS1_EED2Ev
FN:675,_ZNSt6vectorISt4pairIN3vtr15interned_stringES_I16t_metadata_valueSaIS3_EEESaIS6_EED2Ev
FNDA:0,_ZNSt6vectorISt4pairIN3vtr15interned_stringES_I16t_metadata_valueSaIS3_EEESaIS6_EED2Ev
FN:675,_ZNSt6vectorI14t_wireconn_infSaIS0_EED2Ev
FNDA:0,_ZNSt6vectorI14t_wireconn_infSaIS0_EED2Ev
FN:675,_ZNSt6vectorI14t_grid_loc_defSaIS0_EED2Ev
FNDA:0,_ZNSt6vectorI14t_grid_loc_defSaIS0_EED2Ev
FN:675,_ZNSt6vectorISt10shared_ptrIN8argparse8ArgumentEESaIS3_EED2Ev
FNDA:0,_ZNSt6vectorISt10shared_ptrIN8argparse8ArgumentEESaIS3_EED2Ev
FN:675,_ZNSt6vectorI19t_wire_switchpointsSaIS0_EED2Ev
FNDA:0,_ZNSt6vectorI19t_wire_switchpointsSaIS0_EED2Ev
FN:675,_ZNSt6vectorI20t_physical_tile_typeSaIS0_EED2Ev
FNDA:0,_ZNSt6vectorI20t_physical_tile_typeSaIS0_EED2Ev
FN:675,_ZNSt6vectorI20t_logical_block_typeSaIS0_EED2Ev
FNDA:0,_ZNSt6vectorI20t_logical_block_typeSaIS0_EED2Ev
FN:675,_ZNSt6vectorI7t_classSaIS0_EED2Ev
FNDA:0,_ZNSt6vectorI7t_classSaIS0_EED2Ev
FN:675,_ZNSt6vectorI10t_sub_tileSaIS0_EED2Ev
FNDA:0,_ZNSt6vectorI10t_sub_tileSaIS0_EED2Ev
FN:1184,_ZNSt6vectorIP9t_pb_typeSaIS1_EE9push_backERKS1_
FNDA:0,_ZNSt6vectorIP9t_pb_typeSaIS1_EE9push_backERKS1_
FN:1505,_ZNSt6vectorINSt7__cxx1112basic_stringIcSt11char_traitsIcESaIcEEESaIS5_EE20_M_allocate_and_copyIPKS5_EEPS5_mT_SC_
FNDA:0,_ZNSt6vectorINSt7__cxx1112basic_stringIcSt11char_traitsIcESaIcEEESaIS5_EE20_M_allocate_and_copyIPKS5_EEPS5_mT_SC_
FN:1505,_ZNSt6vectorINSt7__cxx1112basic_stringIcSt11char_traitsIcESaIcEEESaIS5_EE20_M_allocate_and_copyIN9__gnu_cxx17__normal_iteratorIPKS5_S7_EEEEPS5_mT_SF_
FNDA:0,_ZNSt6vectorINSt7__cxx1112basic_stringIcSt11char_traitsIcESaIcEEESaIS5_EE20_M_allocate_and_copyIN9__gnu_cxx17__normal_iteratorIPKS5_S7_EEEEPS5_mT_SF_
FN:1753,_ZNKSt6vectorINSt7__cxx1112basic_stringIcSt11char_traitsIcESaIcEEESaIS5_EE12_M_check_lenEmPKc
FNDA:0,_ZNKSt6vectorINSt7__cxx1112basic_stringIcSt11char_traitsIcESaIcEEESaIS5_EE12_M_check_lenEmPKc
FN:1753,_ZNKSt6vectorIP9t_pb_typeSaIS1_EE12_M_check_lenEmPKc
FNDA:0,_ZNKSt6vectorIP9t_pb_typeSaIS1_EE12_M_check_lenEmPKc
FN:1753,_ZNKSt6vectorISt10shared_ptrIN8argparse8ArgumentEESaIS3_EE12_M_check_lenEmPKc
FNDA:0,_ZNKSt6vectorISt10shared_ptrIN8argparse8ArgumentEESaIS3_EE12_M_check_lenEmPKc
DA:94,0
DA:95,0
DA:125,0
DA:128,0
DA:130,0
DA:133,0
DA:134,0
DA:273,0
DA:274,0
DA:277,0
DA:278,0
DA:285,0
DA:290,0
DA:291,0
DA:300,0
DA:301,0
DA:302,0
DA:330,0
DA:332,0
DA:333,0
DA:334,0
DA:347,0
DA:350,0
DA:351,0
DA:356,0
DA:358,0
DA:359,0
DA:360,0
DA:450,0
DA:453,0
DA:462,0
DA:466,0
DA:484,0
DA:550,0
DA:552,0
DA:554,0
DA:555,0
DA:557,0
DA:558,0
DA:622,0
DA:624,0
DA:626,0
DA:628,0
DA:675,0
DA:677,0
DA:678,0
DA:680,0
DA:675,0
DA:677,0
DA:678,0
DA:680,0
DA:675,0
DA:677,0
DA:678,0
DA:680,0
DA:675,0
DA:677,0
DA:678,0
DA:680,0
DA:675,0
DA:677,0
DA:678,0
DA:680,0
DA:675,0
DA:677,0
DA:678,0
DA:680,0
DA:675,0
DA:677,0
DA:678,0
DA:680,0
DA:675,0
DA:677,0
DA:678,0
DA:680,0
DA:675,0
DA:677,0
DA:678,0
DA:680,0
DA:675,0
DA:677,0
DA:678,0
DA:680,0
DA:675,0
DA:677,0
DA:678,0
DA:680,0
DA:675,0
DA:677,0
DA:678,0
DA:680,0
DA:675,0
DA:677,0
DA:678,0
DA:680,0
DA:675,0
DA:677,0
DA:678,0
DA:680,0
DA:675,0
DA:677,0
DA:678,0
DA:680,0
DA:675,0
DA:677,0
DA:678,0
DA:680,0
DA:675,0
DA:677,0
DA:678,0
DA:680,0
DA:675,0
DA:677,0
DA:678,0
DA:680,0
DA:727,0
DA:729,0
DA:808,0
DA:809,0
DA:817,0
DA:818,0
DA:826,0
DA:827,0
DA:835,0
DA:836,0
DA:881,0
DA:882,0
DA:890,0
DA:891,0
DA:915,0
DA:916,0
DA:920,0
DA:921,0
DA:995,0
DA:997,0
DA:1004,0
DA:1005,0
DA:1040,0
DA:1043,0
DA:1184,0
DA:1186,0
DA:1189,0
DA:1191,0
DA:1195,0
DA:1196,0
DA:1200,0
DA:1201,0
DA:1290,0
DA:1291,0
DA:1495,0
DA:1496,0
DA:1505,0
DA:1508,0
DA:1511,0
DA:1512,0
DA:1513,0
DA:1515,0
DA:1517,0
DA:1518,0
DA:1505,0
DA:1508,0
DA:1511,0
DA:1512,0
DA:1513,0
DA:1515,0
DA:1517,0
DA:1518,0
DA:1753,0
DA:1755,0
DA:1756,0
DA:1758,0
DA:1759,0
DA:1753,0
DA:1755,0
DA:1756,0
DA:1758,0
DA:1759,0
DA:1753,0
DA:1755,0
DA:1756,0
DA:1758,0
DA:1759,0
DA:1764,0
DA:1766,0
DA:1767,0
DA:1773,0
DA:1780,0
DA:1781,0
end_of_record
SF:/workspace/vtr-verilog-to-routing/ODIN_II/SRC/include/odin_types.h
end_of_record
SF:/usr/include/c++/9/new
DA:173,0
DA:174,0
end_of_record
SF:/workspace/vtr-verilog-to-routing/libs/libvtrutil/src/vtr_ndmatrix.h
end_of_record
SF:/usr/include/c++/9/bits/stl_iterator_base_funcs.h
DA:98,0
DA:104,0
DA:138,0
DA:141,0
DA:174,0
DA:180,0
DA:181,0
DA:182,0
DA:183,0
DA:185,0
DA:202,0
DA:205,0
DA:206,0
end_of_record
SF:/usr/include/c++/9/bits/unordered_map.h
end_of_record
SF:/usr/include/c++/9/bits/vector.tcc
FN:109,_ZNSt6vectorISt10shared_ptrIN8argparse8ArgumentEESaIS3_EE12emplace_backIJS3_EEEvDpOT_
FNDA:0,_ZNSt6vectorISt10shared_ptrIN8argparse8ArgumentEESaIS3_EE12emplace_backIJS3_EEEvDpOT_
FN:198,_ZNSt6vectorINSt7__cxx1112basic_stringIcSt11char_traitsIcESaIcEEESaIS5_EEaSERKS7_
FNDA:0,_ZNSt6vectorINSt7__cxx1112basic_stringIcSt11char_traitsIcESaIcEEESaIS5_EEaSERKS7_
FN:300,_ZNSt6vectorINSt7__cxx1112basic_stringIcSt11char_traitsIcESaIcEEESaIS5_EE13_M_assign_auxIPKS5_EEvT_SB_St20forward_iterator_tag
FNDA:0,_ZNSt6vectorINSt7__cxx1112basic_stringIcSt11char_traitsIcESaIcEEESaIS5_EE13_M_assign_auxIPKS5_EEvT_SB_St20forward_iterator_tag
FN:340,_ZNSt6vectorINSt7__cxx1112basic_stringIcSt11char_traitsIcESaIcEEESaIS5_EE14_M_insert_rvalEN9__gnu_cxx17__normal_iteratorIPKS5_S7_EEOS5_
FNDA:0,_ZNSt6vectorINSt7__cxx1112basic_stringIcSt11char_traitsIcESaIcEEESaIS5_EE14_M_insert_rvalEN9__gnu_cxx17__normal_iteratorIPKS5_S7_EEOS5_
FN:395,_ZNSt6vectorINSt7__cxx1112basic_stringIcSt11char_traitsIcESaIcEEESaIS5_EE13_M_insert_auxIS5_EEvN9__gnu_cxx17__normal_iteratorIPS5_S7_EEOT_
FNDA:0,_ZNSt6vectorINSt7__cxx1112basic_stringIcSt11char_traitsIcESaIcEEESaIS5_EE13_M_insert_auxIS5_EEvN9__gnu_cxx17__normal_iteratorIPS5_S7_EEOT_
FN:426,_ZNSt6vectorISt10shared_ptrIN8argparse8ArgumentEESaIS3_EE17_M_realloc_insertIJS3_EEEvN9__gnu_cxx17__normal_iteratorIPS3_S5_EEDpOT_
FNDA:0,_ZNSt6vectorISt10shared_ptrIN8argparse8ArgumentEESaIS3_EE17_M_realloc_insertIJS3_EEEvN9__gnu_cxx17__normal_iteratorIPS3_S5_EEDpOT_
FN:426,_ZNSt6vectorINSt7__cxx1112basic_stringIcSt11char_traitsIcESaIcEEESaIS5_EE17_M_realloc_insertIJS5_EEEvN9__gnu_cxx17__normal_iteratorIPS5_S7_EEDpOT_
FNDA:0,_ZNSt6vectorINSt7__cxx1112basic_stringIcSt11char_traitsIcESaIcEEESaIS5_EE17_M_realloc_insertIJS5_EEEvN9__gnu_cxx17__normal_iteratorIPS5_S7_EEDpOT_
FN:426,_ZNSt6vectorIP9t_pb_typeSaIS1_EE17_M_realloc_insertIJRKS1_EEEvN9__gnu_cxx17__normal_iteratorIPS1_S3_EEDpOT_
FNDA:0,_ZNSt6vectorIP9t_pb_typeSaIS1_EE17_M_realloc_insertIJRKS1_EEEvN9__gnu_cxx17__normal_iteratorIPS1_S3_EEDpOT_
DA:109,0
DA:112,0
DA:115,0
DA:117,0
DA:121,0
DA:125,0
DA:198,0
DA:201,0
DA:223,0
DA:224,0
DA:226,0
DA:228,0
DA:229,0
DA:230,0
DA:231,0
DA:232,0
DA:233,0
DA:234,0
DA:236,0
DA:238,0
DA:239,0
DA:243,0
DA:245,0
DA:246,0
DA:248,0
DA:250,0
DA:252,0
DA:300,0
DA:304,0
DA:306,0
DA:308,0
DA:309,0
DA:310,0
DA:311,0
DA:313,0
DA:314,0
DA:315,0
DA:316,0
DA:317,0
DA:318,0
DA:320,0
DA:321,0
DA:324,0
DA:325,0
DA:326,0
DA:327,0
DA:329,0
DA:330,0
DA:332,0
DA:335,0
DA:340,0
DA:343,0
DA:344,0
DA:345,0
DA:348,0
DA:349,0
DA:350,0
DA:354,0
DA:356,0
DA:358,0
DA:395,0
DA:405,0
DA:406,0
DA:407,0
DA:412,0
DA:418,0
DA:420,0
DA:426,0
DA:435,0
DA:437,0
DA:438,0
DA:439,0
DA:440,0
DA:441,0
DA:449,0
DA:450,0
DA:456,0
DA:461,0
DA:462,0
DA:464,0
DA:466,0
DA:467,0
DA:500,0
DA:501,0
DA:502,0
DA:503,0
DA:504,0
DA:505,0
DA:426,0
DA:435,0
DA:437,0
DA:438,0
DA:439,0
DA:440,0
DA:441,0
DA:449,0
DA:450,0
DA:456,0
DA:461,0
DA:462,0
DA:464,0
DA:466,0
DA:467,0
DA:500,0
DA:501,0
DA:502,0
DA:503,0
DA:504,0
DA:505,0
DA:426,0
DA:435,0
DA:437,0
DA:438,0
DA:439,0
DA:440,0
DA:441,0
DA:449,0
DA:450,0
DA:456,0
DA:461,0
DA:462,0
DA:464,0
DA:466,0
DA:467,0
DA:500,0
DA:501,0
DA:502,0
DA:503,0
DA:504,0
DA:505,0
end_of_record
SF:/usr/include/c++/9/typeinfo
DA:120,0
DA:122,0
DA:123,0
DA:124,0
end_of_record
SF:/workspace/vtr-verilog-to-routing/libs/EXTERNAL/libargparse/src/argparse_value.hpp
FN:64,_ZN8argparse8ArgValueINSt7__cxx1112basic_stringIcSt11char_traitsIcESaIcEEEE3setENS_14ConvertedValueIS6_EENS_10ProvenanceE
FNDA:0,_ZN8argparse8ArgValueINSt7__cxx1112basic_stringIcSt11char_traitsIcESaIcEEEE3setENS_14ConvertedValueIS6_EENS_10ProvenanceE
FN:64,_ZN8argparse8ArgValueIbE3setENS_14ConvertedValueIbEENS_10ProvenanceE
FNDA:0,_ZN8argparse8ArgValueIbE3setENS_14ConvertedValueIbEENS_10ProvenanceE
FN:64,_ZN8argparse8ArgValueIiE3setENS_14ConvertedValueIiEENS_10ProvenanceE
FNDA:0,_ZN8argparse8ArgValueIiE3setENS_14ConvertedValueIiEENS_10ProvenanceE
FN:64,_ZN8argparse8ArgValueIdE3setENS_14ConvertedValueIdEENS_10ProvenanceE
FNDA:0,_ZN8argparse8ArgValueIdE3setENS_14ConvertedValueIdEENS_10ProvenanceE
DA:9,0
DA:13,0
DA:14,0
DA:16,0
DA:17,0
DA:19,0
DA:20,0
DA:50,0
DA:53,0
DA:56,0
DA:61,0
DA:64,0
DA:65,0
DA:68,0
DA:70,0
DA:71,0
DA:72,0
DA:64,0
DA:65,0
DA:68,0
DA:70,0
DA:71,0
DA:72,0
DA:64,0
DA:65,0
DA:68,0
DA:70,0
DA:71,0
DA:72,0
DA:64,0
DA:65,0
DA:68,0
DA:70,0
DA:71,0
DA:72,0
DA:74,0
DA:75,0
DA:76,0
DA:79,0
DA:80,0
DA:81,0
DA:84,0
DA:85,0
DA:86,0
DA:88,0
DA:89,0
DA:90,0
end_of_record
SF:/usr/include/c++/9/ext/type_traits.h
DA:152,0
end_of_record
SF:/usr/include/c++/9/bits/alloc_traits.h
DA:443,0
DA:444,0
DA:469,0
DA:470,0
DA:482,0
DA:484,0
DA:495,0
DA:497,0
DA:505,0
DA:506,0
DA:514,0
DA:515,0
end_of_record
SF:/workspace/vtr-verilog-to-routing/libs/libvtrutil/src/vtr_flat_map.h
end_of_record
SF:/usr/include/c++/9/bits/stl_construct.h
DA:74,0
DA:75,0
DA:97,0
DA:98,0
DA:105,0
DA:107,0
DA:108,0
DA:117,0
DA:127,0
DA:137,0
DA:203,0
DA:206,0
end_of_record
SF:/usr/include/c++/9/tuple
end_of_record
SF:/usr/include/c++/9/bits/shared_ptr_base.h
FN:131,_ZNSt16_Sp_counted_baseILN9__gnu_cxx12_Lock_policyE2EE10_M_destroyEv
FNDA:0,_ZNSt16_Sp_counted_baseILN9__gnu_cxx12_Lock_policyE2EE10_M_destroyEv
FN:148,_ZNSt16_Sp_counted_baseILN9__gnu_cxx12_Lock_policyE2EE10_M_releaseEv
FNDA:0,_ZNSt16_Sp_counted_baseILN9__gnu_cxx12_Lock_policyE2EE10_M_releaseEv
FN:404,_ZNSt15_Sp_counted_ptrIDnLN9__gnu_cxx12_Lock_policyE2EE10_M_disposeEv
FNDA:0,_ZNSt15_Sp_counted_ptrIDnLN9__gnu_cxx12_Lock_policyE2EE10_M_disposeEv
FN:552,_ZNSt23_Sp_counted_ptr_inplaceIN8argparse19SingleValueArgumentIiNS0_16DefaultConverterIiEEEESaIS4_ELN9__gnu_cxx12_Lock_policyE2EED2Ev
FNDA:0,_ZNSt23_Sp_counted_ptr_inplaceIN8argparse19SingleValueArgumentIiNS0_16DefaultConverterIiEEEESaIS4_ELN9__gnu_cxx12_Lock_policyE2EED2Ev
FN:552,_ZNSt23_Sp_counted_ptr_inplaceIN8argparse19SingleValueArgumentIi17ParseInitRegStateEESaIS3_ELN9__gnu_cxx12_Lock_policyE2EED2Ev
FNDA:0,_ZNSt23_Sp_counted_ptr_inplaceIN8argparse19SingleValueArgumentIi17ParseInitRegStateEESaIS3_ELN9__gnu_cxx12_Lock_policyE2EED2Ev
FN:552,_ZNSt23_Sp_counted_ptr_inplaceIN8argparse19SingleValueArgumentIi17ParseInitRegStateEESaIS3_ELN9__gnu_cxx12_Lock_policyE2EED0Ev
FNDA:0,_ZNSt23_Sp_counted_ptr_inplaceIN8argparse19SingleValueArgumentIi17ParseInitRegStateEESaIS3_ELN9__gnu_cxx12_Lock_policyE2EED0Ev
FN:552,_ZNSt23_Sp_counted_ptr_inplaceIN8argparse19SingleValueArgumentIdNS0_16DefaultConverterIdEEEESaIS4_ELN9__gnu_cxx12_Lock_policyE2EED2Ev
FNDA:0,_ZNSt23_Sp_counted_ptr_inplaceIN8argparse19SingleValueArgumentIdNS0_16DefaultConverterIdEEEESaIS4_ELN9__gnu_cxx12_Lock_policyE2EED2Ev
FN:552,_ZNSt23_Sp_counted_ptr_inplaceIN8argparse19SingleValueArgumentIdNS0_16DefaultConverterIdEEEESaIS4_ELN9__gnu_cxx12_Lock_policyE2EED0Ev
FNDA:0,_ZNSt23_Sp_counted_ptr_inplaceIN8argparse19SingleValueArgumentIdNS0_16DefaultConverterIdEEEESaIS4_ELN9__gnu_cxx12_Lock_policyE2EED0Ev
FN:552,_ZNSt23_Sp_counted_ptr_inplaceIN8argparse19SingleValueArgumentIiNS0_16DefaultConverterIiEEEESaIS4_ELN9__gnu_cxx12_Lock_policyE2EED0Ev
FNDA:0,_ZNSt23_Sp_counted_ptr_inplaceIN8argparse19SingleValueArgumentIiNS0_16DefaultConverterIiEEEESaIS4_ELN9__gnu_cxx12_Lock_policyE2EED0Ev
FN:552,_ZNSt23_Sp_counted_ptr_inplaceIN8argparse19SingleValueArgumentIbNS0_16DefaultConverterIbEEEESaIS4_ELN9__gnu_cxx12_Lock_policyE2EED2Ev
FNDA:0,_ZNSt23_Sp_counted_ptr_inplaceIN8argparse19SingleValueArgumentIbNS0_16DefaultConverterIbEEEESaIS4_ELN9__gnu_cxx12_Lock_policyE2EED2Ev
FN:552,_ZNSt23_Sp_counted_ptr_inplaceIN8argparse19SingleValueArgumentIbNS0_16DefaultConverterIbEEEESaIS4_ELN9__gnu_cxx12_Lock_policyE2EED0Ev
FNDA:0,_ZNSt23_Sp_counted_ptr_inplaceIN8argparse19SingleValueArgumentIbNS0_16DefaultConverterIbEEEESaIS4_ELN9__gnu_cxx12_Lock_policyE2EED0Ev
FN:552,_ZNSt23_Sp_counted_ptr_inplaceIN8argparse18MultiValueArgumentISt6vectorINSt7__cxx1112basic_stringIcSt11char_traitsIcESaIcEEESaIS8_EENS0_16DefaultConverterIS8_EEEESaISD_ELN9__gnu_cxx12_Lock_policyE2EED2Ev
FNDA:0,_ZNSt23_Sp_counted_ptr_inplaceIN8argparse18MultiValueArgumentISt6vectorINSt7__cxx1112basic_stringIcSt11char_traitsIcESaIcEEESaIS8_EENS0_16DefaultConverterIS8_EEEESaISD_ELN9__gnu_cxx12_Lock_policyE2EED2Ev
FN:552,_ZNSt23_Sp_counted_ptr_inplaceIN8argparse19SingleValueArgumentINSt7__cxx1112basic_stringIcSt11char_traitsIcESaIcEEENS0_16DefaultConverterIS7_EEEESaISA_ELN9__gnu_cxx12_Lock_policyE2EED0Ev
FNDA:0,_ZNSt23_Sp_counted_ptr_inplaceIN8argparse19SingleValueArgumentINSt7__cxx1112basic_stringIcSt11char_traitsIcESaIcEEENS0_16DefaultConverterIS7_EEEESaISA_ELN9__gnu_cxx12_Lock_policyE2EED0Ev
FN:552,_ZNSt23_Sp_counted_ptr_inplaceIN8argparse18MultiValueArgumentISt6vectorINSt7__cxx1112basic_stringIcSt11char_traitsIcESaIcEEESaIS8_EENS0_16DefaultConverterIS8_EEEESaISD_ELN9__gnu_cxx12_Lock_policyE2EED0Ev
FNDA:0,_ZNSt23_Sp_counted_ptr_inplaceIN8argparse18MultiValueArgumentISt6vectorINSt7__cxx1112basic_stringIcSt11char_traitsIcESaIcEEESaIS8_EENS0_16DefaultConverterIS8_EEEESaISD_ELN9__gnu_cxx12_Lock_policyE2EED0Ev
FN:552,_ZNSt23_Sp_counted_ptr_inplaceIN8argparse19SingleValueArgumentINSt7__cxx1112basic_stringIcSt11char_traitsIcESaIcEEENS0_16DefaultConverterIS7_EEEESaISA_ELN9__gnu_cxx12_Lock_policyE2EED2Ev
FNDA:0,_ZNSt23_Sp_counted_ptr_inplaceIN8argparse19SingleValueArgumentINSt7__cxx1112basic_stringIcSt11char_traitsIcESaIcEEENS0_16DefaultConverterIS7_EEEESaISA_ELN9__gnu_cxx12_Lock_policyE2EED2Ev
FN:555,_ZNSt23_Sp_counted_ptr_inplaceIN8argparse19SingleValueArgumentIbNS0_16DefaultConverterIbEEEESaIS4_ELN9__gnu_cxx12_Lock_policyE2EE10_M_disposeEv
FNDA:0,_ZNSt23_Sp_counted_ptr_inplaceIN8argparse19SingleValueArgumentIbNS0_16DefaultConverterIbEEEESaIS4_ELN9__gnu_cxx12_Lock_policyE2EE10_M_disposeEv
FN:555,_ZNSt23_Sp_counted_ptr_inplaceIN8argparse19SingleValueArgumentINSt7__cxx1112basic_stringIcSt11char_traitsIcESaIcEEENS0_16DefaultConverterIS7_EEEESaISA_ELN9__gnu_cxx12_Lock_policyE2EE10_M_disposeEv
FNDA:0,_ZNSt23_Sp_counted_ptr_inplaceIN8argparse19SingleValueArgumentINSt7__cxx1112basic_stringIcSt11char_traitsIcESaIcEEENS0_16DefaultConverterIS7_EEEESaISA_ELN9__gnu_cxx12_Lock_policyE2EE10_M_disposeEv
FN:555,_ZNSt23_Sp_counted_ptr_inplaceIN8argparse19SingleValueArgumentIiNS0_16DefaultConverterIiEEEESaIS4_ELN9__gnu_cxx12_Lock_policyE2EE10_M_disposeEv
FNDA:0,_ZNSt23_Sp_counted_ptr_inplaceIN8argparse19SingleValueArgumentIiNS0_16DefaultConverterIiEEEESaIS4_ELN9__gnu_cxx12_Lock_policyE2EE10_M_disposeEv
FN:555,_ZNSt23_Sp_counted_ptr_inplaceIN8argparse19SingleValueArgumentIi17ParseInitRegStateEESaIS3_ELN9__gnu_cxx12_Lock_policyE2EE10_M_disposeEv
FNDA:0,_ZNSt23_Sp_counted_ptr_inplaceIN8argparse19SingleValueArgumentIi17ParseInitRegStateEESaIS3_ELN9__gnu_cxx12_Lock_policyE2EE10_M_disposeEv
FN:555,_ZNSt23_Sp_counted_ptr_inplaceIN8argparse19SingleValueArgumentIdNS0_16DefaultConverterIdEEEESaIS4_ELN9__gnu_cxx12_Lock_policyE2EE10_M_disposeEv
FNDA:0,_ZNSt23_Sp_counted_ptr_inplaceIN8argparse19SingleValueArgumentIdNS0_16DefaultConverterIdEEEESaIS4_ELN9__gnu_cxx12_Lock_policyE2EE10_M_disposeEv
FN:555,_ZNSt23_Sp_counted_ptr_inplaceIN8argparse18MultiValueArgumentISt6vectorINSt7__cxx1112basic_stringIcSt11char_traitsIcESaIcEEESaIS8_EENS0_16DefaultConverterIS8_EEEESaISD_ELN9__gnu_cxx12_Lock_policyE2EE10_M_disposeEv
FNDA:0,_ZNSt23_Sp_counted_ptr_inplaceIN8argparse18MultiValueArgumentISt6vectorINSt7__cxx1112basic_stringIcSt11char_traitsIcESaIcEEESaIS8_EENS0_16DefaultConverterIS8_EEEESaISD_ELN9__gnu_cxx12_Lock_policyE2EE10_M_disposeEv
FN:562,_ZNSt23_Sp_counted_ptr_inplaceIN8argparse19SingleValueArgumentINSt7__cxx1112basic_stringIcSt11char_traitsIcESaIcEEENS0_16DefaultConverterIS7_EEEESaISA_ELN9__gnu_cxx12_Lock_policyE2EE10_M_destroyEv
FNDA:0,_ZNSt23_Sp_counted_ptr_inplaceIN8argparse19SingleValueArgumentINSt7__cxx1112basic_stringIcSt11char_traitsIcESaIcEEENS0_16DefaultConverterIS7_EEEESaISA_ELN9__gnu_cxx12_Lock_policyE2EE10_M_destroyEv
FN:562,_ZNSt23_Sp_counted_ptr_inplaceIN8argparse19SingleValueArgumentIbNS0_16DefaultConverterIbEEEESaIS4_ELN9__gnu_cxx12_Lock_policyE2EE10_M_destroyEv
FNDA:0,_ZNSt23_Sp_counted_ptr_inplaceIN8argparse19SingleValueArgumentIbNS0_16DefaultConverterIbEEEESaIS4_ELN9__gnu_cxx12_Lock_policyE2EE10_M_destroyEv
FN:562,_ZNSt23_Sp_counted_ptr_inplaceIN8argparse19SingleValueArgumentIi17ParseInitRegStateEESaIS3_ELN9__gnu_cxx12_Lock_policyE2EE10_M_destroyEv
FNDA:0,_ZNSt23_Sp_counted_ptr_inplaceIN8argparse19SingleValueArgumentIi17ParseInitRegStateEESaIS3_ELN9__gnu_cxx12_Lock_policyE2EE10_M_destroyEv
FN:562,_ZNSt23_Sp_counted_ptr_inplaceIN8argparse18MultiValueArgumentISt6vectorINSt7__cxx1112basic_stringIcSt11char_traitsIcESaIcEEESaIS8_EENS0_16DefaultConverterIS8_EEEESaISD_ELN9__gnu_cxx12_Lock_policyE2EE10_M_destroyEv
FNDA:0,_ZNSt23_Sp_counted_ptr_inplaceIN8argparse18MultiValueArgumentISt6vectorINSt7__cxx1112basic_stringIcSt11char_traitsIcESaIcEEESaIS8_EENS0_16DefaultConverterIS8_EEEESaISD_ELN9__gnu_cxx12_Lock_policyE2EE10_M_destroyEv
FN:562,_ZNSt23_Sp_counted_ptr_inplaceIN8argparse19SingleValueArgumentIdNS0_16DefaultConverterIdEEEESaIS4_ELN9__gnu_cxx12_Lock_policyE2EE10_M_destroyEv
FNDA:0,_ZNSt23_Sp_counted_ptr_inplaceIN8argparse19SingleValueArgumentIdNS0_16DefaultConverterIdEEEESaIS4_ELN9__gnu_cxx12_Lock_policyE2EE10_M_destroyEv
FN:562,_ZNSt23_Sp_counted_ptr_inplaceIN8argparse19SingleValueArgumentIiNS0_16DefaultConverterIiEEEESaIS4_ELN9__gnu_cxx12_Lock_policyE2EE10_M_destroyEv
FNDA:0,_ZNSt23_Sp_counted_ptr_inplaceIN8argparse19SingleValueArgumentIiNS0_16DefaultConverterIiEEEESaIS4_ELN9__gnu_cxx12_Lock_policyE2EE10_M_destroyEv
FN:575,_ZNSt23_Sp_counted_ptr_inplaceIN8argparse19SingleValueArgumentIi17ParseInitRegStateEESaIS3_ELN9__gnu_cxx12_Lock_policyE2EE14_M_get_deleterERKSt9type_info
FNDA:0,_ZNSt23_Sp_counted_ptr_inplaceIN8argparse19SingleValueArgumentIi17ParseInitRegStateEESaIS3_ELN9__gnu_cxx12_Lock_policyE2EE14_M_get_deleterERKSt9type_info
FN:575,_ZNSt23_Sp_counted_ptr_inplaceIN8argparse19SingleValueArgumentIdNS0_16DefaultConverterIdEEEESaIS4_ELN9__gnu_cxx12_Lock_policyE2EE14_M_get_deleterERKSt9type_info
FNDA:0,_ZNSt23_Sp_counted_ptr_inplaceIN8argparse19SingleValueArgumentIdNS0_16DefaultConverterIdEEEESaIS4_ELN9__gnu_cxx12_Lock_policyE2EE14_M_get_deleterERKSt9type_info
FN:575,_ZNSt23_Sp_counted_ptr_inplaceIN8argparse18MultiValueArgumentISt6vectorINSt7__cxx1112basic_stringIcSt11char_traitsIcESaIcEEESaIS8_EENS0_16DefaultConverterIS8_EEEESaISD_ELN9__gnu_cxx12_Lock_policyE2EE14_M_get_deleterERKSt9type_info
FNDA:0,_ZNSt23_Sp_counted_ptr_inplaceIN8argparse18MultiValueArgumentISt6vectorINSt7__cxx1112basic_stringIcSt11char_traitsIcESaIcEEESaIS8_EENS0_16DefaultConverterIS8_EEEESaISD_ELN9__gnu_cxx12_Lock_policyE2EE14_M_get_deleterERKSt9type_info
FN:575,_ZNSt23_Sp_counted_ptr_inplaceIN8argparse19SingleValueArgumentINSt7__cxx1112basic_stringIcSt11char_traitsIcESaIcEEENS0_16DefaultConverterIS7_EEEESaISA_ELN9__gnu_cxx12_Lock_policyE2EE14_M_get_deleterERKSt9type_info
FNDA:0,_ZNSt23_Sp_counted_ptr_inplaceIN8argparse19SingleValueArgumentINSt7__cxx1112basic_stringIcSt11char_traitsIcESaIcEEENS0_16DefaultConverterIS7_EEEESaISA_ELN9__gnu_cxx12_Lock_policyE2EE14_M_get_deleterERKSt9type_info
FN:575,_ZNSt23_Sp_counted_ptr_inplaceIN8argparse19SingleValueArgumentIiNS0_16DefaultConverterIiEEEESaIS4_ELN9__gnu_cxx12_Lock_policyE2EE14_M_get_deleterERKSt9type_info
FNDA:0,_ZNSt23_Sp_counted_ptr_inplaceIN8argparse19SingleValueArgumentIiNS0_16DefaultConverterIiEEEESaIS4_ELN9__gnu_cxx12_Lock_policyE2EE14_M_get_deleterERKSt9type_info
FN:575,_ZNSt23_Sp_counted_ptr_inplaceIN8argparse19SingleValueArgumentIbNS0_16DefaultConverterIbEEEESaIS4_ELN9__gnu_cxx12_Lock_policyE2EE14_M_get_deleterERKSt9type_info
FNDA:0,_ZNSt23_Sp_counted_ptr_inplaceIN8argparse19SingleValueArgumentIbNS0_16DefaultConverterIbEEEESaIS4_ELN9__gnu_cxx12_Lock_policyE2EE14_M_get_deleterERKSt9type_info
FN:672,_ZNSt14__shared_countILN9__gnu_cxx12_Lock_policyE2EEC2IN8argparse19SingleValueArgumentIi17ParseInitRegStateEESaIS7_EJRNS4_8ArgValueIiEERNSt7__cxx1112basic_stringIcSt11char_traitsIcESaIcEEESI_EEERPT_St20_Sp_alloc_shared_tagIT0_EDpOT1_
FNDA:0,_ZNSt14__shared_countILN9__gnu_cxx12_Lock_policyE2EEC2IN8argparse19SingleValueArgumentIi17ParseInitRegStateEESaIS7_EJRNS4_8ArgValueIiEERNSt7__cxx1112basic_stringIcSt11char_traitsIcESaIcEEESI_EEERPT_St20_Sp_alloc_shared_tagIT0_EDpOT1_
FN:672,_ZNSt14__shared_countILN9__gnu_cxx12_Lock_policyE2EEC2IN8argparse19SingleValueArgumentIdNS4_16DefaultConverterIdEEEESaIS8_EJRNS4_8ArgValueIdEERNSt7__cxx1112basic_stringIcSt11char_traitsIcESaIcEEESJ_EEERPT_St20_Sp_alloc_shared_tagIT0_EDpOT1_
FNDA:0,_ZNSt14__shared_countILN9__gnu_cxx12_Lock_policyE2EEC2IN8argparse19SingleValueArgumentIdNS4_16DefaultConverterIdEEEESaIS8_EJRNS4_8ArgValueIdEERNSt7__cxx1112basic_stringIcSt11char_traitsIcESaIcEEESJ_EEERPT_St20_Sp_alloc_shared_tagIT0_EDpOT1_
FN:672,_ZNSt14__shared_countILN9__gnu_cxx12_Lock_policyE2EEC2IN8argparse19SingleValueArgumentIiNS4_16DefaultConverterIiEEEESaIS8_EJRNS4_8ArgValueIiEERNSt7__cxx1112basic_stringIcSt11char_traitsIcESaIcEEESJ_EEERPT_St20_Sp_alloc_shared_tagIT0_EDpOT1_
FNDA:0,_ZNSt14__shared_countILN9__gnu_cxx12_Lock_policyE2EEC2IN8argparse19SingleValueArgumentIiNS4_16DefaultConverterIiEEEESaIS8_EJRNS4_8ArgValueIiEERNSt7__cxx1112basic_stringIcSt11char_traitsIcESaIcEEESJ_EEERPT_St20_Sp_alloc_shared_tagIT0_EDpOT1_
FN:672,_ZNSt14__shared_countILN9__gnu_cxx12_Lock_policyE2EEC2IN8argparse19SingleValueArgumentIbNS4_16DefaultConverterIbEEEESaIS8_EJRNS4_8ArgValueIbEERNSt7__cxx1112basic_stringIcSt11char_traitsIcESaIcEEESJ_EEERPT_St20_Sp_alloc_shared_tagIT0_EDpOT1_
FNDA:0,_ZNSt14__shared_countILN9__gnu_cxx12_Lock_policyE2EEC2IN8argparse19SingleValueArgumentIbNS4_16DefaultConverterIbEEEESaIS8_EJRNS4_8ArgValueIbEERNSt7__cxx1112basic_stringIcSt11char_traitsIcESaIcEEESJ_EEERPT_St20_Sp_alloc_shared_tagIT0_EDpOT1_
FN:672,_ZNSt14__shared_countILN9__gnu_cxx12_Lock_policyE2EEC2IN8argparse18MultiValueArgumentISt6vectorINSt7__cxx1112basic_stringIcSt11char_traitsIcESaIcEEESaISC_EENS4_16DefaultConverterISC_EEEESaISH_EJRNS4_8ArgValueISE_EERSC_SM_EEERPT_St20_Sp_alloc_shared_tagIT0_EDpOT1_
FNDA:0,_ZNSt14__shared_countILN9__gnu_cxx12_Lock_policyE2EEC2IN8argparse18MultiValueArgumentISt6vectorINSt7__cxx1112basic_stringIcSt11char_traitsIcESaIcEEESaISC_EENS4_16DefaultConverterISC_EEEESaISH_EJRNS4_8ArgValueISE_EERSC_SM_EEERPT_St20_Sp_alloc_shared_tagIT0_EDpOT1_
FN:672,_ZNSt14__shared_countILN9__gnu_cxx12_Lock_policyE2EEC2IN8argparse19SingleValueArgumentINSt7__cxx1112basic_stringIcSt11char_traitsIcESaIcEEENS4_16DefaultConverterISB_EEEESaISE_EJRNS4_8ArgValueISB_EERSB_SJ_EEERPT_St20_Sp_alloc_shared_tagIT0_EDpOT1_
FNDA:0,_ZNSt14__shared_countILN9__gnu_cxx12_Lock_policyE2EEC2IN8argparse19SingleValueArgumentINSt7__cxx1112basic_stringIcSt11char_traitsIcESaIcEEENS4_16DefaultConverterISB_EEEESaISE_EJRNS4_8ArgValueISB_EERSB_SJ_EEERPT_St20_Sp_alloc_shared_tagIT0_EDpOT1_
DA:117,0
DA:118,0
DA:121,0
DA:131,0
DA:132,0
DA:148,0
DA:152,0
DA:155,0
DA:167,0
DA:171,0
DA:174,0
DA:404,0
DA:412,0
DA:414,0
DA:418,0
DA:508,0
DA:510,0
DA:511,0
DA:526,0
DA:531,0
DA:533,0
DA:543,0
DA:544,0
DA:548,0
DA:550,0
DA:552,0
DA:552,0
DA:552,0
DA:552,0
DA:552,0
DA:552,0
DA:552,0
DA:552,0
DA:552,0
DA:552,0
DA:552,0
DA:552,0
DA:552,0
DA:555,0
DA:557,0
DA:558,0
DA:555,0
DA:557,0
DA:558,0
DA:555,0
DA:557,0
DA:558,0
DA:555,0
DA:557,0
DA:558,0
DA:555,0
DA:557,0
DA:558,0
DA:555,0
DA:557,0
DA:558,0
DA:562,0
DA:564,0
DA:565,0
DA:566,0
DA:567,0
DA:562,0
DA:564,0
DA:565,0
DA:566,0
DA:567,0
DA:562,0
DA:564,0
DA:565,0
DA:566,0
DA:567,0
DA:562,0
DA:564,0
DA:565,0
DA:566,0
DA:567,0
DA:562,0
DA:564,0
DA:565,0
DA:566,0
DA:567,0
DA:562,0
DA:564,0
DA:565,0
DA:566,0
DA:567,0
DA:575,0
DA:577,0
DA:583,0
DA:585,0
DA:590,0
DA:575,0
DA:577,0
DA:583,0
DA:585,0
DA:590,0
DA:575,0
DA:577,0
DA:583,0
DA:585,0
DA:590,0
DA:575,0
DA:577,0
DA:583,0
DA:585,0
DA:590,0
DA:575,0
DA:577,0
DA:583,0
DA:585,0
DA:590,0
DA:575,0
DA:577,0
DA:583,0
DA:585,0
DA:590,0
DA:594,0
DA:616,0
DA:672,0
DA:676,0
DA:677,0
DA:678,0
DA:679,0
DA:680,0
DA:681,0
DA:682,0
DA:683,0
DA:684,0
DA:672,0
DA:676,0
DA:677,0
DA:678,0
DA:679,0
DA:680,0
DA:681,0
DA:682,0
DA:683,0
DA:684,0
DA:672,0
DA:676,0
DA:677,0
DA:678,0
DA:679,0
DA:680,0
DA:681,0
DA:682,0
DA:683,0
DA:684,0
DA:672,0
DA:676,0
DA:677,0
DA:678,0
DA:679,0
DA:680,0
DA:681,0
DA:682,0
DA:683,0
DA:684,0
DA:672,0
DA:676,0
DA:677,0
DA:678,0
DA:679,0
DA:680,0
DA:681,0
DA:682,0
DA:683,0
DA:684,0
DA:672,0
DA:676,0
DA:677,0
DA:678,0
DA:679,0
DA:680,0
DA:681,0
DA:682,0
DA:683,0
DA:684,0
DA:727,0
DA:729,0
DA:730,0
DA:756,0
DA:758,0
DA:759,0
DA:760,0
DA:1005,0
DA:1008,0
DA:1012,0
DA:1015,0
DA:1020,0
DA:1021,0
DA:1169,0
DA:1176,0
DA:1177,0
DA:1179,0
DA:1180,0
DA:1184,0
DA:1185,0
DA:1187,0
DA:1188,0
DA:1309,0
DA:1343,0
DA:1344,0
DA:1345,0
DA:1388,0
end_of_record
SF:/workspace/vtr-verilog-to-routing/libs/EXTERNAL/libargparse/src/argparse_error.hpp
DA:7,0
DA:11,0
end_of_record
SF:/usr/include/c++/9/bits/cpp_type_traits.h
DA:428,0
end_of_record
SF:/workspace/vtr-verilog-to-routing/ODIN_II/SRC/odin_ii.cpp
FN:91,_ZL18synthesize_verilogv
FNDA:0,_ZL18synthesize_verilogv
FN:206,_Z13start_odin_iiiPPc
FNDA:0,_Z13start_odin_iiiPPc
FN:331,_Z17terminate_odin_iiP9netlist_t
FNDA:0,_Z17terminate_odin_iiP9netlist_t
FN:343,_ZN17ParseInitRegState8from_strENSt7__cxx1112basic_stringIcSt11char_traitsIcESaIcEEE
FNDA:0,_ZN17ParseInitRegState8from_strENSt7__cxx1112basic_stringIcSt11char_traitsIcESaIcEEE
FN:367,_ZN17ParseInitRegState15default_choicesB5cxx11Ev
FNDA:0,_ZN17ParseInitRegState15default_choicesB5cxx11Ev
FN:375,_Z11get_optionsiPPc
FNDA:0,_Z11get_optionsiPPc
FN:617,_Z18set_default_configv
FNDA:0,_Z18set_default_configv
FN:649,_ZL17get_physical_lutsRSt6vectorIP9t_pb_typeSaIS1_EES1_
FNDA:0,_ZL17get_physical_lutsRSt6vectorIP9t_pb_typeSaIS1_EES1_
FN:661,_ZL21set_physical_lut_sizev
FNDA:0,_ZL21set_physical_lut_sizev
DA:91,0
DA:92,0
DA:94,0
DA:95,0
DA:97,0
DA:100,0
DA:101,0
DA:103,0
DA:105,0
DA:108,0
DA:109,0
DA:110,0
DA:117,0
DA:118,0
DA:124,0
DA:125,0
DA:126,0
DA:128,0
DA:133,0
DA:134,0
DA:136,0
DA:137,0
DA:138,0
DA:141,0
DA:143,0
DA:144,0
DA:147,0
DA:149,0
DA:150,0
DA:151,0
DA:154,0
DA:155,0
DA:156,0
DA:161,0
DA:162,0
DA:165,0
DA:166,0
DA:169,0
DA:175,0
DA:177,0
DA:178,0
DA:180,0
DA:182,0
DA:183,0
DA:184,0
DA:185,0
DA:187,0
DA:189,0
DA:192,0
DA:194,0
DA:196,0
DA:198,0
DA:199,0
DA:200,0
DA:201,0
DA:203,0
DA:206,0
DA:207,0
DA:209,0
DA:211,0
DA:212,0
DA:213,0
DA:215,0
DA:216,0
DA:217,0
DA:218,0
DA:219,0
DA:220,0
DA:223,0
DA:225,0
DA:228,0
DA:230,0
DA:232,0
DA:233,0
DA:234,0
DA:235,0
DA:236,0
DA:237,0
DA:241,0
DA:242,0
DA:243,0
DA:244,0
DA:245,0
DA:246,0
DA:247,0
DA:252,0
DA:253,0
DA:254,0
DA:256,0
DA:257,0
DA:258,0
DA:259,0
DA:260,0
DA:261,0
DA:262,0
DA:265,0
DA:268,0
DA:269,0
DA:270,0
DA:272,0
DA:274,0
DA:275,0
DA:276,0
DA:277,0
DA:280,0
DA:286,0
DA:287,0
DA:288,0
DA:289,0
DA:290,0
DA:293,0
DA:294,0
DA:295,0
DA:297,0
DA:298,0
DA:301,0
DA:302,0
DA:303,0
DA:304,0
DA:305,0
DA:310,0
DA:311,0
DA:312,0
DA:313,0
DA:315,0
DA:318,0
DA:320,0
DA:321,0
DA:322,0
DA:323,0
DA:324,0
DA:325,0
DA:326,0
DA:328,0
DA:331,0
DA:332,0
DA:335,0
DA:336,0
DA:337,0
DA:339,0
DA:343,0
DA:344,0
DA:346,0
DA:348,0
DA:350,0
DA:351,0
DA:352,0
DA:367,0
DA:368,0
DA:375,0
DA:376,0
DA:378,0
DA:380,0
DA:382,0
DA:383,0
DA:384,0
DA:386,0
DA:387,0
DA:388,0
DA:389,0
DA:391,0
DA:392,0
DA:393,0
DA:395,0
DA:397,0
DA:398,0
DA:399,0
DA:400,0
DA:402,0
DA:404,0
DA:405,0
DA:406,0
DA:408,0
DA:409,0
DA:410,0
DA:412,0
DA:413,0
DA:414,0
DA:415,0
DA:416,0
DA:418,0
DA:419,0
DA:420,0
DA:421,0
DA:423,0
DA:424,0
DA:425,0
DA:426,0
DA:428,0
DA:429,0
DA:430,0
DA:431,0
DA:433,0
DA:434,0
DA:435,0
DA:436,0
DA:438,0
DA:439,0
DA:440,0
DA:441,0
DA:443,0
DA:444,0
DA:445,0
DA:446,0
DA:448,0
DA:449,0
DA:450,0
DA:452,0
DA:454,0
DA:455,0
DA:456,0
DA:458,0
DA:459,0
DA:460,0
DA:462,0
DA:463,0
DA:464,0
DA:465,0
DA:467,0
DA:468,0
DA:469,0
DA:470,0
DA:472,0
DA:473,0
DA:474,0
DA:475,0
DA:477,0
DA:478,0
DA:479,0
DA:480,0
DA:482,0
DA:484,0
DA:485,0
DA:486,0
DA:488,0
DA:489,0
DA:490,0
DA:492,0
DA:494,0
DA:495,0
DA:496,0
DA:497,0
DA:499,0
DA:500,0
DA:501,0
DA:502,0
DA:503,0
DA:505,0
DA:506,0
DA:507,0
DA:508,0
DA:510,0
DA:511,0
DA:512,0
DA:513,0
DA:515,0
DA:516,0
DA:517,0
DA:518,0
DA:520,0
DA:521,0
DA:522,0
DA:523,0
DA:525,0
DA:526,0
DA:527,0
DA:528,0
DA:530,0
DA:531,0
DA:532,0
DA:533,0
DA:535,0
DA:536,0
DA:537,0
DA:538,0
DA:540,0
DA:549,0
DA:550,0
DA:551,0
DA:553,0
DA:556,0
DA:557,0
DA:558,0
DA:559,0
DA:561,0
DA:562,0
DA:566,0
DA:567,0
DA:569,0
DA:570,0
DA:573,0
DA:575,0
DA:576,0
DA:577,0
DA:578,0
DA:581,0
DA:582,0
DA:585,0
DA:586,0
DA:589,0
DA:590,0
DA:593,0
DA:594,0
DA:597,0
DA:598,0
DA:601,0
DA:602,0
DA:605,0
DA:606,0
DA:609,0
DA:610,0
DA:612,0
DA:617,0
DA:619,0
DA:620,0
DA:621,0
DA:622,0
DA:623,0
DA:624,0
DA:625,0
DA:627,0
DA:628,0
DA:630,0
DA:631,0
DA:633,0
DA:639,0
DA:640,0
DA:641,0
DA:649,0
DA:650,0
DA:651,0
DA:652,0
DA:654,0
DA:655,0
DA:659,0
DA:661,0
DA:662,0
DA:664,0
DA:665,0
DA:666,0
DA:669,0
DA:670,0
DA:671,0
DA:672,0
DA:676,0
end_of_record
SF:/usr/include/c++/9/bits/basic_ios.h
DA:137,0
DA:190,0
DA:191,0
DA:201,0
DA:202,0
end_of_record
SF:/usr/include/c++/9/bits/allocator.h
DA:138,0
DA:141,0
DA:142,0
DA:151,0
DA:153,0
end_of_record
SF:/usr/include/c++/9/ext/alloc_traits.h
DA:97,0
DA:98,0
end_of_record
SF:/workspace/vtr-verilog-to-routing/libs/EXTERNAL/libargparse/src/argparse.hpp
FN:269,_ZN8argparse8ArgumentD2Ev
FNDA:0,_ZN8argparse8ArgumentD2Ev
FN:269,_ZN8argparse8ArgumentD0Ev
FNDA:0,_ZN8argparse8ArgumentD0Ev
FN:297,_ZN8argparse19SingleValueArgumentINSt7__cxx1112basic_stringIcSt11char_traitsIcESaIcEEENS_16DefaultConverterIS6_EEEC2ERNS_8ArgValueIS6_EES6_S6_
FNDA:0,_ZN8argparse19SingleValueArgumentINSt7__cxx1112basic_stringIcSt11char_traitsIcESaIcEEENS_16DefaultConverterIS6_EEEC2ERNS_8ArgValueIS6_EES6_S6_
FN:297,_ZN8argparse19SingleValueArgumentIiNS_16DefaultConverterIiEEEC2ERNS_8ArgValueIiEENSt7__cxx1112basic_stringIcSt11char_traitsIcESaIcEEESC_
FNDA:0,_ZN8argparse19SingleValueArgumentIiNS_16DefaultConverterIiEEEC2ERNS_8ArgValueIiEENSt7__cxx1112basic_stringIcSt11char_traitsIcESaIcEEESC_
FN:297,_ZN8argparse19SingleValueArgumentIi17ParseInitRegStateEC2ERNS_8ArgValueIiEENSt7__cxx1112basic_stringIcSt11char_traitsIcESaIcEEESB_
FNDA:0,_ZN8argparse19SingleValueArgumentIi17ParseInitRegStateEC2ERNS_8ArgValueIiEENSt7__cxx1112basic_stringIcSt11char_traitsIcESaIcEEESB_
FN:297,_ZN8argparse19SingleValueArgumentIdNS_16DefaultConverterIdEEEC2ERNS_8ArgValueIdEENSt7__cxx1112basic_stringIcSt11char_traitsIcESaIcEEESC_
FNDA:0,_ZN8argparse19SingleValueArgumentIdNS_16DefaultConverterIdEEEC2ERNS_8ArgValueIdEENSt7__cxx1112basic_stringIcSt11char_traitsIcESaIcEEESC_
FN:302,_ZN8argparse19SingleValueArgumentIi17ParseInitRegStateE19set_dest_to_defaultEv
FNDA:0,_ZN8argparse19SingleValueArgumentIi17ParseInitRegStateE19set_dest_to_defaultEv
FN:302,_ZN8argparse19SingleValueArgumentIiNS_16DefaultConverterIiEEE19set_dest_to_defaultEv
FNDA:0,_ZN8argparse19SingleValueArgumentIiNS_16DefaultConverterIiEEE19set_dest_to_defaultEv
FN:302,_ZN8argparse19SingleValueArgumentIdNS_16DefaultConverterIdEEE19set_dest_to_defaultEv
FNDA:0,_ZN8argparse19SingleValueArgumentIdNS_16DefaultConverterIdEEE19set_dest_to_defaultEv
FN:302,_ZN8argparse19SingleValueArgumentINSt7__cxx1112basic_stringIcSt11char_traitsIcESaIcEEENS_16DefaultConverterIS6_EEE19set_dest_to_defaultEv
FNDA:0,_ZN8argparse19SingleValueArgumentINSt7__cxx1112basic_stringIcSt11char_traitsIcESaIcEEENS_16DefaultConverterIS6_EEE19set_dest_to_defaultEv
FN:308,_ZN8argparse19SingleValueArgumentIi17ParseInitRegStateE17set_dest_to_valueENSt7__cxx1112basic_stringIcSt11char_traitsIcESaIcEEE
FNDA:0,_ZN8argparse19SingleValueArgumentIi17ParseInitRegStateE17set_dest_to_valueENSt7__cxx1112basic_stringIcSt11char_traitsIcESaIcEEE
FN:308,_ZN8argparse19SingleValueArgumentINSt7__cxx1112basic_stringIcSt11char_traitsIcESaIcEEENS_16DefaultConverterIS6_EEE17set_dest_to_valueES6_
FNDA:0,_ZN8argparse19SingleValueArgumentINSt7__cxx1112basic_stringIcSt11char_traitsIcESaIcEEENS_16DefaultConverterIS6_EEE17set_dest_to_valueES6_
FN:308,_ZN8argparse19SingleValueArgumentIdNS_16DefaultConverterIdEEE17set_dest_to_valueENSt7__cxx1112basic_stringIcSt11char_traitsIcESaIcEEE
FNDA:0,_ZN8argparse19SingleValueArgumentIdNS_16DefaultConverterIdEEE17set_dest_to_valueENSt7__cxx1112basic_stringIcSt11char_traitsIcESaIcEEE
FN:308,_ZN8argparse19SingleValueArgumentIiNS_16DefaultConverterIiEEE17set_dest_to_valueENSt7__cxx1112basic_stringIcSt11char_traitsIcESaIcEEE
FNDA:0,_ZN8argparse19SingleValueArgumentIiNS_16DefaultConverterIiEEE17set_dest_to_valueENSt7__cxx1112basic_stringIcSt11char_traitsIcESaIcEEE
FN:319,_ZN8argparse19SingleValueArgumentIi17ParseInitRegStateE17add_value_to_destENSt7__cxx1112basic_stringIcSt11char_traitsIcESaIcEEE
FNDA:0,_ZN8argparse19SingleValueArgumentIi17ParseInitRegStateE17add_value_to_destENSt7__cxx1112basic_stringIcSt11char_traitsIcESaIcEEE
FN:319,_ZN8argparse19SingleValueArgumentIdNS_16DefaultConverterIdEEE17add_value_to_destENSt7__cxx1112basic_stringIcSt11char_traitsIcESaIcEEE
FNDA:0,_ZN8argparse19SingleValueArgumentIdNS_16DefaultConverterIdEEE17add_value_to_destENSt7__cxx1112basic_stringIcSt11char_traitsIcESaIcEEE
FN:319,_ZN8argparse19SingleValueArgumentINSt7__cxx1112basic_stringIcSt11char_traitsIcESaIcEEENS_16DefaultConverterIS6_EEE17add_value_to_destES6_
FNDA:0,_ZN8argparse19SingleValueArgumentINSt7__cxx1112basic_stringIcSt11char_traitsIcESaIcEEENS_16DefaultConverterIS6_EEE17add_value_to_destES6_
FN:319,_ZN8argparse19SingleValueArgumentIiNS_16DefaultConverterIiEEE17add_value_to_destENSt7__cxx1112basic_stringIcSt11char_traitsIcESaIcEEE
FNDA:0,_ZN8argparse19SingleValueArgumentIiNS_16DefaultConverterIiEEE17add_value_to_destENSt7__cxx1112basic_stringIcSt11char_traitsIcESaIcEEE
FN:323,_ZN8argparse19SingleValueArgumentIiNS_16DefaultConverterIiEEE16set_dest_to_trueEv
FNDA:0,_ZN8argparse19SingleValueArgumentIiNS_16DefaultConverterIiEEE16set_dest_to_trueEv
FN:323,_ZN8argparse19SingleValueArgumentIi17ParseInitRegStateE16set_dest_to_trueEv
FNDA:0,_ZN8argparse19SingleValueArgumentIi17ParseInitRegStateE16set_dest_to_trueEv
FN:323,_ZN8argparse19SingleValueArgumentIdNS_16DefaultConverterIdEEE16set_dest_to_trueEv
FNDA:0,_ZN8argparse19SingleValueArgumentIdNS_16DefaultConverterIdEEE16set_dest_to_trueEv
FN:323,_ZN8argparse19SingleValueArgumentINSt7__cxx1112basic_stringIcSt11char_traitsIcESaIcEEENS_16DefaultConverterIS6_EEE16set_dest_to_trueEv
FNDA:0,_ZN8argparse19SingleValueArgumentINSt7__cxx1112basic_stringIcSt11char_traitsIcESaIcEEENS_16DefaultConverterIS6_EEE16set_dest_to_trueEv
FN:326,_ZN8argparse19SingleValueArgumentIi17ParseInitRegStateE17set_dest_to_falseEv
FNDA:0,_ZN8argparse19SingleValueArgumentIi17ParseInitRegStateE17set_dest_to_falseEv
FN:326,_ZN8argparse19SingleValueArgumentIiNS_16DefaultConverterIiEEE17set_dest_to_falseEv
FNDA:0,_ZN8argparse19SingleValueArgumentIiNS_16DefaultConverterIiEEE17set_dest_to_falseEv
FN:326,_ZN8argparse19SingleValueArgumentINSt7__cxx1112basic_stringIcSt11char_traitsIcESaIcEEENS_16DefaultConverterIS6_EEE17set_dest_to_falseEv
FNDA:0,_ZN8argparse19SingleValueArgumentINSt7__cxx1112basic_stringIcSt11char_traitsIcESaIcEEENS_16DefaultConverterIS6_EEE17set_dest_to_falseEv
FN:326,_ZN8argparse19SingleValueArgumentIdNS_16DefaultConverterIdEEE17set_dest_to_falseEv
FNDA:0,_ZN8argparse19SingleValueArgumentIdNS_16DefaultConverterIdEEE17set_dest_to_falseEv
FN:330,_ZN8argparse19SingleValueArgumentIi17ParseInitRegStateE12valid_actionEv
FNDA:0,_ZN8argparse19SingleValueArgumentIi17ParseInitRegStateE12valid_actionEv
FN:330,_ZN8argparse19SingleValueArgumentIiNS_16DefaultConverterIiEEE12valid_actionEv
FNDA:0,_ZN8argparse19SingleValueArgumentIiNS_16DefaultConverterIiEEE12valid_actionEv
FN:330,_ZN8argparse19SingleValueArgumentINSt7__cxx1112basic_stringIcSt11char_traitsIcESaIcEEENS_16DefaultConverterIS6_EEE12valid_actionEv
FNDA:0,_ZN8argparse19SingleValueArgumentINSt7__cxx1112basic_stringIcSt11char_traitsIcESaIcEEENS_16DefaultConverterIS6_EEE12valid_actionEv
FN:330,_ZN8argparse19SingleValueArgumentIdNS_16DefaultConverterIdEEE12valid_actionEv
FNDA:0,_ZN8argparse19SingleValueArgumentIdNS_16DefaultConverterIdEEE12valid_actionEv
FN:346,_ZN8argparse19SingleValueArgumentIi17ParseInitRegStateE10reset_destEv
FNDA:0,_ZN8argparse19SingleValueArgumentIi17ParseInitRegStateE10reset_destEv
FN:346,_ZN8argparse19SingleValueArgumentIiNS_16DefaultConverterIiEEE10reset_destEv
FNDA:0,_ZN8argparse19SingleValueArgumentIiNS_16DefaultConverterIiEEE10reset_destEv
FN:346,_ZN8argparse19SingleValueArgumentINSt7__cxx1112basic_stringIcSt11char_traitsIcESaIcEEENS_16DefaultConverterIS6_EEE10reset_destEv
FNDA:0,_ZN8argparse19SingleValueArgumentINSt7__cxx1112basic_stringIcSt11char_traitsIcESaIcEEENS_16DefaultConverterIS6_EEE10reset_destEv
FN:346,_ZN8argparse19SingleValueArgumentIdNS_16DefaultConverterIdEEE10reset_destEv
FNDA:0,_ZN8argparse19SingleValueArgumentIdNS_16DefaultConverterIdEEE10reset_destEv
FN:350,_ZN8argparse19SingleValueArgumentIi17ParseInitRegStateE14is_valid_valueENSt7__cxx1112basic_stringIcSt11char_traitsIcESaIcEEE
FNDA:0,_ZN8argparse19SingleValueArgumentIi17ParseInitRegStateE14is_valid_valueENSt7__cxx1112basic_stringIcSt11char_traitsIcESaIcEEE
FN:350,_ZN8argparse19SingleValueArgumentIdNS_16DefaultConverterIdEEE14is_valid_valueENSt7__cxx1112basic_stringIcSt11char_traitsIcESaIcEEE
FNDA:0,_ZN8argparse19SingleValueArgumentIdNS_16DefaultConverterIdEEE14is_valid_valueENSt7__cxx1112basic_stringIcSt11char_traitsIcESaIcEEE
FN:350,_ZN8argparse19SingleValueArgumentINSt7__cxx1112basic_stringIcSt11char_traitsIcESaIcEEENS_16DefaultConverterIS6_EEE14is_valid_valueES6_
FNDA:0,_ZN8argparse19SingleValueArgumentINSt7__cxx1112basic_stringIcSt11char_traitsIcESaIcEEENS_16DefaultConverterIS6_EEE14is_valid_valueES6_
FN:350,_ZN8argparse19SingleValueArgumentIiNS_16DefaultConverterIiEEE14is_valid_valueENSt7__cxx1112basic_stringIcSt11char_traitsIcESaIcEEE
FNDA:0,_ZN8argparse19SingleValueArgumentIiNS_16DefaultConverterIiEEE14is_valid_valueENSt7__cxx1112basic_stringIcSt11char_traitsIcESaIcEEE
FN:367,_ZN8argparse19SingleValueArgumentIbNS_16DefaultConverterIbEEEC2ERNS_8ArgValueIbEENSt7__cxx1112basic_stringIcSt11char_traitsIcESaIcEEESC_
FNDA:0,_ZN8argparse19SingleValueArgumentIbNS_16DefaultConverterIbEEEC2ERNS_8ArgValueIbEENSt7__cxx1112basic_stringIcSt11char_traitsIcESaIcEEESC_
FN:372,_ZN8argparse19SingleValueArgumentIbNS_16DefaultConverterIbEEE19set_dest_to_defaultEv
FNDA:0,_ZN8argparse19SingleValueArgumentIbNS_16DefaultConverterIbEEE19set_dest_to_defaultEv
FN:378,_ZN8argparse19SingleValueArgumentIbNS_16DefaultConverterIbEEE17add_value_to_destENSt7__cxx1112basic_stringIcSt11char_traitsIcESaIcEEE
FNDA:0,_ZN8argparse19SingleValueArgumentIbNS_16DefaultConverterIbEEE17add_value_to_destENSt7__cxx1112basic_stringIcSt11char_traitsIcESaIcEEE
FN:382,_ZN8argparse19SingleValueArgumentIbNS_16DefaultConverterIbEEE17set_dest_to_valueENSt7__cxx1112basic_stringIcSt11char_traitsIcESaIcEEE
FNDA:0,_ZN8argparse19SingleValueArgumentIbNS_16DefaultConverterIbEEE17set_dest_to_valueENSt7__cxx1112basic_stringIcSt11char_traitsIcESaIcEEE
FN:393,_ZN8argparse19SingleValueArgumentIbNS_16DefaultConverterIbEEE16set_dest_to_trueEv
FNDA:0,_ZN8argparse19SingleValueArgumentIbNS_16DefaultConverterIbEEE16set_dest_to_trueEv
FN:402,_ZN8argparse19SingleValueArgumentIbNS_16DefaultConverterIbEEE17set_dest_to_falseEv
FNDA:0,_ZN8argparse19SingleValueArgumentIbNS_16DefaultConverterIbEEE17set_dest_to_falseEv
FN:411,_ZN8argparse19SingleValueArgumentIbNS_16DefaultConverterIbEEE12valid_actionEv
FNDA:0,_ZN8argparse19SingleValueArgumentIbNS_16DefaultConverterIbEEE12valid_actionEv
FN:416,_ZN8argparse19SingleValueArgumentIbNS_16DefaultConverterIbEEE10reset_destEv
FNDA:0,_ZN8argparse19SingleValueArgumentIbNS_16DefaultConverterIbEEE10reset_destEv
FN:420,_ZN8argparse19SingleValueArgumentIbNS_16DefaultConverterIbEEE14is_valid_valueENSt7__cxx1112basic_stringIcSt11char_traitsIcESaIcEEE
FNDA:0,_ZN8argparse19SingleValueArgumentIbNS_16DefaultConverterIbEEE14is_valid_valueENSt7__cxx1112basic_stringIcSt11char_traitsIcESaIcEEE
FN:435,_ZN8argparse18MultiValueArgumentISt6vectorINSt7__cxx1112basic_stringIcSt11char_traitsIcESaIcEEESaIS7_EENS_16DefaultConverterIS7_EEEC2ERNS_8ArgValueIS9_EES7_S7_
FNDA:0,_ZN8argparse18MultiValueArgumentISt6vectorINSt7__cxx1112basic_stringIcSt11char_traitsIcESaIcEEESaIS7_EENS_16DefaultConverterIS7_EEEC2ERNS_8ArgValueIS9_EES7_S7_
FN:441,_ZN8argparse18MultiValueArgumentISt6vectorINSt7__cxx1112basic_stringIcSt11char_traitsIcESaIcEEESaIS7_EENS_16DefaultConverterIS7_EEE19set_dest_to_defaultEv
FNDA:0,_ZN8argparse18MultiValueArgumentISt6vectorINSt7__cxx1112basic_stringIcSt11char_traitsIcESaIcEEESaIS7_EENS_16DefaultConverterIS7_EEE19set_dest_to_defaultEv
FN:452,_ZN8argparse18MultiValueArgumentISt6vectorINSt7__cxx1112basic_stringIcSt11char_traitsIcESaIcEEESaIS7_EENS_16DefaultConverterIS7_EEE17set_dest_to_valueES7_
FNDA:0,_ZN8argparse18MultiValueArgumentISt6vectorINSt7__cxx1112basic_stringIcSt11char_traitsIcESaIcEEESaIS7_EENS_16DefaultConverterIS7_EEE17set_dest_to_valueES7_
FN:456,_ZN8argparse18MultiValueArgumentISt6vectorINSt7__cxx1112basic_stringIcSt11char_traitsIcESaIcEEESaIS7_EENS_16DefaultConverterIS7_EEE17add_value_to_destES7_
FNDA:0,_ZN8argparse18MultiValueArgumentISt6vectorINSt7__cxx1112basic_stringIcSt11char_traitsIcESaIcEEESaIS7_EENS_16DefaultConverterIS7_EEE17add_value_to_destES7_
FN:481,_ZN8argparse18MultiValueArgumentISt6vectorINSt7__cxx1112basic_stringIcSt11char_traitsIcESaIcEEESaIS7_EENS_16DefaultConverterIS7_EEE16set_dest_to_trueEv
FNDA:0,_ZN8argparse18MultiValueArgumentISt6vectorINSt7__cxx1112basic_stringIcSt11char_traitsIcESaIcEEESaIS7_EENS_16DefaultConverterIS7_EEE16set_dest_to_trueEv
FN:484,_ZN8argparse18MultiValueArgumentISt6vectorINSt7__cxx1112basic_stringIcSt11char_traitsIcESaIcEEESaIS7_EENS_16DefaultConverterIS7_EEE17set_dest_to_falseEv
FNDA:0,_ZN8argparse18MultiValueArgumentISt6vectorINSt7__cxx1112basic_stringIcSt11char_traitsIcESaIcEEESaIS7_EENS_16DefaultConverterIS7_EEE17set_dest_to_falseEv
FN:488,_ZN8argparse18MultiValueArgumentISt6vectorINSt7__cxx1112basic_stringIcSt11char_traitsIcESaIcEEESaIS7_EENS_16DefaultConverterIS7_EEE12valid_actionEv
FNDA:0,_ZN8argparse18MultiValueArgumentISt6vectorINSt7__cxx1112basic_stringIcSt11char_traitsIcESaIcEEESaIS7_EENS_16DefaultConverterIS7_EEE12valid_actionEv
FN:496,_ZN8argparse18MultiValueArgumentISt6vectorINSt7__cxx1112basic_stringIcSt11char_traitsIcESaIcEEESaIS7_EENS_16DefaultConverterIS7_EEE10reset_destEv
FNDA:0,_ZN8argparse18MultiValueArgumentISt6vectorINSt7__cxx1112basic_stringIcSt11char_traitsIcESaIcEEESaIS7_EENS_16DefaultConverterIS7_EEE10reset_destEv
FN:500,_ZN8argparse18MultiValueArgumentISt6vectorINSt7__cxx1112basic_stringIcSt11char_traitsIcESaIcEEESaIS7_EENS_16DefaultConverterIS7_EEE14is_valid_valueES7_
FNDA:0,_ZN8argparse18MultiValueArgumentISt6vectorINSt7__cxx1112basic_stringIcSt11char_traitsIcESaIcEEESaIS7_EENS_16DefaultConverterIS7_EEE14is_valid_valueES7_
DA:269,0
DA:269,0
DA:297,0
DA:299,0
DA:300,0
DA:297,0
DA:299,0
DA:300,0
DA:297,0
DA:299,0
DA:300,0
DA:297,0
DA:299,0
DA:300,0
DA:302,0
DA:303,0
DA:304,0
DA:305,0
DA:306,0
DA:302,0
DA:303,0
DA:304,0
DA:305,0
DA:306,0
DA:302,0
DA:303,0
DA:304,0
DA:305,0
DA:306,0
DA:302,0
DA:303,0
DA:304,0
DA:305,0
DA:306,0
DA:308,0
DA:309,0
DA:310,0
DA:311,0
DA:314,0
DA:315,0
DA:316,0
DA:317,0
DA:308,0
DA:309,0
DA:310,0
DA:311,0
DA:314,0
DA:315,0
DA:316,0
DA:317,0
DA:308,0
DA:309,0
DA:310,0
DA:311,0
DA:314,0
DA:315,0
DA:316,0
DA:317,0
DA:308,0
DA:309,0
DA:310,0
DA:311,0
DA:314,0
DA:315,0
DA:316,0
DA:317,0
DA:319,0
DA:320,0
DA:319,0
DA:320,0
DA:319,0
DA:320,0
DA:319,0
DA:320,0
DA:323,0
DA:324,0
DA:323,0
DA:324,0
DA:323,0
DA:324,0
DA:323,0
DA:324,0
DA:326,0
DA:327,0
DA:326,0
DA:327,0
DA:326,0
DA:327,0
DA:326,0
DA:327,0
DA:330,0
DA:332,0
DA:333,0
DA:334,0
DA:335,0
DA:336,0
DA:337,0
DA:338,0
DA:339,0
DA:340,0
DA:341,0
DA:343,0
DA:330,0
DA:332,0
DA:333,0
DA:334,0
DA:335,0
DA:336,0
DA:337,0
DA:338,0
DA:339,0
DA:340,0
DA:341,0
DA:343,0
DA:330,0
DA:332,0
DA:333,0
DA:334,0
DA:335,0
DA:336,0
DA:337,0
DA:338,0
DA:339,0
DA:340,0
DA:341,0
DA:343,0
DA:330,0
DA:332,0
DA:333,0
DA:334,0
DA:335,0
DA:336,0
DA:337,0
DA:338,0
DA:339,0
DA:340,0
DA:341,0
DA:343,0
DA:346,0
DA:347,0
DA:348,0
DA:346,0
DA:347,0
DA:348,0
DA:346,0
DA:347,0
DA:348,0
DA:346,0
DA:347,0
DA:348,0
DA:350,0
DA:351,0
DA:353,0
DA:356,0
DA:350,0
DA:351,0
DA:353,0
DA:356,0
DA:350,0
DA:351,0
DA:353,0
DA:356,0
DA:350,0
DA:351,0
DA:353,0
DA:356,0
DA:367,0
DA:369,0
DA:370,0
DA:372,0
DA:373,0
DA:374,0
DA:375,0
DA:376,0
DA:378,0
DA:379,0
DA:382,0
DA:383,0
DA:384,0
DA:385,0
DA:388,0
DA:389,0
DA:390,0
DA:391,0
DA:393,0
DA:394,0
DA:395,0
DA:397,0
DA:398,0
DA:399,0
DA:400,0
DA:402,0
DA:403,0
DA:404,0
DA:406,0
DA:407,0
DA:408,0
DA:409,0
DA:411,0
DA:413,0
DA:416,0
DA:417,0
DA:418,0
DA:420,0
DA:421,0
DA:423,0
DA:426,0
DA:435,0
DA:437,0
DA:438,0
DA:441,0
DA:442,0
DA:443,0
DA:444,0
DA:445,0
DA:448,0
DA:449,0
DA:450,0
DA:452,0
DA:453,0
DA:456,0
DA:457,0
DA:458,0
DA:459,0
DA:462,0
DA:464,0
DA:466,0
DA:467,0
DA:471,0
DA:472,0
DA:473,0
DA:475,0
DA:477,0
DA:478,0
DA:479,0
DA:481,0
DA:482,0
DA:484,0
DA:485,0
DA:488,0
DA:490,0
DA:491,0
DA:493,0
DA:496,0
DA:497,0
DA:498,0
DA:500,0
DA:501,0
DA:503,0
DA:506,0
end_of_record
SF:/workspace/vtr-verilog-to-routing/libs/libarchfpga/src/physical_types.h
DA:442,0
DA:507,0
DA:767,0
end_of_record
SF:/usr/include/c++/9/ostream
DA:565,0
DA:568,0
DA:570,0
DA:571,0
end_of_record
SF:/usr/include/c++/9/bits/range_access.h
DA:68,0
DA:69,0
end_of_record
SF:/usr/include/c++/9/bits/unique_ptr.h
end_of_record
TN:
SF:/usr/include/c++/9/bits/stl_algobase.h
DA:198,0
DA:203,0
DA:204,0
DA:222,0
DA:227,0
DA:228,0
end_of_record
SF:/usr/include/x86_64-linux-gnu/bits/string_fortified.h
DA:31,0
DA:34,0
end_of_record
SF:/workspace/vtr-verilog-to-routing/ODIN_II/SRC/odin_memory.cpp
FN:7,_ZN4odin6strdupEPKc
FNDA:0,_ZN4odin6strdupEPKc
DA:7,0
DA:8,0
DA:9,0
DA:11,0
DA:12,0
DA:13,0
DA:16,0
DA:19,0
end_of_record
SF:/workspace/vtr-verilog-to-routing/ODIN_II/SRC/include/odin_memory.hpp
FN:40,_ZN4odin6callocImmEEPvT_T0_
FNDA:0,_ZN4odin6callocImmEEPvT_T0_
DA:40,0
DA:41,0
DA:44,0
DA:47,0
DA:51,0
DA:54,0
DA:55,0
DA:56,0
DA:58,0
DA:62,0
DA:63,0
DA:64,0
DA:67,0
end_of_record
TN:
SF:/usr/include/c++/9/bits/allocator.h
DA:138,0
DA:141,0
DA:142,0
DA:153,0
end_of_record
SF:/usr/include/c++/9/ext/alloc_traits.h
DA:97,0
DA:98,0
end_of_record
SF:/usr/include/c++/9/ostream
DA:127,0
DA:132,0
DA:166,0
DA:167,0
DA:565,0
DA:568,0
DA:570,0
DA:571,0
end_of_record
SF:/usr/include/c++/9/ext/string_conversions.h
FN:99,_ZN9__gnu_cxx12__to_xstringINSt7__cxx1112basic_stringIcSt11char_traitsIcESaIcEEEcEET_PFiPT0_mPKS8_P13__va_list_tagEmSB_z
FNDA:0,_ZN9__gnu_cxx12__to_xstringINSt7__cxx1112basic_stringIcSt11char_traitsIcESaIcEEEcEET_PFiPT0_mPKS8_P13__va_list_tagEmSB_z
DA:99,0
DA:105,0
DA:109,0
DA:111,0
DA:113,0
DA:115,0
end_of_record
SF:/usr/include/c++/9/bits/move.h
DA:47,0
DA:99,0
DA:138,0
DA:139,0
end_of_record
SF:/workspace/vtr-verilog-to-routing/ODIN_II/SRC/odin_util.cpp
FN:50,_Z36shift_left_value_with_overflow_checkll
FNDA:0,_Z36shift_left_value_with_overflow_checkll
FN:59,_Z18get_file_extensionNSt7__cxx1112basic_stringIcSt11char_traitsIcESaIcEEE
FNDA:0,_Z18get_file_extensionNSt7__cxx1112basic_stringIcSt11char_traitsIcESaIcEEE
FN:68,_Z16create_directoryNSt7__cxx1112basic_stringIcSt11char_traitsIcESaIcEEE
FNDA:0,_Z16create_directoryNSt7__cxx1112basic_stringIcSt11char_traitsIcESaIcEEE
FN:82,_Z31assert_supported_file_extensionNSt7__cxx1112basic_stringIcSt11char_traitsIcESaIcEEEii
FNDA:0,_Z31assert_supported_file_extensionNSt7__cxx1112basic_stringIcSt11char_traitsIcESaIcEEEii
FN:104,_Z9open_filePKcS0_
FNDA:0,_Z9open_filePKcS0_
FN:116,_Z16name_based_on_op14operation_list
FNDA:0,_Z16name_based_on_op14operation_list
FN:126,_Z17name_based_on_ids3ids
FNDA:0,_Z17name_based_on_ids3ids
FN:136,_Z21node_name_based_on_opP7nnode_t
FNDA:0,_Z21node_name_based_on_opP7nnode_t
FN:144,_Z26ast_node_name_based_on_idsP10ast_node_t
FNDA:0,_Z26ast_node_name_based_on_idsP10ast_node_t
FN:152,_Z16make_signal_namePci
FNDA:0,_Z16make_signal_namePci
FN:168,_Z18make_full_ref_namePKcS0_S0_S0_l
FNDA:0,_Z18make_full_ref_namePKcS0_S0_S0_l
FN:193,_Z28make_full_name_w_o_array_refPKcS0_S0_
FNDA:0,_Z28make_full_name_w_o_array_refPKcS0_S0_
FN:216,_Z15twos_complementPc
FNDA:0,_Z15twos_complementPc
FN:242,_Z37convert_string_of_radix_to_bit_stringPcii
FNDA:0,_Z37convert_string_of_radix_to_bit_stringPcii
FN:261,_Z26convert_long_to_bit_stringli
FNDA:0,_Z26convert_long_to_bit_stringli
FN:283,_Z34convert_dec_string_of_size_to_longPci
FNDA:0,_Z34convert_dec_string_of_size_to_longPci
FN:295,_Z31convert_string_of_radix_to_longPci
FNDA:0,_Z31convert_string_of_radix_to_longPci
FN:306,_Z18is_string_of_radixPci
FNDA:0,_Z18is_string_of_radixPci
FN:323,_Z40convert_hex_string_of_size_to_bit_stringsPci
FNDA:0,_Z40convert_hex_string_of_size_to_bit_stringsPci
FN:418,_Z40convert_oct_string_of_size_to_bit_stringPci
FNDA:0,_Z40convert_oct_string_of_size_to_bit_stringPci
FN:467,_Z43convert_binary_string_of_size_to_bit_stringsPci
FNDA:0,_Z43convert_binary_string_of_size_to_bit_stringsPci
FN:500,_Z13is_hex_stringPc
FNDA:0,_Z13is_hex_stringPc
FN:512,_Z19is_dont_care_stringPc
FNDA:0,_Z19is_dont_care_stringPc
FN:524,_Z17is_decimal_stringPc
FNDA:0,_Z17is_decimal_stringPc
FN:536,_Z15is_octal_stringPc
FNDA:0,_Z15is_octal_stringPc
FN:548,_Z16is_binary_stringPc
FNDA:0,_Z16is_binary_stringPc
FN:563,_Z12get_pin_namePc
FNDA:0,_Z12get_pin_namePc
FN:574,_Z13get_port_namePc
FNDA:0,_Z13get_port_namePc
FN:590,_Z14get_pin_numberPc
FNDA:0,_Z14get_pin_numberPc
FN:609,_Z8my_powerll
FNDA:0,_Z8my_powerll
FN:624,_Z23make_string_based_on_idP7nnode_t
FNDA:0,_Z23make_string_based_on_idP7nnode_t
FN:634,_Z16make_simple_nameB5cxx11PcPKcc
FNDA:0,_Z16make_simple_nameB5cxx11PcPKcc
FN:650,_Z16my_malloc_structl
FNDA:0,_Z16my_malloc_structl
FN:671,_Z4pow2i
FNDA:0,_Z4pow2i
FN:685,_Z15string_to_upperPc
FNDA:0,_Z15string_to_upperPc
FN:697,_Z15string_to_lowerPc
FNDA:0,_Z15string_to_lowerPc
FN:713,_Z13append_stringPKcS0_z
FNDA:0,_Z13append_stringPKcS0_z
FN:730,_Z14reverse_stringPci
FNDA:0,_Z14reverse_stringPci
FN:743,_Z7get_bitc
FNDA:0,_Z7get_bitc
FN:753,_Z7get_bits
FNDA:0,_Z7get_bits
FN:760,_Z29passed_verify_i_o_availabiltyP7nnode_tiiPKci
FNDA:0,_Z29passed_verify_i_o_availabiltyP7nnode_tiiPKci
FN:792,_Z14search_replacePcPKcS1_i
FNDA:0,_Z14search_replacePcPKcS1_i
FN:811,_Z14find_substringB5cxx11PcPKci
FNDA:0,_Z14find_substringB5cxx11PcPKci
FN:832,_Z10print_timed
FNDA:0,_Z10print_timed
FN:839,_Z9wall_timev
FNDA:0,_Z9wall_timev
FN:854,_Z18print_progress_bardiid
FNDA:0,_Z18print_progress_bardiid
FN:892,_Z11trim_stringPcPKc
FNDA:0,_Z11trim_stringPcPKc
FN:917,_ZL21string_to_token_arrayPcPi
FNDA:0,_ZL21string_to_token_arrayPcPi
FN:939,_Z27output_vector_headers_equalPcS_
FNDA:0,_Z27output_vector_headers_equalPcS_
FN:966,_Z16only_one_is_trueSt6vectorIbSaIbEE
FNDA:0,_Z16only_one_is_trueSt6vectorIbSaIbEE
FN:982,_Z12odin_sprintfPcPKcz
FNDA:0,_Z12odin_sprintfPcPKcz
FN:1009,_Z11str_collatePcS_
FNDA:0,_Z11str_collatePcS_
DA:50,0
DA:51,0
DA:52,0
DA:53,0
DA:54,0
DA:56,0
DA:59,0
DA:60,0
DA:61,0
DA:62,0
DA:64,0
DA:68,0
DA:70,0
DA:74,0
DA:77,0
DA:78,0
DA:80,0
DA:82,0
DA:83,0
DA:84,0
DA:85,0
DA:86,0
DA:89,0
DA:90,0
DA:91,0
DA:92,0
DA:93,0
DA:96,0
DA:102,0
DA:104,0
DA:105,0
DA:106,0
DA:107,0
DA:109,0
DA:116,0
DA:117,0
DA:119,0
DA:126,0
DA:127,0
DA:129,0
DA:136,0
DA:137,0
DA:144,0
DA:145,0
DA:152,0
DA:153,0
DA:154,0
DA:155,0
DA:156,0
DA:157,0
DA:159,0
DA:168,0
DA:169,0
DA:170,0
DA:171,0
DA:173,0
DA:174,0
DA:176,0
DA:177,0
DA:179,0
DA:180,0
DA:182,0
DA:183,0
DA:184,0
DA:186,0
DA:193,0
DA:194,0
DA:195,0
DA:196,0
DA:198,0
DA:199,0
DA:201,0
DA:203,0
DA:204,0
DA:206,0
DA:209,0
DA:216,0
DA:217,0
DA:218,0
DA:219,0
DA:221,0
DA:222,0
DA:223,0
DA:225,0
DA:226,0
DA:228,0
DA:242,0
DA:243,0
DA:244,0
DA:245,0
DA:246,0
DA:247,0
DA:248,0
DA:249,0
DA:250,0
DA:251,0
DA:261,0
DA:262,0
DA:263,0
DA:264,0
DA:266,0
DA:267,0
DA:268,0
DA:270,0
DA:272,0
DA:274,0
DA:276,0
DA:283,0
DA:284,0
DA:285,0
DA:287,0
DA:288,0
DA:289,0
DA:290,0
DA:292,0
DA:295,0
DA:296,0
DA:297,0
DA:299,0
DA:300,0
DA:301,0
DA:303,0
DA:306,0
DA:307,0
DA:308,0
DA:309,0
DA:310,0
DA:311,0
DA:312,0
DA:313,0
DA:314,0
DA:323,0
DA:324,0
DA:325,0
DA:326,0
DA:327,0
DA:329,0
DA:330,0
DA:331,0
DA:334,0
DA:338,0
DA:339,0
DA:341,0
DA:342,0
DA:343,0
DA:344,0
DA:345,0
DA:346,0
DA:347,0
DA:348,0
DA:351,0
DA:354,0
DA:355,0
DA:356,0
DA:357,0
DA:361,0
DA:363,0
DA:365,0
DA:366,0
DA:368,0
DA:369,0
DA:370,0
DA:371,0
DA:372,0
DA:373,0
DA:374,0
DA:379,0
DA:382,0
DA:383,0
DA:384,0
DA:388,0
DA:390,0
DA:391,0
DA:392,0
DA:393,0
DA:396,0
DA:398,0
DA:400,0
DA:401,0
DA:411,0
DA:418,0
DA:419,0
DA:420,0
DA:422,0
DA:423,0
DA:424,0
DA:427,0
DA:431,0
DA:432,0
DA:434,0
DA:435,0
DA:436,0
DA:437,0
DA:438,0
DA:439,0
DA:440,0
DA:441,0
DA:444,0
DA:447,0
DA:448,0
DA:449,0
DA:450,0
DA:454,0
DA:456,0
DA:458,0
DA:459,0
DA:460,0
DA:467,0
DA:468,0
DA:469,0
DA:471,0
DA:472,0
DA:475,0
DA:478,0
DA:481,0
DA:482,0
DA:483,0
DA:484,0
DA:488,0
DA:490,0
DA:492,0
DA:493,0
DA:494,0
DA:500,0
DA:501,0
DA:502,0
DA:503,0
DA:512,0
DA:513,0
DA:514,0
DA:515,0
DA:524,0
DA:525,0
DA:526,0
DA:527,0
DA:536,0
DA:537,0
DA:538,0
DA:539,0
DA:548,0
DA:549,0
DA:550,0
DA:551,0
DA:563,0
DA:564,0
DA:565,0
DA:567,0
DA:574,0
DA:576,0
DA:578,0
DA:579,0
DA:580,0
DA:581,0
DA:590,0
DA:592,0
DA:593,0
DA:595,0
DA:596,0
DA:597,0
DA:601,0
DA:602,0
DA:609,0
DA:610,0
DA:615,0
DA:616,0
DA:624,0
DA:626,0
DA:628,0
DA:634,0
DA:635,0
DA:636,0
DA:638,0
DA:639,0
DA:641,0
DA:642,0
DA:644,0
DA:650,0
DA:651,0
DA:652,0
DA:657,0
DA:658,0
DA:659,0
DA:663,0
DA:665,0
DA:671,0
DA:672,0
DA:673,0
DA:675,0
DA:676,0
DA:679,0
DA:685,0
DA:686,0
DA:688,0
DA:689,0
DA:692,0
DA:697,0
DA:698,0
DA:700,0
DA:701,0
DA:704,0
DA:713,0
DA:714,0
DA:716,0
DA:718,0
DA:719,0
DA:720,0
DA:722,0
DA:723,0
DA:730,0
DA:731,0
DA:732,0
DA:733,0
DA:734,0
DA:735,0
DA:736,0
DA:738,0
DA:743,0
DA:744,0
DA:745,0
DA:746,0
DA:747,0
DA:753,0
DA:754,0
DA:756,0
DA:757,0
DA:760,0
DA:761,0
DA:762,0
DA:764,0
DA:765,0
DA:767,0
DA:768,0
DA:769,0
DA:770,0
DA:771,0
DA:776,0
DA:777,0
DA:778,0
DA:779,0
DA:780,0
DA:785,0
DA:786,0
DA:787,0
DA:792,0
DA:793,0
DA:794,0
DA:795,0
DA:796,0
DA:797,0
DA:798,0
DA:799,0
DA:800,0
DA:802,0
DA:803,0
DA:804,0
DA:811,0
DA:814,0
DA:815,0
DA:816,0
DA:817,0
DA:818,0
DA:819,0
DA:821,0
DA:822,0
DA:824,0
DA:825,0
DA:832,0
DA:833,0
DA:834,0
DA:839,0
DA:840,0
DA:841,0
DA:843,0
DA:854,0
DA:855,0
DA:856,0
DA:858,0
DA:860,0
DA:861,0
DA:862,0
DA:864,0
DA:866,0
DA:867,0
DA:869,0
DA:870,0
DA:871,0
DA:872,0
DA:874,0
DA:875,0
DA:878,0
DA:880,0
DA:881,0
DA:883,0
DA:885,0
DA:892,0
DA:893,0
DA:894,0
DA:895,0
DA:896,0
DA:898,0
DA:899,0
DA:900,0
DA:901,0
DA:902,0
DA:906,0
DA:910,0
DA:917,0
DA:918,0
DA:920,0
DA:921,0
DA:923,0
DA:924,0
DA:925,0
DA:926,0
DA:927,0
DA:929,0
DA:930,0
DA:939,0
DA:940,0
DA:941,0
DA:942,0
DA:943,0
DA:945,0
DA:946,0
DA:948,0
DA:949,0
DA:951,0
DA:952,0
DA:953,0
DA:956,0
DA:957,0
DA:958,0
DA:959,0
DA:960,0
DA:966,0
DA:967,0
DA:968,0
DA:969,0
DA:971,0
DA:972,0
DA:974,0
DA:982,0
DA:983,0
DA:984,0
DA:985,0
DA:987,0
DA:989,0
DA:990,0
DA:991,0
DA:992,0
DA:993,0
DA:995,0
DA:997,0
DA:999,0
DA:1000,0
DA:1001,0
DA:1002,0
DA:1009,0
DA:1010,0
DA:1011,0
DA:1013,0
DA:1015,0
DA:1016,0
DA:1017,0
DA:1019,0
DA:1020,0
DA:1021,0
DA:1024,0
DA:1025,0
DA:1026,0
DA:1029,0
DA:1030,0
DA:1031,0
DA:1032,0
DA:1034,0
end_of_record
SF:/usr/include/c++/9/bits/stl_iterator_base_funcs.h
DA:98,0
DA:104,0
DA:138,0
DA:141,0
end_of_record
SF:/workspace/vtr-verilog-to-routing/libs/EXTERNAL/libargparse/src/argparse_value.hpp
DA:53,0
end_of_record
SF:/usr/include/c++/9/ext/type_traits.h
DA:152,0
end_of_record
SF:/usr/include/c++/9/bits/alloc_traits.h
DA:469,0
DA:470,0
DA:514,0
DA:515,0
end_of_record
SF:/usr/include/c++/9/bits/stl_algo.h
DA:4395,0
DA:4407,0
DA:4408,0
DA:4409,0
end_of_record
SF:/usr/include/c++/9/bits/basic_string.h
FN:6020,_ZStplIcSt11char_traitsIcESaIcEENSt7__cxx1112basic_stringIT_T0_T1_EERKS8_SA_
FNDA:0,_ZStplIcSt11char_traitsIcESaIcEENSt7__cxx1112basic_stringIT_T0_T1_EERKS8_SA_
FN:6097,_ZStplIcSt11char_traitsIcESaIcEENSt7__cxx1112basic_stringIT_T0_T1_EEOS8_S9_
FNDA:0,_ZStplIcSt11char_traitsIcESaIcEENSt7__cxx1112basic_stringIT_T0_T1_EEOS8_S9_
FN:6149,_ZSteqIcEN9__gnu_cxx11__enable_ifIXsrSt9__is_charIT_E7__valueEbE6__typeERKNSt7__cxx1112basic_stringIS3_St11char_traitsIS3_ESaIS3_EEESE_
FNDA:0,_ZSteqIcEN9__gnu_cxx11__enable_ifIXsrSt9__is_charIT_E7__valueEbE6__typeERKNSt7__cxx1112basic_stringIS3_St11char_traitsIS3_ESaIS3_EEESE_
DA:150,0
DA:156,0
DA:157,0
DA:159,0
DA:160,0
DA:178,0
DA:179,0
DA:182,0
DA:183,0
DA:186,0
DA:190,0
DA:193,0
DA:200,0
DA:203,0
DA:210,0
DA:211,0
DA:214,0
DA:216,0
DA:217,0
DA:221,0
DA:222,0
DA:229,0
DA:231,0
DA:232,0
DA:236,0
DA:237,0
DA:243,0
DA:247,0
DA:263,0
DA:266,0
DA:286,0
DA:287,0
DA:290,0
DA:291,0
DA:346,0
DA:348,0
DA:349,0
DA:351,0
DA:392,0
DA:393,0
DA:396,0
DA:398,0
DA:431,0
DA:433,0
DA:434,0
DA:448,0
DA:450,0
DA:451,0
DA:540,0
DA:541,0
DA:542,0
DA:552,0
DA:553,0
DA:555,0
DA:557,0
DA:562,0
DA:563,0
DA:569,0
DA:570,0
DA:571,0
DA:572,0
DA:625,0
DA:627,0
DA:628,0
DA:657,0
DA:658,0
DA:704,0
DA:705,0
DA:826,0
DA:827,0
DA:842,0
DA:843,0
DA:930,0
DA:936,0
DA:993,0
DA:995,0
DA:1063,0
DA:1070,0
DA:1121,0
DA:1124,0
DA:1177,0
DA:1178,0
DA:1221,0
DA:1222,0
DA:1639,0
DA:1641,0
DA:2300,0
DA:2301,0
DA:2312,0
DA:2313,0
DA:2361,0
DA:2363,0
DA:2571,0
DA:2572,0
DA:2655,0
DA:2656,0
DA:6020,0
DA:6023,0
DA:6024,0
DA:6025,0
DA:6097,0
DA:6100,0
DA:6101,0
DA:6102,0
DA:6103,0
DA:6104,0
DA:6149,0
DA:6151,0
DA:6152,0
DA:6153,0
DA:6416,0
DA:6421,0
DA:6557,0
DA:6558,0
DA:6559,0
end_of_record
SF:/usr/include/c++/9/streambuf
end_of_record
SF:/usr/include/c++/9/bits/basic_string.tcc
FN:206,_ZNSt7__cxx1112basic_stringIcSt11char_traitsIcESaIcEE12_M_constructIPcEEvT_S7_St20forward_iterator_tag
FNDA:0,_ZNSt7__cxx1112basic_stringIcSt11char_traitsIcESaIcEE12_M_constructIPcEEvT_S7_St20forward_iterator_tag
FN:206,_ZNSt7__cxx1112basic_stringIcSt11char_traitsIcESaIcEE12_M_constructIPKcEEvT_S8_St20forward_iterator_tag
FNDA:0,_ZNSt7__cxx1112basic_stringIcSt11char_traitsIcESaIcEE12_M_constructIPKcEEvT_S8_St20forward_iterator_tag
DA:206,0
DA:211,0
DA:212,0
DA:215,0
DA:217,0
DA:219,0
DA:220,0
DA:225,0
DA:232,0
DA:233,0
DA:206,0
DA:211,0
DA:212,0
DA:215,0
DA:217,0
DA:219,0
DA:220,0
DA:225,0
DA:232,0
DA:233,0
end_of_record
SF:/usr/include/c++/9/bits/char_traits.h
DA:299,0
DA:300,0
DA:315,0
DA:317,0
DA:325,0
DA:329,0
DA:335,0
DA:361,0
DA:363,0
DA:365,0
end_of_record
SF:/usr/include/x86_64-linux-gnu/bits/stdio2.h
DA:77,0
DA:80,0
DA:98,0
DA:100,0
DA:105,0
DA:107,0
end_of_record
SF:/usr/include/c++/9/ext/new_allocator.h
DA:80,0
DA:83,0
DA:89,0
DA:119,0
DA:128,0
end_of_record
SF:/usr/include/c++/9/iostream
end_of_record
SF:/usr/include/c++/9/bits/stl_bvector.h
DA:77,0
DA:86,0
DA:87,0
DA:148,0
DA:152,0
DA:154,0
DA:156,0
DA:157,0
DA:186,0
DA:187,0
DA:197,0
DA:198,0
DA:228,0
DA:229,0
DA:236,0
DA:237,0
DA:240,0
DA:242,0
DA:811,0
DA:812,0
DA:819,0
DA:820,0
end_of_record
SF:/usr/include/c++/9/bits/ios_base.h
FN:1023,_ZSt3decRSt8ios_base
FNDA:0,_ZSt3decRSt8ios_base
DA:83,0
DA:84,0
DA:87,0
DA:88,0
DA:95,0
DA:96,0
DA:99,0
DA:100,0
DA:103,0
DA:104,0
DA:670,0
DA:672,0
DA:673,0
DA:674,0
DA:675,0
DA:1023,0
DA:1025,0
DA:1026,0
end_of_record
SF:/usr/include/x86_64-linux-gnu/bits/string_fortified.h
DA:103,0
DA:106,0
DA:126,0
DA:128,0
end_of_record
SF:/usr/include/c++/9/chrono
DA:149,0
DA:153,0
DA:191,0
DA:200,0
DA:331,0
DA:338,0
DA:339,0
DA:346,0
DA:649,0
end_of_record
SF:/usr/include/c++/9/bits/ptr_traits.h
DA:146,0
DA:147,0
end_of_record
SF:/usr/include/c++/9/sstream
DA:831,0
DA:832,0
end_of_record
SF:/usr/include/c++/9/bits/stl_iterator.h
DA:806,0
DA:819,0
DA:827,0
DA:829,0
DA:830,0
DA:871,0
DA:907,0
DA:910,0
end_of_record
SF:/usr/include/string.h
DA:213,0
DA:215,0
end_of_record
TN:
SF:/usr/include/c++/9/bits/stl_iterator_base_funcs.h
DA:98,0
DA:104,0
DA:138,0
DA:141,0
end_of_record
SF:/workspace/vtr-verilog-to-routing/libs/EXTERNAL/libargparse/src/argparse_value.hpp
DA:50,0
DA:53,0
DA:56,0
end_of_record
SF:/usr/include/c++/9/bits/alloc_traits.h
DA:469,0
DA:470,0
DA:514,0
DA:515,0
end_of_record
SF:/usr/include/c++/9/ext/type_traits.h
DA:152,0
end_of_record
SF:/usr/include/c++/9/bits/move.h
DA:47,0
DA:99,0
DA:138,0
DA:139,0
end_of_record
SF:/workspace/vtr-verilog-to-routing/ODIN_II/SRC/output_blif.cpp
FN:55,_ZL15print_input_pinP8_IO_FILEP7nnode_tl
FNDA:0,_ZL15print_input_pinP8_IO_FILEP7nnode_tl
FN:99,_ZL22print_dot_names_headerP8_IO_FILEP7nnode_t
FNDA:0,_ZL22print_dot_names_headerP8_IO_FILEP7nnode_t
FN:108,_Z11create_blifPKc
FNDA:0,_Z11create_blifPKc
FN:130,_Z11output_blifP8_IO_FILEP9netlist_t
FNDA:0,_Z11output_blifP8_IO_FILEP9netlist_t
FN:194,_Z31depth_first_traversal_to_outputsP8_IO_FILEP9netlist_t
FNDA:0,_Z31depth_first_traversal_to_outputsP8_IO_FILEP9netlist_t
FN:216,_Z26depth_traverse_output_blifP7nnode_tmP8_IO_FILE
FNDA:0,_Z26depth_traverse_output_blifP7nnode_tmP8_IO_FILE
FN:255,_Z11output_nodeP7nnode_tsP8_IO_FILE
FNDA:0,_Z11output_nodeP7nnode_tsP8_IO_FILE
FN:353,_Z23define_logical_functionP7nnode_tP8_IO_FILE
FNDA:0,_Z23define_logical_functionP7nnode_tP8_IO_FILE
FN:442,_Z33define_set_input_logical_functionP7nnode_tPKcP8_IO_FILE
FNDA:0,_Z33define_set_input_logical_functionP7nnode_tPKcP8_IO_FILE
FN:457,_Z9define_ffP7nnode_tP8_IO_FILE
FNDA:0,_Z9define_ffP7nnode_tP8_IO_FILE
FN:499,_Z18define_decoded_muxP7nnode_tP8_IO_FILE
FNDA:0,_Z18define_decoded_muxP7nnode_tP8_IO_FILE
DA:55,0
DA:56,0
DA:57,0
DA:58,0
DA:60,0
DA:61,0
DA:65,0
DA:66,0
DA:67,0
DA:68,0
DA:73,0
DA:74,0
DA:76,0
DA:79,0
DA:94,0
DA:95,0
DA:99,0
DA:100,0
DA:101,0
DA:103,0
DA:104,0
DA:105,0
DA:106,0
DA:108,0
DA:109,0
DA:112,0
DA:113,0
DA:114,0
DA:115,0
DA:117,0
DA:120,0
DA:121,0
DA:123,0
DA:130,0
DA:131,0
DA:135,0
DA:136,0
DA:137,0
DA:138,0
DA:140,0
DA:142,0
DA:143,0
DA:144,0
DA:145,0
DA:146,0
DA:152,0
DA:155,0
DA:158,0
DA:159,0
DA:162,0
DA:163,0
DA:165,0
DA:169,0
DA:170,0
DA:172,0
DA:173,0
DA:174,0
DA:175,0
DA:177,0
DA:181,0
DA:182,0
DA:185,0
DA:186,0
DA:188,0
DA:189,0
DA:194,0
DA:195,0
DA:197,0
DA:198,0
DA:199,0
DA:201,0
DA:202,0
DA:203,0
DA:206,0
DA:207,0
DA:208,0
DA:211,0
DA:216,0
DA:217,0
DA:218,0
DA:219,0
DA:221,0
DA:227,0
DA:230,0
DA:232,0
DA:233,0
DA:234,0
DA:236,0
DA:237,0
DA:238,0
DA:239,0
DA:241,0
DA:242,0
DA:243,0
DA:246,0
DA:255,0
DA:256,0
DA:257,0
DA:258,0
DA:259,0
DA:260,0
DA:261,0
DA:262,0
DA:263,0
DA:264,0
DA:265,0
DA:266,0
DA:267,0
DA:268,0
DA:269,0
DA:270,0
DA:271,0
DA:272,0
DA:273,0
DA:274,0
DA:275,0
DA:276,0
DA:277,0
DA:278,0
DA:279,0
DA:280,0
DA:281,0
DA:282,0
DA:283,0
DA:284,0
DA:285,0
DA:286,0
DA:287,0
DA:288,0
DA:289,0
DA:291,0
DA:292,0
DA:293,0
DA:295,0
DA:296,0
DA:297,0
DA:299,0
DA:300,0
DA:301,0
DA:302,0
DA:304,0
DA:305,0
DA:306,0
DA:307,0
DA:309,0
DA:310,0
DA:311,0
DA:312,0
DA:314,0
DA:315,0
DA:316,0
DA:317,0
DA:327,0
DA:328,0
DA:329,0
DA:330,0
DA:331,0
DA:332,0
DA:333,0
DA:334,0
DA:335,0
DA:336,0
DA:337,0
DA:338,0
DA:339,0
DA:340,0
DA:341,0
DA:342,0
DA:343,0
DA:345,0
DA:346,0
DA:348,0
DA:353,0
DA:354,0
DA:355,0
DA:357,0
DA:360,0
DA:363,0
DA:364,0
DA:366,0
DA:371,0
DA:372,0
DA:373,0
DA:374,0
DA:376,0
DA:378,0
DA:384,0
DA:385,0
DA:386,0
DA:387,0
DA:389,0
DA:391,0
DA:398,0
DA:399,0
DA:401,0
DA:404,0
DA:405,0
DA:406,0
DA:408,0
DA:409,0
DA:410,0
DA:411,0
DA:412,0
DA:413,0
DA:418,0
DA:419,0
DA:420,0
DA:421,0
DA:422,0
DA:423,0
DA:424,0
DA:425,0
DA:426,0
DA:431,0
DA:432,0
DA:433,0
DA:436,0
DA:437,0
DA:442,0
DA:443,0
DA:445,0
DA:448,0
DA:449,0
DA:451,0
DA:452,0
DA:457,0
DA:458,0
DA:459,0
DA:461,0
DA:462,0
DA:463,0
DA:468,0
DA:469,0
DA:472,0
DA:474,0
DA:475,0
DA:476,0
DA:478,0
DA:481,0
DA:484,0
DA:487,0
DA:490,0
DA:493,0
DA:494,0
DA:499,0
DA:500,0
DA:501,0
DA:504,0
DA:505,0
DA:506,0
DA:507,0
DA:508,0
DA:509,0
DA:510,0
DA:511,0
DA:513,0
DA:515,0
DA:518,0
DA:519,0
end_of_record
SF:/usr/include/c++/9/bits/allocator.h
DA:138,0
DA:141,0
DA:142,0
DA:153,0
end_of_record
SF:/usr/include/c++/9/ext/alloc_traits.h
DA:97,0
DA:98,0
end_of_record
SF:/usr/include/c++/9/bits/ptr_traits.h
DA:146,0
DA:147,0
end_of_record
SF:/usr/include/x86_64-linux-gnu/bits/stdio2.h
DA:98,0
DA:100,0
DA:101,0
end_of_record
SF:/usr/include/c++/9/ext/new_allocator.h
DA:80,0
DA:83,0
DA:89,0
DA:119,0
DA:128,0
end_of_record
SF:/usr/include/c++/9/iostream
end_of_record
SF:/usr/include/c++/9/bits/basic_string.h
FN:6057,_ZStplIcSt11char_traitsIcESaIcEENSt7__cxx1112basic_stringIT_T0_T1_EERKS8_PKS5_
FNDA:0,_ZStplIcSt11char_traitsIcESaIcEENSt7__cxx1112basic_stringIT_T0_T1_EERKS8_PKS5_
FN:6085,_ZStplIcSt11char_traitsIcESaIcEENSt7__cxx1112basic_stringIT_T0_T1_EEOS8_RKS8_
FNDA:0,_ZStplIcSt11char_traitsIcESaIcEENSt7__cxx1112basic_stringIT_T0_T1_EEOS8_RKS8_
FN:6121,_ZStplIcSt11char_traitsIcESaIcEENSt7__cxx1112basic_stringIT_T0_T1_EEOS8_PKS5_
FNDA:0,_ZStplIcSt11char_traitsIcESaIcEENSt7__cxx1112basic_stringIT_T0_T1_EEOS8_PKS5_
DA:150,0
DA:159,0
DA:160,0
DA:178,0
DA:179,0
DA:182,0
DA:183,0
DA:186,0
DA:190,0
DA:193,0
DA:200,0
DA:203,0
DA:210,0
DA:211,0
DA:214,0
DA:216,0
DA:217,0
DA:221,0
DA:222,0
DA:229,0
DA:231,0
DA:232,0
DA:236,0
DA:237,0
DA:243,0
DA:247,0
DA:263,0
DA:266,0
DA:286,0
DA:287,0
DA:290,0
DA:291,0
DA:346,0
DA:348,0
DA:349,0
DA:351,0
DA:392,0
DA:393,0
DA:396,0
DA:398,0
DA:431,0
DA:433,0
DA:434,0
DA:448,0
DA:450,0
DA:451,0
DA:552,0
DA:553,0
DA:555,0
DA:557,0
DA:562,0
DA:563,0
DA:569,0
DA:570,0
DA:571,0
DA:657,0
DA:658,0
DA:930,0
DA:936,0
DA:1221,0
DA:1222,0
DA:2300,0
DA:2301,0
DA:6057,0
DA:6060,0
DA:6061,0
DA:6062,0
DA:6085,0
DA:6087,0
DA:6121,0
DA:6123,0
end_of_record
SF:/usr/include/c++/9/bits/basic_string.tcc
FN:206,_ZNSt7__cxx1112basic_stringIcSt11char_traitsIcESaIcEE12_M_constructIPcEEvT_S7_St20forward_iterator_tag
FNDA:0,_ZNSt7__cxx1112basic_stringIcSt11char_traitsIcESaIcEE12_M_constructIPcEEvT_S7_St20forward_iterator_tag
FN:206,_ZNSt7__cxx1112basic_stringIcSt11char_traitsIcESaIcEE12_M_constructIPKcEEvT_S8_St20forward_iterator_tag
FNDA:0,_ZNSt7__cxx1112basic_stringIcSt11char_traitsIcESaIcEE12_M_constructIPKcEEvT_S8_St20forward_iterator_tag
DA:206,0
DA:211,0
DA:212,0
DA:215,0
DA:217,0
DA:219,0
DA:220,0
DA:225,0
DA:232,0
DA:233,0
DA:206,0
DA:211,0
DA:212,0
DA:215,0
DA:217,0
DA:219,0
DA:220,0
DA:225,0
DA:232,0
DA:233,0
end_of_record
SF:/usr/include/c++/9/bits/char_traits.h
DA:299,0
DA:300,0
DA:361,0
DA:363,0
DA:365,0
end_of_record
TN:
SF:/usr/include/c++/9/bits/stl_vector.h
FN:622,_ZNSt6vectorIP10ast_node_tSaIS1_EEC2ESt16initializer_listIS1_ERKS2_
FNDA:0,_ZNSt6vectorIP10ast_node_tSaIS1_EEC2ESt16initializer_listIS1_ERKS2_
DA:94,0
DA:95,0
DA:125,0
DA:133,0
DA:134,0
DA:273,0
DA:274,0
DA:290,0
DA:291,0
DA:330,0
DA:332,0
DA:333,0
DA:334,0
DA:347,0
DA:350,0
DA:351,0
DA:622,0
DA:624,0
DA:626,0
DA:628,0
DA:675,0
DA:677,0
DA:678,0
DA:680,0
DA:915,0
DA:916,0
DA:1040,0
DA:1043,0
end_of_record
SF:/usr/include/c++/9/bits/move.h
DA:47,0
DA:99,0
DA:138,0
DA:139,0
end_of_record
SF:/usr/include/c++/9/ext/type_traits.h
DA:152,0
end_of_record
SF:/usr/include/c++/9/bits/alloc_traits.h
DA:469,0
DA:470,0
DA:514,0
DA:515,0
end_of_record
SF:/usr/include/c++/9/bits/stl_iterator_base_funcs.h
DA:98,0
DA:104,0
DA:138,0
DA:141,0
end_of_record
SF:/workspace/vtr-verilog-to-routing/libs/librtlnumber/src/include/rtl_utils.hpp
FN:46,_Z12_assert_WerrbPKciNSt7__cxx1112basic_stringIcSt11char_traitsIcESaIcEEE
FNDA:0,_Z12_assert_WerrbPKciNSt7__cxx1112basic_stringIcSt11char_traitsIcESaIcEEE
DA:46,0
DA:47,0
DA:48,0
DA:49,0
DA:50,0
DA:51,0
DA:53,0
end_of_record
SF:/usr/include/c++/9/bits/stl_construct.h
DA:117,0
DA:127,0
DA:137,0
DA:203,0
DA:206,0
end_of_record
SF:/workspace/vtr-verilog-to-routing/ODIN_II/SRC/parse_making_ast.cpp
FN:94,_Z12parse_to_astv
FNDA:0,_Z12parse_to_astv
FN:121,_Z11init_parserv
FNDA:0,_Z11init_parserv
FN:158,_Z14cleanup_parserv
FNDA:0,_Z14cleanup_parserv
FN:172,_Z24next_parsed_verilog_fileP10ast_node_t
FNDA:0,_Z24next_parsed_verilog_fileP10ast_node_t
FN:193,_Z13newSymbolNodePci
FNDA:0,_Z13newSymbolNodePci
FN:200,_Z13newStringNodePci
FNDA:0,_Z13newStringNodePci
FN:209,_Z13newNumberNodePci
FNDA:0,_Z13newNumberNodePci
FN:218,_Z7newList3idsP10ast_node_ti
FNDA:0,_Z7newList3idsP10ast_node_ti
FN:227,_Z15newfunctionList3idsP10ast_node_ti
FNDA:0,_Z15newfunctionList3idsP10ast_node_ti
FN:241,_Z13newList_entryP10ast_node_tS0_
FNDA:0,_Z13newList_entryP10ast_node_tS0_
FN:251,_Z16newListReplicateP10ast_node_tS0_i
FNDA:0,_Z16newListReplicateP10ast_node_tS0_i
FN:264,_Z8newBlockPcP10ast_node_t
FNDA:0,_Z8newBlockPcP10ast_node_t
FN:276,_ZL19resolve_symbol_nodeP10ast_node_t
FNDA:0,_ZL19resolve_symbol_nodeP10ast_node_t
FN:311,_Z13resolve_ports3idsP10ast_node_t
FNDA:0,_Z13resolve_ports3idsP10ast_node_t
FN:415,_Z22markAndProcessPortWith3idsS_S_P10ast_node_tb
FNDA:0,_Z22markAndProcessPortWith3idsS_S_P10ast_node_tb
FN:609,_Z27markAndProcessParameterWith3idsP10ast_node_tb
FNDA:0,_Z27markAndProcessParameterWith3idsP10ast_node_tb
FN:643,_Z28markAndProcessSymbolListWith3idsS_P10ast_node_tb
FNDA:0,_Z28markAndProcessSymbolListWith3idsS_P10ast_node_tb
FN:796,_Z11newArrayRefPcP10ast_node_ti
FNDA:0,_Z11newArrayRefPcP10ast_node_ti
FN:810,_Z11newRangeRefPcP10ast_node_tS1_i
FNDA:0,_Z11newRangeRefPcP10ast_node_tS1_i
FN:826,_Z21newMinusColonRangeRefPcP10ast_node_tS1_i
FNDA:0,_Z21newMinusColonRangeRefPcP10ast_node_tS1_i
FN:854,_Z20newPlusColonRangeRefPcP10ast_node_tS1_i
FNDA:0,_Z20newPlusColonRangeRefPcP10ast_node_tS1_i
FN:880,_Z18newBinaryOperation14operation_listP10ast_node_tS1_i
FNDA:0,_Z18newBinaryOperation14operation_listP10ast_node_tS1_i
FN:894,_Z17newUnaryOperation14operation_listP10ast_node_ti
FNDA:0,_Z17newUnaryOperation14operation_listP10ast_node_ti
FN:908,_Z10newNegedgeP10ast_node_ti
FNDA:0,_Z10newNegedgeP10ast_node_ti
FN:920,_Z10newPosedgeP10ast_node_ti
FNDA:0,_Z10newPosedgeP10ast_node_ti
FN:932,_Z11newCaseItemP10ast_node_tS0_i
FNDA:0,_Z11newCaseItemP10ast_node_tS0_i
FN:944,_Z14newDefaultCaseP10ast_node_ti
FNDA:0,_Z14newDefaultCaseP10ast_node_ti
FN:956,_Z21newParallelConnectionP10ast_node_tS0_i
FNDA:0,_Z21newParallelConnectionP10ast_node_tS0_i
FN:967,_Z14newNonBlockingP10ast_node_tS0_i
FNDA:0,_Z14newNonBlockingP10ast_node_tS0_i
FN:979,_Z10newInitialP10ast_node_ti
FNDA:0,_Z10newInitialP10ast_node_ti
FN:990,_Z11newBlockingP10ast_node_tS0_i
FNDA:0,_Z11newBlockingP10ast_node_tS0_i
FN:1001,_Z20newFunctionAssigningP10ast_node_tS0_i
FNDA:0,_Z20newFunctionAssigningP10ast_node_tS0_i
FN:1020,_Z6newForP10ast_node_tS0_S0_S0_i
FNDA:0,_Z6newForP10ast_node_tS0_S0_S0_i
FN:1032,_Z8newWhileP10ast_node_tS0_i
FNDA:0,_Z8newWhileP10ast_node_tS0_i
FN:1046,_Z5newIfP10ast_node_tS0_S0_i
FNDA:0,_Z5newIfP10ast_node_tS0_S0_i
FN:1058,_Z13newIfQuestionP10ast_node_tS0_S0_i
FNDA:0,_Z13newIfQuestionP10ast_node_tS0_S0_i
FN:1069,_Z7newCaseP10ast_node_tS0_i
FNDA:0,_Z7newCaseP10ast_node_tS0_i
FN:1081,_Z9newAlwaysP10ast_node_tS0_i
FNDA:0,_Z9newAlwaysP10ast_node_tS0_i
FN:1090,_Z12newStatementP10ast_node_ti
FNDA:0,_Z12newStatementP10ast_node_ti
FN:1102,_Z12newCFunction3idsP10ast_node_tS1_i
FNDA:0,_Z12newCFunction3idsP10ast_node_tS1_i
FN:1112,_Z12newCFunction3idsP10ast_node_tS1_S1_i
FNDA:0,_Z12newCFunction3idsP10ast_node_tS1_S1_i
FN:1122,_Z12newCFunction3idsP10ast_node_tS1_S1_S1_i
FNDA:0,_Z12newCFunction3idsP10ast_node_tS1_S1_S1_i
FN:1132,_Z19newModuleConnectionPcP10ast_node_ti
FNDA:0,_Z19newModuleConnectionPcP10ast_node_ti
FN:1157,_Z18newModuleParameterPcP10ast_node_ti
FNDA:0,_Z18newModuleParameterPcP10ast_node_ti
FN:1182,_Z22newModuleNamedInstancePcP10ast_node_tS1_i
FNDA:0,_Z22newModuleNamedInstancePcP10ast_node_tS1_i
FN:1200,_Z24newFunctionNamedInstanceP10ast_node_tS0_i
FNDA:0,_Z24newFunctionNamedInstanceP10ast_node_tS0_i
FN:1219,_Z20newTaskNamedInstanceP10ast_node_ti
FNDA:0,_Z20newTaskNamedInstanceP10ast_node_ti
FN:1238,_Z15newTaskInstancePcP10ast_node_tS1_i
FNDA:0,_Z15newTaskInstancePcP10ast_node_tS1_i
FN:1258,_Z20newHardBlockInstancePcP10ast_node_ti
FNDA:0,_Z20newHardBlockInstancePcP10ast_node_ti
FN:1286,_Z17newModuleInstancePcP10ast_node_ti
FNDA:0,_Z17newModuleInstancePcP10ast_node_ti
FN:1334,_Z19newFunctionInstancePcP10ast_node_ti
FNDA:0,_Z19newFunctionInstancePcP10ast_node_ti
FN:1353,_Z15newGateInstancePcP10ast_node_tS1_S1_i
FNDA:0,_Z15newGateInstancePcP10ast_node_tS1_S1_i
FN:1383,_Z29newMultipleInputsGateInstancePcP10ast_node_tS1_S1_i
FNDA:0,_Z29newMultipleInputsGateInstancePcP10ast_node_tS1_S1_i
FN:1430,_Z7newGate14operation_listP10ast_node_ti
FNDA:0,_Z7newGate14operation_listP10ast_node_ti
FN:1444,_Z21newDefparamVarDeclarePcP10ast_node_tS1_S1_S1_S1_i
FNDA:0,_Z21newDefparamVarDeclarePcP10ast_node_tS1_S1_S1_S1_i
FN:1459,_Z13newVarDeclarePcP10ast_node_tS1_S1_S1_S1_i
FNDA:0,_Z13newVarDeclarePcP10ast_node_tS1_S1_S1_S1_i
FN:1479,_Z24newIntegerTypeVarDeclarePcP10ast_node_tS1_S1_S1_S1_i
FNDA:0,_Z24newIntegerTypeVarDeclarePcP10ast_node_tS1_S1_S1_S1_i
FN:1502,_Z9newModulePcP10ast_node_tS1_S1_i
FNDA:0,_Z9newModulePcP10ast_node_tS1_S1_i
FN:1600,_Z11newFunctionP10ast_node_tS0_S0_ib
FNDA:0,_Z11newFunctionP10ast_node_tS0_S0_ib
FN:1681,_Z7newTaskPcP10ast_node_tS1_ib
FNDA:0,_Z7newTaskPcP10ast_node_tS1_ib
FN:1769,_Z9next_taskv
FNDA:0,_Z9next_taskv
FN:1786,_Z13next_functionv
FNDA:0,_Z13next_functionv
FN:1803,_Z11next_modulev
FNDA:0,_Z11next_modulev
FN:1826,_Z11newDefparam3idsP10ast_node_ti
FNDA:0,_Z11newDefparam3idsP10ast_node_ti
FN:1861,_Z17graphVizOutputAstNSt7__cxx1112basic_stringIcSt11char_traitsIcESaIcEEEP10ast_node_t
FNDA:0,_Z17graphVizOutputAstNSt7__cxx1112basic_stringIcSt11char_traitsIcESaIcEEEP10ast_node_t
FN:1885,_Z31graphVizOutputAst_traverse_nodeP8_IO_FILEP10ast_node_tS2_i
FNDA:0,_Z31graphVizOutputAst_traverse_nodeP8_IO_FILEP10ast_node_tS2_i
FN:1939,_Z15newVarDeclare2DPcP10ast_node_tS1_S1_S1_S1_S1_S1_i
FNDA:0,_Z15newVarDeclare2DPcP10ast_node_tS1_S1_S1_S1_S1_S1_i
FN:1955,_Z13newArrayRef2DPcP10ast_node_tS1_i
FNDA:0,_Z13newArrayRef2DPcP10ast_node_tS1_i
FN:1967,_Z13newRangeRef2DPcP10ast_node_tS1_S1_S1_i
FNDA:0,_Z13newRangeRef2DPcP10ast_node_tS1_S1_S1_i
FN:1981,_Z19is_valid_identifierPc
FNDA:0,_Z19is_valid_identifierPc
DA:94,0
DA:95,0
DA:98,0
DA:99,0
DA:101,0
DA:102,0
DA:103,0
DA:106,0
DA:109,0
DA:112,0
DA:115,0
DA:116,0
DA:121,0
DA:122,0
DA:125,0
DA:126,0
DA:127,0
DA:128,0
DA:129,0
DA:130,0
DA:131,0
DA:132,0
DA:134,0
DA:135,0
DA:136,0
DA:137,0
DA:138,0
DA:139,0
DA:140,0
DA:141,0
DA:142,0
DA:143,0
DA:144,0
DA:145,0
DA:146,0
DA:149,0
DA:150,0
DA:152,0
DA:158,0
DA:159,0
DA:160,0
DA:161,0
DA:162,0
DA:163,0
DA:164,0
DA:165,0
DA:166,0
DA:167,0
DA:172,0
DA:173,0
DA:175,0
DA:176,0
DA:178,0
DA:179,0
DA:180,0
DA:185,0
DA:186,0
DA:187,0
DA:188,0
DA:193,0
DA:194,0
DA:200,0
DA:201,0
DA:202,0
DA:203,0
DA:209,0
DA:210,0
DA:211,0
DA:212,0
DA:218,0
DA:220,0
DA:222,0
DA:224,0
DA:227,0
DA:229,0
DA:231,0
DA:233,0
DA:235,0
DA:241,0
DA:243,0
DA:245,0
DA:251,0
DA:253,0
DA:256,0
DA:258,0
DA:264,0
DA:265,0
DA:266,0
DA:267,0
DA:268,0
DA:270,0
DA:273,0
DA:276,0
DA:277,0
DA:279,0
DA:280,0
DA:281,0
DA:283,0
DA:284,0
DA:285,0
DA:288,0
DA:291,0
DA:302,0
DA:303,0
DA:304,0
DA:308,0
DA:311,0
DA:312,0
DA:313,0
DA:314,0
DA:315,0
DA:316,0
DA:318,0
DA:319,0
DA:321,0
DA:325,0
DA:326,0
DA:328,0
DA:329,0
DA:330,0
DA:333,0
DA:334,0
DA:335,0
DA:338,0
DA:341,0
DA:342,0
DA:343,0
DA:344,0
DA:345,0
DA:347,0
DA:348,0
DA:349,0
DA:350,0
DA:351,0
DA:356,0
DA:359,0
DA:361,0
DA:363,0
DA:364,0
DA:365,0
DA:366,0
DA:367,0
DA:368,0
DA:369,0
DA:370,0
DA:371,0
DA:372,0
DA:374,0
DA:376,0
DA:378,0
DA:379,0
DA:380,0
DA:381,0
DA:382,0
DA:383,0
DA:384,0
DA:385,0
DA:386,0
DA:387,0
DA:389,0
DA:391,0
DA:393,0
DA:394,0
DA:395,0
DA:396,0
DA:397,0
DA:398,0
DA:399,0
DA:400,0
DA:401,0
DA:402,0
DA:404,0
DA:408,0
DA:412,0
DA:415,0
DA:416,0
DA:419,0
DA:420,0
DA:421,0
DA:422,0
DA:424,0
DA:426,0
DA:429,0
DA:432,0
DA:434,0
DA:435,0
DA:438,0
DA:439,0
DA:440,0
DA:442,0
DA:443,0
DA:444,0
DA:445,0
DA:446,0
DA:447,0
DA:451,0
DA:452,0
DA:453,0
DA:458,0
DA:459,0
DA:460,0
DA:464,0
DA:465,0
DA:466,0
DA:467,0
DA:470,0
DA:471,0
DA:474,0
DA:475,0
DA:476,0
DA:477,0
DA:479,0
DA:480,0
DA:481,0
DA:483,0
DA:484,0
DA:486,0
DA:488,0
DA:491,0
DA:492,0
DA:493,0
DA:494,0
DA:496,0
DA:497,0
DA:498,0
DA:499,0
DA:502,0
DA:503,0
DA:504,0
DA:505,0
DA:507,0
DA:508,0
DA:509,0
DA:510,0
DA:514,0
DA:516,0
DA:518,0
DA:520,0
DA:522,0
DA:524,0
DA:528,0
DA:531,0
DA:533,0
DA:539,0
DA:540,0
DA:541,0
DA:542,0
DA:543,0
DA:546,0
DA:549,0
DA:551,0
DA:553,0
DA:554,0
DA:555,0
DA:556,0
DA:559,0
DA:562,0
DA:564,0
DA:566,0
DA:567,0
DA:568,0
DA:569,0
DA:570,0
DA:571,0
DA:573,0
DA:574,0
DA:576,0
DA:577,0
DA:578,0
DA:580,0
DA:581,0
DA:582,0
DA:584,0
DA:585,0
DA:586,0
DA:589,0
DA:597,0
DA:599,0
DA:603,0
DA:604,0
DA:606,0
DA:609,0
DA:610,0
DA:611,0
DA:612,0
DA:613,0
DA:614,0
DA:615,0
DA:618,0
DA:620,0
DA:624,0
DA:625,0
DA:627,0
DA:629,0
DA:632,0
DA:633,0
DA:636,0
DA:638,0
DA:640,0
DA:643,0
DA:644,0
DA:645,0
DA:646,0
DA:648,0
DA:649,0
DA:650,0
DA:651,0
DA:654,0
DA:655,0
DA:656,0
DA:657,0
DA:660,0
DA:661,0
DA:662,0
DA:663,0
DA:664,0
DA:665,0
DA:667,0
DA:668,0
DA:669,0
DA:670,0
DA:671,0
DA:672,0
DA:673,0
DA:675,0
DA:678,0
DA:679,0
DA:680,0
DA:681,0
DA:683,0
DA:686,0
DA:687,0
DA:688,0
DA:689,0
DA:690,0
DA:691,0
DA:692,0
DA:693,0
DA:694,0
DA:695,0
DA:696,0
DA:697,0
DA:698,0
DA:699,0
DA:701,0
DA:702,0
DA:703,0
DA:704,0
DA:705,0
DA:706,0
DA:708,0
DA:709,0
DA:710,0
DA:711,0
DA:712,0
DA:713,0
DA:714,0
DA:715,0
DA:716,0
DA:719,0
DA:721,0
DA:724,0
DA:725,0
DA:726,0
DA:727,0
DA:729,0
DA:732,0
DA:733,0
DA:734,0
DA:735,0
DA:736,0
DA:737,0
DA:738,0
DA:739,0
DA:740,0
DA:742,0
DA:743,0
DA:744,0
DA:745,0
DA:746,0
DA:748,0
DA:749,0
DA:751,0
DA:754,0
DA:755,0
DA:756,0
DA:757,0
DA:759,0
DA:762,0
DA:763,0
DA:764,0
DA:765,0
DA:766,0
DA:767,0
DA:768,0
DA:769,0
DA:770,0
DA:771,0
DA:772,0
DA:773,0
DA:774,0
DA:775,0
DA:781,0
DA:782,0
DA:783,0
DA:786,0
DA:787,0
DA:791,0
DA:796,0
DA:798,0
DA:800,0
DA:802,0
DA:804,0
DA:810,0
DA:812,0
DA:814,0
DA:816,0
DA:818,0
DA:826,0
DA:827,0
DA:828,0
DA:830,0
DA:831,0
DA:833,0
DA:834,0
DA:839,0
DA:841,0
DA:842,0
DA:844,0
DA:846,0
DA:854,0
DA:855,0
DA:856,0
DA:858,0
DA:859,0
DA:861,0
DA:862,0
DA:867,0
DA:869,0
DA:870,0
DA:872,0
DA:874,0
DA:880,0
DA:882,0
DA:884,0
DA:886,0
DA:888,0
DA:894,0
DA:896,0
DA:898,0
DA:900,0
DA:902,0
DA:908,0
DA:910,0
DA:912,0
DA:914,0
DA:920,0
DA:922,0
DA:924,0
DA:926,0
DA:932,0
DA:934,0
DA:936,0
DA:938,0
DA:944,0
DA:946,0
DA:948,0
DA:950,0
DA:956,0
DA:958,0
DA:960,0
DA:962,0
DA:967,0
DA:969,0
DA:971,0
DA:973,0
DA:979,0
DA:981,0
DA:983,0
DA:985,0
DA:990,0
DA:992,0
DA:994,0
DA:996,0
DA:1001,0
DA:1002,0
DA:1004,0
DA:1006,0
DA:1009,0
DA:1012,0
DA:1014,0
DA:1020,0
DA:1022,0
DA:1024,0
DA:1026,0
DA:1032,0
DA:1034,0
DA:1036,0
DA:1039,0
DA:1040,0
DA:1046,0
DA:1048,0
DA:1050,0
DA:1052,0
DA:1058,0
DA:1060,0
DA:1062,0
DA:1064,0
DA:1069,0
DA:1071,0
DA:1073,0
DA:1075,0
DA:1081,0
DA:1083,0
DA:1085,0
DA:1087,0
DA:1090,0
DA:1092,0
DA:1094,0
DA:1096,0
DA:1102,0
DA:1103,0
DA:1104,0
DA:1106,0
DA:1112,0
DA:1113,0
DA:1114,0
DA:1116,0
DA:1122,0
DA:1123,0
DA:1124,0
DA:1126,0
DA:1132,0
DA:1133,0
DA:1135,0
DA:1136,0
DA:1137,0
DA:1138,0
DA:1140,0
DA:1143,0
DA:1144,0
DA:1145,0
DA:1149,0
DA:1151,0
DA:1157,0
DA:1158,0
DA:1160,0
DA:1161,0
DA:1162,0
DA:1163,0
DA:1165,0
DA:1171,0
DA:1174,0
DA:1176,0
DA:1182,0
DA:1183,0
DA:1184,0
DA:1187,0
DA:1190,0
DA:1192,0
DA:1194,0
DA:1200,0
DA:1201,0
DA:1202,0
DA:1204,0
DA:1206,0
DA:1209,0
DA:1211,0
DA:1213,0
DA:1219,0
DA:1220,0
DA:1221,0
DA:1223,0
DA:1225,0
DA:1228,0
DA:1230,0
DA:1232,0
DA:1238,0
DA:1239,0
DA:1242,0
DA:1244,0
DA:1245,0
DA:1248,0
DA:1249,0
DA:1250,0
DA:1252,0
DA:1258,0
DA:1259,0
DA:1260,0
DA:1263,0
DA:1266,0
DA:1268,0
DA:1271,0
DA:1273,0
DA:1274,0
DA:1276,0
DA:1277,0
DA:1280,0
DA:1286,0
DA:1287,0
DA:1288,0
DA:1291,0
DA:1293,0
DA:1294,0
DA:1296,0
DA:1297,0
DA:1298,0
DA:1302,0
DA:1304,0
DA:1307,0
DA:1309,0
DA:1310,0
DA:1311,0
DA:1313,0
DA:1316,0
DA:1319,0
DA:1320,0
DA:1321,0
DA:1326,0
DA:1327,0
DA:1328,0
DA:1334,0
DA:1335,0
DA:1338,0
DA:1340,0
DA:1343,0
DA:1344,0
DA:1345,0
DA:1347,0
DA:1353,0
DA:1354,0
DA:1355,0
DA:1359,0
DA:1360,0
DA:1362,0
DA:1363,0
DA:1366,0
DA:1367,0
DA:1368,0
DA:1369,0
DA:1370,0
DA:1371,0
DA:1373,0
DA:1375,0
DA:1376,0
DA:1378,0
DA:1380,0
DA:1383,0
DA:1384,0
DA:1385,0
DA:1388,0
DA:1390,0
DA:1392,0
DA:1394,0
DA:1395,0
DA:1398,0
DA:1400,0
DA:1402,0
DA:1404,0
DA:1406,0
DA:1407,0
DA:1409,0
DA:1412,0
DA:1414,0
DA:1416,0
DA:1419,0
DA:1420,0
DA:1423,0
DA:1425,0
DA:1430,0
DA:1432,0
DA:1434,0
DA:1436,0
DA:1438,0
DA:1444,0
DA:1445,0
DA:1448,0
DA:1451,0
DA:1453,0
DA:1459,0
DA:1460,0
DA:1461,0
DA:1464,0
DA:1467,0
DA:1470,0
DA:1472,0
DA:1479,0
DA:1480,0
DA:1481,0
DA:1484,0
DA:1486,0
DA:1488,0
DA:1491,0
DA:1494,0
DA:1496,0
DA:1502,0
DA:1503,0
DA:1504,0
DA:1506,0
DA:1507,0
DA:1510,0
DA:1511,0
DA:1512,0
DA:1513,0
DA:1515,0
DA:1516,0
DA:1518,0
DA:1521,0
DA:1522,0
DA:1523,0
DA:1524,0
DA:1527,0
DA:1528,0
DA:1530,0
DA:1533,0
DA:1534,0
DA:1538,0
DA:1539,0
DA:1540,0
DA:1542,0
DA:1546,0
DA:1549,0
DA:1550,0
DA:1552,0
DA:1554,0
DA:1555,0
DA:1556,0
DA:1558,0
DA:1559,0
DA:1560,0
DA:1563,0
DA:1564,0
DA:1566,0
DA:1567,0
DA:1568,0
DA:1569,0
DA:1570,0
DA:1574,0
DA:1575,0
DA:1577,0
DA:1581,0
DA:1582,0
DA:1583,0
DA:1584,0
DA:1587,0
DA:1590,0
DA:1592,0
DA:1600,0
DA:1601,0
DA:1602,0
DA:1603,0
DA:1604,0
DA:1605,0
DA:1607,0
DA:1608,0
DA:1611,0
DA:1612,0
DA:1615,0
DA:1616,0
DA:1619,0
DA:1621,0
DA:1623,0
DA:1625,0
DA:1627,0
DA:1628,0
DA:1631,0
DA:1633,0
DA:1634,0
DA:1635,0
DA:1636,0
DA:1637,0
DA:1638,0
DA:1639,0
DA:1645,0
DA:1648,0
DA:1651,0
DA:1652,0
DA:1653,0
DA:1657,0
DA:1660,0
DA:1661,0
DA:1662,0
DA:1663,0
DA:1666,0
DA:1667,0
DA:1668,0
DA:1669,0
DA:1670,0
DA:1673,0
DA:1676,0
DA:1678,0
DA:1681,0
DA:1682,0
DA:1683,0
DA:1684,0
DA:1685,0
DA:1687,0
DA:1688,0
DA:1692,0
DA:1694,0
DA:1695,0
DA:1696,0
DA:1697,0
DA:1698,0
DA:1699,0
DA:1700,0
DA:1701,0
DA:1702,0
DA:1704,0
DA:1706,0
DA:1707,0
DA:1708,0
DA:1709,0
DA:1710,0
DA:1711,0
DA:1713,0
DA:1715,0
DA:1716,0
DA:1717,0
DA:1718,0
DA:1719,0
DA:1720,0
DA:1722,0
DA:1729,0
DA:1731,0
DA:1732,0
DA:1736,0
DA:1738,0
DA:1740,0
DA:1741,0
DA:1742,0
DA:1744,0
DA:1745,0
DA:1746,0
DA:1749,0
DA:1750,0
DA:1752,0
DA:1753,0
DA:1754,0
DA:1758,0
DA:1761,0
DA:1763,0
DA:1769,0
DA:1770,0
DA:1773,0
DA:1774,0
DA:1777,0
DA:1778,0
DA:1780,0
DA:1781,0
DA:1782,0
DA:1786,0
DA:1787,0
DA:1790,0
DA:1791,0
DA:1794,0
DA:1795,0
DA:1797,0
DA:1798,0
DA:1799,0
DA:1803,0
DA:1804,0
DA:1805,0
DA:1808,0
DA:1809,0
DA:1811,0
DA:1812,0
DA:1814,0
DA:1815,0
DA:1816,0
DA:1818,0
DA:1819,0
DA:1820,0
DA:1821,0
DA:1826,0
DA:1827,0
DA:1829,0
DA:1830,0
DA:1831,0
DA:1833,0
DA:1834,0
DA:1835,0
DA:1836,0
DA:1839,0
DA:1840,0
DA:1841,0
DA:1846,0
DA:1861,0
DA:1862,0
DA:1863,0
DA:1864,0
DA:1867,0
DA:1868,0
DA:1869,0
DA:1872,0
DA:1873,0
DA:1875,0
DA:1878,0
DA:1879,0
DA:1880,0
DA:1885,0
DA:1886,0
DA:1890,0
DA:1892,0
DA:1893,0
DA:1894,0
DA:1895,0
DA:1896,0
DA:1897,0
DA:1898,0
DA:1899,0
DA:1900,0
DA:1901,0
DA:1902,0
DA:1903,0
DA:1905,0
DA:1906,0
DA:1908,0
DA:1909,0
DA:1910,0
DA:1911,0
DA:1912,0
DA:1914,0
DA:1915,0
DA:1916,0
DA:1919,0
DA:1920,0
DA:1926,0
DA:1929,0
DA:1930,0
DA:1932,0
DA:1933,0
DA:1939,0
DA:1940,0
DA:1941,0
DA:1943,0
DA:1946,0
DA:1949,0
DA:1950,0
DA:1955,0
DA:1957,0
DA:1959,0
DA:1961,0
DA:1962,0
DA:1967,0
DA:1969,0
DA:1971,0
DA:1973,0
DA:1975,0
DA:1981,0
DA:1982,0
DA:1983,0
DA:1984,0
DA:1985,0
DA:1986,0
DA:1989,0
end_of_record
SF:/usr/include/c++/9/bits/cpp_type_traits.h
end_of_record
SF:/usr/include/c++/9/ext/alloc_traits.h
DA:97,0
DA:98,0
end_of_record
SF:/usr/include/c++/9/bits/allocator.h
DA:138,0
DA:141,0
DA:142,0
DA:153,0
end_of_record
SF:/usr/include/c++/9/ext/string_conversions.h
FN:99,_ZN9__gnu_cxx12__to_xstringINSt7__cxx1112basic_stringIcSt11char_traitsIcESaIcEEEcEET_PFiPT0_mPKS8_P13__va_list_tagEmSB_z
FNDA:0,_ZN9__gnu_cxx12__to_xstringINSt7__cxx1112basic_stringIcSt11char_traitsIcESaIcEEEcEET_PFiPT0_mPKS8_P13__va_list_tagEmSB_z
DA:99,0
DA:105,0
DA:109,0
DA:111,0
DA:113,0
DA:115,0
end_of_record
SF:/usr/include/c++/9/ostream
DA:108,0
DA:113,0
DA:565,0
DA:568,0
DA:570,0
DA:571,0
end_of_record
SF:/usr/include/c++/9/bits/locale_facets.h
FN:872,_ZNKSt5ctypeIcE5widenEc
FNDA:0,_ZNKSt5ctypeIcE5widenEc
FN:1084,_ZNKSt5ctypeIcE8do_widenEc
FNDA:0,_ZNKSt5ctypeIcE8do_widenEc
DA:872,0
DA:874,0
DA:875,0
DA:876,0
DA:877,0
DA:1084,0
DA:1085,0
end_of_record
SF:/usr/include/c++/9/bits/stl_algobase.h
end_of_record
SF:/usr/include/c++/9/sstream
DA:831,0
DA:832,0
end_of_record
SF:/usr/include/c++/9/bits/ptr_traits.h
DA:146,0
DA:147,0
end_of_record
SF:/usr/include/c++/9/bits/basic_string.tcc
FN:206,_ZNSt7__cxx1112basic_stringIcSt11char_traitsIcESaIcEE12_M_constructIPcEEvT_S7_St20forward_iterator_tag
FNDA:0,_ZNSt7__cxx1112basic_stringIcSt11char_traitsIcESaIcEE12_M_constructIPcEEvT_S7_St20forward_iterator_tag
FN:206,_ZNSt7__cxx1112basic_stringIcSt11char_traitsIcESaIcEE12_M_constructIPKcEEvT_S8_St20forward_iterator_tag
FNDA:0,_ZNSt7__cxx1112basic_stringIcSt11char_traitsIcESaIcEE12_M_constructIPKcEEvT_S8_St20forward_iterator_tag
DA:206,0
DA:211,0
DA:212,0
DA:215,0
DA:217,0
DA:219,0
DA:220,0
DA:225,0
DA:232,0
DA:233,0
DA:206,0
DA:211,0
DA:212,0
DA:215,0
DA:217,0
DA:219,0
DA:220,0
DA:225,0
DA:232,0
DA:233,0
end_of_record
SF:/workspace/vtr-verilog-to-routing/libs/librtlnumber/src/include/internal_bits.hpp
FN:308,_ZN8BitSpaceL13bits_to_hex_cEsb
FNDA:0,_ZN8BitSpaceL13bits_to_hex_cEsb
FN:505,_ZN8BitSpace11VerilogBits9to_stringB5cxx11Ebb
FNDA:0,_ZN8BitSpace11VerilogBits9to_stringB5cxx11Ebb
FN:520,_ZN8BitSpace11VerilogBits10to_UstringB5cxx11Eb
FNDA:0,_ZN8BitSpace11VerilogBits10to_UstringB5cxx11Eb
FN:535,_ZN8BitSpace11VerilogBits12to_log2radixB5cxx11Esb
FNDA:0,_ZN8BitSpace11VerilogBits12to_log2radixB5cxx11Esb
FN:554,_ZN8BitSpace11VerilogBits12to_printableB5cxx11Ev
FNDA:0,_ZN8BitSpace11VerilogBits12to_printableB5cxx11Ev
FN:778,_ZN7VNumber9get_valueEv
FNDA:0,_ZN7VNumber9get_valueEv
FN:812,_ZN7VNumber10to_vstringB5cxx11Ec
FNDA:0,_ZN7VNumber10to_vstringB5cxx11Ec
FN:972,_ZN7VNumber16get_bit_from_msbEm
FNDA:0,_ZN7VNumber16get_bit_from_msbEm
DA:286,0
DA:287,0
DA:290,0
DA:291,0
DA:292,0
DA:293,0
DA:294,0
DA:295,0
DA:299,0
DA:300,0
DA:303,0
DA:304,0
DA:308,0
DA:309,0
DA:312,0
DA:313,0
DA:314,0
DA:315,0
DA:316,0
DA:317,0
DA:318,0
DA:319,0
DA:320,0
DA:321,0
DA:322,0
DA:323,0
DA:324,0
DA:325,0
DA:326,0
DA:327,0
DA:328,0
DA:329,0
DA:330,0
DA:331,0
DA:332,0
DA:333,0
DA:334,0
DA:335,0
DA:336,0
DA:337,0
DA:338,0
DA:339,0
DA:340,0
DA:341,0
DA:342,0
DA:343,0
DA:346,0
DA:349,0
DA:371,0
DA:372,0
DA:373,0
DA:374,0
DA:385,0
DA:386,0
DA:387,0
DA:389,0
DA:411,0
DA:413,0
DA:414,0
DA:420,0
DA:435,0
DA:436,0
DA:465,0
DA:466,0
DA:473,0
DA:481,0
DA:484,0
DA:492,0
DA:505,0
DA:507,0
DA:508,0
DA:509,0
DA:510,0
DA:511,0
DA:513,0
DA:517,0
DA:520,0
DA:522,0
DA:523,0
DA:524,0
DA:525,0
DA:526,0
DA:528,0
DA:532,0
DA:535,0
DA:536,0
DA:539,0
DA:540,0
DA:541,0
DA:543,0
DA:545,0
DA:546,0
DA:551,0
DA:554,0
DA:555,0
DA:557,0
DA:558,0
DA:561,0
DA:565,0
DA:566,0
DA:778,0
DA:779,0
DA:781,0
DA:784,0
DA:785,0
DA:786,0
DA:787,0
DA:790,0
DA:791,0
DA:793,0
DA:794,0
DA:795,0
DA:796,0
DA:798,0
DA:801,0
DA:812,0
DA:813,0
DA:814,0
DA:817,0
DA:822,0
DA:823,0
DA:824,0
DA:825,0
DA:826,0
DA:827,0
DA:828,0
DA:829,0
DA:830,0
DA:831,0
DA:832,0
DA:833,0
DA:834,0
DA:835,0
DA:836,0
DA:837,0
DA:838,0
DA:839,0
DA:840,0
DA:841,0
DA:842,0
DA:843,0
DA:844,0
DA:845,0
DA:846,0
DA:847,0
DA:848,0
DA:850,0
DA:851,0
DA:852,0
DA:854,0
DA:856,0
DA:965,0
DA:966,0
DA:972,0
DA:973,0
DA:974,0
DA:995,0
DA:996,0
DA:999,0
DA:1000,0
DA:1003,0
DA:1004,0
end_of_record
SF:/usr/include/c++/9/bits/basic_string.h
FN:6109,_ZStplIcSt11char_traitsIcESaIcEENSt7__cxx1112basic_stringIT_T0_T1_EEPKS5_OS8_
FNDA:0,_ZStplIcSt11char_traitsIcESaIcEENSt7__cxx1112basic_stringIT_T0_T1_EEPKS5_OS8_
DA:150,0
DA:156,0
DA:157,0
DA:159,0
DA:160,0
DA:178,0
DA:179,0
DA:182,0
DA:183,0
DA:186,0
DA:190,0
DA:193,0
DA:200,0
DA:203,0
DA:210,0
DA:211,0
DA:214,0
DA:216,0
DA:217,0
DA:221,0
DA:222,0
DA:229,0
DA:231,0
DA:232,0
DA:236,0
DA:237,0
DA:243,0
DA:247,0
DA:263,0
DA:266,0
DA:286,0
DA:287,0
DA:290,0
DA:291,0
DA:346,0
DA:348,0
DA:349,0
DA:351,0
DA:392,0
DA:393,0
DA:396,0
DA:398,0
DA:448,0
DA:450,0
DA:451,0
DA:540,0
DA:541,0
DA:542,0
DA:552,0
DA:553,0
DA:555,0
DA:557,0
DA:562,0
DA:563,0
DA:569,0
DA:570,0
DA:571,0
DA:625,0
DA:627,0
DA:628,0
DA:657,0
DA:658,0
DA:930,0
DA:936,0
DA:1168,0
DA:1169,0
DA:1221,0
DA:1222,0
DA:2300,0
DA:2301,0
DA:2312,0
DA:2313,0
DA:6109,0
DA:6111,0
DA:6416,0
DA:6421,0
DA:6546,0
DA:6547,0
DA:6548,0
DA:6557,0
DA:6558,0
DA:6559,0
end_of_record
SF:/usr/include/c++/9/streambuf
end_of_record
SF:/usr/include/c++/9/bits/char_traits.h
DA:299,0
DA:300,0
DA:329,0
DA:335,0
DA:361,0
DA:363,0
DA:365,0
end_of_record
SF:/usr/include/c++/9/initializer_list
DA:71,0
DA:75,0
DA:79,0
end_of_record
SF:/usr/include/c++/9/bits/stl_uninitialized.h
end_of_record
SF:/usr/include/c++/9/ext/new_allocator.h
DA:80,0
DA:83,0
DA:89,0
DA:119,0
DA:128,0
end_of_record
SF:/usr/include/c++/9/iostream
end_of_record
SF:/usr/include/x86_64-linux-gnu/bits/stdio2.h
DA:98,0
DA:100,0
DA:101,0
DA:105,0
DA:107,0
end_of_record
TN:
SF:/usr/include/c++/9/bits/ptr_traits.h
DA:146,0
DA:147,0
end_of_record
SF:/usr/include/c++/9/bits/stl_algobase.h
DA:222,0
DA:227,0
DA:228,0
end_of_record
SF:/usr/include/c++/9/bits/basic_string.h
FN:6109,_ZStplIcSt11char_traitsIcESaIcEENSt7__cxx1112basic_stringIT_T0_T1_EEPKS5_OS8_
FNDA:0,_ZStplIcSt11char_traitsIcESaIcEENSt7__cxx1112basic_stringIT_T0_T1_EEPKS5_OS8_
DA:150,0
DA:156,0
DA:157,0
DA:159,0
DA:160,0
DA:178,0
DA:179,0
DA:182,0
DA:183,0
DA:186,0
DA:190,0
DA:193,0
DA:200,0
DA:203,0
DA:210,0
DA:211,0
DA:214,0
DA:216,0
DA:217,0
DA:221,0
DA:222,0
DA:229,0
DA:231,0
DA:232,0
DA:236,0
DA:237,0
DA:243,0
DA:247,0
DA:263,0
DA:266,0
DA:286,0
DA:287,0
DA:346,0
DA:348,0
DA:349,0
DA:351,0
DA:392,0
DA:393,0
DA:396,0
DA:398,0
DA:540,0
DA:541,0
DA:542,0
DA:552,0
DA:553,0
DA:555,0
DA:557,0
DA:562,0
DA:563,0
DA:569,0
DA:570,0
DA:571,0
DA:625,0
DA:627,0
DA:628,0
DA:657,0
DA:658,0
DA:930,0
DA:936,0
DA:2300,0
DA:2301,0
DA:2312,0
DA:2313,0
DA:6109,0
DA:6111,0
DA:6416,0
DA:6421,0
DA:6546,0
DA:6547,0
DA:6548,0
DA:6557,0
DA:6558,0
DA:6559,0
end_of_record
SF:/workspace/vtr-verilog-to-routing/libs/librtlnumber/src/include/internal_bits.hpp
FN:308,_ZN8BitSpaceL13bits_to_hex_cEsb
FNDA:0,_ZN8BitSpaceL13bits_to_hex_cEsb
FN:505,_ZN8BitSpace11VerilogBits9to_stringB5cxx11Ebb
FNDA:0,_ZN8BitSpace11VerilogBits9to_stringB5cxx11Ebb
FN:520,_ZN8BitSpace11VerilogBits10to_UstringB5cxx11Eb
FNDA:0,_ZN8BitSpace11VerilogBits10to_UstringB5cxx11Eb
FN:535,_ZN8BitSpace11VerilogBits12to_log2radixB5cxx11Esb
FNDA:0,_ZN8BitSpace11VerilogBits12to_log2radixB5cxx11Esb
FN:554,_ZN8BitSpace11VerilogBits12to_printableB5cxx11Ev
FNDA:0,_ZN8BitSpace11VerilogBits12to_printableB5cxx11Ev
FN:778,_ZN7VNumber9get_valueEv
FNDA:0,_ZN7VNumber9get_valueEv
FN:812,_ZN7VNumber10to_vstringB5cxx11Ec
FNDA:0,_ZN7VNumber10to_vstringB5cxx11Ec
FN:972,_ZN7VNumber16get_bit_from_msbEm
FNDA:0,_ZN7VNumber16get_bit_from_msbEm
DA:286,0
DA:287,0
DA:290,0
DA:291,0
DA:292,0
DA:293,0
DA:294,0
DA:295,0
DA:299,0
DA:300,0
DA:303,0
DA:304,0
DA:308,0
DA:309,0
DA:312,0
DA:313,0
DA:314,0
DA:315,0
DA:316,0
DA:317,0
DA:318,0
DA:319,0
DA:320,0
DA:321,0
DA:322,0
DA:323,0
DA:324,0
DA:325,0
DA:326,0
DA:327,0
DA:328,0
DA:329,0
DA:330,0
DA:331,0
DA:332,0
DA:333,0
DA:334,0
DA:335,0
DA:336,0
DA:337,0
DA:338,0
DA:339,0
DA:340,0
DA:341,0
DA:342,0
DA:343,0
DA:346,0
DA:349,0
DA:371,0
DA:372,0
DA:373,0
DA:374,0
DA:385,0
DA:386,0
DA:387,0
DA:389,0
DA:411,0
DA:413,0
DA:414,0
DA:420,0
DA:435,0
DA:436,0
DA:465,0
DA:466,0
DA:473,0
DA:481,0
DA:484,0
DA:492,0
DA:505,0
DA:507,0
DA:508,0
DA:509,0
DA:510,0
DA:511,0
DA:513,0
DA:517,0
DA:520,0
DA:522,0
DA:523,0
DA:524,0
DA:525,0
DA:526,0
DA:528,0
DA:532,0
DA:535,0
DA:536,0
DA:539,0
DA:540,0
DA:541,0
DA:543,0
DA:545,0
DA:546,0
DA:551,0
DA:554,0
DA:555,0
DA:557,0
DA:558,0
DA:561,0
DA:565,0
DA:566,0
DA:778,0
DA:779,0
DA:781,0
DA:784,0
DA:785,0
DA:786,0
DA:787,0
DA:790,0
DA:791,0
DA:793,0
DA:794,0
DA:795,0
DA:796,0
DA:798,0
DA:801,0
DA:812,0
DA:813,0
DA:814,0
DA:817,0
DA:822,0
DA:823,0
DA:824,0
DA:825,0
DA:826,0
DA:827,0
DA:828,0
DA:829,0
DA:830,0
DA:831,0
DA:832,0
DA:833,0
DA:834,0
DA:835,0
DA:836,0
DA:837,0
DA:838,0
DA:839,0
DA:840,0
DA:841,0
DA:842,0
DA:843,0
DA:844,0
DA:845,0
DA:846,0
DA:847,0
DA:848,0
DA:850,0
DA:851,0
DA:852,0
DA:854,0
DA:856,0
DA:965,0
DA:966,0
DA:972,0
DA:973,0
DA:974,0
DA:995,0
DA:996,0
DA:999,0
DA:1000,0
DA:1003,0
DA:1004,0
end_of_record
SF:/usr/include/c++/9/bits/basic_string.tcc
FN:206,_ZNSt7__cxx1112basic_stringIcSt11char_traitsIcESaIcEE12_M_constructIPcEEvT_S7_St20forward_iterator_tag
FNDA:0,_ZNSt7__cxx1112basic_stringIcSt11char_traitsIcESaIcEE12_M_constructIPcEEvT_S7_St20forward_iterator_tag
FN:206,_ZNSt7__cxx1112basic_stringIcSt11char_traitsIcESaIcEE12_M_constructIPKcEEvT_S8_St20forward_iterator_tag
FNDA:0,_ZNSt7__cxx1112basic_stringIcSt11char_traitsIcESaIcEE12_M_constructIPKcEEvT_S8_St20forward_iterator_tag
DA:206,0
DA:211,0
DA:212,0
DA:215,0
DA:217,0
DA:219,0
DA:220,0
DA:225,0
DA:232,0
DA:233,0
DA:206,0
DA:211,0
DA:212,0
DA:215,0
DA:217,0
DA:219,0
DA:220,0
DA:225,0
DA:232,0
DA:233,0
end_of_record
SF:/usr/include/c++/9/bits/char_traits.h
DA:299,0
DA:300,0
DA:329,0
DA:335,0
DA:361,0
DA:363,0
DA:365,0
end_of_record
SF:/workspace/vtr-verilog-to-routing/ODIN_II/SRC/partial_map.cpp
FN:68,_Z15partial_map_topP9netlist_t
FNDA:0,_Z15partial_map_topP9netlist_t
FN:79,_Z36depth_first_traversal_to_partial_mapsP9netlist_t
FNDA:0,_Z36depth_first_traversal_to_partial_mapsP9netlist_t
FN:97,_Z32depth_first_traverse_partial_mapP7nnode_tmP9netlist_t
FNDA:0,_Z32depth_first_traverse_partial_mapP7nnode_tmP9netlist_t
FN:130,_Z16partial_map_nodeP7nnode_tsP9netlist_t
FNDA:0,_Z16partial_map_nodeP7nnode_tsP9netlist_t
FN:276,_Z26instantiate_soft_logic_ramP7nnode_tsP9netlist_t
FNDA:0,_Z26instantiate_soft_logic_ramP7nnode_tsP9netlist_t
FN:289,_Z26instantiate_multi_port_muxP7nnode_tsP9netlist_t
FNDA:0,_Z26instantiate_multi_port_muxP7nnode_tsP9netlist_t
FN:328,_Z21instantiate_not_logicP7nnode_tsP9netlist_t
FNDA:0,_Z21instantiate_not_logicP7nnode_tsP9netlist_t
FN:354,_Z18instantiate_bufferP7nnode_tsP9netlist_t
FNDA:0,_Z18instantiate_bufferP7nnode_tsP9netlist_t
FN:373,_Z25instantiate_logical_logicP7nnode_t14operation_listsP9netlist_t
FNDA:0,_Z25instantiate_logical_logicP7nnode_t14operation_listsP9netlist_t
FN:428,_Z29instantiate_bitwise_reductionP7nnode_t14operation_listsP9netlist_t
FNDA:0,_Z29instantiate_bitwise_reductionP7nnode_t14operation_listsP9netlist_t
FN:492,_Z25instantiate_bitwise_logicP7nnode_t14operation_listsP9netlist_t
FNDA:0,_Z25instantiate_bitwise_logicP7nnode_t14operation_listsP9netlist_t
FN:554,_Z23instantiate_add_w_carryP7nnode_tsP9netlist_t
FNDA:0,_Z23instantiate_add_w_carryP7nnode_tsP9netlist_t
FN:580,_Z23instantiate_sub_w_carryP7nnode_tsP9netlist_t
FNDA:0,_Z23instantiate_sub_w_carryP7nnode_tsP9netlist_t
FN:606,_Z21instantiate_unary_subP7nnode_tsP9netlist_t
FNDA:0,_Z21instantiate_unary_subP7nnode_tsP9netlist_t
FN:615,_Z17instantiate_EQUALP7nnode_t14operation_listsP9netlist_t
FNDA:0,_Z17instantiate_EQUALP7nnode_t14operation_listsP9netlist_t
FN:689,_Z14instantiate_GTP7nnode_t14operation_listsP9netlist_t
FNDA:0,_Z14instantiate_GTP7nnode_t14operation_listsP9netlist_t
FN:825,_Z14instantiate_GEP7nnode_t14operation_listsP9netlist_t
FNDA:0,_Z14instantiate_GEP7nnode_t14operation_listsP9netlist_t
FN:904,_Z31instantiate_shift_left_or_rightP7nnode_t14operation_listsP9netlist_t
FNDA:0,_Z31instantiate_shift_left_or_rightP7nnode_t14operation_listsP9netlist_t
FN:983,_Z34instantiate_arithmetic_shift_rightP7nnode_tsP9netlist_t
FNDA:0,_Z34instantiate_arithmetic_shift_rightP7nnode_tsP9netlist_t
DA:68,0
DA:70,0
DA:72,0
DA:74,0
DA:79,0
DA:80,0
DA:83,0
DA:84,0
DA:85,0
DA:89,0
DA:90,0
DA:91,0
DA:92,0
DA:97,0
DA:98,0
DA:100,0
DA:104,0
DA:106,0
DA:107,0
DA:108,0
DA:109,0
DA:110,0
DA:111,0
DA:112,0
DA:114,0
DA:123,0
DA:125,0
DA:130,0
DA:131,0
DA:132,0
DA:133,0
DA:134,0
DA:135,0
DA:136,0
DA:137,0
DA:139,0
DA:140,0
DA:141,0
DA:142,0
DA:143,0
DA:144,0
DA:145,0
DA:146,0
DA:147,0
DA:148,0
DA:150,0
DA:153,0
DA:154,0
DA:155,0
DA:156,0
DA:157,0
DA:158,0
DA:159,0
DA:160,0
DA:168,0
DA:169,0
DA:171,0
DA:173,0
DA:176,0
DA:177,0
DA:178,0
DA:179,0
DA:180,0
DA:181,0
DA:183,0
DA:184,0
DA:185,0
DA:186,0
DA:187,0
DA:189,0
DA:191,0
DA:192,0
DA:193,0
DA:194,0
DA:196,0
DA:200,0
DA:201,0
DA:202,0
DA:203,0
DA:204,0
DA:205,0
DA:206,0
DA:207,0
DA:208,0
DA:209,0
DA:210,0
DA:211,0
DA:212,0
DA:213,0
DA:214,0
DA:215,0
DA:216,0
DA:217,0
DA:218,0
DA:219,0
DA:220,0
DA:221,0
DA:222,0
DA:223,0
DA:224,0
DA:225,0
DA:226,0
DA:227,0
DA:231,0
DA:232,0
DA:233,0
DA:234,0
DA:235,0
DA:236,0
DA:239,0
DA:240,0
DA:242,0
DA:243,0
DA:246,0
DA:250,0
DA:251,0
DA:253,0
DA:266,0
DA:267,0
DA:268,0
DA:269,0
DA:270,0
DA:271,0
DA:272,0
DA:274,0
DA:276,0
DA:277,0
DA:278,0
DA:279,0
DA:280,0
DA:282,0
DA:283,0
DA:289,0
DA:290,0
DA:291,0
DA:292,0
DA:293,0
DA:294,0
DA:297,0
DA:298,0
DA:299,0
DA:301,0
DA:302,0
DA:303,0
DA:306,0
DA:307,0
DA:309,0
DA:312,0
DA:313,0
DA:315,0
DA:319,0
DA:321,0
DA:322,0
DA:323,0
DA:328,0
DA:329,0
DA:330,0
DA:331,0
DA:333,0
DA:335,0
DA:336,0
DA:340,0
DA:342,0
DA:343,0
DA:346,0
DA:347,0
DA:348,0
DA:354,0
DA:355,0
DA:356,0
DA:359,0
DA:360,0
DA:363,0
DA:366,0
DA:368,0
DA:373,0
DA:374,0
DA:375,0
DA:376,0
DA:377,0
DA:378,0
DA:379,0
DA:380,0
DA:382,0
DA:383,0
DA:384,0
DA:386,0
DA:387,0
DA:388,0
DA:391,0
DA:392,0
DA:393,0
DA:396,0
DA:398,0
DA:399,0
DA:405,0
DA:407,0
DA:408,0
DA:415,0
DA:416,0
DA:418,0
DA:419,0
DA:421,0
DA:422,0
DA:423,0
DA:428,0
DA:429,0
DA:430,0
DA:431,0
DA:432,0
DA:434,0
DA:435,0
DA:436,0
DA:438,0
DA:440,0
DA:445,0
DA:446,0
DA:447,0
DA:448,0
DA:449,0
DA:450,0
DA:451,0
DA:452,0
DA:453,0
DA:454,0
DA:455,0
DA:456,0
DA:457,0
DA:458,0
DA:459,0
DA:460,0
DA:461,0
DA:462,0
DA:463,0
DA:464,0
DA:465,0
DA:466,0
DA:467,0
DA:468,0
DA:471,0
DA:474,0
DA:476,0
DA:477,0
DA:484,0
DA:485,0
DA:486,0
DA:492,0
DA:493,0
DA:495,0
DA:496,0
DA:497,0
DA:498,0
DA:500,0
DA:519,0
DA:520,0
DA:521,0
DA:522,0
DA:526,0
DA:527,0
DA:528,0
DA:530,0
DA:532,0
DA:533,0
DA:537,0
DA:539,0
DA:542,0
DA:545,0
DA:554,0
DA:556,0
DA:558,0
DA:560,0
DA:562,0
DA:563,0
DA:565,0
DA:567,0
DA:568,0
DA:570,0
DA:572,0
DA:573,0
DA:580,0
DA:582,0
DA:584,0
DA:586,0
DA:587,0
DA:589,0
DA:590,0
DA:591,0
DA:592,0
DA:593,0
DA:594,0
DA:597,0
DA:599,0
DA:600,0
DA:606,0
DA:607,0
DA:608,0
DA:615,0
DA:616,0
DA:617,0
DA:618,0
DA:619,0
DA:620,0
DA:621,0
DA:622,0
DA:624,0
DA:625,0
DA:626,0
DA:627,0
DA:628,0
DA:629,0
DA:630,0
DA:633,0
DA:634,0
DA:635,0
DA:637,0
DA:638,0
DA:643,0
DA:645,0
DA:646,0
DA:648,0
DA:651,0
DA:655,0
DA:656,0
DA:659,0
DA:662,0
DA:667,0
DA:671,0
DA:673,0
DA:674,0
DA:676,0
DA:679,0
DA:681,0
DA:682,0
DA:689,0
DA:690,0
DA:691,0
DA:692,0
DA:693,0
DA:694,0
DA:695,0
DA:696,0
DA:697,0
DA:698,0
DA:699,0
DA:700,0
DA:701,0
DA:702,0
DA:704,0
DA:705,0
DA:706,0
DA:707,0
DA:708,0
DA:709,0
DA:710,0
DA:713,0
DA:714,0
DA:715,0
DA:716,0
DA:717,0
DA:718,0
DA:719,0
DA:720,0
DA:721,0
DA:722,0
DA:724,0
DA:725,0
DA:726,0
DA:727,0
DA:728,0
DA:732,0
DA:734,0
DA:738,0
DA:740,0
DA:742,0
DA:744,0
DA:745,0
DA:746,0
DA:747,0
DA:752,0
DA:754,0
DA:756,0
DA:757,0
DA:758,0
DA:761,0
DA:762,0
DA:763,0
DA:766,0
DA:769,0
DA:770,0
DA:771,0
DA:774,0
DA:775,0
DA:776,0
DA:779,0
DA:781,0
DA:783,0
DA:786,0
DA:788,0
DA:790,0
DA:793,0
DA:797,0
DA:801,0
DA:803,0
DA:804,0
DA:809,0
DA:810,0
DA:811,0
DA:812,0
DA:815,0
DA:816,0
DA:817,0
DA:818,0
DA:825,0
DA:826,0
DA:827,0
DA:828,0
DA:829,0
DA:830,0
DA:831,0
DA:832,0
DA:833,0
DA:834,0
DA:836,0
DA:837,0
DA:838,0
DA:839,0
DA:840,0
DA:841,0
DA:842,0
DA:843,0
DA:845,0
DA:846,0
DA:849,0
DA:851,0
DA:852,0
DA:854,0
DA:856,0
DA:859,0
DA:861,0
DA:863,0
DA:864,0
DA:867,0
DA:868,0
DA:871,0
DA:874,0
DA:875,0
DA:878,0
DA:879,0
DA:882,0
DA:883,0
DA:886,0
DA:887,0
DA:890,0
DA:892,0
DA:893,0
DA:895,0
DA:897,0
DA:898,0
DA:904,0
DA:906,0
DA:907,0
DA:908,0
DA:909,0
DA:911,0
DA:913,0
DA:915,0
DA:917,0
DA:918,0
DA:921,0
DA:923,0
DA:927,0
DA:929,0
DA:933,0
DA:935,0
DA:938,0
DA:940,0
DA:941,0
DA:947,0
DA:949,0
DA:953,0
DA:955,0
DA:957,0
DA:959,0
DA:960,0
DA:964,0
DA:965,0
DA:968,0
DA:971,0
DA:972,0
DA:973,0
DA:975,0
DA:976,0
DA:977,0
DA:983,0
DA:985,0
DA:986,0
DA:987,0
DA:988,0
DA:989,0
DA:990,0
DA:992,0
DA:994,0
DA:995,0
DA:997,0
DA:999,0
DA:1001,0
DA:1004,0
DA:1007,0
DA:1008,0
DA:1011,0
DA:1013,0
DA:1014,0
DA:1016,0
DA:1017,0
DA:1020,0
DA:1023,0
DA:1024,0
DA:1025,0
DA:1027,0
DA:1028,0
DA:1029,0
end_of_record
SF:/usr/include/x86_64-linux-gnu/bits/stdio2.h
DA:105,0
DA:107,0
end_of_record
SF:/usr/include/c++/9/ext/new_allocator.h
DA:80,0
DA:83,0
DA:89,0
DA:119,0
DA:128,0
end_of_record
SF:/usr/include/c++/9/iostream
end_of_record
SF:/usr/include/c++/9/bits/move.h
DA:47,0
DA:99,0
DA:138,0
DA:139,0
end_of_record
SF:/usr/include/c++/9/bits/stl_vector.h
DA:1040,0
DA:1043,0
end_of_record
SF:/workspace/vtr-verilog-to-routing/libs/librtlnumber/src/include/rtl_utils.hpp
FN:46,_Z12_assert_WerrbPKciNSt7__cxx1112basic_stringIcSt11char_traitsIcESaIcEEE
FNDA:0,_Z12_assert_WerrbPKciNSt7__cxx1112basic_stringIcSt11char_traitsIcESaIcEEE
DA:46,0
DA:47,0
DA:48,0
DA:49,0
DA:50,0
DA:51,0
DA:53,0
end_of_record
SF:/usr/include/c++/9/bits/stl_iterator_base_funcs.h
DA:98,0
DA:104,0
DA:138,0
DA:141,0
end_of_record
SF:/usr/include/c++/9/ext/type_traits.h
DA:152,0
end_of_record
SF:/usr/include/c++/9/bits/alloc_traits.h
DA:469,0
DA:470,0
end_of_record
SF:/usr/include/c++/9/bits/allocator.h
DA:138,0
DA:141,0
DA:142,0
DA:153,0
end_of_record
SF:/usr/include/c++/9/ostream
DA:108,0
DA:113,0
DA:565,0
DA:568,0
DA:570,0
DA:571,0
end_of_record
SF:/usr/include/c++/9/ext/string_conversions.h
FN:99,_ZN9__gnu_cxx12__to_xstringINSt7__cxx1112basic_stringIcSt11char_traitsIcESaIcEEEcEET_PFiPT0_mPKS8_P13__va_list_tagEmSB_z
FNDA:0,_ZN9__gnu_cxx12__to_xstringINSt7__cxx1112basic_stringIcSt11char_traitsIcESaIcEEEcEET_PFiPT0_mPKS8_P13__va_list_tagEmSB_z
DA:99,0
DA:105,0
DA:109,0
DA:111,0
DA:113,0
DA:115,0
end_of_record
SF:/usr/include/c++/9/bits/locale_facets.h
FN:872,_ZNKSt5ctypeIcE5widenEc
FNDA:0,_ZNKSt5ctypeIcE5widenEc
FN:1084,_ZNKSt5ctypeIcE8do_widenEc
FNDA:0,_ZNKSt5ctypeIcE8do_widenEc
DA:872,0
DA:874,0
DA:875,0
DA:876,0
DA:877,0
DA:1084,0
DA:1085,0
end_of_record
TN:
SF:/usr/include/string.h
DA:213,0
DA:215,0
DA:317,0
DA:319,0
end_of_record
SF:/workspace/vtr-verilog-to-routing/ODIN_II/SRC/read_blif.cpp
FN:133,_Z9read_blifv
FNDA:0,_Z9read_blifv
FN:187,_Z11read_tokensPcP17hard_block_modelsP8_IO_FILEP9Hashtable
FNDA:0,_Z11read_tokensPcP17hard_block_modelsP8_IO_FILEP9Hashtable
FN:226,_Z31assign_node_type_from_node_namePc
FNDA:0,_Z31assign_node_type_from_node_namePc
FN:264,_Z28create_latch_node_and_driverP8_IO_FILEP9Hashtable
FNDA:0,_Z28create_latch_node_and_driverP8_IO_FILEP9Hashtable
FN:378,_Z17search_clock_nameP8_IO_FILE
FNDA:0,_Z17search_clock_nameP8_IO_FILE
FN:445,_Z23create_hard_block_nodesP17hard_block_modelsP8_IO_FILEP9Hashtable
FNDA:0,_Z23create_hard_block_nodesP17hard_block_modelsP8_IO_FILEP9Hashtable
FN:600,_Z31create_internal_node_and_driverP8_IO_FILEP9Hashtable
FNDA:0,_Z31create_internal_node_and_driverP8_IO_FILEP9Hashtable
FN:722,_Z30read_bit_map_find_unknown_gateiP7nnode_tP8_IO_FILE
FNDA:0,_Z30read_bit_map_find_unknown_gateiP7nnode_tP8_IO_FILE
FN:972,_ZL20build_top_input_nodePKcP9Hashtable
FNDA:0,_ZL20build_top_input_nodePKcP9Hashtable
FN:1017,_Z19add_top_input_nodesP8_IO_FILEP9Hashtable
FNDA:0,_Z19add_top_input_nodesP8_IO_FILEP9Hashtable
FN:1040,_Z26rb_create_top_output_nodesP8_IO_FILE
FNDA:0,_Z26rb_create_top_output_nodesP8_IO_FILE
FN:1081,_Z18rb_look_for_clocksv
FNDA:0,_Z18rb_look_for_clocksv
FN:1099,_Z25rb_create_top_driver_netsPKcP9Hashtable
FNDA:0,_Z25rb_create_top_driver_netsPKcP9Hashtable
FN:1164,_Z12hook_up_netsP9Hashtable
FNDA:0,_Z12hook_up_netsP9Hashtable
FN:1184,_Z12hook_up_nodeP7nnode_tP9Hashtable
FNDA:0,_Z12hook_up_nodeP7nnode_tP9Hashtable
FN:1203,_Z21read_hard_block_modelPcP16hard_block_portsP8_IO_FILE
FNDA:0,_Z21read_hard_block_modelPcP16hard_block_portsP8_IO_FILE
FN:1291,_ZL28compare_hard_block_pin_namesPKvS0_
FNDA:0,_ZL28compare_hard_block_pin_namesPKvS0_
FN:1315,_Z11index_namesPPci
FNDA:0,_Z11index_namesPPci
FN:1328,_Z15associate_namesPPcS0_i
FNDA:0,_Z15associate_namesPPcS0_i
FN:1341,_Z20get_hard_block_portsPPci
FNDA:0,_Z20get_hard_block_portsPPci
FN:1381,_Z37verify_hard_block_ports_against_modelP16hard_block_portsP16hard_block_model
FNDA:0,_Z37verify_hard_block_ports_against_modelP16hard_block_portsP16hard_block_model
FN:1429,_Z35generate_hard_block_ports_signatureP16hard_block_ports
FNDA:0,_Z35generate_hard_block_ports_signatureP16hard_block_ports
FN:1452,_Z24get_hard_block_port_namePc
FNDA:0,_Z24get_hard_block_port_namePc
FN:1468,_Z25get_hard_block_pin_numberPc
FNDA:0,_Z25get_hard_block_pin_numberPc
FN:1489,_Z20add_hard_block_modelP16hard_block_modelP16hard_block_portsP17hard_block_models
FNDA:0,_Z20add_hard_block_modelP16hard_block_modelP16hard_block_portsP17hard_block_models
FN:1514,_Z20get_hard_block_modelPcP16hard_block_portsP17hard_block_models
FNDA:0,_Z20get_hard_block_modelPcP16hard_block_portsP17hard_block_models
FN:1534,_Z24create_hard_block_modelsv
FNDA:0,_Z24create_hard_block_modelsv
FN:1547,_Z16count_blif_linesP8_IO_FILE
FNDA:0,_Z16count_blif_linesP8_IO_FILE
FN:1563,_Z22free_hard_block_modelsP17hard_block_models
FNDA:0,_Z22free_hard_block_modelsP17hard_block_models
FN:1577,_Z21free_hard_block_modelP16hard_block_model
FNDA:0,_Z21free_hard_block_modelP16hard_block_model
FN:1591,_Z20free_hard_block_pinsP15hard_block_pins
FNDA:0,_Z20free_hard_block_pinsP15hard_block_pins
FN:1605,_Z21free_hard_block_portsP16hard_block_ports
FNDA:0,_Z21free_hard_block_portsP16hard_block_ports
DA:133,0
DA:134,0
DA:135,0
DA:136,0
DA:138,0
DA:139,0
DA:140,0
DA:142,0
DA:144,0
DA:146,0
DA:147,0
DA:149,0
DA:152,0
DA:153,0
DA:155,0
DA:156,0
DA:157,0
DA:158,0
DA:160,0
DA:161,0
DA:162,0
DA:163,0
DA:164,0
DA:166,0
DA:168,0
DA:170,0
DA:171,0
DA:172,0
DA:175,0
DA:176,0
DA:177,0
DA:178,0
DA:187,0
DA:190,0
DA:192,0
DA:193,0
DA:194,0
DA:196,0
DA:197,0
DA:198,0
DA:199,0
DA:200,0
DA:201,0
DA:202,0
DA:203,0
DA:204,0
DA:205,0
DA:206,0
DA:207,0
DA:210,0
DA:211,0
DA:212,0
DA:214,0
DA:226,0
DA:228,0
DA:230,0
DA:231,0
DA:232,0
DA:234,0
DA:237,0
DA:239,0
DA:240,0
DA:241,0
DA:242,0
DA:245,0
DA:246,0
DA:247,0
DA:248,0
DA:249,0
DA:250,0
DA:254,0
DA:256,0
DA:264,0
DA:266,0
DA:267,0
DA:269,0
DA:271,0
DA:272,0
DA:273,0
DA:274,0
DA:276,0
DA:280,0
DA:282,0
DA:283,0
DA:284,0
DA:286,0
DA:287,0
DA:288,0
DA:290,0
DA:291,0
DA:292,0
DA:293,0
DA:296,0
DA:301,0
DA:302,0
DA:303,0
DA:304,0
DA:314,0
DA:315,0
DA:316,0
DA:317,0
DA:321,0
DA:322,0
DA:325,0
DA:329,0
DA:330,0
DA:334,0
DA:335,0
DA:336,0
DA:337,0
DA:339,0
DA:340,0
DA:341,0
DA:342,0
DA:345,0
DA:348,0
DA:349,0
DA:350,0
DA:351,0
DA:354,0
DA:355,0
DA:357,0
DA:358,0
DA:359,0
DA:360,0
DA:361,0
DA:363,0
DA:366,0
DA:367,0
DA:369,0
DA:370,0
DA:371,0
DA:378,0
DA:379,0
DA:380,0
DA:381,0
DA:382,0
DA:384,0
DA:388,0
DA:389,0
DA:390,0
DA:393,0
DA:396,0
DA:397,0
DA:398,0
DA:401,0
DA:403,0
DA:404,0
DA:405,0
DA:407,0
DA:408,0
DA:410,0
DA:411,0
DA:412,0
DA:413,0
DA:417,0
DA:418,0
DA:422,0
DA:423,0
DA:425,0
DA:426,0
DA:428,0
DA:429,0
DA:430,0
DA:431,0
DA:436,0
DA:438,0
DA:445,0
DA:446,0
DA:447,0
DA:454,0
DA:455,0
DA:456,0
DA:460,0
DA:461,0
DA:463,0
DA:464,0
DA:465,0
DA:469,0
DA:472,0
DA:474,0
DA:475,0
DA:477,0
DA:480,0
DA:482,0
DA:483,0
DA:484,0
DA:487,0
DA:488,0
DA:491,0
DA:492,0
DA:494,0
DA:496,0
DA:499,0
DA:502,0
DA:503,0
DA:504,0
DA:507,0
DA:508,0
DA:509,0
DA:510,0
DA:511,0
DA:512,0
DA:513,0
DA:514,0
DA:516,0
DA:518,0
DA:521,0
DA:522,0
DA:523,0
DA:524,0
DA:525,0
DA:527,0
DA:528,0
DA:529,0
DA:533,0
DA:534,0
DA:535,0
DA:536,0
DA:539,0
DA:540,0
DA:541,0
DA:543,0
DA:544,0
DA:546,0
DA:547,0
DA:548,0
DA:549,0
DA:551,0
DA:555,0
DA:556,0
DA:557,0
DA:559,0
DA:561,0
DA:562,0
DA:563,0
DA:564,0
DA:566,0
DA:568,0
DA:569,0
DA:571,0
DA:574,0
DA:578,0
DA:579,0
DA:580,0
DA:581,0
DA:584,0
DA:585,0
DA:586,0
DA:587,0
DA:589,0
DA:590,0
DA:591,0
DA:592,0
DA:593,0
DA:600,0
DA:602,0
DA:603,0
DA:604,0
DA:605,0
DA:606,0
DA:607,0
DA:608,0
DA:612,0
DA:613,0
DA:616,0
DA:617,0
DA:618,0
DA:619,0
DA:620,0
DA:621,0
DA:624,0
DA:626,0
DA:627,0
DA:628,0
DA:631,0
DA:632,0
DA:633,0
DA:637,0
DA:639,0
DA:642,0
DA:643,0
DA:644,0
DA:647,0
DA:648,0
DA:654,0
DA:655,0
DA:656,0
DA:657,0
DA:658,0
DA:662,0
DA:663,0
DA:664,0
DA:666,0
DA:667,0
DA:668,0
DA:669,0
DA:672,0
DA:673,0
DA:674,0
DA:676,0
DA:677,0
DA:678,0
DA:679,0
DA:683,0
DA:684,0
DA:687,0
DA:690,0
DA:691,0
DA:692,0
DA:693,0
DA:697,0
DA:698,0
DA:699,0
DA:701,0
DA:703,0
DA:704,0
DA:706,0
DA:708,0
DA:711,0
DA:712,0
DA:714,0
DA:715,0
DA:722,0
DA:723,0
DA:725,0
DA:726,0
DA:727,0
DA:728,0
DA:729,0
DA:731,0
DA:732,0
DA:733,0
DA:734,0
DA:736,0
DA:737,0
DA:739,0
DA:740,0
DA:742,0
DA:743,0
DA:745,0
DA:747,0
DA:750,0
DA:753,0
DA:754,0
DA:755,0
DA:758,0
DA:759,0
DA:760,0
DA:761,0
DA:764,0
DA:766,0
DA:767,0
DA:770,0
DA:774,0
DA:775,0
DA:776,0
DA:779,0
DA:781,0
DA:786,0
DA:793,0
DA:796,0
DA:797,0
DA:799,0
DA:800,0
DA:805,0
DA:806,0
DA:809,0
DA:812,0
DA:813,0
DA:815,0
DA:816,0
DA:822,0
DA:824,0
DA:828,0
DA:829,0
DA:831,0
DA:833,0
DA:834,0
DA:835,0
DA:836,0
DA:837,0
DA:841,0
DA:842,0
DA:843,0
DA:844,0
DA:845,0
DA:849,0
DA:851,0
DA:852,0
DA:853,0
DA:857,0
DA:858,0
DA:859,0
DA:860,0
DA:861,0
DA:862,0
DA:866,0
DA:869,0
DA:870,0
DA:872,0
DA:873,0
DA:878,0
DA:886,0
DA:890,0
DA:891,0
DA:893,0
DA:894,0
DA:899,0
DA:907,0
DA:908,0
DA:914,0
DA:916,0
DA:917,0
DA:919,0
DA:920,0
DA:921,0
DA:922,0
DA:927,0
DA:935,0
DA:943,0
DA:944,0
DA:945,0
DA:949,0
DA:950,0
DA:951,0
DA:952,0
DA:955,0
DA:956,0
DA:958,0
DA:959,0
DA:960,0
DA:962,0
DA:964,0
DA:972,0
DA:973,0
DA:977,0
DA:979,0
DA:980,0
DA:983,0
DA:985,0
DA:986,0
DA:989,0
DA:990,0
DA:993,0
DA:994,0
DA:995,0
DA:998,0
DA:1000,0
DA:1001,0
DA:1003,0
DA:1005,0
DA:1006,0
DA:1014,0
DA:1015,0
DA:1017,0
DA:1024,0
DA:1025,0
DA:1026,0
DA:1029,0
DA:1030,0
DA:1031,0
DA:1032,0
DA:1034,0
DA:1040,0
DA:1041,0
DA:1042,0
DA:1044,0
DA:1045,0
DA:1046,0
DA:1051,0
DA:1052,0
DA:1053,0
DA:1056,0
DA:1059,0
DA:1060,0
DA:1063,0
DA:1064,0
DA:1066,0
DA:1070,0
DA:1071,0
DA:1072,0
DA:1073,0
DA:1075,0
DA:1081,0
DA:1082,0
DA:1083,0
DA:1084,0
DA:1085,0
DA:1088,0
DA:1099,0
DA:1100,0
DA:1105,0
DA:1106,0
DA:1107,0
DA:1108,0
DA:1109,0
DA:1110,0
DA:1111,0
DA:1112,0
DA:1115,0
DA:1116,0
DA:1117,0
DA:1118,0
DA:1119,0
DA:1120,0
DA:1121,0
DA:1122,0
DA:1125,0
DA:1126,0
DA:1127,0
DA:1128,0
DA:1129,0
DA:1130,0
DA:1131,0
DA:1132,0
DA:1135,0
DA:1136,0
DA:1139,0
DA:1140,0
DA:1143,0
DA:1144,0
DA:1146,0
DA:1147,0
DA:1148,0
DA:1149,0
DA:1156,0
DA:1164,0
DA:1165,0
DA:1166,0
DA:1167,0
DA:1170,0
DA:1171,0
DA:1173,0
DA:1174,0
DA:1175,0
DA:1178,0
DA:1184,0
DA:1185,0
DA:1186,0
DA:1187,0
DA:1189,0
DA:1191,0
DA:1192,0
DA:1194,0
DA:1196,0
DA:1203,0
DA:1205,0
DA:1206,0
DA:1207,0
DA:1209,0
DA:1211,0
DA:1212,0
DA:1215,0
DA:1216,0
DA:1217,0
DA:1219,0
DA:1220,0
DA:1221,0
DA:1222,0
DA:1223,0
DA:1224,0
DA:1226,0
DA:1227,0
DA:1228,0
DA:1231,0
DA:1232,0
DA:1233,0
DA:1234,0
DA:1235,0
DA:1236,0
DA:1237,0
DA:1238,0
DA:1240,0
DA:1241,0
DA:1242,0
DA:1243,0
DA:1244,0
DA:1246,0
DA:1255,0
DA:1256,0
DA:1259,0
DA:1260,0
DA:1263,0
DA:1264,0
DA:1267,0
DA:1268,0
DA:1271,0
DA:1274,0
DA:1276,0
DA:1279,0
DA:1280,0
DA:1282,0
DA:1291,0
DA:1292,0
DA:1293,0
DA:1295,0
DA:1296,0
DA:1297,0
DA:1298,0
DA:1299,0
DA:1302,0
DA:1303,0
DA:1304,0
DA:1305,0
DA:1315,0
DA:1316,0
DA:1317,0
DA:1318,0
DA:1319,0
DA:1320,0
DA:1322,0
DA:1328,0
DA:1329,0
DA:1330,0
DA:1331,0
DA:1333,0
DA:1341,0
DA:1343,0
DA:1344,0
DA:1345,0
DA:1346,0
DA:1347,0
DA:1348,0
DA:1349,0
DA:1350,0
DA:1352,0
DA:1353,0
DA:1354,0
DA:1356,0
DA:1357,0
DA:1358,0
DA:1361,0
DA:1362,0
DA:1364,0
DA:1365,0
DA:1368,0
DA:1369,0
DA:1371,0
DA:1372,0
DA:1374,0
DA:1381,0
DA:1382,0
DA:1383,0
DA:1384,0
DA:1385,0
DA:1386,0
DA:1387,0
DA:1389,0
DA:1390,0
DA:1391,0
DA:1393,0
DA:1399,0
DA:1401,0
DA:1408,0
DA:1409,0
DA:1410,0
DA:1411,0
DA:1413,0
DA:1414,0
DA:1415,0
DA:1417,0
DA:1429,0
DA:1430,0
DA:1431,0
DA:1433,0
DA:1435,0
DA:1436,0
DA:1437,0
DA:1438,0
DA:1439,0
DA:1441,0
DA:1452,0
DA:1453,0
DA:1454,0
DA:1455,0
DA:1468,0
DA:1469,0
DA:1472,0
DA:1473,0
DA:1474,0
DA:1475,0
DA:1476,0
DA:1478,0
DA:1479,0
DA:1481,0
DA:1489,0
DA:1490,0
DA:1491,0
DA:1493,0
DA:1494,0
DA:1495,0
DA:1496,0
DA:1497,0
DA:1498,0
DA:1500,0
DA:1501,0
DA:1503,0
DA:1504,0
DA:1505,0
DA:1508,0
DA:1514,0
DA:1515,0
DA:1516,0
DA:1518,0
DA:1519,0
DA:1520,0
DA:1521,0
DA:1522,0
DA:1523,0
DA:1525,0
DA:1526,0
DA:1528,0
DA:1534,0
DA:1535,0
DA:1536,0
DA:1537,0
DA:1538,0
DA:1540,0
DA:1547,0
DA:1548,0
DA:1549,0
DA:1550,0
DA:1551,0
DA:1553,0
DA:1555,0
DA:1556,0
DA:1563,0
DA:1565,0
DA:1567,0
DA:1568,0
DA:1570,0
DA:1571,0
DA:1572,0
DA:1577,0
DA:1578,0
DA:1579,0
DA:1581,0
DA:1582,0
DA:1584,0
DA:1585,0
DA:1586,0
DA:1591,0
DA:1592,0
DA:1593,0
DA:1595,0
DA:1597,0
DA:1598,0
DA:1599,0
DA:1600,0
DA:1605,0
DA:1606,0
DA:1607,0
DA:1609,0
DA:1610,0
DA:1611,0
DA:1613,0
DA:1614,0
DA:1615,0
DA:1616,0
end_of_record
SF:/usr/include/c++/9/bits/ptr_traits.h
DA:146,0
DA:147,0
end_of_record
SF:/usr/include/x86_64-linux-gnu/bits/string_fortified.h
DA:126,0
DA:128,0
end_of_record
SF:/usr/include/c++/9/bits/hashtable.h
FN:1348,_ZNSt10_HashtableINSt7__cxx1112basic_stringIcSt11char_traitsIcESaIcEEESt4pairIKS5_PvESaIS9_ENSt8__detail10_Select1stESt8equal_toIS5_ESt4hashIS5_ENSB_18_Mod_range_hashingENSB_20_Default_ranged_hashENSB_20_Prime_rehash_policyENSB_17_Hashtable_traitsILb1ELb0ELb1EEEED2Ev
FNDA:0,_ZNSt10_HashtableINSt7__cxx1112basic_stringIcSt11char_traitsIcESaIcEEESt4pairIKS5_PvESaIS9_ENSt8__detail10_Select1stESt8equal_toIS5_ESt4hashIS5_ENSB_18_Mod_range_hashingENSB_20_Default_ranged_hashENSB_20_Prime_rehash_policyENSB_17_Hashtable_traitsILb1ELb0ELb1EEEED2Ev
FN:2024,_ZNSt10_HashtableINSt7__cxx1112basic_stringIcSt11char_traitsIcESaIcEEESt4pairIKS5_PvESaIS9_ENSt8__detail10_Select1stESt8equal_toIS5_ESt4hashIS5_ENSB_18_Mod_range_hashingENSB_20_Default_ranged_hashENSB_20_Prime_rehash_policyENSB_17_Hashtable_traitsILb1ELb0ELb1EEEE5clearEv
FNDA:0,_ZNSt10_HashtableINSt7__cxx1112basic_stringIcSt11char_traitsIcESaIcEEESt4pairIKS5_PvESaIS9_ENSt8__detail10_Select1stESt8equal_toIS5_ESt4hashIS5_ENSB_18_Mod_range_hashingENSB_20_Default_ranged_hashENSB_20_Prime_rehash_policyENSB_17_Hashtable_traitsILb1ELb0ELb1EEEE5clearEv
DA:342,0
DA:343,0
DA:365,0
DA:367,0
DA:370,0
DA:374,0
DA:375,0
DA:383,0
DA:414,0
DA:1348,0
DA:1352,0
DA:1353,0
DA:1354,0
DA:2024,0
DA:2028,0
DA:2029,0
DA:2030,0
DA:2031,0
DA:2032,0
end_of_record
SF:/usr/include/c++/9/bits/stl_pair.h
end_of_record
SF:/usr/include/c++/9/ext/new_allocator.h
DA:80,0
DA:89,0
DA:119,0
DA:128,0
end_of_record
SF:/usr/include/c++/9/iostream
end_of_record
SF:/usr/include/c++/9/ext/aligned_buffer.h
end_of_record
SF:/usr/include/x86_64-linux-gnu/bits/stdio2.h
DA:34,0
DA:36,0
DA:37,0
DA:105,0
DA:107,0
end_of_record
SF:/usr/include/c++/9/bits/hashtable_policy.h
DA:218,0
DA:269,0
DA:449,0
DA:450,0
DA:1093,0
DA:1096,0
DA:1108,0
DA:2017,0
DA:2036,0
DA:2046,0
DA:2047,0
DA:2118,0
DA:2120,0
DA:2122,0
DA:2123,0
DA:2124,0
DA:2142,0
DA:2146,0
DA:2147,0
DA:2148,0
DA:2149,0
end_of_record
SF:/usr/include/c++/9/bits/char_traits.h
DA:299,0
DA:300,0
DA:361,0
DA:363,0
DA:365,0
end_of_record
SF:/usr/include/c++/9/bits/basic_string.tcc
FN:206,_ZNSt7__cxx1112basic_stringIcSt11char_traitsIcESaIcEE12_M_constructIPKcEEvT_S8_St20forward_iterator_tag
FNDA:0,_ZNSt7__cxx1112basic_stringIcSt11char_traitsIcESaIcEE12_M_constructIPKcEEvT_S8_St20forward_iterator_tag
DA:206,0
DA:211,0
DA:212,0
DA:215,0
DA:217,0
DA:219,0
DA:220,0
DA:225,0
DA:232,0
DA:233,0
end_of_record
SF:/usr/include/c++/9/bits/basic_string.h
DA:150,0
DA:178,0
DA:179,0
DA:182,0
DA:183,0
DA:186,0
DA:200,0
DA:203,0
DA:210,0
DA:211,0
DA:214,0
DA:216,0
DA:217,0
DA:221,0
DA:222,0
DA:229,0
DA:231,0
DA:232,0
DA:236,0
DA:237,0
DA:286,0
DA:287,0
DA:346,0
DA:348,0
DA:349,0
DA:351,0
DA:396,0
DA:398,0
DA:657,0
DA:658,0
DA:1177,0
DA:1178,0
DA:2300,0
DA:2301,0
end_of_record
SF:/usr/include/c++/9/bits/alloc_traits.h
DA:469,0
DA:470,0
end_of_record
SF:/usr/include/c++/9/ext/type_traits.h
DA:152,0
end_of_record
SF:/workspace/vtr-verilog-to-routing/ODIN_II/SRC/include/Hashtable.hpp
DA:32,0
end_of_record
SF:/usr/include/c++/9/bits/stl_iterator_base_funcs.h
DA:98,0
DA:104,0
DA:138,0
DA:141,0
end_of_record
SF:/usr/include/c++/9/bits/unordered_map.h
DA:102,0
DA:141,0
end_of_record
SF:/usr/include/c++/9/bits/stl_vector.h
DA:1040,0
DA:1043,0
end_of_record
SF:/usr/include/c++/9/bits/move.h
DA:47,0
DA:138,0
DA:139,0
end_of_record
SF:/usr/include/c++/9/bits/allocator.h
DA:138,0
DA:151,0
DA:153,0
end_of_record
SF:/usr/include/stdlib.h
DA:361,0
DA:363,0
end_of_record
TN:
SF:/usr/include/c++/9/bits/allocator.h
DA:138,0
DA:141,0
DA:142,0
DA:153,0
end_of_record
SF:/usr/include/stdlib.h
DA:361,0
DA:363,0
end_of_record
SF:/usr/include/c++/9/new
DA:173,0
DA:174,0
end_of_record
SF:/usr/include/c++/9/bits/stl_vector.h
FN:675,_ZNSt6vectorINSt7__cxx1112basic_stringIcSt11char_traitsIcESaIcEEESaIS5_EED2Ev
FNDA:0,_ZNSt6vectorINSt7__cxx1112basic_stringIcSt11char_traitsIcESaIcEEESaIS5_EED2Ev
FN:1753,_ZNKSt6vectorINSt7__cxx1112basic_stringIcSt11char_traitsIcESaIcEEESaIS5_EE12_M_check_lenEmPKc
FNDA:0,_ZNKSt6vectorINSt7__cxx1112basic_stringIcSt11char_traitsIcESaIcEEESaIS5_EE12_M_check_lenEmPKc
DA:94,0
DA:95,0
DA:125,0
DA:128,0
DA:130,0
DA:273,0
DA:274,0
DA:277,0
DA:278,0
DA:285,0
DA:330,0
DA:332,0
DA:333,0
DA:334,0
DA:347,0
DA:350,0
DA:351,0
DA:453,0
DA:462,0
DA:466,0
DA:484,0
DA:675,0
DA:677,0
DA:678,0
DA:680,0
DA:808,0
DA:809,0
DA:826,0
DA:827,0
DA:915,0
DA:916,0
DA:920,0
DA:921,0
DA:1200,0
DA:1201,0
DA:1753,0
DA:1755,0
DA:1756,0
DA:1758,0
DA:1759,0
DA:1773,0
DA:1780,0
DA:1781,0
end_of_record
SF:/usr/include/c++/9/bits/move.h
DA:47,0
DA:74,0
DA:99,0
DA:138,0
DA:139,0
end_of_record
SF:/workspace/vtr-verilog-to-routing/ODIN_II/SRC/read_xml_config_file.cpp
FN:53,_Z16read_config_filePKc
FNDA:0,_Z16read_config_filePKc
FN:97,_Z18read_verilog_filesN4pugi8xml_nodeEP8config_tRKN8pugiutil8loc_dataE
FNDA:0,_Z18read_verilog_filesN4pugi8xml_nodeEP8config_tRKN8pugiutil8loc_dataE
FN:113,_Z12read_outputsN4pugi8xml_nodeEP8config_tRKN8pugiutil8loc_dataE
FNDA:0,_Z12read_outputsN4pugi8xml_nodeEP8config_tRKN8pugiutil8loc_dataE
FN:143,_Z19read_debug_switchesN4pugi8xml_nodeEP8config_tRKN8pugiutil8loc_dataE
FNDA:0,_Z19read_debug_switchesN4pugi8xml_nodeEP8config_tRKN8pugiutil8loc_dataE
FN:172,_Z33set_default_optimization_settingsP8config_t
FNDA:0,_Z33set_default_optimization_settingsP8config_t
FN:189,_Z18read_optimizationsN4pugi8xml_nodeEP8config_tRKN8pugiutil8loc_dataE
FNDA:0,_Z18read_optimizationsN4pugi8xml_nodeEP8config_tRKN8pugiutil8loc_dataE
DA:53,0
DA:54,0
DA:57,0
DA:59,0
DA:60,0
DA:61,0
DA:62,0
DA:65,0
DA:68,0
DA:69,0
DA:72,0
DA:73,0
DA:76,0
DA:77,0
DA:78,0
DA:79,0
DA:83,0
DA:84,0
DA:85,0
DA:86,0
DA:87,0
DA:97,0
DA:98,0
DA:99,0
DA:101,0
DA:102,0
DA:103,0
DA:104,0
DA:105,0
DA:107,0
DA:113,0
DA:114,0
DA:116,0
DA:117,0
DA:118,0
DA:121,0
DA:122,0
DA:123,0
DA:126,0
DA:127,0
DA:128,0
DA:129,0
DA:131,0
DA:132,0
DA:134,0
DA:137,0
DA:143,0
DA:144,0
DA:146,0
DA:147,0
DA:148,0
DA:151,0
DA:152,0
DA:153,0
DA:156,0
DA:157,0
DA:158,0
DA:161,0
DA:162,0
DA:163,0
DA:166,0
DA:172,0
DA:173,0
DA:174,0
DA:175,0
DA:176,0
DA:177,0
DA:178,0
DA:179,0
DA:180,0
DA:181,0
DA:182,0
DA:183,0
DA:189,0
DA:190,0
DA:191,0
DA:193,0
DA:194,0
DA:195,0
DA:196,0
DA:197,0
DA:199,0
DA:201,0
DA:202,0
DA:203,0
DA:205,0
DA:207,0
DA:208,0
DA:209,0
DA:211,0
DA:213,0
DA:214,0
DA:215,0
DA:217,0
DA:220,0
DA:221,0
DA:222,0
DA:223,0
DA:224,0
DA:226,0
DA:228,0
DA:229,0
DA:230,0
DA:231,0
DA:232,0
DA:233,0
DA:235,0
DA:237,0
DA:240,0
DA:241,0
DA:242,0
DA:243,0
DA:244,0
DA:246,0
DA:248,0
DA:249,0
DA:250,0
DA:252,0
DA:254,0
DA:255,0
DA:256,0
DA:258,0
DA:260,0
DA:261,0
DA:262,0
DA:264,0
DA:266,0
DA:267,0
DA:268,0
DA:270,0
DA:273,0
end_of_record
SF:/usr/include/c++/9/bits/stl_construct.h
DA:97,0
DA:98,0
DA:107,0
DA:108,0
DA:137,0
DA:203,0
DA:206,0
end_of_record
SF:/usr/include/c++/9/bits/stl_iterator_base_funcs.h
DA:98,0
DA:104,0
DA:138,0
DA:141,0
end_of_record
SF:/usr/include/c++/9/bits/vector.tcc
FN:109,_ZNSt6vectorINSt7__cxx1112basic_stringIcSt11char_traitsIcESaIcEEESaIS5_EE12emplace_backIJS5_EEEvDpOT_
FNDA:0,_ZNSt6vectorINSt7__cxx1112basic_stringIcSt11char_traitsIcESaIcEEESaIS5_EE12emplace_backIJS5_EEEvDpOT_
FN:426,_ZNSt6vectorINSt7__cxx1112basic_stringIcSt11char_traitsIcESaIcEEESaIS5_EE17_M_realloc_insertIJS5_EEEvN9__gnu_cxx17__normal_iteratorIPS5_S7_EEDpOT_
FNDA:0,_ZNSt6vectorINSt7__cxx1112basic_stringIcSt11char_traitsIcESaIcEEESaIS5_EE17_M_realloc_insertIJS5_EEEvN9__gnu_cxx17__normal_iteratorIPS5_S7_EEDpOT_
DA:109,0
DA:112,0
DA:115,0
DA:117,0
DA:121,0
DA:125,0
DA:426,0
DA:435,0
DA:437,0
DA:438,0
DA:439,0
DA:440,0
DA:441,0
DA:449,0
DA:450,0
DA:456,0
DA:461,0
DA:462,0
DA:464,0
DA:466,0
DA:467,0
DA:500,0
DA:501,0
DA:502,0
DA:503,0
DA:504,0
DA:505,0
end_of_record
SF:/usr/include/c++/9/ext/type_traits.h
DA:152,0
end_of_record
SF:/usr/include/c++/9/bits/alloc_traits.h
DA:469,0
DA:470,0
DA:482,0
DA:484,0
DA:495,0
DA:497,0
DA:505,0
DA:506,0
end_of_record
SF:/workspace/vtr-verilog-to-routing/libs/EXTERNAL/libargparse/src/argparse_value.hpp
DA:53,0
DA:74,0
DA:75,0
DA:76,0
end_of_record
SF:/usr/include/c++/9/bits/char_traits.h
DA:299,0
DA:300,0
DA:361,0
DA:363,0
DA:365,0
end_of_record
SF:/usr/include/c++/9/bits/basic_string.h
DA:150,0
DA:159,0
DA:160,0
DA:178,0
DA:179,0
DA:182,0
DA:183,0
DA:186,0
DA:190,0
DA:193,0
DA:200,0
DA:203,0
DA:210,0
DA:211,0
DA:214,0
DA:216,0
DA:217,0
DA:221,0
DA:222,0
DA:229,0
DA:231,0
DA:232,0
DA:236,0
DA:237,0
DA:286,0
DA:287,0
DA:346,0
DA:348,0
DA:349,0
DA:351,0
DA:396,0
DA:398,0
DA:431,0
DA:433,0
DA:434,0
DA:552,0
DA:553,0
DA:555,0
DA:557,0
DA:562,0
DA:563,0
DA:569,0
DA:570,0
DA:571,0
DA:657,0
DA:658,0
DA:665,0
DA:696,0
DA:704,0
DA:705,0
DA:936,0
DA:1364,0
DA:1366,0
DA:6175,0
DA:6177,0
DA:6213,0
DA:6215,0
end_of_record
SF:/workspace/vtr-verilog-to-routing/ODIN_II/SRC/include/config_t.h
end_of_record
SF:/usr/include/c++/9/bits/basic_string.tcc
FN:206,_ZNSt7__cxx1112basic_stringIcSt11char_traitsIcESaIcEE12_M_constructIPKcEEvT_S8_St20forward_iterator_tag
FNDA:0,_ZNSt7__cxx1112basic_stringIcSt11char_traitsIcESaIcEE12_M_constructIPKcEEvT_S8_St20forward_iterator_tag
DA:206,0
DA:211,0
DA:212,0
DA:215,0
DA:217,0
DA:219,0
DA:220,0
DA:225,0
DA:232,0
DA:233,0
end_of_record
SF:/usr/include/c++/9/iostream
end_of_record
SF:/usr/include/c++/9/ext/new_allocator.h
DA:80,0
DA:83,0
DA:89,0
DA:119,0
DA:128,0
DA:132,0
DA:144,0
DA:147,0
DA:151,0
DA:153,0
end_of_record
SF:/usr/include/x86_64-linux-gnu/bits/stdio2.h
DA:105,0
DA:107,0
end_of_record
SF:/usr/include/c++/9/bits/stl_uninitialized.h
DA:905,0
DA:912,0
DA:913,0
DA:949,0
DA:950,0
DA:964,0
end_of_record
SF:/workspace/vtr-verilog-to-routing/libs/libpugiutil/src/pugixml_loc.hpp
DA:16,0
end_of_record
SF:/usr/include/c++/9/bits/stl_iterator.h
DA:806,0
DA:871,0
DA:989,0
DA:992,0
end_of_record
SF:/usr/include/c++/9/bits/ptr_traits.h
DA:146,0
DA:147,0
end_of_record
SF:/usr/include/c++/9/bits/stl_algobase.h
DA:198,0
DA:222,0
DA:227,0
DA:228,0
end_of_record
TN:
SF:/workspace/vtr-verilog-to-routing/ODIN_II/SRC/scope_util.cpp
FN:8,_Z12new_sc_scopev
FNDA:0,_Z12new_sc_scopev
FN:17,_Z19move_sc_scope_itemsPP8sc_scopeS0_
FNDA:0,_Z19move_sc_scope_itemsPP8sc_scopeS0_
FN:28,_Z13free_sc_scopePP8sc_scopePP12STRING_CACHES4_
FNDA:0,_Z13free_sc_scopePP8sc_scopePP12STRING_CACHES4_
FN:44,_Z9pop_scopev
FNDA:0,_Z9pop_scopev
FN:61,_Z16merge_top_scopesv
FNDA:0,_Z16merge_top_scopesv
FN:68,_Z10push_scopev
FNDA:0,_Z10push_scopev
DA:8,0
DA:9,0
DA:10,0
DA:11,0
DA:12,0
DA:14,0
DA:17,0
DA:18,0
DA:19,0
DA:20,0
DA:21,0
DA:22,0
DA:23,0
DA:25,0
DA:26,0
DA:28,0
DA:29,0
DA:30,0
DA:31,0
DA:32,0
DA:34,0
DA:35,0
DA:37,0
DA:38,0
DA:41,0
DA:42,0
DA:44,0
DA:45,0
DA:46,0
DA:47,0
DA:48,0
DA:52,0
DA:53,0
DA:55,0
DA:58,0
DA:61,0
DA:62,0
DA:63,0
DA:64,0
DA:66,0
DA:68,0
DA:69,0
DA:72,0
DA:73,0
end_of_record
SF:/usr/include/c++/9/bits/allocator.h
DA:153,0
end_of_record
SF:/usr/include/c++/9/new
DA:173,0
DA:174,0
end_of_record
SF:/usr/include/c++/9/bits/move.h
DA:74,0
DA:99,0
end_of_record
SF:/usr/include/c++/9/bits/stl_vector.h
FN:675,_ZNSt6vectorIP8sc_scopeSaIS1_EED2Ev
FNDA:0,_ZNSt6vectorIP8sc_scopeSaIS1_EED2Ev
FN:1753,_ZNKSt6vectorIP8sc_scopeSaIS1_EE12_M_check_lenEmPKc
FNDA:0,_ZNKSt6vectorIP8sc_scopeSaIS1_EE12_M_check_lenEmPKc
DA:125,0
DA:273,0
DA:274,0
DA:277,0
DA:278,0
DA:330,0
DA:332,0
DA:333,0
DA:334,0
DA:347,0
DA:350,0
DA:351,0
DA:450,0
DA:453,0
DA:462,0
DA:466,0
DA:675,0
DA:677,0
DA:678,0
DA:680,0
DA:808,0
DA:809,0
DA:817,0
DA:818,0
DA:826,0
DA:827,0
DA:835,0
DA:836,0
DA:915,0
DA:916,0
DA:920,0
DA:921,0
DA:1004,0
DA:1005,0
DA:1140,0
DA:1143,0
DA:1200,0
DA:1201,0
DA:1222,0
DA:1225,0
DA:1226,0
DA:1228,0
DA:1753,0
DA:1755,0
DA:1756,0
DA:1758,0
DA:1759,0
DA:1773,0
DA:1780,0
DA:1781,0
end_of_record
SF:/usr/include/c++/9/bits/stl_construct.h
DA:117,0
DA:127,0
DA:137,0
DA:203,0
DA:206,0
end_of_record
SF:/usr/include/c++/9/bits/alloc_traits.h
DA:469,0
DA:470,0
DA:482,0
DA:484,0
DA:495,0
DA:497,0
DA:505,0
DA:506,0
end_of_record
SF:/usr/include/c++/9/bits/vector.tcc
FN:109,_ZNSt6vectorIP8sc_scopeSaIS1_EE12emplace_backIJS1_EEEvDpOT_
FNDA:0,_ZNSt6vectorIP8sc_scopeSaIS1_EE12emplace_backIJS1_EEEvDpOT_
FN:426,_ZNSt6vectorIP8sc_scopeSaIS1_EE17_M_realloc_insertIJS1_EEEvN9__gnu_cxx17__normal_iteratorIPS1_S3_EEDpOT_
FNDA:0,_ZNSt6vectorIP8sc_scopeSaIS1_EE17_M_realloc_insertIJS1_EEEvN9__gnu_cxx17__normal_iteratorIPS1_S3_EEDpOT_
DA:109,0
DA:112,0
DA:115,0
DA:117,0
DA:121,0
DA:125,0
DA:426,0
DA:435,0
DA:437,0
DA:438,0
DA:439,0
DA:440,0
DA:441,0
DA:449,0
DA:450,0
DA:456,0
DA:461,0
DA:462,0
DA:464,0
DA:466,0
DA:467,0
DA:500,0
DA:501,0
DA:502,0
DA:503,0
DA:504,0
DA:505,0
end_of_record
SF:/usr/include/c++/9/ext/new_allocator.h
DA:89,0
DA:119,0
DA:128,0
DA:132,0
DA:144,0
DA:147,0
DA:151,0
end_of_record
SF:/usr/include/c++/9/bits/stl_uninitialized.h
DA:924,0
DA:927,0
DA:928,0
DA:929,0
DA:930,0
DA:958,0
DA:964,0
end_of_record
SF:/usr/include/c++/9/bits/stl_iterator.h
DA:806,0
DA:807,0
DA:819,0
DA:867,0
DA:868,0
DA:871,0
DA:893,0
DA:896,0
DA:989,0
DA:992,0
end_of_record
SF:/usr/include/c++/9/bits/stl_algobase.h
DA:198,0
DA:222,0
DA:227,0
DA:228,0
DA:280,0
end_of_record
TN:
SF:/usr/include/c++/9/bits/stl_iterator.h
DA:806,0
DA:807,0
DA:819,0
DA:827,0
DA:829,0
DA:830,0
DA:859,0
DA:860,0
DA:871,0
DA:893,0
DA:896,0
DA:907,0
DA:910,0
DA:989,0
DA:992,0
DA:1010,0
DA:1012,0
end_of_record
SF:/usr/include/string.h
DA:213,0
DA:215,0
DA:219,0
DA:221,0
DA:317,0
DA:319,0
end_of_record
SF:/usr/include/c++/9/bits/stl_algobase.h
DA:198,0
DA:222,0
DA:227,0
DA:228,0
DA:280,0
DA:289,0
DA:290,0
DA:295,0
DA:375,0
DA:384,0
DA:385,0
DA:386,0
DA:387,0
DA:393,0
DA:398,0
DA:404,0
DA:438,0
DA:440,0
DA:465,0
DA:474,0
DA:577,0
DA:586,0
DA:587,0
DA:588,0
DA:589,0
DA:595,0
DA:600,0
DA:606,0
DA:613,0
DA:615,0
DA:641,0
DA:652,0
DA:721,0
DA:723,0
DA:724,0
DA:725,0
DA:779,0
DA:781,0
DA:802,0
DA:808,0
end_of_record
SF:/usr/include/c++/9/sstream
end_of_record
SF:/usr/include/c++/9/bits/ptr_traits.h
DA:146,0
DA:147,0
DA:156,0
end_of_record
SF:/usr/include/x86_64-linux-gnu/c++/9/bits/gthr-default.h
DA:248,0
DA:250,0
DA:252,0
DA:691,0
DA:693,0
end_of_record
SF:/usr/include/x86_64-linux-gnu/bits/string_fortified.h
DA:59,0
DA:71,0
DA:88,0
DA:90,0
end_of_record
SF:/usr/include/c++/9/bits/hashtable.h
FN:1348,_ZNSt10_HashtableIP7nnode_tS1_SaIS1_ENSt8__detail9_IdentityESt8equal_toIS1_ESt4hashIS1_ENS3_18_Mod_range_hashingENS3_20_Default_ranged_hashENS3_20_Prime_rehash_policyENS3_17_Hashtable_traitsILb0ELb1ELb1EEEED2Ev
FNDA:0,_ZNSt10_HashtableIP7nnode_tS1_SaIS1_ENSt8__detail9_IdentityESt8equal_toIS1_ESt4hashIS1_ENS3_18_Mod_range_hashingENS3_20_Default_ranged_hashENS3_20_Prime_rehash_policyENS3_17_Hashtable_traitsILb0ELb1ELb1EEEED2Ev
FN:1348,_ZNSt10_HashtableINSt7__cxx1112basic_stringIcSt11char_traitsIcESaIcEEESt4pairIKS5_S5_ESaIS8_ENSt8__detail10_Select1stESt8equal_toIS5_ESt4hashIS5_ENSA_18_Mod_range_hashingENSA_20_Default_ranged_hashENSA_20_Prime_rehash_policyENSA_17_Hashtable_traitsILb1ELb0ELb1EEEED2Ev
FNDA:0,_ZNSt10_HashtableINSt7__cxx1112basic_stringIcSt11char_traitsIcESaIcEEESt4pairIKS5_S5_ESaIS8_ENSt8__detail10_Select1stESt8equal_toIS5_ESt4hashIS5_ENSA_18_Mod_range_hashingENSA_20_Default_ranged_hashENSA_20_Prime_rehash_policyENSA_17_Hashtable_traitsILb1ELb0ELb1EEEED2Ev
FN:1348,_ZNSt10_HashtableIllSaIlENSt8__detail9_IdentityESt8equal_toIlESt4hashIlENS1_18_Mod_range_hashingENS1_20_Default_ranged_hashENS1_20_Prime_rehash_policyENS1_17_Hashtable_traitsILb0ELb1ELb1EEEED2Ev
FNDA:0,_ZNSt10_HashtableIllSaIlENSt8__detail9_IdentityESt8equal_toIlESt4hashIlENS1_18_Mod_range_hashingENS1_20_Default_ranged_hashENS1_20_Prime_rehash_policyENS1_17_Hashtable_traitsILb0ELb1ELb1EEEED2Ev
FN:1412,_ZNSt10_HashtableINSt7__cxx1112basic_stringIcSt11char_traitsIcESaIcEEESt4pairIKS5_S5_ESaIS8_ENSt8__detail10_Select1stESt8equal_toIS5_ESt4hashIS5_ENSA_18_Mod_range_hashingENSA_20_Default_ranged_hashENSA_20_Prime_rehash_policyENSA_17_Hashtable_traitsILb1ELb0ELb1EEEE4findERS7_
FNDA:0,_ZNSt10_HashtableINSt7__cxx1112basic_stringIcSt11char_traitsIcESaIcEEESt4pairIKS5_S5_ESaIS8_ENSt8__detail10_Select1stESt8equal_toIS5_ESt4hashIS5_ENSA_18_Mod_range_hashingENSA_20_Default_ranged_hashENSA_20_Prime_rehash_policyENSA_17_Hashtable_traitsILb1ELb0ELb1EEEE4findERS7_
FN:1532,_ZNKSt10_HashtableINSt7__cxx1112basic_stringIcSt11char_traitsIcESaIcEEESt4pairIKS5_S5_ESaIS8_ENSt8__detail10_Select1stESt8equal_toIS5_ESt4hashIS5_ENSA_18_Mod_range_hashingENSA_20_Default_ranged_hashENSA_20_Prime_rehash_policyENSA_17_Hashtable_traitsILb1ELb0ELb1EEEE19_M_find_before_nodeEmRS7_m
FNDA:0,_ZNKSt10_HashtableINSt7__cxx1112basic_stringIcSt11char_traitsIcESaIcEEESt4pairIKS5_S5_ESaIS8_ENSt8__detail10_Select1stESt8equal_toIS5_ESt4hashIS5_ENSA_18_Mod_range_hashingENSA_20_Default_ranged_hashENSA_20_Prime_rehash_policyENSA_17_Hashtable_traitsILb1ELb0ELb1EEEE19_M_find_before_nodeEmRS7_m
FN:1560,_ZNSt10_HashtableIllSaIlENSt8__detail9_IdentityESt8equal_toIlESt4hashIlENS1_18_Mod_range_hashingENS1_20_Default_ranged_hashENS1_20_Prime_rehash_policyENS1_17_Hashtable_traitsILb0ELb1ELb1EEEE22_M_insert_bucket_beginEmPNS1_10_Hash_nodeIlLb0EEE
FNDA:0,_ZNSt10_HashtableIllSaIlENSt8__detail9_IdentityESt8equal_toIlESt4hashIlENS1_18_Mod_range_hashingENS1_20_Default_ranged_hashENS1_20_Prime_rehash_policyENS1_17_Hashtable_traitsILb0ELb1ELb1EEEE22_M_insert_bucket_beginEmPNS1_10_Hash_nodeIlLb0EEE
FN:1560,_ZNSt10_HashtableINSt7__cxx1112basic_stringIcSt11char_traitsIcESaIcEEESt4pairIKS5_S5_ESaIS8_ENSt8__detail10_Select1stESt8equal_toIS5_ESt4hashIS5_ENSA_18_Mod_range_hashingENSA_20_Default_ranged_hashENSA_20_Prime_rehash_policyENSA_17_Hashtable_traitsILb1ELb0ELb1EEEE22_M_insert_bucket_beginEmPNSA_10_Hash_nodeIS8_Lb1EEE
FNDA:0,_ZNSt10_HashtableINSt7__cxx1112basic_stringIcSt11char_traitsIcESaIcEEESt4pairIKS5_S5_ESaIS8_ENSt8__detail10_Select1stESt8equal_toIS5_ESt4hashIS5_ENSA_18_Mod_range_hashingENSA_20_Default_ranged_hashENSA_20_Prime_rehash_policyENSA_17_Hashtable_traitsILb1ELb0ELb1EEEE22_M_insert_bucket_beginEmPNSA_10_Hash_nodeIS8_Lb1EEE
FN:1560,_ZNSt10_HashtableIP7nnode_tS1_SaIS1_ENSt8__detail9_IdentityESt8equal_toIS1_ESt4hashIS1_ENS3_18_Mod_range_hashingENS3_20_Default_ranged_hashENS3_20_Prime_rehash_policyENS3_17_Hashtable_traitsILb0ELb1ELb1EEEE22_M_insert_bucket_beginEmPNS3_10_Hash_nodeIS1_Lb0EEE
FNDA:0,_ZNSt10_HashtableIP7nnode_tS1_SaIS1_ENSt8__detail9_IdentityESt8equal_toIS1_ESt4hashIS1_ENS3_18_Mod_range_hashingENS3_20_Default_ranged_hashENS3_20_Prime_rehash_policyENS3_17_Hashtable_traitsILb0ELb1ELb1EEEE22_M_insert_bucket_beginEmPNS3_10_Hash_nodeIS1_Lb0EEE
FN:1632,_ZNSt10_HashtableINSt7__cxx1112basic_stringIcSt11char_traitsIcESaIcEEESt4pairIKS5_S5_ESaIS8_ENSt8__detail10_Select1stESt8equal_toIS5_ESt4hashIS5_ENSA_18_Mod_range_hashingENSA_20_Default_ranged_hashENSA_20_Prime_rehash_policyENSA_17_Hashtable_traitsILb1ELb0ELb1EEEE10_M_emplaceIJS8_EEES6_INSA_14_Node_iteratorIS8_Lb0ELb1EEEbESt17integral_constantIbLb1EEDpOT_
FNDA:0,_ZNSt10_HashtableINSt7__cxx1112basic_stringIcSt11char_traitsIcESaIcEEESt4pairIKS5_S5_ESaIS8_ENSt8__detail10_Select1stESt8equal_toIS5_ESt4hashIS5_ENSA_18_Mod_range_hashingENSA_20_Default_ranged_hashENSA_20_Prime_rehash_policyENSA_17_Hashtable_traitsILb1ELb0ELb1EEEE10_M_emplaceIJS8_EEES6_INSA_14_Node_iteratorIS8_Lb0ELb1EEEbESt17integral_constantIbLb1EEDpOT_
FN:1698,_ZNSt10_HashtableINSt7__cxx1112basic_stringIcSt11char_traitsIcESaIcEEESt4pairIKS5_S5_ESaIS8_ENSt8__detail10_Select1stESt8equal_toIS5_ESt4hashIS5_ENSA_18_Mod_range_hashingENSA_20_Default_ranged_hashENSA_20_Prime_rehash_policyENSA_17_Hashtable_traitsILb1ELb0ELb1EEEE21_M_insert_unique_nodeEmmPNSA_10_Hash_nodeIS8_Lb1EEEm
FNDA:0,_ZNSt10_HashtableINSt7__cxx1112basic_stringIcSt11char_traitsIcESaIcEEESt4pairIKS5_S5_ESaIS8_ENSt8__detail10_Select1stESt8equal_toIS5_ESt4hashIS5_ENSA_18_Mod_range_hashingENSA_20_Default_ranged_hashENSA_20_Prime_rehash_policyENSA_17_Hashtable_traitsILb1ELb0ELb1EEEE21_M_insert_unique_nodeEmmPNSA_10_Hash_nodeIS8_Lb1EEEm
FN:1698,_ZNSt10_HashtableIP7nnode_tS1_SaIS1_ENSt8__detail9_IdentityESt8equal_toIS1_ESt4hashIS1_ENS3_18_Mod_range_hashingENS3_20_Default_ranged_hashENS3_20_Prime_rehash_policyENS3_17_Hashtable_traitsILb0ELb1ELb1EEEE21_M_insert_unique_nodeEmmPNS3_10_Hash_nodeIS1_Lb0EEEm
FNDA:0,_ZNSt10_HashtableIP7nnode_tS1_SaIS1_ENSt8__detail9_IdentityESt8equal_toIS1_ESt4hashIS1_ENS3_18_Mod_range_hashingENS3_20_Default_ranged_hashENS3_20_Prime_rehash_policyENS3_17_Hashtable_traitsILb0ELb1ELb1EEEE21_M_insert_unique_nodeEmmPNS3_10_Hash_nodeIS1_Lb0EEEm
FN:1698,_ZNSt10_HashtableIllSaIlENSt8__detail9_IdentityESt8equal_toIlESt4hashIlENS1_18_Mod_range_hashingENS1_20_Default_ranged_hashENS1_20_Prime_rehash_policyENS1_17_Hashtable_traitsILb0ELb1ELb1EEEE21_M_insert_unique_nodeEmmPNS1_10_Hash_nodeIlLb0EEEm
FNDA:0,_ZNSt10_HashtableIllSaIlENSt8__detail9_IdentityESt8equal_toIlESt4hashIlENS1_18_Mod_range_hashingENS1_20_Default_ranged_hashENS1_20_Prime_rehash_policyENS1_17_Hashtable_traitsILb0ELb1ELb1EEEE21_M_insert_unique_nodeEmmPNS1_10_Hash_nodeIlLb0EEEm
FN:1803,_ZNSt10_HashtableIllSaIlENSt8__detail9_IdentityESt8equal_toIlESt4hashIlENS1_18_Mod_range_hashingENS1_20_Default_ranged_hashENS1_20_Prime_rehash_policyENS1_17_Hashtable_traitsILb0ELb1ELb1EEEE9_M_insertIRKlNS1_10_AllocNodeISaINS1_10_Hash_nodeIlLb0EEEEEEEESt4pairINS1_14_Node_iteratorIlLb1ELb0EEEbEOT_RKT0_St17integral_constantIbLb1EEm
FNDA:0,_ZNSt10_HashtableIllSaIlENSt8__detail9_IdentityESt8equal_toIlESt4hashIlENS1_18_Mod_range_hashingENS1_20_Default_ranged_hashENS1_20_Prime_rehash_policyENS1_17_Hashtable_traitsILb0ELb1ELb1EEEE9_M_insertIRKlNS1_10_AllocNodeISaINS1_10_Hash_nodeIlLb0EEEEEEEESt4pairINS1_14_Node_iteratorIlLb1ELb0EEEbEOT_RKT0_St17integral_constantIbLb1EEm
FN:1803,_ZNSt10_HashtableIP7nnode_tS1_SaIS1_ENSt8__detail9_IdentityESt8equal_toIS1_ESt4hashIS1_ENS3_18_Mod_range_hashingENS3_20_Default_ranged_hashENS3_20_Prime_rehash_policyENS3_17_Hashtable_traitsILb0ELb1ELb1EEEE9_M_insertIRKS1_NS3_10_AllocNodeISaINS3_10_Hash_nodeIS1_Lb0EEEEEEEESt4pairINS3_14_Node_iteratorIS1_Lb1ELb0EEEbEOT_RKT0_St17integral_constantIbLb1EEm
FNDA:0,_ZNSt10_HashtableIP7nnode_tS1_SaIS1_ENSt8__detail9_IdentityESt8equal_toIS1_ESt4hashIS1_ENS3_18_Mod_range_hashingENS3_20_Default_ranged_hashENS3_20_Prime_rehash_policyENS3_17_Hashtable_traitsILb0ELb1ELb1EEEE9_M_insertIRKS1_NS3_10_AllocNodeISaINS3_10_Hash_nodeIS1_Lb0EEEEEEEESt4pairINS3_14_Node_iteratorIS1_Lb1ELb0EEEbEOT_RKT0_St17integral_constantIbLb1EEm
FN:2024,_ZNSt10_HashtableIllSaIlENSt8__detail9_IdentityESt8equal_toIlESt4hashIlENS1_18_Mod_range_hashingENS1_20_Default_ranged_hashENS1_20_Prime_rehash_policyENS1_17_Hashtable_traitsILb0ELb1ELb1EEEE5clearEv
FNDA:0,_ZNSt10_HashtableIllSaIlENSt8__detail9_IdentityESt8equal_toIlESt4hashIlENS1_18_Mod_range_hashingENS1_20_Default_ranged_hashENS1_20_Prime_rehash_policyENS1_17_Hashtable_traitsILb0ELb1ELb1EEEE5clearEv
FN:2024,_ZNSt10_HashtableINSt7__cxx1112basic_stringIcSt11char_traitsIcESaIcEEESt4pairIKS5_S5_ESaIS8_ENSt8__detail10_Select1stESt8equal_toIS5_ESt4hashIS5_ENSA_18_Mod_range_hashingENSA_20_Default_ranged_hashENSA_20_Prime_rehash_policyENSA_17_Hashtable_traitsILb1ELb0ELb1EEEE5clearEv
FNDA:0,_ZNSt10_HashtableINSt7__cxx1112basic_stringIcSt11char_traitsIcESaIcEEESt4pairIKS5_S5_ESaIS8_ENSt8__detail10_Select1stESt8equal_toIS5_ESt4hashIS5_ENSA_18_Mod_range_hashingENSA_20_Default_ranged_hashENSA_20_Prime_rehash_policyENSA_17_Hashtable_traitsILb1ELb0ELb1EEEE5clearEv
FN:2024,_ZNSt10_HashtableIP7nnode_tS1_SaIS1_ENSt8__detail9_IdentityESt8equal_toIS1_ESt4hashIS1_ENS3_18_Mod_range_hashingENS3_20_Default_ranged_hashENS3_20_Prime_rehash_policyENS3_17_Hashtable_traitsILb0ELb1ELb1EEEE5clearEv
FNDA:0,_ZNSt10_HashtableIP7nnode_tS1_SaIS1_ENSt8__detail9_IdentityESt8equal_toIS1_ESt4hashIS1_ENS3_18_Mod_range_hashingENS3_20_Default_ranged_hashENS3_20_Prime_rehash_policyENS3_17_Hashtable_traitsILb0ELb1ELb1EEEE5clearEv
FN:2061,_ZNSt10_HashtableIP7nnode_tS1_SaIS1_ENSt8__detail9_IdentityESt8equal_toIS1_ESt4hashIS1_ENS3_18_Mod_range_hashingENS3_20_Default_ranged_hashENS3_20_Prime_rehash_policyENS3_17_Hashtable_traitsILb0ELb1ELb1EEEE9_M_rehashEmRKm
FNDA:0,_ZNSt10_HashtableIP7nnode_tS1_SaIS1_ENSt8__detail9_IdentityESt8equal_toIS1_ESt4hashIS1_ENS3_18_Mod_range_hashingENS3_20_Default_ranged_hashENS3_20_Prime_rehash_policyENS3_17_Hashtable_traitsILb0ELb1ELb1EEEE9_M_rehashEmRKm
FN:2061,_ZNSt10_HashtableINSt7__cxx1112basic_stringIcSt11char_traitsIcESaIcEEESt4pairIKS5_S5_ESaIS8_ENSt8__detail10_Select1stESt8equal_toIS5_ESt4hashIS5_ENSA_18_Mod_range_hashingENSA_20_Default_ranged_hashENSA_20_Prime_rehash_policyENSA_17_Hashtable_traitsILb1ELb0ELb1EEEE9_M_rehashEmRKm
FNDA:0,_ZNSt10_HashtableINSt7__cxx1112basic_stringIcSt11char_traitsIcESaIcEEESt4pairIKS5_S5_ESaIS8_ENSt8__detail10_Select1stESt8equal_toIS5_ESt4hashIS5_ENSA_18_Mod_range_hashingENSA_20_Default_ranged_hashENSA_20_Prime_rehash_policyENSA_17_Hashtable_traitsILb1ELb0ELb1EEEE9_M_rehashEmRKm
FN:2061,_ZNSt10_HashtableIllSaIlENSt8__detail9_IdentityESt8equal_toIlESt4hashIlENS1_18_Mod_range_hashingENS1_20_Default_ranged_hashENS1_20_Prime_rehash_policyENS1_17_Hashtable_traitsILb0ELb1ELb1EEEE9_M_rehashEmRKm
FNDA:0,_ZNSt10_HashtableIllSaIlENSt8__detail9_IdentityESt8equal_toIlESt4hashIlENS1_18_Mod_range_hashingENS1_20_Default_ranged_hashENS1_20_Prime_rehash_policyENS1_17_Hashtable_traitsILb0ELb1ELb1EEEE9_M_rehashEmRKm
FN:2084,_ZNSt10_HashtableIllSaIlENSt8__detail9_IdentityESt8equal_toIlESt4hashIlENS1_18_Mod_range_hashingENS1_20_Default_ranged_hashENS1_20_Prime_rehash_policyENS1_17_Hashtable_traitsILb0ELb1ELb1EEEE13_M_rehash_auxEmSt17integral_constantIbLb1EE
FNDA:0,_ZNSt10_HashtableIllSaIlENSt8__detail9_IdentityESt8equal_toIlESt4hashIlENS1_18_Mod_range_hashingENS1_20_Default_ranged_hashENS1_20_Prime_rehash_policyENS1_17_Hashtable_traitsILb0ELb1ELb1EEEE13_M_rehash_auxEmSt17integral_constantIbLb1EE
FN:2084,_ZNSt10_HashtableIP7nnode_tS1_SaIS1_ENSt8__detail9_IdentityESt8equal_toIS1_ESt4hashIS1_ENS3_18_Mod_range_hashingENS3_20_Default_ranged_hashENS3_20_Prime_rehash_policyENS3_17_Hashtable_traitsILb0ELb1ELb1EEEE13_M_rehash_auxEmSt17integral_constantIbLb1EE
FNDA:0,_ZNSt10_HashtableIP7nnode_tS1_SaIS1_ENSt8__detail9_IdentityESt8equal_toIS1_ESt4hashIS1_ENS3_18_Mod_range_hashingENS3_20_Default_ranged_hashENS3_20_Prime_rehash_policyENS3_17_Hashtable_traitsILb0ELb1ELb1EEEE13_M_rehash_auxEmSt17integral_constantIbLb1EE
FN:2084,_ZNSt10_HashtableINSt7__cxx1112basic_stringIcSt11char_traitsIcESaIcEEESt4pairIKS5_S5_ESaIS8_ENSt8__detail10_Select1stESt8equal_toIS5_ESt4hashIS5_ENSA_18_Mod_range_hashingENSA_20_Default_ranged_hashENSA_20_Prime_rehash_policyENSA_17_Hashtable_traitsILb1ELb0ELb1EEEE13_M_rehash_auxEmSt17integral_constantIbLb1EE
FNDA:0,_ZNSt10_HashtableINSt7__cxx1112basic_stringIcSt11char_traitsIcESaIcEEESt4pairIKS5_S5_ESaIS8_ENSt8__detail10_Select1stESt8equal_toIS5_ESt4hashIS5_ENSA_18_Mod_range_hashingENSA_20_Default_ranged_hashENSA_20_Prime_rehash_policyENSA_17_Hashtable_traitsILb1ELb0ELb1EEEE13_M_rehash_auxEmSt17integral_constantIbLb1EE
DA:342,0
DA:343,0
DA:353,0
DA:355,0
DA:357,0
DA:358,0
DA:361,0
DA:365,0
DA:367,0
DA:370,0
DA:374,0
DA:375,0
DA:383,0
DA:414,0
DA:512,0
DA:513,0
DA:639,0
DA:640,0
DA:643,0
DA:644,0
DA:652,0
DA:655,0
DA:656,0
DA:657,0
DA:1348,0
DA:1352,0
DA:1353,0
DA:1354,0
DA:1348,0
DA:1352,0
DA:1353,0
DA:1354,0
DA:1348,0
DA:1352,0
DA:1353,0
DA:1354,0
DA:1412,0
DA:1417,0
DA:1418,0
DA:1419,0
DA:1420,0
DA:1532,0
DA:1538,0
DA:1539,0
DA:1542,0
DA:1545,0
DA:1546,0
DA:1548,0
DA:1560,0
DA:1564,0
DA:1568,0
DA:1569,0
DA:1576,0
DA:1577,0
DA:1578,0
DA:1581,0
DA:1582,0
DA:1584,0
DA:1560,0
DA:1564,0
DA:1568,0
DA:1569,0
DA:1576,0
DA:1577,0
DA:1578,0
DA:1581,0
DA:1582,0
DA:1584,0
DA:1560,0
DA:1564,0
DA:1568,0
DA:1569,0
DA:1576,0
DA:1577,0
DA:1578,0
DA:1581,0
DA:1582,0
DA:1584,0
DA:1632,0
DA:1638,0
DA:1639,0
DA:1643,0
DA:1651,0
DA:1652,0
DA:1655,0
DA:1656,0
DA:1660,0
DA:1698,0
DA:1704,0
DA:1705,0
DA:1711,0
DA:1713,0
DA:1714,0
DA:1717,0
DA:1720,0
DA:1721,0
DA:1722,0
DA:1724,0
DA:1726,0
DA:1727,0
DA:1698,0
DA:1704,0
DA:1705,0
DA:1711,0
DA:1713,0
DA:1714,0
DA:1717,0
DA:1720,0
DA:1721,0
DA:1722,0
DA:1724,0
DA:1726,0
DA:1727,0
DA:1698,0
DA:1704,0
DA:1705,0
DA:1711,0
DA:1713,0
DA:1714,0
DA:1717,0
DA:1720,0
DA:1721,0
DA:1722,0
DA:1724,0
DA:1726,0
DA:1727,0
DA:1803,0
DA:1809,0
DA:1810,0
DA:1811,0
DA:1813,0
DA:1814,0
DA:1815,0
DA:1817,0
DA:1818,0
DA:1803,0
DA:1809,0
DA:1810,0
DA:1811,0
DA:1813,0
DA:1814,0
DA:1815,0
DA:1817,0
DA:1818,0
DA:2024,0
DA:2028,0
DA:2029,0
DA:2030,0
DA:2031,0
DA:2032,0
DA:2024,0
DA:2028,0
DA:2029,0
DA:2030,0
DA:2031,0
DA:2032,0
DA:2024,0
DA:2028,0
DA:2029,0
DA:2030,0
DA:2031,0
DA:2032,0
DA:2061,0
DA:2067,0
DA:2069,0
DA:2073,0
DA:2074,0
DA:2076,0
DA:2061,0
DA:2067,0
DA:2069,0
DA:2073,0
DA:2074,0
DA:2076,0
DA:2061,0
DA:2067,0
DA:2069,0
DA:2073,0
DA:2074,0
DA:2076,0
DA:2084,0
DA:2088,0
DA:2089,0
DA:2090,0
DA:2091,0
DA:2092,0
DA:2094,0
DA:2095,0
DA:2096,0
DA:2098,0
DA:2099,0
DA:2100,0
DA:2101,0
DA:2102,0
DA:2107,0
DA:2108,0
DA:2113,0
DA:2114,0
DA:2115,0
DA:2116,0
DA:2084,0
DA:2088,0
DA:2089,0
DA:2090,0
DA:2091,0
DA:2092,0
DA:2094,0
DA:2095,0
DA:2096,0
DA:2098,0
DA:2099,0
DA:2100,0
DA:2101,0
DA:2102,0
DA:2107,0
DA:2108,0
DA:2113,0
DA:2114,0
DA:2115,0
DA:2116,0
DA:2084,0
DA:2088,0
DA:2089,0
DA:2090,0
DA:2091,0
DA:2092,0
DA:2094,0
DA:2095,0
DA:2096,0
DA:2098,0
DA:2099,0
DA:2100,0
DA:2101,0
DA:2102,0
DA:2107,0
DA:2108,0
DA:2113,0
DA:2114,0
DA:2115,0
DA:2116,0
end_of_record
SF:/usr/include/c++/9/bits/ios_base.h
FN:1023,_ZSt3decRSt8ios_base
FNDA:0,_ZSt3decRSt8ios_base
FN:1031,_ZSt3hexRSt8ios_base
FNDA:0,_ZSt3hexRSt8ios_base
DA:83,0
DA:84,0
DA:87,0
DA:88,0
DA:95,0
DA:96,0
DA:99,0
DA:100,0
DA:103,0
DA:104,0
DA:670,0
DA:672,0
DA:673,0
DA:674,0
DA:675,0
DA:1023,0
DA:1025,0
DA:1026,0
DA:1031,0
DA:1033,0
DA:1034,0
end_of_record
SF:/usr/include/c++/9/bits/invoke.h
DA:59,0
DA:60,0
DA:89,0
DA:95,0
end_of_record
SF:/usr/include/c++/9/bits/stl_pair.h
FN:304,_ZNSt4pairIKNSt7__cxx1112basic_stringIcSt11char_traitsIcESaIcEEES5_EC2EOS7_
FNDA:0,_ZNSt4pairIKNSt7__cxx1112basic_stringIcSt11char_traitsIcESaIcEEES5_EC2EOS7_
FN:341,_ZNSt4pairIKNSt7__cxx1112basic_stringIcSt11char_traitsIcESaIcEEES5_EC2IRPcSA_Lb1EEEOT_OT0_
FNDA:0,_ZNSt4pairIKNSt7__cxx1112basic_stringIcSt11char_traitsIcESaIcEEES5_EC2IRPcSA_Lb1EEEOT_OT0_
DA:304,0
DA:341,0
DA:342,0
DA:524,0
DA:529,0
end_of_record
SF:/usr/include/c++/9/bits/functional_hash.h
DA:109,0
DA:110,0
DA:156,0
DA:195,0
DA:197,0
end_of_record
SF:/usr/include/c++/9/ext/atomicity.h
DA:48,0
DA:49,0
DA:65,0
DA:67,0
DA:68,0
DA:69,0
DA:78,0
DA:81,0
DA:82,0
DA:84,0
end_of_record
SF:/usr/include/c++/9/bits/stl_deque.h
FN:678,_ZNSt11_Deque_baseIP7nnode_tSaIS1_EED2Ev
FNDA:0,_ZNSt11_Deque_baseIP7nnode_tSaIS1_EED2Ev
FN:699,_ZNSt11_Deque_baseIP7nnode_tSaIS1_EE17_M_initialize_mapEm
FNDA:0,_ZNSt11_Deque_baseIP7nnode_tSaIS1_EE17_M_initialize_mapEm
FN:738,_ZNSt11_Deque_baseIP7nnode_tSaIS1_EE15_M_create_nodesEPPS1_S5_
FNDA:0,_ZNSt11_Deque_baseIP7nnode_tSaIS1_EE15_M_create_nodesEPPS1_S5_
FN:1605,_ZNSt5dequeIP7nnode_tSaIS1_EE9pop_frontEv
FNDA:0,_ZNSt5dequeIP7nnode_tSaIS1_EE9pop_frontEv
FN:2194,_ZNSt5dequeIP7nnode_tSaIS1_EE22_M_reserve_map_at_backEm
FNDA:0,_ZNSt5dequeIP7nnode_tSaIS1_EE22_M_reserve_map_at_backEm
DA:130,0
DA:150,0
DA:151,0
DA:167,0
DA:168,0
DA:169,0
DA:179,0
DA:273,0
DA:275,0
DA:276,0
DA:277,0
DA:286,0
DA:370,0
DA:375,0
DA:376,0
DA:508,0
DA:509,0
DA:510,0
DA:567,0
DA:575,0
DA:577,0
DA:605,0
DA:606,0
DA:609,0
DA:610,0
DA:613,0
DA:614,0
DA:617,0
DA:620,0
DA:624,0
DA:627,0
DA:631,0
DA:633,0
DA:634,0
DA:638,0
DA:640,0
DA:641,0
DA:642,0
DA:678,0
DA:681,0
DA:683,0
DA:684,0
DA:685,0
DA:687,0
DA:699,0
DA:702,0
DA:705,0
DA:706,0
DA:707,0
DA:714,0
DA:715,0
DA:716,0
DA:719,0
DA:720,0
DA:722,0
DA:723,0
DA:724,0
DA:725,0
DA:728,0
DA:729,0
DA:730,0
DA:731,0
DA:732,0
DA:733,0
DA:734,0
DA:738,0
DA:744,0
DA:745,0
DA:747,0
DA:749,0
DA:750,0
DA:752,0
DA:756,0
DA:760,0
DA:761,0
DA:915,0
DA:1071,0
DA:1072,0
DA:1193,0
DA:1194,0
DA:1210,0
DA:1211,0
DA:1298,0
DA:1299,0
DA:1303,0
DA:1304,0
DA:1384,0
DA:1385,0
DA:1478,0
DA:1481,0
DA:1569,0
DA:1571,0
DA:1572,0
DA:1574,0
DA:1576,0
DA:1579,0
DA:1605,0
DA:1608,0
DA:1609,0
DA:1611,0
DA:1613,0
DA:1616,0
DA:1617,0
DA:1896,0
DA:1899,0
DA:1900,0
DA:2113,0
DA:2194,0
DA:2196,0
DA:2197,0
DA:2198,0
DA:2199,0
end_of_record
SF:/usr/include/c++/9/iostream
end_of_record
SF:/usr/include/c++/9/ext/aligned_buffer.h
DA:102,0
DA:104,0
DA:108,0
DA:110,0
DA:114,0
DA:115,0
DA:118,0
DA:119,0
end_of_record
SF:/usr/include/c++/9/ext/new_allocator.h
DA:80,0
DA:83,0
DA:89,0
DA:102,0
DA:104,0
DA:105,0
DA:114,0
DA:119,0
DA:128,0
DA:132,0
DA:144,0
DA:147,0
DA:151,0
DA:153,0
end_of_record
SF:/usr/include/x86_64-linux-gnu/bits/stdio2.h
DA:64,0
DA:67,0
DA:98,0
DA:100,0
DA:105,0
DA:107,0
DA:255,0
DA:257,0
DA:259,0
DA:262,0
DA:263,0
DA:265,0
end_of_record
SF:/usr/include/c++/9/bits/hashtable_policy.h
DA:84,0
DA:85,0
DA:92,0
DA:94,0
DA:161,0
DA:162,0
DA:166,0
DA:167,0
DA:218,0
DA:229,0
DA:236,0
DA:237,0
DA:240,0
DA:241,0
DA:244,0
DA:245,0
DA:248,0
DA:249,0
DA:269,0
DA:279,0
DA:282,0
DA:294,0
DA:295,0
DA:304,0
DA:311,0
DA:314,0
DA:340,0
DA:341,0
DA:384,0
DA:385,0
DA:391,0
DA:393,0
DA:400,0
DA:401,0
DA:431,0
DA:433,0
DA:449,0
DA:450,0
DA:476,0
DA:477,0
DA:484,0
DA:485,0
DA:805,0
DA:820,0
DA:822,0
DA:823,0
DA:824,0
DA:1002,0
DA:1004,0
DA:1005,0
DA:1093,0
DA:1096,0
DA:1104,0
DA:1108,0
DA:1288,0
DA:1292,0
DA:1296,0
DA:1297,0
DA:1300,0
DA:1304,0
DA:1307,0
DA:1323,0
DA:1326,0
DA:1329,0
DA:1335,0
DA:1380,0
DA:1384,0
DA:1388,0
DA:1390,0
DA:1393,0
DA:1396,0
DA:1399,0
DA:1400,0
DA:1415,0
DA:1418,0
DA:1421,0
DA:1427,0
DA:1448,0
DA:1450,0
DA:1829,0
DA:1834,0
DA:1846,0
DA:2017,0
DA:2036,0
DA:2046,0
DA:2047,0
DA:2079,0
DA:2081,0
DA:2082,0
DA:2085,0
DA:2086,0
DA:2100,0
DA:2102,0
DA:2103,0
DA:2104,0
DA:2108,0
DA:2111,0
DA:2112,0
DA:2113,0
DA:2118,0
DA:2120,0
DA:2122,0
DA:2123,0
DA:2124,0
DA:2142,0
DA:2146,0
DA:2147,0
DA:2148,0
DA:2149,0
end_of_record
SF:/usr/include/c++/9/bits/allocated_ptr.h
DA:52,0
DA:53,0
DA:70,0
DA:73,0
DA:78,0
DA:80,0
DA:85,0
DA:95,0
DA:97,0
end_of_record
SF:/usr/include/c++/9/utility
DA:174,0
DA:175,0
DA:219,0
DA:220,0
end_of_record
SF:/usr/include/c++/9/bits/stl_uninitialized.h
FN:76,_ZNSt20__uninitialized_copyILb0EE13__uninit_copyIN9__gnu_cxx17__normal_iteratorIPKNSt7__cxx1112basic_stringIcSt11char_traitsIcESaIcEEESt6vectorIS9_SaIS9_EEEEPS9_EET0_T_SI_SH_
FNDA:0,_ZNSt20__uninitialized_copyILb0EE13__uninit_copyIN9__gnu_cxx17__normal_iteratorIPKNSt7__cxx1112basic_stringIcSt11char_traitsIcESaIcEEESt6vectorIS9_SaIS9_EEEEPS9_EET0_T_SI_SH_
FN:215,_ZNSt22__uninitialized_fill_nILb0EE15__uninit_fill_nIPSt6vectorIaSaIaEEmS4_EET_S6_T0_RKT1_
FNDA:0,_ZNSt22__uninitialized_fill_nILb0EE15__uninit_fill_nIPSt6vectorIaSaIaEEmS4_EET_S6_T0_RKT1_
DA:76,0
DA:79,0
DA:82,0
DA:83,0
DA:84,0
DA:86,0
DA:88,0
DA:89,0
DA:99,0
DA:101,0
DA:115,0
DA:134,0
DA:140,0
DA:215,0
DA:218,0
DA:221,0
DA:222,0
DA:223,0
DA:225,0
DA:227,0
DA:228,0
DA:238,0
DA:240,0
DA:256,0
DA:270,0
DA:273,0
DA:305,0
DA:307,0
DA:382,0
DA:384,0
DA:905,0
DA:912,0
DA:913,0
DA:949,0
DA:950,0
DA:964,0
end_of_record
SF:/usr/include/c++/9/bits/unordered_set.h
DA:97,0
DA:135,0
DA:333,0
DA:334,0
DA:420,0
DA:421,0
DA:572,0
DA:573,0
DA:649,0
DA:650,0
end_of_record
SF:/usr/include/c++/9/thread
FN:117,_ZNSt6threadC2IRFviiiP8stages_tiEJRiS5_S5_RS2_S5_EvEEOT_DpOT0_
FNDA:0,_ZNSt6threadC2IRFviiiP8stages_tiEJRiS5_S5_RS2_S5_EvEEOT_DpOT0_
FN:195,_ZNSt6thread11_State_implINS_8_InvokerISt5tupleIJPFviiiP8stages_tiEiiiS4_iEEEEE6_M_runEv
FNDA:0,_ZNSt6thread11_State_implINS_8_InvokerISt5tupleIJPFviiiP8stages_tiEiiiS4_iEEEEE6_M_runEv
FN:203,_ZNSt6thread13_S_make_stateINS_8_InvokerISt5tupleIJPFviiiP8stages_tiEiiiS4_iEEEEEESt10unique_ptrINS_6_StateESt14default_deleteISA_EEOT_
FNDA:0,_ZNSt6thread13_S_make_stateINS_8_InvokerISt5tupleIJPFviiiP8stages_tiEiiiS4_iEEEEEESt10unique_ptrINS_6_StateESt14default_deleteISA_EEOT_
DA:67,0
DA:82,0
DA:117,0
DA:118,0
DA:126,0
DA:130,0
DA:134,0
DA:136,0
DA:137,0
DA:138,0
DA:139,0
DA:144,0
DA:145,0
DA:158,0
DA:159,0
DA:162,0
DA:163,0
DA:191,0
DA:195,0
DA:203,0
DA:206,0
DA:230,0
DA:243,0
DA:244,0
DA:247,0
DA:251,0
DA:263,0
DA:267,0
DA:276,0
DA:282,0
DA:353,0
DA:356,0
DA:358,0
end_of_record
SF:/usr/include/c++/9/bits/char_traits.h
DA:299,0
DA:300,0
DA:315,0
DA:317,0
DA:325,0
DA:361,0
DA:363,0
DA:365,0
end_of_record
SF:/usr/include/c++/9/bits/basic_string.tcc
FN:206,_ZNSt7__cxx1112basic_stringIcSt11char_traitsIcESaIcEE12_M_constructIPcEEvT_S7_St20forward_iterator_tag
FNDA:0,_ZNSt7__cxx1112basic_stringIcSt11char_traitsIcESaIcEE12_M_constructIPcEEvT_S7_St20forward_iterator_tag
FN:206,_ZNSt7__cxx1112basic_stringIcSt11char_traitsIcESaIcEE12_M_constructIPKcEEvT_S8_St20forward_iterator_tag
FNDA:0,_ZNSt7__cxx1112basic_stringIcSt11char_traitsIcESaIcEE12_M_constructIPKcEEvT_S8_St20forward_iterator_tag
DA:206,0
DA:211,0
DA:212,0
DA:215,0
DA:217,0
DA:219,0
DA:220,0
DA:225,0
DA:232,0
DA:233,0
DA:206,0
DA:211,0
DA:212,0
DA:215,0
DA:217,0
DA:219,0
DA:220,0
DA:225,0
DA:232,0
DA:233,0
end_of_record
SF:/usr/include/c++/9/bits/shared_ptr.h
DA:103,0
DA:333,0
DA:335,0
DA:358,0
DA:359,0
DA:388,0
DA:389,0
DA:699,0
DA:702,0
DA:714,0
DA:718,0
end_of_record
SF:/usr/include/c++/9/streambuf
end_of_record
SF:/usr/include/c++/9/bits/deque.tcc
FN:479,_ZNSt5dequeIP7nnode_tSaIS1_EE16_M_push_back_auxIJRKS1_EEEvDpOT_
FNDA:0,_ZNSt5dequeIP7nnode_tSaIS1_EE16_M_push_back_auxIJRKS1_EEEvDpOT_
FN:926,_ZNSt5dequeIP7nnode_tSaIS1_EE17_M_reallocate_mapEmb
FNDA:0,_ZNSt5dequeIP7nnode_tSaIS1_EE17_M_reallocate_mapEmb
DA:479,0
DA:487,0
DA:488,0
DA:491,0
DA:492,0
DA:496,0
DA:502,0
DA:504,0
DA:511,0
DA:571,0
DA:574,0
DA:576,0
DA:577,0
DA:578,0
DA:579,0
DA:926,0
DA:929,0
DA:930,0
DA:931,0
DA:934,0
DA:936,0
DA:937,0
DA:938,0
DA:939,0
DA:940,0
DA:944,0
DA:950,0
DA:951,0
DA:954,0
DA:955,0
DA:956,0
DA:957,0
DA:958,0
DA:960,0
DA:962,0
DA:963,0
DA:966,0
DA:967,0
DA:968,0
end_of_record
SF:/usr/include/c++/9/bits/basic_string.h
FN:6149,_ZSteqIcEN9__gnu_cxx11__enable_ifIXsrSt9__is_charIT_E7__valueEbE6__typeERKNSt7__cxx1112basic_stringIS3_St11char_traitsIS3_ESaIS3_EEESE_
FNDA:0,_ZSteqIcEN9__gnu_cxx11__enable_ifIXsrSt9__is_charIT_E7__valueEbE6__typeERKNSt7__cxx1112basic_stringIS3_St11char_traitsIS3_ESaIS3_EEESE_
DA:150,0
DA:159,0
DA:160,0
DA:178,0
DA:179,0
DA:182,0
DA:183,0
DA:186,0
DA:190,0
DA:193,0
DA:200,0
DA:203,0
DA:210,0
DA:211,0
DA:214,0
DA:216,0
DA:217,0
DA:221,0
DA:222,0
DA:229,0
DA:231,0
DA:232,0
DA:236,0
DA:237,0
DA:243,0
DA:247,0
DA:263,0
DA:266,0
DA:286,0
DA:287,0
DA:290,0
DA:291,0
DA:346,0
DA:348,0
DA:349,0
DA:351,0
DA:392,0
DA:393,0
DA:396,0
DA:398,0
DA:431,0
DA:433,0
DA:434,0
DA:448,0
DA:450,0
DA:451,0
DA:552,0
DA:553,0
DA:555,0
DA:557,0
DA:562,0
DA:563,0
DA:569,0
DA:570,0
DA:571,0
DA:657,0
DA:658,0
DA:665,0
DA:696,0
DA:826,0
DA:827,0
DA:842,0
DA:843,0
DA:930,0
DA:936,0
DA:1364,0
DA:1366,0
DA:2300,0
DA:2301,0
DA:2312,0
DA:2313,0
DA:2361,0
DA:2363,0
DA:6149,0
DA:6151,0
DA:6152,0
DA:6153,0
DA:6175,0
DA:6177,0
DA:6734,0
DA:6735,0
end_of_record
SF:/usr/include/c++/9/bits/stl_algo.h
DA:4326,0
DA:4336,0
DA:4337,0
end_of_record
SF:/usr/include/c++/9/bits/stl_construct.h
DA:74,0
DA:75,0
DA:97,0
DA:98,0
DA:105,0
DA:107,0
DA:108,0
DA:117,0
DA:127,0
DA:137,0
DA:203,0
DA:206,0
end_of_record
SF:/usr/include/c++/9/bits/alloc_traits.h
DA:443,0
DA:444,0
DA:469,0
DA:470,0
DA:482,0
DA:484,0
DA:495,0
DA:497,0
DA:505,0
DA:506,0
DA:514,0
DA:515,0
end_of_record
SF:/usr/include/c++/9/ext/type_traits.h
DA:152,0
end_of_record
SF:/usr/include/c++/9/typeinfo
DA:120,0
DA:122,0
DA:123,0
DA:124,0
end_of_record
SF:/workspace/vtr-verilog-to-routing/libs/EXTERNAL/libargparse/src/argparse_value.hpp
DA:50,0
DA:53,0
DA:56,0
end_of_record
SF:/usr/include/c++/9/bits/stl_iterator_base_funcs.h
DA:98,0
DA:104,0
DA:138,0
DA:141,0
end_of_record
SF:/usr/include/c++/9/bits/unordered_map.h
DA:102,0
DA:141,0
DA:346,0
DA:347,0
DA:585,0
DA:586,0
DA:920,0
DA:921,0
end_of_record
SF:/usr/include/c++/9/bits/vector.tcc
FN:109,_ZNSt6vectorISt6threadSaIS0_EE12emplace_backIJS0_EEEvDpOT_
FNDA:0,_ZNSt6vectorISt6threadSaIS0_EE12emplace_backIJS0_EEEvDpOT_
FN:198,_ZNSt6vectorIaSaIaEEaSERKS1_
FNDA:0,_ZNSt6vectorIaSaIaEEaSERKS1_
FN:426,_ZNSt6vectorISt6threadSaIS0_EE17_M_realloc_insertIJS0_EEEvN9__gnu_cxx17__normal_iteratorIPS0_S2_EEDpOT_
FNDA:0,_ZNSt6vectorISt6threadSaIS0_EE17_M_realloc_insertIJS0_EEEvN9__gnu_cxx17__normal_iteratorIPS0_S2_EEDpOT_
DA:109,0
DA:112,0
DA:115,0
DA:117,0
DA:121,0
DA:125,0
DA:198,0
DA:201,0
DA:223,0
DA:224,0
DA:226,0
DA:228,0
DA:229,0
DA:230,0
DA:231,0
DA:232,0
DA:233,0
DA:234,0
DA:236,0
DA:238,0
DA:239,0
DA:243,0
DA:245,0
DA:246,0
DA:248,0
DA:250,0
DA:252,0
DA:426,0
DA:435,0
DA:437,0
DA:438,0
DA:439,0
DA:440,0
DA:441,0
DA:449,0
DA:450,0
DA:456,0
DA:461,0
DA:462,0
DA:464,0
DA:466,0
DA:467,0
DA:500,0
DA:501,0
DA:502,0
DA:503,0
DA:504,0
DA:505,0
end_of_record
SF:/usr/include/c++/9/new
DA:173,0
DA:174,0
end_of_record
SF:/workspace/vtr-verilog-to-routing/ODIN_II/SRC/include/AtomicBuffer.hpp
FN:28,_ZN12AtomicBuffer7lock_itEv
FNDA:0,_ZN12AtomicBuffer7lock_itEv
FN:90,_ZN12AtomicBufferC2Ea
FNDA:0,_ZN12AtomicBufferC2Ea
FN:104,_ZN12AtomicBuffer15init_all_valuesEa
FNDA:0,_ZN12AtomicBuffer15init_all_valuesEa
FN:135,_ZN12AtomicBuffer9get_cycleEv
FNDA:0,_ZN12AtomicBuffer9get_cycleEv
FN:148,_ZN12AtomicBuffer9get_valueEl
FNDA:0,_ZN12AtomicBuffer9get_valueEl
FN:155,_ZN12AtomicBuffer12update_valueEal
FNDA:0,_ZN12AtomicBuffer12update_valueEal
DA:28,0
DA:29,0
DA:30,0
DA:31,0
DA:33,0
DA:35,0
DA:36,0
DA:37,0
DA:42,0
DA:43,0
DA:46,0
DA:47,0
DA:48,0
DA:49,0
DA:50,0
DA:51,0
DA:52,0
DA:53,0
DA:54,0
DA:55,0
DA:56,0
DA:57,0
DA:58,0
DA:64,0
DA:65,0
DA:66,0
DA:67,0
DA:69,0
DA:71,0
DA:72,0
DA:73,0
DA:74,0
DA:75,0
DA:76,0
DA:77,0
DA:78,0
DA:79,0
DA:80,0
DA:81,0
DA:82,0
DA:83,0
DA:90,0
DA:91,0
DA:92,0
DA:93,0
DA:94,0
DA:104,0
DA:105,0
DA:106,0
DA:107,0
DA:108,0
DA:110,0
DA:111,0
DA:114,0
DA:116,0
DA:117,0
DA:119,0
DA:120,0
DA:123,0
DA:124,0
DA:125,0
DA:126,0
DA:135,0
DA:136,0
DA:137,0
DA:138,0
DA:139,0
DA:148,0
DA:149,0
DA:150,0
DA:151,0
DA:152,0
DA:155,0
DA:156,0
DA:157,0
DA:158,0
DA:159,0
end_of_record
SF:/usr/include/c++/9/bits/atomic_base.h
DA:120,0
DA:121,0
DA:288,0
DA:290,0
DA:390,0
DA:392,0
DA:397,0
DA:433,0
DA:436,0
end_of_record
SF:/usr/include/c++/9/bits/stl_vector.h
FN:519,_ZNSt6vectorIS_IaSaIaEESaIS1_EEC2EmRKS1_RKS2_
FNDA:0,_ZNSt6vectorIS_IaSaIaEESaIS1_EEC2EmRKS1_RKS2_
FN:519,_ZNSt6vectorIaSaIaEEC2EmRKaRKS0_
FNDA:0,_ZNSt6vectorIaSaIaEEC2EmRKaRKS0_
FN:550,_ZNSt6vectorIaSaIaEEC2ERKS1_
FNDA:0,_ZNSt6vectorIaSaIaEEC2ERKS1_
FN:550,_ZNSt6vectorINSt7__cxx1112basic_stringIcSt11char_traitsIcESaIcEEESaIS5_EEC2ERKS7_
FNDA:0,_ZNSt6vectorINSt7__cxx1112basic_stringIcSt11char_traitsIcESaIcEEESaIS5_EEC2ERKS7_
FN:675,_ZNSt6vectorINSt7__cxx1112basic_stringIcSt11char_traitsIcESaIcEEESaIS5_EED2Ev
FNDA:0,_ZNSt6vectorINSt7__cxx1112basic_stringIcSt11char_traitsIcESaIcEEESaIS5_EED2Ev
FN:675,_ZNSt6vectorIS_IaSaIaEESaIS1_EED2Ev
FNDA:0,_ZNSt6vectorIS_IaSaIaEESaIS1_EED2Ev
FN:675,_ZNSt6vectorISt6threadSaIS0_EED2Ev
FNDA:0,_ZNSt6vectorISt6threadSaIS0_EED2Ev
FN:1753,_ZNKSt6vectorISt6threadSaIS0_EE12_M_check_lenEmPKc
FNDA:0,_ZNKSt6vectorISt6threadSaIS0_EE12_M_check_lenEmPKc
DA:94,0
DA:95,0
DA:125,0
DA:128,0
DA:130,0
DA:133,0
DA:134,0
DA:273,0
DA:274,0
DA:277,0
DA:278,0
DA:285,0
DA:300,0
DA:301,0
DA:302,0
DA:330,0
DA:332,0
DA:333,0
DA:334,0
DA:347,0
DA:350,0
DA:351,0
DA:356,0
DA:358,0
DA:359,0
DA:360,0
DA:453,0
DA:462,0
DA:466,0
DA:484,0
DA:519,0
DA:521,0
DA:522,0
DA:519,0
DA:521,0
DA:522,0
DA:550,0
DA:552,0
DA:554,0
DA:555,0
DA:557,0
DA:558,0
DA:550,0
DA:552,0
DA:554,0
DA:555,0
DA:557,0
DA:558,0
DA:675,0
DA:677,0
DA:678,0
DA:680,0
DA:675,0
DA:677,0
DA:678,0
DA:680,0
DA:675,0
DA:677,0
DA:678,0
DA:680,0
DA:675,0
DA:677,0
DA:678,0
DA:680,0
DA:706,0
DA:708,0
DA:711,0
DA:808,0
DA:809,0
DA:817,0
DA:818,0
DA:826,0
DA:827,0
DA:835,0
DA:836,0
DA:915,0
DA:916,0
DA:920,0
DA:921,0
DA:995,0
DA:997,0
DA:1004,0
DA:1005,0
DA:1040,0
DA:1043,0
DA:1200,0
DA:1201,0
DA:1590,0
DA:1592,0
DA:1593,0
DA:1594,0
DA:1753,0
DA:1755,0
DA:1756,0
DA:1758,0
DA:1759,0
DA:1764,0
DA:1766,0
DA:1767,0
DA:1773,0
DA:1780,0
DA:1781,0
end_of_record
SF:/usr/include/c++/9/bits/move.h
DA:47,0
DA:74,0
DA:99,0
DA:138,0
DA:139,0
DA:182,0
DA:193,0
DA:194,0
DA:195,0
end_of_record
SF:/usr/include/c++/9/bits/unique_ptr.h
DA:75,0
DA:81,0
DA:82,0
DA:147,0
DA:153,0
DA:155,0
DA:211,0
DA:212,0
DA:286,0
DA:290,0
DA:291,0
DA:292,0
DA:365,0
DA:366,0
end_of_record
SF:/usr/include/c++/9/bits/stl_queue.h
DA:96,0
DA:160,0
DA:161,0
DA:197,0
DA:198,0
DA:210,0
DA:213,0
DA:259,0
DA:260,0
DA:292,0
DA:295,0
end_of_record
SF:/workspace/vtr-verilog-to-routing/ODIN_II/SRC/simulate_blif.cpp
FN:55,_ZL13get_edge_typeP6npin_ti
FNDA:0,_ZL13get_edge_typeP6npin_ti
FN:68,_ZL10ff_trigger11edge_type_eP6npin_ti
FNDA:0,_ZL10ff_trigger11edge_type_eP6npin_ti
FN:98,_ZL10compute_ffbP6npin_tS0_i
FNDA:0,_ZL10compute_ffbP6npin_tS0_i
FN:102,_ZL13is_clock_nodeP7nnode_t
FNDA:0,_ZL13is_clock_nodeP7nnode_t
FN:197,_Z16simulate_netlistP9netlist_t
FNDA:0,_Z16simulate_netlistP9netlist_t
FN:236,_Z15init_simulationP9netlist_t
FNDA:0,_Z15init_simulationP9netlist_t
FN:334,_Z20terminate_simulationP10sim_data_t
FNDA:0,_Z20terminate_simulationP10sim_data_t
FN:353,_Z14simulate_stepsP10sim_data_td
FNDA:0,_Z14simulate_stepsP10sim_data_td
FN:414,_Z11single_stepP10sim_data_ti
FNDA:0,_Z11single_stepP10sim_data_ti
FN:467,_ZL22compute_and_store_partiiiP8stages_ti
FNDA:0,_ZL22compute_and_store_partiiiP8stages_ti
FN:473,_ZL14simulate_cycleiP8stages_t
FNDA:0,_ZL14simulate_cycleiP8stages_t
FN:516,_ZL26update_undriven_input_pinsP7nnode_ti
FNDA:0,_ZL26update_undriven_input_pinsP7nnode_ti
FN:542,_ZL13is_node_readyP7nnode_ti
FNDA:0,_ZL13is_node_readyP7nnode_ti
FN:608,_ZL20simulate_first_cycleP9netlist_tiP7lines_t
FNDA:0,_ZL20simulate_first_cycleP9netlist_tiP7lines_t
FN:670,_ZL19stage_ordered_nodesPP7nnode_ti
FNDA:0,_ZL19stage_ordered_nodesPP7nnode_ti
FN:749,_ZL23compute_and_store_valueP7nnode_ti
FNDA:0,_ZL23compute_and_store_valueP7nnode_ti
FN:1135,_ZL21get_num_covered_nodesP8stages_t
FNDA:0,_ZL21get_num_covered_nodesP8stages_t
FN:1159,_Z15set_clock_ratioiP7nnode_t
FNDA:0,_Z15set_clock_ratioiP7nnode_t
FN:1170,_Z15get_clock_ratioP7nnode_t
FNDA:0,_Z15get_clock_ratioP7nnode_t
FN:1183,_Z15get_children_ofP7nnode_tPi
FNDA:0,_Z15get_children_ofP7nnode_tPi
FN:1253,_Z23get_children_of_nodepinP7nnode_tPii
FNDA:0,_Z23get_children_of_nodepinP7nnode_tPii
FN:1332,_ZL14initialize_pinP6npin_t
FNDA:0,_ZL14initialize_pinP6npin_t
FN:1362,_ZL16update_pin_valueP6npin_tai
FNDA:0,_ZL16update_pin_valueP6npin_tai
FN:1374,_Z13get_pin_valueP6npin_ti
FNDA:0,_Z13get_pin_valueP6npin_ti
FN:1389,_ZL13get_pin_cycleP6npin_t
FNDA:0,_ZL13get_pin_cycleP6npin_t
FN:1399,_ZL21compute_flipflop_nodeP7nnode_ti
FNDA:0,_ZL21compute_flipflop_nodeP7nnode_ti
FN:1415,_ZL18compute_mux_2_nodeP7nnode_ti
FNDA:0,_ZL18compute_mux_2_nodeP7nnode_ti
FN:1479,_ZL20compute_hard_ip_nodeP7nnode_ti
FNDA:0,_ZL20compute_hard_ip_nodeP7nnode_ti
FN:1539,_ZL21compute_multiply_nodeP7nnode_ti
FNDA:0,_ZL21compute_multiply_nodeP7nnode_ti
FN:1578,_ZL20compute_generic_nodeP7nnode_ti
FNDA:0,_ZL20compute_generic_nodeP7nnode_ti
FN:1623,_ZL15multiply_arraysPiiS_i
FNDA:0,_ZL15multiply_arraysPiiS_i
FN:1763,_ZL22compute_unary_sub_nodeP7nnode_ti
FNDA:0,_ZL22compute_unary_sub_nodeP7nnode_ti
FN:1838,_ZL19compute_memory_nodeP7nnode_ti
FNDA:0,_ZL19compute_memory_nodeP7nnode_ti
FN:1864,_ZL20read_write_to_memoryP7nnode_tP13signal_list_tS2_S2_bP6npin_ti
FNDA:0,_ZL20read_write_to_memoryP7nnode_tP13signal_list_tS2_S2_bP6npin_ti
FN:1898,_ZL26compute_single_port_memoryP7nnode_ti
FNDA:0,_ZL26compute_single_port_memoryP7nnode_ti
FN:1914,_ZL24compute_dual_port_memoryP7nnode_ti
FNDA:0,_ZL24compute_dual_port_memoryP7nnode_ti
FN:1933,_ZL18instantiate_memoryP7nnode_tll
FNDA:0,_ZL18instantiate_memoryP7nnode_tll
FN:1949,_ZL15parse_mif_radixNSt7__cxx1112basic_stringIcSt11char_traitsIcESaIcEEE
FNDA:0,_ZL15parse_mif_radixNSt7__cxx1112basic_stringIcSt11char_traitsIcESaIcEEE
FN:1953,_ZL27assign_memory_from_mif_fileP7nnode_tP8_IO_FILEPcil
FNDA:0,_ZL27assign_memory_from_mif_fileP7nnode_tP8_IO_FILEPcil
FN:2092,_ZL19assign_node_to_lineP7nnode_tP7lines_tii
FNDA:0,_ZL19assign_node_to_lineP7nnode_tP7lines_tii
FN:2135,_ZL20insert_pin_into_lineP6npin_tiP6line_ti
FNDA:0,_ZL20insert_pin_into_lineP6npin_tiP6line_ti
FN:2166,_ZL12create_linesP9netlist_ti
FNDA:0,_ZL12create_linesP9netlist_ti
FN:2201,_ZL20write_vector_headersP8_IO_FILEP7lines_t
FNDA:0,_ZL20write_vector_headersP8_IO_FILEP7lines_t
FN:2214,_ZL26verify_test_vector_headersP8_IO_FILEP7lines_t
FNDA:0,_ZL26verify_test_vector_headersP8_IO_FILEP7lines_t
FN:2294,_ZL11create_linePc
FNDA:0,_ZL11create_linePc
FN:2362,_ZL20compare_test_vectorsP11test_vectorS0_
FNDA:0,_ZL20compare_test_vectorsP11test_vectorS0_
FN:2401,_ZL17parse_test_vectorPc
FNDA:0,_ZL17parse_test_vectorPc
FN:2463,_ZL25contains_a_substr_of_nameSt6vectorINSt7__cxx1112basic_stringIcSt11char_traitsIcESaIcEEESaIS5_EEPKc
FNDA:0,_ZL25contains_a_substr_of_nameSt6vectorINSt7__cxx1112basic_stringIcSt11char_traitsIcESaIcEEESaIS5_EEPKc
FN:2561,_ZL19write_cycle_to_fileP7lines_tP8_IO_FILEi
FNDA:0,_ZL19write_cycle_to_fileP7lines_tP8_IO_FILEi
FN:2692,_ZL21verify_output_vectorsPKci
FNDA:0,_ZL21verify_output_vectorsPKci
FN:2788,_ZL29add_additional_items_to_linesP7nnode_tP7lines_t
FNDA:0,_ZL29add_additional_items_to_linesP7nnode_tP7lines_t
FN:2895,_Z18get_line_pin_valueP6line_tii
FNDA:0,_Z18get_line_pin_valueP6line_tii
FN:2902,_ZL18count_test_vectorsP8_IO_FILE
FNDA:0,_ZL18count_test_vectorsP8_IO_FILE
FN:2921,_ZL24count_empty_test_vectorsP8_IO_FILE
FNDA:0,_ZL24count_empty_test_vectorsP8_IO_FILE
FN:2942,_ZL9is_vectorPc
FNDA:0,_ZL9is_vectorPc
FN:2961,_ZL15get_next_vectorP8_IO_FILEPc
FNDA:0,_ZL15get_next_vectorP8_IO_FILEPc
FN:2977,_ZL10free_linesP7lines_t
FNDA:0,_ZL10free_linesP7lines_t
FN:3001,_ZL11free_stagesP8stages_t
FNDA:0,_ZL11free_stagesP8stages_t
FN:3023,_ZL16free_test_vectorP11test_vector
FNDA:0,_ZL16free_test_vectorP11test_vector
FN:3076,_ZL14print_ancestryP7nnode_ti
FNDA:0,_ZL14print_ancestryP7nnode_ti
FN:3164,_ZL18print_update_traceP7nnode_ti
FNDA:0,_ZL18print_update_traceP7nnode_ti
DA:43,0
DA:44,0
DA:55,0
DA:56,0
DA:58,0
DA:59,0
DA:61,0
DA:62,0
DA:63,0
DA:65,0
DA:68,0
DA:69,0
DA:71,0
DA:72,0
DA:73,0
DA:74,0
DA:75,0
DA:76,0
DA:79,0
DA:80,0
DA:83,0
DA:84,0
DA:87,0
DA:88,0
DA:98,0
DA:99,0
DA:102,0
DA:103,0
DA:104,0
DA:197,0
DA:198,0
DA:199,0
DA:200,0
DA:205,0
DA:206,0
DA:207,0
DA:208,0
DA:209,0
DA:212,0
DA:214,0
DA:215,0
DA:217,0
DA:219,0
DA:220,0
DA:221,0
DA:223,0
DA:224,0
DA:228,0
DA:230,0
DA:231,0
DA:236,0
DA:237,0
DA:238,0
DA:239,0
DA:241,0
DA:243,0
DA:245,0
DA:246,0
DA:247,0
DA:250,0
DA:251,0
DA:252,0
DA:253,0
DA:254,0
DA:257,0
DA:258,0
DA:259,0
DA:260,0
DA:261,0
DA:264,0
DA:265,0
DA:266,0
DA:267,0
DA:268,0
DA:271,0
DA:272,0
DA:273,0
DA:274,0
DA:275,0
DA:278,0
DA:279,0
DA:280,0
DA:282,0
DA:283,0
DA:284,0
DA:286,0
DA:291,0
DA:292,0
DA:293,0
DA:294,0
DA:297,0
DA:298,0
DA:301,0
DA:302,0
DA:304,0
DA:305,0
DA:309,0
DA:310,0
DA:312,0
DA:314,0
DA:315,0
DA:317,0
DA:321,0
DA:322,0
DA:324,0
DA:326,0
DA:327,0
DA:328,0
DA:331,0
DA:334,0
DA:335,0
DA:337,0
DA:339,0
DA:340,0
DA:342,0
DA:343,0
DA:344,0
DA:345,0
DA:347,0
DA:348,0
DA:349,0
DA:350,0
DA:353,0
DA:354,0
DA:356,0
DA:357,0
DA:359,0
DA:361,0
DA:362,0
DA:363,0
DA:364,0
DA:367,0
DA:368,0
DA:369,0
DA:370,0
DA:371,0
DA:372,0
DA:373,0
DA:374,0
DA:375,0
DA:377,0
DA:378,0
DA:382,0
DA:383,0
DA:387,0
DA:388,0
DA:390,0
DA:393,0
DA:396,0
DA:397,0
DA:399,0
DA:402,0
DA:403,0
DA:404,0
DA:407,0
DA:409,0
DA:414,0
DA:415,0
DA:419,0
DA:422,0
DA:423,0
DA:425,0
DA:426,0
DA:428,0
DA:430,0
DA:433,0
DA:434,0
DA:435,0
DA:436,0
DA:438,0
DA:441,0
DA:444,0
DA:445,0
DA:448,0
DA:450,0
DA:452,0
DA:454,0
DA:467,0
DA:468,0
DA:469,0
DA:470,0
DA:471,0
DA:473,0
DA:474,0
DA:475,0
DA:476,0
DA:478,0
DA:479,0
DA:481,0
DA:482,0
DA:484,0
DA:485,0
DA:486,0
DA:488,0
DA:489,0
DA:491,0
DA:492,0
DA:493,0
DA:495,0
DA:499,0
DA:500,0
DA:502,0
DA:504,0
DA:516,0
DA:517,0
DA:518,0
DA:519,0
DA:522,0
DA:523,0
DA:524,0
DA:526,0
DA:528,0
DA:537,0
DA:542,0
DA:543,0
DA:549,0
DA:550,0
DA:552,0
DA:555,0
DA:556,0
DA:557,0
DA:560,0
DA:561,0
DA:562,0
DA:564,0
DA:568,0
DA:571,0
DA:572,0
DA:573,0
DA:576,0
DA:579,0
DA:580,0
DA:581,0
DA:583,0
DA:584,0
DA:586,0
DA:587,0
DA:590,0
DA:596,0
DA:597,0
DA:608,0
DA:609,0
DA:612,0
DA:613,0
DA:614,0
DA:615,0
DA:620,0
DA:621,0
DA:622,0
DA:623,0
DA:624,0
DA:625,0
DA:632,0
DA:633,0
DA:634,0
DA:635,0
DA:637,0
DA:640,0
DA:641,0
DA:643,0
DA:644,0
DA:646,0
DA:647,0
DA:648,0
DA:651,0
DA:653,0
DA:656,0
DA:657,0
DA:661,0
DA:662,0
DA:664,0
DA:670,0
DA:671,0
DA:672,0
DA:673,0
DA:674,0
DA:675,0
DA:676,0
DA:677,0
DA:678,0
DA:679,0
DA:680,0
DA:681,0
DA:684,0
DA:685,0
DA:687,0
DA:688,0
DA:689,0
DA:690,0
DA:693,0
DA:694,0
DA:697,0
DA:700,0
DA:701,0
DA:702,0
DA:703,0
DA:707,0
DA:708,0
DA:709,0
DA:710,0
DA:711,0
DA:712,0
DA:713,0
DA:714,0
DA:716,0
DA:717,0
DA:721,0
DA:722,0
DA:725,0
DA:728,0
DA:730,0
DA:734,0
DA:736,0
DA:738,0
DA:740,0
DA:741,0
DA:742,0
DA:749,0
DA:751,0
DA:752,0
DA:753,0
DA:754,0
DA:755,0
DA:756,0
DA:757,0
DA:758,0
DA:759,0
DA:760,0
DA:761,0
DA:762,0
DA:763,0
DA:764,0
DA:765,0
DA:766,0
DA:767,0
DA:768,0
DA:769,0
DA:770,0
DA:771,0
DA:773,0
DA:774,0
DA:775,0
DA:776,0
DA:777,0
DA:778,0
DA:779,0
DA:780,0
DA:782,0
DA:784,0
DA:789,0
DA:790,0
DA:791,0
DA:792,0
DA:794,0
DA:797,0
DA:798,0
DA:799,0
DA:800,0
DA:801,0
DA:802,0
DA:803,0
DA:805,0
DA:807,0
DA:812,0
DA:813,0
DA:814,0
DA:815,0
DA:817,0
DA:820,0
DA:821,0
DA:822,0
DA:823,0
DA:824,0
DA:825,0
DA:826,0
DA:828,0
DA:830,0
DA:835,0
DA:836,0
DA:837,0
DA:838,0
DA:840,0
DA:843,0
DA:844,0
DA:845,0
DA:846,0
DA:847,0
DA:848,0
DA:849,0
DA:850,0
DA:851,0
DA:853,0
DA:855,0
DA:860,0
DA:861,0
DA:862,0
DA:863,0
DA:865,0
DA:868,0
DA:869,0
DA:870,0
DA:872,0
DA:873,0
DA:874,0
DA:876,0
DA:877,0
DA:878,0
DA:879,0
DA:881,0
DA:885,0
DA:886,0
DA:887,0
DA:889,0
DA:890,0
DA:891,0
DA:893,0
DA:894,0
DA:895,0
DA:896,0
DA:898,0
DA:902,0
DA:903,0
DA:904,0
DA:906,0
DA:907,0
DA:908,0
DA:910,0
DA:911,0
DA:912,0
DA:913,0
DA:914,0
DA:915,0
DA:916,0
DA:917,0
DA:919,0
DA:923,0
DA:924,0
DA:925,0
DA:927,0
DA:928,0
DA:929,0
DA:931,0
DA:932,0
DA:933,0
DA:934,0
DA:935,0
DA:936,0
DA:938,0
DA:942,0
DA:943,0
DA:944,0
DA:945,0
DA:946,0
DA:947,0
DA:948,0
DA:949,0
DA:950,0
DA:952,0
DA:955,0
DA:956,0
DA:959,0
DA:960,0
DA:961,0
DA:962,0
DA:964,0
DA:967,0
DA:968,0
DA:969,0
DA:970,0
DA:971,0
DA:972,0
DA:973,0
DA:974,0
DA:975,0
DA:977,0
DA:981,0
DA:983,0
DA:984,0
DA:985,0
DA:986,0
DA:988,0
DA:991,0
DA:992,0
DA:994,0
DA:996,0
DA:997,0
DA:998,0
DA:999,0
DA:1001,0
DA:1004,0
DA:1005,0
DA:1007,0
DA:1010,0
DA:1011,0
DA:1012,0
DA:1013,0
DA:1014,0
DA:1017,0
DA:1018,0
DA:1019,0
DA:1021,0
DA:1024,0
DA:1025,0
DA:1026,0
DA:1029,0
DA:1030,0
DA:1034,0
DA:1036,0
DA:1037,0
DA:1038,0
DA:1040,0
DA:1041,0
DA:1042,0
DA:1044,0
DA:1049,0
DA:1050,0
DA:1051,0
DA:1052,0
DA:1053,0
DA:1054,0
DA:1055,0
DA:1056,0
DA:1057,0
DA:1058,0
DA:1059,0
DA:1060,0
DA:1063,0
DA:1064,0
DA:1065,0
DA:1066,0
DA:1067,0
DA:1068,0
DA:1069,0
DA:1070,0
DA:1071,0
DA:1072,0
DA:1073,0
DA:1074,0
DA:1075,0
DA:1076,0
DA:1077,0
DA:1078,0
DA:1080,0
DA:1083,0
DA:1084,0
DA:1085,0
DA:1086,0
DA:1087,0
DA:1088,0
DA:1089,0
DA:1090,0
DA:1091,0
DA:1092,0
DA:1093,0
DA:1094,0
DA:1095,0
DA:1096,0
DA:1097,0
DA:1098,0
DA:1101,0
DA:1102,0
DA:1103,0
DA:1107,0
DA:1108,0
DA:1111,0
DA:1112,0
DA:1113,0
DA:1116,0
DA:1117,0
DA:1118,0
DA:1119,0
DA:1124,0
DA:1129,0
DA:1135,0
DA:1136,0
DA:1137,0
DA:1138,0
DA:1139,0
DA:1141,0
DA:1159,0
DA:1161,0
DA:1164,0
DA:1170,0
DA:1172,0
DA:1175,0
DA:1183,0
DA:1184,0
DA:1185,0
DA:1186,0
DA:1187,0
DA:1188,0
DA:1189,0
DA:1190,0
DA:1195,0
DA:1196,0
DA:1197,0
DA:1198,0
DA:1200,0
DA:1212,0
DA:1213,0
DA:1214,0
DA:1218,0
DA:1219,0
DA:1220,0
DA:1221,0
DA:1224,0
DA:1225,0
DA:1226,0
DA:1227,0
DA:1228,0
DA:1229,0
DA:1232,0
DA:1233,0
DA:1234,0
DA:1237,0
DA:1238,0
DA:1244,0
DA:1245,0
DA:1253,0
DA:1254,0
DA:1255,0
DA:1256,0
DA:1257,0
DA:1258,0
DA:1259,0
DA:1262,0
DA:1263,0
DA:1264,0
DA:1269,0
DA:1270,0
DA:1271,0
DA:1272,0
DA:1274,0
DA:1286,0
DA:1287,0
DA:1288,0
DA:1292,0
DA:1293,0
DA:1294,0
DA:1295,0
DA:1298,0
DA:1299,0
DA:1300,0
DA:1301,0
DA:1302,0
DA:1303,0
DA:1306,0
DA:1307,0
DA:1308,0
DA:1311,0
DA:1312,0
DA:1318,0
DA:1319,0
DA:1332,0
DA:1334,0
DA:1335,0
DA:1338,0
DA:1341,0
DA:1342,0
DA:1343,0
DA:1346,0
DA:1348,0
DA:1349,0
DA:1350,0
DA:1352,0
DA:1362,0
DA:1363,0
DA:1364,0
DA:1365,0
DA:1366,0
DA:1368,0
DA:1369,0
DA:1374,0
DA:1375,0
DA:1376,0
DA:1379,0
DA:1380,0
DA:1381,0
DA:1383,0
DA:1389,0
DA:1390,0
DA:1391,0
DA:1393,0
DA:1399,0
DA:1400,0
DA:1402,0
DA:1403,0
DA:1404,0
DA:1405,0
DA:1406,0
DA:1408,0
DA:1409,0
DA:1410,0
DA:1415,0
DA:1416,0
DA:1417,0
DA:1418,0
DA:1420,0
DA:1423,0
DA:1424,0
DA:1425,0
DA:1426,0
DA:1427,0
DA:1428,0
DA:1429,0
DA:1431,0
DA:1433,0
DA:1434,0
DA:1440,0
DA:1441,0
DA:1445,0
DA:1446,0
DA:1447,0
DA:1450,0
DA:1453,0
DA:1458,0
DA:1459,0
DA:1461,0
DA:1464,0
DA:1465,0
DA:1467,0
DA:1468,0
DA:1474,0
DA:1476,0
DA:1479,0
DA:1480,0
DA:1481,0
DA:1484,0
DA:1485,0
DA:1487,0
DA:1488,0
DA:1490,0
DA:1491,0
DA:1494,0
DA:1496,0
DA:1498,0
DA:1499,0
DA:1502,0
DA:1504,0
DA:1506,0
DA:1507,0
DA:1508,0
DA:1511,0
DA:1513,0
DA:1514,0
DA:1515,0
DA:1519,0
DA:1520,0
DA:1522,0
DA:1524,0
DA:1525,0
DA:1527,0
DA:1528,0
DA:1534,0
DA:1539,0
DA:1540,0
DA:1541,0
DA:1543,0
DA:1544,0
DA:1545,0
DA:1546,0
DA:1547,0
DA:1553,0
DA:1554,0
DA:1555,0
DA:1557,0
DA:1558,0
DA:1560,0
DA:1561,0
DA:1563,0
DA:1564,0
DA:1566,0
DA:1568,0
DA:1569,0
DA:1571,0
DA:1572,0
DA:1573,0
DA:1575,0
DA:1578,0
DA:1579,0
DA:1580,0
DA:1582,0
DA:1583,0
DA:1584,0
DA:1588,0
DA:1590,0
DA:1591,0
DA:1592,0
DA:1593,0
DA:1596,0
DA:1600,0
DA:1603,0
DA:1604,0
DA:1605,0
DA:1607,0
DA:1609,0
DA:1610,0
DA:1612,0
DA:1623,0
DA:1624,0
DA:1625,0
DA:1627,0
DA:1628,0
DA:1629,0
DA:1631,0
DA:1632,0
DA:1635,0
DA:1636,0
DA:1637,0
DA:1638,0
DA:1641,0
DA:1763,0
DA:1764,0
DA:1765,0
DA:1767,0
DA:1768,0
DA:1769,0
DA:1770,0
DA:1771,0
DA:1777,0
DA:1778,0
DA:1779,0
DA:1781,0
DA:1782,0
DA:1784,0
DA:1785,0
DA:1787,0
DA:1788,0
DA:1789,0
DA:1791,0
DA:1793,0
DA:1795,0
DA:1796,0
DA:1798,0
DA:1800,0
DA:1801,0
DA:1802,0
DA:1804,0
DA:1838,0
DA:1839,0
DA:1840,0
DA:1841,0
DA:1842,0
DA:1844,0
DA:1846,0
DA:1864,0
DA:1865,0
DA:1869,0
DA:1870,0
DA:1873,0
DA:1874,0
DA:1876,0
DA:1879,0
DA:1880,0
DA:1881,0
DA:1884,0
DA:1890,0
DA:1891,0
DA:1893,0
DA:1898,0
DA:1899,0
DA:1901,0
DA:1903,0
DA:1904,0
DA:1906,0
DA:1908,0
DA:1909,0
DA:1914,0
DA:1915,0
DA:1916,0
DA:1918,0
DA:1919,0
DA:1920,0
DA:1921,0
DA:1923,0
DA:1924,0
DA:1926,0
DA:1927,0
DA:1933,0
DA:1934,0
DA:1935,0
DA:1936,0
DA:1937,0
DA:1938,0
DA:1939,0
DA:1940,0
DA:1942,0
DA:1943,0
DA:1945,0
DA:1947,0
DA:1949,0
DA:1950,0
DA:1953,0
DA:1954,0
DA:1956,0
DA:1958,0
DA:1959,0
DA:1960,0
DA:1962,0
DA:1963,0
DA:1965,0
DA:1966,0
DA:1968,0
DA:1969,0
DA:1970,0
DA:1972,0
DA:1974,0
DA:1977,0
DA:1979,0
DA:1980,0
DA:1982,0
DA:1986,0
DA:1987,0
DA:1989,0
DA:1991,0
DA:1993,0
DA:1994,0
DA:1996,0
DA:1997,0
DA:1999,0
DA:2000,0
DA:2002,0
DA:2003,0
DA:2006,0
DA:2007,0
DA:2009,0
DA:2018,0
DA:2019,0
DA:2020,0
DA:2021,0
DA:2024,0
DA:2025,0
DA:2026,0
DA:2029,0
DA:2032,0
DA:2035,0
DA:2036,0
DA:2037,0
DA:2039,0
DA:2040,0
DA:2041,0
DA:2044,0
DA:2045,0
DA:2046,0
DA:2048,0
DA:2049,0
DA:2050,0
DA:2051,0
DA:2055,0
DA:2056,0
DA:2057,0
DA:2058,0
DA:2059,0
DA:2060,0
DA:2063,0
DA:2064,0
DA:2065,0
DA:2066,0
DA:2067,0
DA:2068,0
DA:2074,0
DA:2077,0
DA:2081,0
DA:2084,0
DA:2086,0
DA:2092,0
DA:2094,0
DA:2095,0
DA:2096,0
DA:2097,0
DA:2101,0
DA:2102,0
DA:2103,0
DA:2104,0
DA:2106,0
DA:2107,0
DA:2110,0
DA:2111,0
DA:2113,0
DA:2114,0
DA:2115,0
DA:2118,0
DA:2119,0
DA:2120,0
DA:2121,0
DA:2124,0
DA:2125,0
DA:2128,0
DA:2130,0
DA:2135,0
DA:2137,0
DA:2138,0
DA:2141,0
DA:2142,0
DA:2143,0
DA:2146,0
DA:2147,0
DA:2148,0
DA:2154,0
DA:2155,0
DA:2156,0
DA:2157,0
DA:2158,0
DA:2166,0
DA:2167,0
DA:2168,0
DA:2169,0
DA:2171,0
DA:2172,0
DA:2174,0
DA:2175,0
DA:2176,0
DA:2177,0
DA:2179,0
DA:2180,0
DA:2181,0
DA:2182,0
DA:2184,0
DA:2189,0
DA:2190,0
DA:2192,0
DA:2194,0
DA:2201,0
DA:2202,0
DA:2203,0
DA:2204,0
DA:2205,0
DA:2206,0
DA:2214,0
DA:2215,0
DA:2216,0
DA:2219,0
DA:2220,0
DA:2221,0
DA:2222,0
DA:2225,0
DA:2226,0
DA:2227,0
DA:2228,0
DA:2229,0
DA:2231,0
DA:2232,0
DA:2233,0
DA:2234,0
DA:2235,0
DA:2236,0
DA:2237,0
DA:2238,0
DA:2243,0
DA:2244,0
DA:2246,0
DA:2247,0
DA:2251,0
DA:2254,0
DA:2255,0
DA:2294,0
DA:2295,0
DA:2297,0
DA:2298,0
DA:2299,0
DA:2300,0
DA:2301,0
DA:2303,0
DA:2305,0
DA:2362,0
DA:2363,0
DA:2364,0
DA:2365,0
DA:2366,0
DA:2370,0
DA:2372,0
DA:2373,0
DA:2374,0
DA:2386,0
DA:2387,0
DA:2388,0
DA:2389,0
DA:2390,0
DA:2401,0
DA:2402,0
DA:2403,0
DA:2404,0
DA:2405,0
DA:2406,0
DA:2408,0
DA:2410,0
DA:2411,0
DA:2412,0
DA:2413,0
DA:2414,0
DA:2415,0
DA:2416,0
DA:2418,0
DA:2419,0
DA:2420,0
DA:2421,0
DA:2422,0
DA:2423,0
DA:2424,0
DA:2426,0
DA:2427,0
DA:2428,0
DA:2429,0
DA:2430,0
DA:2431,0
DA:2432,0
DA:2434,0
DA:2435,0
DA:2439,0
DA:2440,0
DA:2441,0
DA:2442,0
DA:2444,0
DA:2445,0
DA:2447,0
DA:2448,0
DA:2451,0
DA:2452,0
DA:2454,0
DA:2455,0
DA:2463,0
DA:2464,0
DA:2467,0
DA:2470,0
DA:2471,0
DA:2473,0
DA:2474,0
DA:2475,0
DA:2476,0
DA:2478,0
DA:2561,0
DA:2562,0
DA:2563,0
DA:2565,0
DA:2566,0
DA:2692,0
DA:2693,0
DA:2696,0
DA:2697,0
DA:2698,0
DA:2705,0
DA:2706,0
DA:2709,0
DA:2710,0
DA:2711,0
DA:2712,0
DA:2713,0
DA:2719,0
DA:2720,0
DA:2721,0
DA:2722,0
DA:2724,0
DA:2725,0
DA:2726,0
DA:2730,0
DA:2731,0
DA:2732,0
DA:2742,0
DA:2743,0
DA:2745,0
DA:2748,0
DA:2749,0
DA:2750,0
DA:2751,0
DA:2752,0
DA:2757,0
DA:2758,0
DA:2759,0
DA:2760,0
DA:2767,0
DA:2768,0
DA:2773,0
DA:2774,0
DA:2775,0
DA:2778,0
DA:2779,0
DA:2781,0
DA:2788,0
DA:2789,0
DA:2790,0
DA:2796,0
DA:2797,0
DA:2799,0
DA:2800,0
DA:2801,0
DA:2806,0
DA:2809,0
DA:2810,0
DA:2811,0
DA:2816,0
DA:2821,0
DA:2822,0
DA:2823,0
DA:2830,0
DA:2831,0
DA:2833,0
DA:2834,0
DA:2835,0
DA:2836,0
DA:2838,0
DA:2840,0
DA:2841,0
DA:2842,0
DA:2843,0
DA:2845,0
DA:2846,0
DA:2850,0
DA:2895,0
DA:2896,0
DA:2902,0
DA:2903,0
DA:2906,0
DA:2907,0
DA:2908,0
DA:2910,0
DA:2911,0
DA:2913,0
DA:2915,0
DA:2921,0
DA:2922,0
DA:2924,0
DA:2925,0
DA:2926,0
DA:2927,0
DA:2928,0
DA:2930,0
DA:2931,0
DA:2933,0
DA:2935,0
DA:2942,0
DA:2943,0
DA:2944,0
DA:2946,0
DA:2947,0
DA:2948,0
DA:2950,0
DA:2951,0
DA:2961,0
DA:2962,0
DA:2964,0
DA:2967,0
DA:2968,0
DA:2977,0
DA:2978,0
DA:2979,0
DA:2980,0
DA:2981,0
DA:2982,0
DA:2983,0
DA:2984,0
DA:2985,0
DA:2986,0
DA:2987,0
DA:2988,0
DA:2992,0
DA:2994,0
DA:2996,0
DA:3001,0
DA:3002,0
DA:3003,0
DA:3005,0
DA:3006,0
DA:3007,0
DA:3008,0
DA:3010,0
DA:3013,0
DA:3014,0
DA:3016,0
DA:3018,0
DA:3023,0
DA:3024,0
DA:3025,0
DA:3026,0
DA:3027,0
DA:3028,0
DA:3030,0
DA:3033,0
DA:3034,0
DA:3035,0
DA:3037,0
DA:3076,0
DA:3077,0
DA:3079,0
DA:3080,0
DA:3081,0
DA:3082,0
DA:3083,0
DA:3085,0
DA:3086,0
DA:3087,0
DA:3088,0
DA:3089,0
DA:3090,0
DA:3092,0
DA:3093,0
DA:3094,0
DA:3095,0
DA:3096,0
DA:3097,0
DA:3098,0
DA:3099,0
DA:3100,0
DA:3148,0
DA:3151,0
DA:3152,0
DA:3153,0
DA:3164,0
DA:3166,0
DA:3167,0
DA:3177,0
DA:3180,0
DA:3182,0
DA:3183,0
DA:3186,0
DA:3187,0
DA:3188,0
DA:3189,0
DA:3190,0
DA:3191,0
DA:3192,0
DA:3193,0
DA:3194,0
DA:3195,0
DA:3198,0
DA:3199,0
DA:3200,0
DA:3201,0
DA:3204,0
DA:3205,0
DA:3207,0
DA:3208,0
DA:3209,0
DA:3213,0
DA:3214,0
DA:3215,0
DA:3217,0
DA:3219,0
DA:3220,0
DA:3224,0
DA:3225,0
DA:3226,0
DA:3235,0
end_of_record
SF:/usr/include/c++/9/ostream
end_of_record
SF:/usr/include/c++/9/bits/allocator.h
DA:138,0
DA:141,0
DA:142,0
DA:151,0
DA:153,0
end_of_record
SF:/usr/include/c++/9/ext/alloc_traits.h
DA:97,0
DA:98,0
end_of_record
SF:/workspace/vtr-verilog-to-routing/ODIN_II/SRC/include/odin_buffer.hpp
FN:20,_ZN16dynamic_buffer_t4pushEc
FNDA:0,_ZN16dynamic_buffer_t4pushEc
FN:82,_ZN17buffered_reader_tC2EP8_IO_FILEPKcS3_S3_
FNDA:0,_ZN17buffered_reader_tC2EP8_IO_FILEPKcS3_S3_
FN:110,_ZN17buffered_reader_t8get_lineEv
FNDA:0,_ZN17buffered_reader_t8get_lineEv
DA:20,0
DA:21,0
DA:22,0
DA:23,0
DA:26,0
DA:27,0
DA:28,0
DA:30,0
DA:31,0
DA:32,0
DA:33,0
DA:55,0
DA:56,0
DA:59,0
DA:60,0
DA:63,0
DA:64,0
DA:67,0
DA:68,0
DA:71,0
DA:72,0
DA:75,0
DA:76,0
DA:82,0
DA:83,0
DA:85,0
DA:86,0
DA:87,0
DA:90,0
DA:91,0
DA:92,0
DA:94,0
DA:95,0
DA:98,0
DA:99,0
DA:100,0
DA:101,0
DA:102,0
DA:110,0
DA:111,0
DA:113,0
DA:114,0
DA:116,0
DA:118,0
DA:119,0
DA:120,0
DA:122,0
DA:125,0
DA:126,0
DA:127,0
DA:128,0
DA:130,0
DA:131,0
DA:134,0
DA:136,0
DA:137,0
DA:139,0
DA:140,0
DA:141,0
DA:142,0
DA:143,0
DA:144,0
DA:146,0
DA:148,0
DA:150,0
DA:151,0
DA:152,0
DA:153,0
DA:154,0
DA:155,0
DA:156,0
DA:157,0
DA:161,0
DA:163,0
DA:165,0
DA:168,0
end_of_record
SF:/usr/include/c++/9/bits/stl_function.h
DA:355,0
DA:356,0
end_of_record
SF:/usr/include/c++/9/atomic
DA:80,0
DA:81,0
DA:120,0
DA:121,0
end_of_record
SF:/usr/include/c++/9/bits/cpp_type_traits.h
DA:428,0
end_of_record
SF:/usr/include/c++/9/bits/shared_ptr_base.h
FN:131,_ZNSt16_Sp_counted_baseILN9__gnu_cxx12_Lock_policyE2EE10_M_destroyEv
FNDA:0,_ZNSt16_Sp_counted_baseILN9__gnu_cxx12_Lock_policyE2EE10_M_destroyEv
FN:148,_ZNSt16_Sp_counted_baseILN9__gnu_cxx12_Lock_policyE2EE10_M_releaseEv
FNDA:0,_ZNSt16_Sp_counted_baseILN9__gnu_cxx12_Lock_policyE2EE10_M_releaseEv
FN:404,_ZNSt15_Sp_counted_ptrIDnLN9__gnu_cxx12_Lock_policyE2EE10_M_disposeEv
FNDA:0,_ZNSt15_Sp_counted_ptrIDnLN9__gnu_cxx12_Lock_policyE2EE10_M_disposeEv
FN:552,_ZNSt23_Sp_counted_ptr_inplaceI12AtomicBufferSaIS0_ELN9__gnu_cxx12_Lock_policyE2EED0Ev
FNDA:0,_ZNSt23_Sp_counted_ptr_inplaceI12AtomicBufferSaIS0_ELN9__gnu_cxx12_Lock_policyE2EED0Ev
FN:552,_ZNSt23_Sp_counted_ptr_inplaceI12AtomicBufferSaIS0_ELN9__gnu_cxx12_Lock_policyE2EED2Ev
FNDA:0,_ZNSt23_Sp_counted_ptr_inplaceI12AtomicBufferSaIS0_ELN9__gnu_cxx12_Lock_policyE2EED2Ev
FN:555,_ZNSt23_Sp_counted_ptr_inplaceI12AtomicBufferSaIS0_ELN9__gnu_cxx12_Lock_policyE2EE10_M_disposeEv
FNDA:0,_ZNSt23_Sp_counted_ptr_inplaceI12AtomicBufferSaIS0_ELN9__gnu_cxx12_Lock_policyE2EE10_M_disposeEv
FN:562,_ZNSt23_Sp_counted_ptr_inplaceI12AtomicBufferSaIS0_ELN9__gnu_cxx12_Lock_policyE2EE10_M_destroyEv
FNDA:0,_ZNSt23_Sp_counted_ptr_inplaceI12AtomicBufferSaIS0_ELN9__gnu_cxx12_Lock_policyE2EE10_M_destroyEv
FN:575,_ZNSt23_Sp_counted_ptr_inplaceI12AtomicBufferSaIS0_ELN9__gnu_cxx12_Lock_policyE2EE14_M_get_deleterERKSt9type_info
FNDA:0,_ZNSt23_Sp_counted_ptr_inplaceI12AtomicBufferSaIS0_ELN9__gnu_cxx12_Lock_policyE2EE14_M_get_deleterERKSt9type_info
FN:672,_ZNSt14__shared_countILN9__gnu_cxx12_Lock_policyE2EEC2I12AtomicBufferSaIS4_EJaEEERPT_St20_Sp_alloc_shared_tagIT0_EDpOT1_
FNDA:0,_ZNSt14__shared_countILN9__gnu_cxx12_Lock_policyE2EEC2I12AtomicBufferSaIS4_EJaEEERPT_St20_Sp_alloc_shared_tagIT0_EDpOT1_
DA:117,0
DA:118,0
DA:121,0
DA:131,0
DA:132,0
DA:148,0
DA:152,0
DA:155,0
DA:167,0
DA:171,0
DA:174,0
DA:404,0
DA:412,0
DA:414,0
DA:418,0
DA:508,0
DA:510,0
DA:511,0
DA:526,0
DA:531,0
DA:533,0
DA:543,0
DA:544,0
DA:548,0
DA:552,0
DA:552,0
DA:552,0
DA:555,0
DA:557,0
DA:558,0
DA:562,0
DA:564,0
DA:565,0
DA:566,0
DA:567,0
DA:575,0
DA:577,0
DA:583,0
DA:585,0
DA:590,0
DA:594,0
DA:616,0
DA:672,0
DA:676,0
DA:677,0
DA:678,0
DA:679,0
DA:680,0
DA:681,0
DA:682,0
DA:683,0
DA:684,0
DA:727,0
DA:729,0
DA:730,0
DA:756,0
DA:758,0
DA:759,0
DA:1012,0
DA:1015,0
DA:1020,0
DA:1021,0
DA:1080,0
DA:1169,0
DA:1176,0
DA:1177,0
DA:1179,0
DA:1180,0
DA:1263,0
DA:1265,0
DA:1309,0
DA:1312,0
DA:1324,0
DA:1326,0
DA:1327,0
DA:1343,0
DA:1344,0
DA:1345,0
DA:1388,0
end_of_record
SF:/usr/include/c++/9/tuple
DA:76,0
DA:113,0
DA:122,0
DA:125,0
DA:126,0
DA:132,0
DA:133,0
DA:160,0
DA:195,0
DA:201,0
DA:206,0
DA:207,0
DA:216,0
DA:218,0
DA:227,0
DA:230,0
DA:231,0
DA:334,0
DA:339,0
DA:340,0
DA:348,0
DA:349,0
DA:358,0
DA:360,0
DA:626,0
DA:627,0
DA:642,0
DA:918,0
DA:919,0
DA:1309,0
DA:1310,0
DA:1320,0
DA:1321,0
DA:1332,0
DA:1335,0
end_of_record
TN:
SF:/usr/include/x86_64-linux-gnu/bits/string_fortified.h
DA:31,0
DA:34,0
DA:59,0
DA:71,0
end_of_record
SF:/workspace/vtr-verilog-to-routing/ODIN_II/SRC/string_cache.cpp
FN:15,_Z11string_hashP12STRING_CACHEPKc
FNDA:0,_Z11string_hashP12STRING_CACHEPKc
FN:27,_Z16generate_sc_hashP12STRING_CACHE
FNDA:0,_Z16generate_sc_hashP12STRING_CACHE
FN:48,_Z19sc_new_string_cachev
FNDA:0,_Z19sc_new_string_cachev
FN:65,_Z16sc_lookup_stringP12STRING_CACHEPKc
FNDA:0,_Z16sc_lookup_stringP12STRING_CACHEPKc
FN:83,_Z16sc_remove_stringP12STRING_CACHEPKc
FNDA:0,_Z16sc_remove_stringP12STRING_CACHEPKc
FN:107,_Z13sc_add_stringP12STRING_CACHEPKc
FNDA:0,_Z13sc_add_stringP12STRING_CACHEPKc
FN:143,_Z11sc_valid_idP12STRING_CACHEl
FNDA:0,_Z11sc_valid_idP12STRING_CACHEl
FN:152,_Z11sc_do_allocll
FNDA:0,_Z11sc_do_allocll
FN:170,_Z20sc_free_string_cacheP12STRING_CACHE
FNDA:0,_Z20sc_free_string_cacheP12STRING_CACHE
FN:205,_Z21sc_merge_string_cachePP12STRING_CACHES0_
FNDA:0,_Z21sc_merge_string_cachePP12STRING_CACHES0_
DA:15,0
DA:17,0
DA:19,0
DA:20,0
DA:21,0
DA:22,0
DA:23,0
DA:24,0
DA:27,0
DA:28,0
DA:29,0
DA:31,0
DA:32,0
DA:33,0
DA:34,0
DA:35,0
DA:36,0
DA:37,0
DA:38,0
DA:39,0
DA:40,0
DA:41,0
DA:42,0
DA:43,0
DA:45,0
DA:48,0
DA:49,0
DA:51,0
DA:52,0
DA:53,0
DA:54,0
DA:55,0
DA:56,0
DA:57,0
DA:58,0
DA:59,0
DA:60,0
DA:61,0
DA:62,0
DA:65,0
DA:67,0
DA:69,0
DA:72,0
DA:73,0
DA:74,0
DA:75,0
DA:76,0
DA:77,0
DA:83,0
DA:85,0
DA:87,0
DA:88,0
DA:89,0
DA:90,0
DA:91,0
DA:92,0
DA:93,0
DA:94,0
DA:95,0
DA:97,0
DA:98,0
DA:100,0
DA:107,0
DA:109,0
DA:110,0
DA:111,0
DA:113,0
DA:114,0
DA:116,0
DA:117,0
DA:119,0
DA:120,0
DA:121,0
DA:122,0
DA:123,0
DA:125,0
DA:126,0
DA:127,0
DA:128,0
DA:129,0
DA:131,0
DA:133,0
DA:134,0
DA:135,0
DA:136,0
DA:137,0
DA:138,0
DA:139,0
DA:140,0
DA:143,0
DA:145,0
DA:147,0
DA:148,0
DA:152,0
DA:154,0
DA:156,0
DA:158,0
DA:160,0
DA:161,0
DA:162,0
DA:165,0
DA:167,0
DA:170,0
DA:171,0
DA:172,0
DA:173,0
DA:174,0
DA:175,0
DA:177,0
DA:179,0
DA:181,0
DA:183,0
DA:184,0
DA:186,0
DA:188,0
DA:189,0
DA:191,0
DA:193,0
DA:194,0
DA:196,0
DA:198,0
DA:200,0
DA:202,0
DA:205,0
DA:206,0
DA:207,0
DA:208,0
DA:209,0
DA:211,0
DA:215,0
DA:216,0
DA:217,0
end_of_record
SF:/usr/include/x86_64-linux-gnu/bits/stdio2.h
DA:98,0
DA:100,0
end_of_record
TN:
SF:/usr/include/x86_64-linux-gnu/bits/stdio2.h
DA:105,0
DA:107,0
end_of_record
SF:/usr/include/c++/9/iostream
end_of_record
SF:/workspace/vtr-verilog-to-routing/ODIN_II/SRC/subtractions.cpp
FN:58,_Z23report_sub_distributionv
FNDA:0,_Z23report_sub_distributionv
FN:82,_Z26declare_hard_adder_for_subP7nnode_t
FNDA:0,_Z26declare_hard_adder_for_subP7nnode_t
FN:117,_Z34instantiate_hard_adder_subtractionP7nnode_tsP9netlist_t
FNDA:0,_Z34instantiate_hard_adder_subtractionP7nnode_tsP9netlist_t
FN:160,_Z24init_split_adder_for_subP7nnode_tS0_iiiiiiii
FNDA:0,_Z24init_split_adder_for_subP7nnode_tS0_iiiiiiii
FN:326,_Z19split_adder_for_subP7nnode_tiiiiiiiP9netlist_t
FNDA:0,_Z19split_adder_for_subP7nnode_tiiiiiiiP9netlist_t
FN:577,_Z22iterate_adders_for_subP9netlist_t
FNDA:0,_Z22iterate_adders_for_subP9netlist_t
FN:646,_Z20clean_adders_for_subv
FNDA:0,_Z20clean_adders_for_subv
DA:58,0
DA:59,0
DA:62,0
DA:63,0
DA:64,0
DA:65,0
DA:67,0
DA:68,0
DA:70,0
DA:71,0
DA:73,0
DA:74,0
DA:82,0
DA:83,0
DA:84,0
DA:87,0
DA:88,0
DA:90,0
DA:91,0
DA:92,0
DA:93,0
DA:95,0
DA:96,0
DA:99,0
DA:103,0
DA:104,0
DA:105,0
DA:106,0
DA:107,0
DA:108,0
DA:109,0
DA:110,0
DA:111,0
DA:117,0
DA:118,0
DA:119,0
DA:121,0
DA:124,0
DA:125,0
DA:126,0
DA:130,0
DA:134,0
DA:135,0
DA:138,0
DA:139,0
DA:142,0
DA:143,0
DA:144,0
DA:145,0
DA:146,0
DA:147,0
DA:151,0
DA:152,0
DA:160,0
DA:161,0
DA:162,0
DA:163,0
DA:164,0
DA:165,0
DA:170,0
DA:173,0
DA:174,0
DA:175,0
DA:176,0
DA:179,0
DA:180,0
DA:181,0
DA:182,0
DA:184,0
DA:188,0
DA:189,0
DA:190,0
DA:194,0
DA:197,0
DA:198,0
DA:201,0
DA:205,0
DA:206,0
DA:207,0
DA:208,0
DA:209,0
DA:210,0
DA:211,0
DA:212,0
DA:215,0
DA:216,0
DA:218,0
DA:221,0
DA:222,0
DA:225,0
DA:226,0
DA:227,0
DA:228,0
DA:229,0
DA:230,0
DA:231,0
DA:232,0
DA:233,0
DA:234,0
DA:235,0
DA:236,0
DA:237,0
DA:238,0
DA:240,0
DA:241,0
DA:244,0
DA:245,0
DA:246,0
DA:247,0
DA:249,0
DA:250,0
DA:253,0
DA:254,0
DA:255,0
DA:256,0
DA:257,0
DA:258,0
DA:259,0
DA:260,0
DA:264,0
DA:265,0
DA:266,0
DA:267,0
DA:271,0
DA:272,0
DA:273,0
DA:274,0
DA:275,0
DA:278,0
DA:279,0
DA:280,0
DA:281,0
DA:282,0
DA:288,0
DA:289,0
DA:292,0
DA:293,0
DA:297,0
DA:298,0
DA:299,0
DA:301,0
DA:303,0
DA:304,0
DA:305,0
DA:306,0
DA:308,0
DA:326,0
DA:327,0
DA:328,0
DA:329,0
DA:330,0
DA:331,0
DA:332,0
DA:337,0
DA:340,0
DA:341,0
DA:342,0
DA:344,0
DA:345,0
DA:348,0
DA:349,0
DA:351,0
DA:352,0
DA:353,0
DA:354,0
DA:355,0
DA:357,0
DA:358,0
DA:361,0
DA:362,0
DA:363,0
DA:364,0
DA:365,0
DA:366,0
DA:367,0
DA:369,0
DA:373,0
DA:374,0
DA:377,0
DA:379,0
DA:380,0
DA:383,0
DA:384,0
DA:388,0
DA:391,0
DA:394,0
DA:396,0
DA:397,0
DA:399,0
DA:400,0
DA:401,0
DA:402,0
DA:404,0
DA:405,0
DA:408,0
DA:409,0
DA:410,0
DA:411,0
DA:412,0
DA:413,0
DA:414,0
DA:415,0
DA:417,0
DA:420,0
DA:421,0
DA:424,0
DA:425,0
DA:428,0
DA:429,0
DA:430,0
DA:431,0
DA:432,0
DA:433,0
DA:434,0
DA:435,0
DA:437,0
DA:441,0
DA:442,0
DA:443,0
DA:446,0
DA:447,0
DA:450,0
DA:451,0
DA:452,0
DA:453,0
DA:454,0
DA:455,0
DA:456,0
DA:457,0
DA:459,0
DA:463,0
DA:464,0
DA:465,0
DA:466,0
DA:467,0
DA:468,0
DA:469,0
DA:470,0
DA:471,0
DA:473,0
DA:479,0
DA:481,0
DA:482,0
DA:484,0
DA:485,0
DA:489,0
DA:490,0
DA:492,0
DA:496,0
DA:497,0
DA:498,0
DA:499,0
DA:500,0
DA:501,0
DA:503,0
DA:509,0
DA:510,0
DA:512,0
DA:513,0
DA:514,0
DA:515,0
DA:517,0
DA:519,0
DA:523,0
DA:524,0
DA:525,0
DA:527,0
DA:529,0
DA:534,0
DA:536,0
DA:537,0
DA:538,0
DA:539,0
DA:541,0
DA:543,0
DA:548,0
DA:550,0
DA:555,0
DA:556,0
DA:557,0
DA:560,0
DA:561,0
DA:562,0
DA:563,0
DA:564,0
DA:565,0
DA:577,0
DA:578,0
DA:579,0
DA:580,0
DA:581,0
DA:582,0
DA:584,0
DA:587,0
DA:591,0
DA:592,0
DA:593,0
DA:595,0
DA:597,0
DA:598,0
DA:599,0
DA:601,0
DA:602,0
DA:604,0
DA:605,0
DA:606,0
DA:609,0
DA:611,0
DA:613,0
DA:614,0
DA:616,0
DA:618,0
DA:619,0
DA:621,0
DA:623,0
DA:627,0
DA:629,0
DA:633,0
DA:646,0
DA:647,0
DA:648,0
DA:649,0
DA:650,0
DA:651,0
end_of_record
